   1              		.cpu cortex-m4
   2              		.eabi_attribute 20, 1
   3              		.eabi_attribute 21, 1
   4              		.eabi_attribute 23, 3
   5              		.eabi_attribute 24, 1
   6              		.eabi_attribute 25, 1
   7              		.eabi_attribute 26, 1
   8              		.eabi_attribute 30, 6
   9              		.eabi_attribute 34, 1
  10              		.eabi_attribute 18, 4
  11              		.file	"acmotor.c"
  12              		.text
  13              	.Ltext0:
  14              		.cfi_sections	.debug_frame
  15              		.comm	heat_motor_state,1,1
  16              		.comm	grind_motor_state,1,1
  17              		.comm	pumb_motor_state,1,1
  18              		.comm	pumb_motor_duty,1,1
  19              		.comm	pumb_motor_mode,1,1
  20              		.comm	motor_error,1,1
  21              		.comm	steam_cycle_counter,2,2
  22              		.global	target_phase_delay_us
  23              		.section	.bss.target_phase_delay_us,"aw",%nobits
  24              		.align	1
  27              	target_phase_delay_us:
  28 0000 0000     		.space	2
  29              		.global	current_phase_delay_us
  30              		.section	.bss.current_phase_delay_us,"aw",%nobits
  31              		.align	1
  34              	current_phase_delay_us:
  35 0000 0000     		.space	2
  36              		.global	target_speed_rpm
  37              		.section	.bss.target_speed_rpm,"aw",%nobits
  38              		.align	1
  41              	target_speed_rpm:
  42 0000 0000     		.space	2
  43              		.global	current_speed_rpm
  44              		.section	.bss.current_speed_rpm,"aw",%nobits
  45              		.align	1
  48              	current_speed_rpm:
  49 0000 0000     		.space	2
  50              		.global	last_zero_cross_tick_ms
  51              		.section	.bss.last_zero_cross_tick_ms,"aw",%nobits
  52              		.align	2
  55              	last_zero_cross_tick_ms:
  56 0000 00000000 		.space	4
  57              		.global	last_feedback_tick_ms
  58              		.section	.bss.last_feedback_tick_ms,"aw",%nobits
  59              		.align	2
  62              	last_feedback_tick_ms:
  63 0000 00000000 		.space	4
  64              		.global	last_capture_value
  65              		.section	.bss.last_capture_value,"aw",%nobits
  66              		.align	2
  69              	last_capture_value:
  70 0000 00000000 		.space	4
  71              		.global	current_period_us
  72              		.section	.bss.current_period_us,"aw",%nobits
  73              		.align	2
  76              	current_period_us:
  77 0000 00000000 		.space	4
  78              		.section	.text.ac_motor_gpio_init,"ax",%progbits
  79              		.align	1
  80              		.arch armv7e-m
  81              		.syntax unified
  82              		.thumb
  83              		.thumb_func
  84              		.fpu softvfp
  86              	ac_motor_gpio_init:
  87              	.LFB116:
  88              		.file 1 "../app/acmotor.c"
   1:../app/acmotor.c **** /**
   2:../app/acmotor.c ****   * @file    ac_motor_driver.c
   3:../app/acmotor.c ****   * @brief   AC Motor Driver - Enhanced Stability & Reliability
   4:../app/acmotor.c ****   * @version 2.0
   5:../app/acmotor.c ****   */
   6:../app/acmotor.c **** #define _ACMOTOR_C_
   7:../app/acmotor.c **** #include <stdlib.h>
   8:../app/acmotor.c **** #include "systick.h"
   9:../app/acmotor.c **** #include "gd32f30x.h"
  10:../app/acmotor.c **** #include "os_lyh_core.h"
  11:../app/acmotor.c **** #include "configboard.h"
  12:../app/acmotor.c **** #include "acmotor.h"
  13:../app/acmotor.c **** 
  14:../app/acmotor.c **** /*============================ Macro Definitions ============================*/
  15:../app/acmotor.c **** /* Pin Definitions */
  16:../app/acmotor.c **** #define AC_PUMB_DRV_PIN       GPIO_PIN_6      /* PB6 - Motor drive output */
  17:../app/acmotor.c **** #define AC_PUMB_DRV_PORT      GPIOB
  18:../app/acmotor.c **** #define AC_PUMB_DRV_CLK       RCU_GPIOB
  19:../app/acmotor.c **** 
  20:../app/acmotor.c **** #define AC_HEAT_DRV_PIN       GPIO_PIN_7      /* PB7 - Heatr drive output */
  21:../app/acmotor.c **** #define AC_HEAT_DRV_PORT      GPIOB
  22:../app/acmotor.c **** #define AC_HEAT_DRV_CLK       RCU_GPIOB
  23:../app/acmotor.c **** 
  24:../app/acmotor.c **** #define AC_ZERO_CROSS_PIN      GPIO_PIN_9      /* PB9 - Zero crossing detection input */
  25:../app/acmotor.c **** #define AC_ZERO_CROSS_PORT     GPIOB
  26:../app/acmotor.c **** #define AC_ZERO_CROSS_CLK      RCU_GPIOB
  27:../app/acmotor.c **** 
  28:../app/acmotor.c **** #define AC_GRIND_DRV_PIN       GPIO_PIN_7      /* PA7 - Motor drive output */
  29:../app/acmotor.c **** #define AC_GRIND_DRV_PORT      GPIOA
  30:../app/acmotor.c **** #define AC_GRIND_DRV_CLK       RCU_GPIOA
  31:../app/acmotor.c **** 
  32:../app/acmotor.c **** #define AC_GRIND_DFB_PIN        GPIO_PIN_1      /* PA1 - Speed feedback input */
  33:../app/acmotor.c **** #define AC_GRIND_DFB_PORT       GPIOA
  34:../app/acmotor.c **** #define AC_GRIND_DFB_CLK        RCU_GPIOA
  35:../app/acmotor.c **** 
  36:../app/acmotor.c **** /* EXTI Configuration */
  37:../app/acmotor.c **** #define AC_ZERO_CROSS_EXTI_LINE   EXTI_9
  38:../app/acmotor.c **** #define AC_ZERO_CROSS_IRQn        EXTI5_9_IRQn
  39:../app/acmotor.c **** 
  40:../app/acmotor.c **** /* Timer for Phase Control Delay */
  41:../app/acmotor.c **** #define AC_HEAT_PHASE1_TIMER   TIMER3
  42:../app/acmotor.c **** #define AC_HEAT_PHASE1_CLK     RCU_TIMER3
  43:../app/acmotor.c **** 
  44:../app/acmotor.c **** #define AC_HEAT_PHASE2_TIMER   TIMER4
  45:../app/acmotor.c **** #define AC_HEAT_PHASE2_CLK     RCU_TIMER4
  46:../app/acmotor.c **** 
  47:../app/acmotor.c **** /* Timer for Speed Feedback Capture */
  48:../app/acmotor.c **** #define AC_GRIND_FB_TIMER      TIMER1
  49:../app/acmotor.c **** #define AC_GRIND_FB_CLK     RCU_TIMER1
  50:../app/acmotor.c **** 
  51:../app/acmotor.c **** /* Timer for Phase Control Delay */
  52:../app/acmotor.c **** #define AC_GRIND_PHASE1_TIMER   TIMER5
  53:../app/acmotor.c **** #define AC_GRIND_PHASE1_CLK     RCU_TIMER5
  54:../app/acmotor.c **** 
  55:../app/acmotor.c **** #define AC_GRIND_PHASE2_TIMER   TIMER6
  56:../app/acmotor.c **** #define AC_GRIND_PHASE2_CLK     RCU_TIMER6
  57:../app/acmotor.c **** 
  58:../app/acmotor.c **** #define AC_PUMB_PHASE1_TIMER   AC_GRIND_PHASE1_TIMER
  59:../app/acmotor.c **** #define AC_PUMB_PHASE1_CLK     AC_GRIND_PHASE1_CLK
  60:../app/acmotor.c **** 
  61:../app/acmotor.c **** #define AC_PUMB_PHASE2_TIMER   AC_GRIND_PHASE2_TIMER
  62:../app/acmotor.c **** #define AC_PUMB_PHASE2_CLK     AC_GRIND_PHASE2_CLK
  63:../app/acmotor.c **** 
  64:../app/acmotor.c **** /* AC Line Frequency Configuration */
  65:../app/acmotor.c **** #define AC_FREQUENCY_50HZ      50
  66:../app/acmotor.c **** #define AC_FREQUENCY_60HZ      60
  67:../app/acmotor.c **** #define AC_FREQUENCY		   AC_FREQUENCY_50HZ
  68:../app/acmotor.c **** 
  69:../app/acmotor.c **** /* Phase Control Parameters */
  70:../app/acmotor.c **** #define MAX_PHASE_ANGLE        180u
  71:../app/acmotor.c **** #define MIN_PHASE_ANGLE        0
  72:../app/acmotor.c **** #define PHASE_STEP             1
  73:../app/acmotor.c **** 
  74:../app/acmotor.c **** /* Speed Feedback Measurement */
  75:../app/acmotor.c **** #define SPEED_MEASURE_PERIOD_MS   100
  76:../app/acmotor.c **** 
  77:../app/acmotor.c **** /* Reliability Parameters */
  78:../app/acmotor.c **** #define ZERO_CROSS_TIMEOUT_MS     25      /* Maximum time without zero crossing (25ms > 20ms half-c
  79:../app/acmotor.c **** #define FEEDBACK_TIMEOUT_MS       500     /* Timeout for feedback signal loss (500ms) */
  80:../app/acmotor.c **** #define ZERO_CROSS_DEBOUNCE_US    50      /* Debounce time for zero crossing (microseconds) */
  81:../app/acmotor.c **** #define FEEDBACK_MIN_VALID_PERIOD_US 100 /* Minimum valid period (10kHz max, 100us) */
  82:../app/acmotor.c **** #define FEEDBACK_MAX_VALID_PERIOD_US 500000 /* Maximum valid period (2Hz min, 500ms) */
  83:../app/acmotor.c **** 
  84:../app/acmotor.c **** /*============================ Global Variables ============================*/
  85:../app/acmotor.c **** /* Motor control variables (volatile for ISR safety) */
  86:../app/acmotor.c **** uint16_t target_phase_delay_us = 0;
  87:../app/acmotor.c **** uint16_t current_phase_delay_us = 0;
  88:../app/acmotor.c **** uint16_t target_speed_rpm = 0;
  89:../app/acmotor.c **** uint16_t current_speed_rpm = 0;
  90:../app/acmotor.c **** 
  91:../app/acmotor.c **** /* Zero crossing management */
  92:../app/acmotor.c **** uint32_t last_zero_cross_tick_ms = 0;
  93:../app/acmotor.c **** 
  94:../app/acmotor.c **** /* Speed feedback management */
  95:../app/acmotor.c **** uint32_t last_feedback_tick_ms = 0;
  96:../app/acmotor.c **** uint32_t last_capture_value = 0;
  97:../app/acmotor.c **** uint32_t current_period_us = 0;
  98:../app/acmotor.c **** 
  99:../app/acmotor.c **** /*============================ Private Function Prototypes ============================*/
 100:../app/acmotor.c **** static uint16_t ac_angle_to_delay_us(uint16_t angle);
 101:../app/acmotor.c **** static uint16_t ac_delay_us_to_angle(uint16_t delay_us);
 102:../app/acmotor.c **** static void ac_motor_set_phase_delay(uint16_t delay_us);
 103:../app/acmotor.c **** void ac_motor_clear_error(void);
 104:../app/acmotor.c **** 
 105:../app/acmotor.c **** /*============================ Peripheral Initialization ============================*/
 106:../app/acmotor.c **** /**
 107:../app/acmotor.c ****   * @brief  Initialize GPIO pins with pull-up/pull-down for noise immunity
 108:../app/acmotor.c ****   * @param  None
 109:../app/acmotor.c ****   * @retval None
 110:../app/acmotor.c ****   */
 111:../app/acmotor.c **** static void ac_motor_gpio_init(void)
 112:../app/acmotor.c **** {
  89              		.loc 1 112 1
  90              		.cfi_startproc
  91              		@ args = 0, pretend = 0, frame = 0
  92              		@ frame_needed = 1, uses_anonymous_args = 0
  93 0000 80B5     		push	{r7, lr}
  94              		.cfi_def_cfa_offset 8
  95              		.cfi_offset 7, -8
  96              		.cfi_offset 14, -4
  97 0002 00AF     		add	r7, sp, #0
  98              		.cfi_def_cfa_register 7
 113:../app/acmotor.c ****     /* Enable GPIO clocks */
 114:../app/acmotor.c ****     rcu_periph_clock_enable(AC_ZERO_CROSS_CLK);
  99              		.loc 1 114 5
 100 0004 40F20360 		movw	r0, #1539
 101 0008 FFF7FEFF 		bl	rcu_periph_clock_enable
 115:../app/acmotor.c ****     rcu_periph_clock_enable(AC_GRIND_DRV_CLK);
 102              		.loc 1 115 5
 103 000c 40F20260 		movw	r0, #1538
 104 0010 FFF7FEFF 		bl	rcu_periph_clock_enable
 116:../app/acmotor.c ****     rcu_periph_clock_enable(AC_GRIND_DFB_CLK);
 105              		.loc 1 116 5
 106 0014 40F20260 		movw	r0, #1538
 107 0018 FFF7FEFF 		bl	rcu_periph_clock_enable
 117:../app/acmotor.c ****     rcu_periph_clock_enable(AC_PUMB_DRV_CLK);
 108              		.loc 1 117 5
 109 001c 40F20360 		movw	r0, #1539
 110 0020 FFF7FEFF 		bl	rcu_periph_clock_enable
 118:../app/acmotor.c ****     rcu_periph_clock_enable(AC_HEAT_DRV_CLK);
 111              		.loc 1 118 5
 112 0024 40F20360 		movw	r0, #1539
 113 0028 FFF7FEFF 		bl	rcu_periph_clock_enable
 119:../app/acmotor.c **** 
 120:../app/acmotor.c ****     /* Configure PB6 as motor drive output (push-pull) - initial low */
 121:../app/acmotor.c ****     PUMB_CONFIG();
 114              		.loc 1 121 5
 115 002c 4023     		movs	r3, #64
 116 002e 0122     		movs	r2, #1
 117 0030 1021     		movs	r1, #16
 118 0032 1548     		ldr	r0, .L2
 119 0034 FFF7FEFF 		bl	gpio_init
 122:../app/acmotor.c ****     ClrPumb_Off();
 120              		.loc 1 122 5
 121 0038 4021     		movs	r1, #64
 122 003a 1348     		ldr	r0, .L2
 123 003c FFF7FEFF 		bl	gpio_bit_reset
 123:../app/acmotor.c **** 
 124:../app/acmotor.c ****     /* Configure PB7 as motor drive output (push-pull) - initial low */
 125:../app/acmotor.c ****     HEAT_CONFIG();
 124              		.loc 1 125 5
 125 0040 8023     		movs	r3, #128
 126 0042 0122     		movs	r2, #1
 127 0044 1021     		movs	r1, #16
 128 0046 1048     		ldr	r0, .L2
 129 0048 FFF7FEFF 		bl	gpio_init
 126:../app/acmotor.c ****     ClrHeat_Off();	
 130              		.loc 1 126 5
 131 004c 8021     		movs	r1, #128
 132 004e 0E48     		ldr	r0, .L2
 133 0050 FFF7FEFF 		bl	gpio_bit_reset
 127:../app/acmotor.c **** 	
 128:../app/acmotor.c ****     /* Configure PB9 as zero crossing detection input (pull-up for noise immunity) */
 129:../app/acmotor.c ****     ZERO_DET_CONFIG();	
 134              		.loc 1 129 5
 135 0054 4FF40073 		mov	r3, #512
 136 0058 0122     		movs	r2, #1
 137 005a 4821     		movs	r1, #72
 138 005c 0A48     		ldr	r0, .L2
 139 005e FFF7FEFF 		bl	gpio_init
 130:../app/acmotor.c ****     
 131:../app/acmotor.c ****     /* Configure PA7 as motor drive output (push-pull) - initial low */
 132:../app/acmotor.c ****     GRIND_CONFIG();
 140              		.loc 1 132 5
 141 0062 8023     		movs	r3, #128
 142 0064 0122     		movs	r2, #1
 143 0066 1021     		movs	r1, #16
 144 0068 0848     		ldr	r0, .L2+4
 145 006a FFF7FEFF 		bl	gpio_init
 133:../app/acmotor.c ****     ClrGrind_Off();	
 146              		.loc 1 133 5
 147 006e 8021     		movs	r1, #128
 148 0070 0648     		ldr	r0, .L2+4
 149 0072 FFF7FEFF 		bl	gpio_bit_reset
 134:../app/acmotor.c ****     
 135:../app/acmotor.c ****     /* Configure PA1 as speed feedback input (pull-up for noise immunity) */
 136:../app/acmotor.c ****     GRIND_DET_CONFIG();
 150              		.loc 1 136 5
 151 0076 0223     		movs	r3, #2
 152 0078 0122     		movs	r2, #1
 153 007a 4821     		movs	r1, #72
 154 007c 0348     		ldr	r0, .L2+4
 155 007e FFF7FEFF 		bl	gpio_init
 137:../app/acmotor.c **** }
 156              		.loc 1 137 1
 157 0082 00BF     		nop
 158 0084 80BD     		pop	{r7, pc}
 159              	.L3:
 160 0086 00BF     		.align	2
 161              	.L2:
 162 0088 000C0140 		.word	1073810432
 163 008c 00080140 		.word	1073809408
 164              		.cfi_endproc
 165              	.LFE116:
 167              		.section	.text.ac_motor_zero_cross_exti_init,"ax",%progbits
 168              		.align	1
 169              		.syntax unified
 170              		.thumb
 171              		.thumb_func
 172              		.fpu softvfp
 174              	ac_motor_zero_cross_exti_init:
 175              	.LFB117:
 138:../app/acmotor.c **** 
 139:../app/acmotor.c **** /**
 140:../app/acmotor.c ****   * @brief  Initialize EXTI for zero crossing with hardware filtering
 141:../app/acmotor.c ****   * @param  None
 142:../app/acmotor.c ****   * @retval None
 143:../app/acmotor.c ****   */
 144:../app/acmotor.c **** static void ac_motor_zero_cross_exti_init(void)
 145:../app/acmotor.c **** {
 176              		.loc 1 145 1
 177              		.cfi_startproc
 178              		@ args = 0, pretend = 0, frame = 0
 179              		@ frame_needed = 1, uses_anonymous_args = 0
 180 0000 80B5     		push	{r7, lr}
 181              		.cfi_def_cfa_offset 8
 182              		.cfi_offset 7, -8
 183              		.cfi_offset 14, -4
 184 0002 00AF     		add	r7, sp, #0
 185              		.cfi_def_cfa_register 7
 146:../app/acmotor.c ****     /* Enable AFIO clock */
 147:../app/acmotor.c ****     rcu_periph_clock_enable(RCU_AF);
 186              		.loc 1 147 5
 187 0004 4FF4C060 		mov	r0, #1536
 188 0008 FFF7FEFF 		bl	rcu_periph_clock_enable
 148:../app/acmotor.c ****     
 149:../app/acmotor.c ****     /* Configure PB9 as EXTI source */
 150:../app/acmotor.c ****     gpio_exti_source_select(GPIO_PORT_SOURCE_GPIOB, GPIO_PIN_SOURCE_9);
 189              		.loc 1 150 5
 190 000c 0921     		movs	r1, #9
 191 000e 0120     		movs	r0, #1
 192 0010 FFF7FEFF 		bl	gpio_exti_source_select
 151:../app/acmotor.c ****     
 152:../app/acmotor.c ****     /* Configure EXTI with both edges, but hardware filter is not available; use software debounce 
 153:../app/acmotor.c ****     exti_init(EXTI_9, EXTI_INTERRUPT, EXTI_TRIG_BOTH);
 193              		.loc 1 153 5
 194 0014 0222     		movs	r2, #2
 195 0016 0021     		movs	r1, #0
 196 0018 4FF40070 		mov	r0, #512
 197 001c FFF7FEFF 		bl	exti_init
 154:../app/acmotor.c ****     
 155:../app/acmotor.c ****     /* Clear pending flag */
 156:../app/acmotor.c ****     exti_interrupt_flag_clear(EXTI_9);
 198              		.loc 1 156 5
 199 0020 4FF40070 		mov	r0, #512
 200 0024 FFF7FEFF 		bl	exti_interrupt_flag_clear
 157:../app/acmotor.c ****     
 158:../app/acmotor.c ****     /* Set NVIC priority (higher than motor control timers) */
 159:../app/acmotor.c ****     nvic_irq_enable(EXTI5_9_IRQn, 0, 0);
 201              		.loc 1 159 5
 202 0028 0022     		movs	r2, #0
 203 002a 0021     		movs	r1, #0
 204 002c 1720     		movs	r0, #23
 205 002e FFF7FEFF 		bl	nvic_irq_enable
 160:../app/acmotor.c **** }
 206              		.loc 1 160 1
 207 0032 00BF     		nop
 208 0034 80BD     		pop	{r7, pc}
 209              		.cfi_endproc
 210              	.LFE117:
 212              		.section	.text.ac_motor_feedback_timer_init,"ax",%progbits
 213              		.align	1
 214              		.syntax unified
 215              		.thumb
 216              		.thumb_func
 217              		.fpu softvfp
 219              	ac_motor_feedback_timer_init:
 220              	.LFB118:
 161:../app/acmotor.c **** 
 162:../app/acmotor.c **** /**
 163:../app/acmotor.c ****   * @brief  Initialize timer for speed feedback capture with filtering
 164:../app/acmotor.c ****   * @param  None
 165:../app/acmotor.c ****   * @retval None
 166:../app/acmotor.c ****   */
 167:../app/acmotor.c **** static void ac_motor_feedback_timer_init(uint32_t ptimer, rcu_periph_enum pClock)
 168:../app/acmotor.c **** {
 221              		.loc 1 168 1
 222              		.cfi_startproc
 223              		@ args = 0, pretend = 0, frame = 32
 224              		@ frame_needed = 1, uses_anonymous_args = 0
 225 0000 80B5     		push	{r7, lr}
 226              		.cfi_def_cfa_offset 8
 227              		.cfi_offset 7, -8
 228              		.cfi_offset 14, -4
 229 0002 88B0     		sub	sp, sp, #32
 230              		.cfi_def_cfa_offset 40
 231 0004 00AF     		add	r7, sp, #0
 232              		.cfi_def_cfa_register 7
 233 0006 7860     		str	r0, [r7, #4]
 234 0008 0B46     		mov	r3, r1
 235 000a 7B80     		strh	r3, [r7, #2]	@ movhi
 169:../app/acmotor.c ****     timer_parameter_struct timer_initpara;
 170:../app/acmotor.c ****     timer_ic_parameter_struct ic_initpara;
 171:../app/acmotor.c ****     
 172:../app/acmotor.c ****     /* Enable timer clock */
 173:../app/acmotor.c ****     rcu_periph_clock_enable(pClock);
 236              		.loc 1 173 5
 237 000c 7B88     		ldrh	r3, [r7, #2]
 238 000e 1846     		mov	r0, r3
 239 0010 FFF7FEFF 		bl	rcu_periph_clock_enable
 174:../app/acmotor.c ****     timer_deinit(ptimer);
 240              		.loc 1 174 5
 241 0014 7868     		ldr	r0, [r7, #4]
 242 0016 FFF7FEFF 		bl	timer_deinit
 175:../app/acmotor.c ****     
 176:../app/acmotor.c ****     /* Configure timer base: 1MHz counting (1us resolution) */
 177:../app/acmotor.c ****     timer_struct_para_init(&timer_initpara);
 243              		.loc 1 177 5
 244 001a 07F11003 		add	r3, r7, #16
 245 001e 1846     		mov	r0, r3
 246 0020 FFF7FEFF 		bl	timer_struct_para_init
 178:../app/acmotor.c ****     timer_initpara.prescaler = 119;          /* 120MHz / 120 = 1MHz */
 247              		.loc 1 178 30
 248 0024 7723     		movs	r3, #119
 249 0026 3B82     		strh	r3, [r7, #16]	@ movhi
 179:../app/acmotor.c ****     timer_initpara.alignedmode = TIMER_COUNTER_EDGE;
 250              		.loc 1 179 32
 251 0028 0023     		movs	r3, #0
 252 002a 7B82     		strh	r3, [r7, #18]	@ movhi
 180:../app/acmotor.c ****     timer_initpara.counterdirection = TIMER_COUNTER_UP;
 253              		.loc 1 180 37
 254 002c 0023     		movs	r3, #0
 255 002e BB82     		strh	r3, [r7, #20]	@ movhi
 181:../app/acmotor.c ****     timer_initpara.period = 0xFFFF;
 256              		.loc 1 181 27
 257 0030 4FF6FF73 		movw	r3, #65535
 258 0034 BB61     		str	r3, [r7, #24]
 182:../app/acmotor.c ****     timer_initpara.clockdivision = TIMER_CKDIV_DIV1;
 259              		.loc 1 182 34
 260 0036 0023     		movs	r3, #0
 261 0038 FB82     		strh	r3, [r7, #22]	@ movhi
 183:../app/acmotor.c ****     timer_init(ptimer, &timer_initpara);
 262              		.loc 1 183 5
 263 003a 07F11003 		add	r3, r7, #16
 264 003e 1946     		mov	r1, r3
 265 0040 7868     		ldr	r0, [r7, #4]
 266 0042 FFF7FEFF 		bl	timer_init
 184:../app/acmotor.c ****     
 185:../app/acmotor.c ****     /* Configure input capture with filter (4 samples, fDTS/2) */
 186:../app/acmotor.c ****     timer_channel_input_struct_para_init(&ic_initpara);
 267              		.loc 1 186 5
 268 0046 07F10803 		add	r3, r7, #8
 269 004a 1846     		mov	r0, r3
 270 004c FFF7FEFF 		bl	timer_channel_input_struct_para_init
 187:../app/acmotor.c ****     ic_initpara.icpolarity = TIMER_IC_POLARITY_RISING;
 271              		.loc 1 187 28
 272 0050 0023     		movs	r3, #0
 273 0052 3B81     		strh	r3, [r7, #8]	@ movhi
 188:../app/acmotor.c ****     ic_initpara.icselection = TIMER_IC_SELECTION_DIRECTTI;
 274              		.loc 1 188 29
 275 0054 0123     		movs	r3, #1
 276 0056 7B81     		strh	r3, [r7, #10]	@ movhi
 189:../app/acmotor.c ****     ic_initpara.icprescaler = TIMER_IC_PSC_DIV1;
 277              		.loc 1 189 29
 278 0058 0023     		movs	r3, #0
 279 005a BB81     		strh	r3, [r7, #12]	@ movhi
 190:../app/acmotor.c ****     ic_initpara.icfilter = 0x4;              /* Filter: 6 samples, fDTS/2 (see user manual) */
 280              		.loc 1 190 26
 281 005c 0423     		movs	r3, #4
 282 005e FB81     		strh	r3, [r7, #14]	@ movhi
 191:../app/acmotor.c ****     timer_input_capture_config(ptimer, TIMER_CH_1, &ic_initpara);
 283              		.loc 1 191 5
 284 0060 07F10803 		add	r3, r7, #8
 285 0064 1A46     		mov	r2, r3
 286 0066 0121     		movs	r1, #1
 287 0068 7868     		ldr	r0, [r7, #4]
 288 006a FFF7FEFF 		bl	timer_input_capture_config
 192:../app/acmotor.c ****     
 193:../app/acmotor.c ****     /* Enable capture interrupt */
 194:../app/acmotor.c ****     timer_interrupt_enable(ptimer, TIMER_INT_CH1);
 289              		.loc 1 194 5
 290 006e 0421     		movs	r1, #4
 291 0070 7868     		ldr	r0, [r7, #4]
 292 0072 FFF7FEFF 		bl	timer_interrupt_enable
 195:../app/acmotor.c ****     /* Enable update interrupt for overflow detection */
 196:../app/acmotor.c ****     timer_interrupt_enable(ptimer, TIMER_INT_UP);
 293              		.loc 1 196 5
 294 0076 0121     		movs	r1, #1
 295 0078 7868     		ldr	r0, [r7, #4]
 296 007a FFF7FEFF 		bl	timer_interrupt_enable
 197:../app/acmotor.c ****     
 198:../app/acmotor.c ****     /* NVIC priority (lower than zero crossing) */
 199:../app/acmotor.c ****     nvic_irq_enable(TIMER1_IRQn, 2, 0);
 297              		.loc 1 199 5
 298 007e 0022     		movs	r2, #0
 299 0080 0221     		movs	r1, #2
 300 0082 1C20     		movs	r0, #28
 301 0084 FFF7FEFF 		bl	nvic_irq_enable
 200:../app/acmotor.c ****     
 201:../app/acmotor.c ****     /* Start timer */
 202:../app/acmotor.c ****     timer_enable(ptimer);
 302              		.loc 1 202 5
 303 0088 7868     		ldr	r0, [r7, #4]
 304 008a FFF7FEFF 		bl	timer_enable
 203:../app/acmotor.c **** }
 305              		.loc 1 203 1
 306 008e 00BF     		nop
 307 0090 2037     		adds	r7, r7, #32
 308              		.cfi_def_cfa_offset 8
 309 0092 BD46     		mov	sp, r7
 310              		.cfi_def_cfa_register 13
 311              		@ sp needed
 312 0094 80BD     		pop	{r7, pc}
 313              		.cfi_endproc
 314              	.LFE118:
 316              		.section	.text.ac_motor_phase_timer_init,"ax",%progbits
 317              		.align	1
 318              		.syntax unified
 319              		.thumb
 320              		.thumb_func
 321              		.fpu softvfp
 323              	ac_motor_phase_timer_init:
 324              	.LFB119:
 204:../app/acmotor.c **** 
 205:../app/acmotor.c **** /**
 206:../app/acmotor.c ****   * @brief  Initialize timer for phase control (single pulse mode)
 207:../app/acmotor.c ****   * @param  None
 208:../app/acmotor.c ****   * @retval None
 209:../app/acmotor.c ****   */
 210:../app/acmotor.c **** static void ac_motor_phase_timer_init(uint32_t ptimer, rcu_periph_enum pClock)
 211:../app/acmotor.c **** {
 325              		.loc 1 211 1
 326              		.cfi_startproc
 327              		@ args = 0, pretend = 0, frame = 24
 328              		@ frame_needed = 1, uses_anonymous_args = 0
 329 0000 80B5     		push	{r7, lr}
 330              		.cfi_def_cfa_offset 8
 331              		.cfi_offset 7, -8
 332              		.cfi_offset 14, -4
 333 0002 86B0     		sub	sp, sp, #24
 334              		.cfi_def_cfa_offset 32
 335 0004 00AF     		add	r7, sp, #0
 336              		.cfi_def_cfa_register 7
 337 0006 7860     		str	r0, [r7, #4]
 338 0008 0B46     		mov	r3, r1
 339 000a 7B80     		strh	r3, [r7, #2]	@ movhi
 212:../app/acmotor.c ****     timer_parameter_struct timer_initpara;
 213:../app/acmotor.c ****     
 214:../app/acmotor.c ****     /* Enable timer clock */
 215:../app/acmotor.c ****     rcu_periph_clock_enable(pClock);
 340              		.loc 1 215 5
 341 000c 7B88     		ldrh	r3, [r7, #2]
 342 000e 1846     		mov	r0, r3
 343 0010 FFF7FEFF 		bl	rcu_periph_clock_enable
 216:../app/acmotor.c ****     timer_deinit(ptimer);
 344              		.loc 1 216 5
 345 0014 7868     		ldr	r0, [r7, #4]
 346 0016 FFF7FEFF 		bl	timer_deinit
 217:../app/acmotor.c ****     
 218:../app/acmotor.c ****     /* Configure timer base: 1MHz counting (1us resolution) */
 219:../app/acmotor.c ****     timer_struct_para_init(&timer_initpara);
 347              		.loc 1 219 5
 348 001a 07F10803 		add	r3, r7, #8
 349 001e 1846     		mov	r0, r3
 350 0020 FFF7FEFF 		bl	timer_struct_para_init
 220:../app/acmotor.c ****     timer_initpara.prescaler = 119;
 351              		.loc 1 220 30
 352 0024 7723     		movs	r3, #119
 353 0026 3B81     		strh	r3, [r7, #8]	@ movhi
 221:../app/acmotor.c ****     timer_initpara.alignedmode = TIMER_COUNTER_EDGE;
 354              		.loc 1 221 32
 355 0028 0023     		movs	r3, #0
 356 002a 7B81     		strh	r3, [r7, #10]	@ movhi
 222:../app/acmotor.c ****     timer_initpara.counterdirection = TIMER_COUNTER_UP;
 357              		.loc 1 222 37
 358 002c 0023     		movs	r3, #0
 359 002e BB81     		strh	r3, [r7, #12]	@ movhi
 223:../app/acmotor.c ****     timer_initpara.period = 20000;            /* Max 20ms */
 360              		.loc 1 223 27
 361 0030 44F62063 		movw	r3, #20000
 362 0034 3B61     		str	r3, [r7, #16]
 224:../app/acmotor.c ****     timer_initpara.clockdivision = TIMER_CKDIV_DIV1;
 363              		.loc 1 224 34
 364 0036 0023     		movs	r3, #0
 365 0038 FB81     		strh	r3, [r7, #14]	@ movhi
 225:../app/acmotor.c ****     timer_init(ptimer, &timer_initpara);
 366              		.loc 1 225 5
 367 003a 07F10803 		add	r3, r7, #8
 368 003e 1946     		mov	r1, r3
 369 0040 7868     		ldr	r0, [r7, #4]
 370 0042 FFF7FEFF 		bl	timer_init
 226:../app/acmotor.c ****     
 227:../app/acmotor.c ****     /* Single pulse mode */
 228:../app/acmotor.c ****     timer_single_pulse_mode_config(ptimer, TIMER_SP_MODE_SINGLE);
 371              		.loc 1 228 5
 372 0046 0021     		movs	r1, #0
 373 0048 7868     		ldr	r0, [r7, #4]
 374 004a FFF7FEFF 		bl	timer_single_pulse_mode_config
 229:../app/acmotor.c ****     timer_update_event_enable(ptimer);
 375              		.loc 1 229 5
 376 004e 7868     		ldr	r0, [r7, #4]
 377 0050 FFF7FEFF 		bl	timer_update_event_enable
 230:../app/acmotor.c ****     
 231:../app/acmotor.c ****     /* Enable update interrupt for turning off output */
 232:../app/acmotor.c ****     timer_interrupt_enable(ptimer, TIMER_INT_UP);
 378              		.loc 1 232 5
 379 0054 0121     		movs	r1, #1
 380 0056 7868     		ldr	r0, [r7, #4]
 381 0058 FFF7FEFF 		bl	timer_interrupt_enable
 233:../app/acmotor.c ****     
 234:../app/acmotor.c ****     /* NVIC priority (higher than feedback timer) */
 235:../app/acmotor.c ****     switch(ptimer){
 382              		.loc 1 235 5
 383 005c 7B68     		ldr	r3, [r7, #4]
 384 005e 1D4A     		ldr	r2, .L14
 385 0060 9342     		cmp	r3, r2
 386 0062 26D0     		beq	.L7
 387 0064 7B68     		ldr	r3, [r7, #4]
 388 0066 1B4A     		ldr	r2, .L14
 389 0068 9342     		cmp	r3, r2
 390 006a 28D8     		bhi	.L13
 391 006c 7B68     		ldr	r3, [r7, #4]
 392 006e 1A4A     		ldr	r2, .L14+4
 393 0070 9342     		cmp	r3, r2
 394 0072 18D0     		beq	.L9
 395 0074 7B68     		ldr	r3, [r7, #4]
 396 0076 184A     		ldr	r2, .L14+4
 397 0078 9342     		cmp	r3, r2
 398 007a 20D8     		bhi	.L13
 399 007c 7B68     		ldr	r3, [r7, #4]
 400 007e 174A     		ldr	r2, .L14+8
 401 0080 9342     		cmp	r3, r2
 402 0082 04D0     		beq	.L10
 403 0084 7B68     		ldr	r3, [r7, #4]
 404 0086 164A     		ldr	r2, .L14+12
 405 0088 9342     		cmp	r3, r2
 406 008a 06D0     		beq	.L11
 236:../app/acmotor.c ****     case TIMER3:
 237:../app/acmotor.c ****           nvic_irq_enable(TIMER3_IRQn, 1, 0);
 238:../app/acmotor.c ****           break;
 239:../app/acmotor.c ****     case TIMER4:
 240:../app/acmotor.c ****           nvic_irq_enable(TIMER4_IRQn, 1, 0);
 241:../app/acmotor.c ****           break;
 242:../app/acmotor.c ****     case TIMER5:
 243:../app/acmotor.c ****           nvic_irq_enable(TIMER5_IRQn, 1, 0);
 244:../app/acmotor.c ****           break;
 245:../app/acmotor.c ****     case TIMER6:
 246:../app/acmotor.c ****           nvic_irq_enable(TIMER6_IRQn, 1, 0);
 247:../app/acmotor.c ****           break;
 248:../app/acmotor.c ****     default:
 249:../app/acmotor.c ****           break;
 407              		.loc 1 249 11
 408 008c 17E0     		b	.L13
 409              	.L10:
 237:../app/acmotor.c ****           break;
 410              		.loc 1 237 11
 411 008e 0022     		movs	r2, #0
 412 0090 0121     		movs	r1, #1
 413 0092 1E20     		movs	r0, #30
 414 0094 FFF7FEFF 		bl	nvic_irq_enable
 238:../app/acmotor.c ****     case TIMER4:
 415              		.loc 1 238 11
 416 0098 12E0     		b	.L12
 417              	.L11:
 240:../app/acmotor.c ****           break;
 418              		.loc 1 240 11
 419 009a 0022     		movs	r2, #0
 420 009c 0121     		movs	r1, #1
 421 009e 3220     		movs	r0, #50
 422 00a0 FFF7FEFF 		bl	nvic_irq_enable
 241:../app/acmotor.c ****     case TIMER5:
 423              		.loc 1 241 11
 424 00a4 0CE0     		b	.L12
 425              	.L9:
 243:../app/acmotor.c ****           break;
 426              		.loc 1 243 11
 427 00a6 0022     		movs	r2, #0
 428 00a8 0121     		movs	r1, #1
 429 00aa 3620     		movs	r0, #54
 430 00ac FFF7FEFF 		bl	nvic_irq_enable
 244:../app/acmotor.c ****     case TIMER6:
 431              		.loc 1 244 11
 432 00b0 06E0     		b	.L12
 433              	.L7:
 246:../app/acmotor.c ****           break;
 434              		.loc 1 246 11
 435 00b2 0022     		movs	r2, #0
 436 00b4 0121     		movs	r1, #1
 437 00b6 3720     		movs	r0, #55
 438 00b8 FFF7FEFF 		bl	nvic_irq_enable
 247:../app/acmotor.c ****     default:
 439              		.loc 1 247 11
 440 00bc 00E0     		b	.L12
 441              	.L13:
 442              		.loc 1 249 11
 443 00be 00BF     		nop
 444              	.L12:
 250:../app/acmotor.c ****     }
 251:../app/acmotor.c ****     /* Start timer (will be disabled until needed) */
 252:../app/acmotor.c ****     timer_enable(ptimer);
 445              		.loc 1 252 5
 446 00c0 7868     		ldr	r0, [r7, #4]
 447 00c2 FFF7FEFF 		bl	timer_enable
 253:../app/acmotor.c ****     timer_disable(ptimer);      /* Initially off */
 448              		.loc 1 253 5
 449 00c6 7868     		ldr	r0, [r7, #4]
 450 00c8 FFF7FEFF 		bl	timer_disable
 254:../app/acmotor.c **** }
 451              		.loc 1 254 1
 452 00cc 00BF     		nop
 453 00ce 1837     		adds	r7, r7, #24
 454              		.cfi_def_cfa_offset 8
 455 00d0 BD46     		mov	sp, r7
 456              		.cfi_def_cfa_register 13
 457              		@ sp needed
 458 00d2 80BD     		pop	{r7, pc}
 459              	.L15:
 460              		.align	2
 461              	.L14:
 462 00d4 00140040 		.word	1073746944
 463 00d8 00100040 		.word	1073745920
 464 00dc 00080040 		.word	1073743872
 465 00e0 000C0040 		.word	1073744896
 466              		.cfi_endproc
 467              	.LFE119:
 469              		.section	.text.ac_heat_turnoff,"ax",%progbits
 470              		.align	1
 471              		.global	ac_heat_turnoff
 472              		.syntax unified
 473              		.thumb
 474              		.thumb_func
 475              		.fpu softvfp
 477              	ac_heat_turnoff:
 478              	.LFB120:
 255:../app/acmotor.c **** 
 256:../app/acmotor.c **** void ac_heat_turnoff(void)
 257:../app/acmotor.c **** {
 479              		.loc 1 257 1
 480              		.cfi_startproc
 481              		@ args = 0, pretend = 0, frame = 0
 482              		@ frame_needed = 1, uses_anonymous_args = 0
 483 0000 80B5     		push	{r7, lr}
 484              		.cfi_def_cfa_offset 8
 485              		.cfi_offset 7, -8
 486              		.cfi_offset 14, -4
 487 0002 00AF     		add	r7, sp, #0
 488              		.cfi_def_cfa_register 7
 258:../app/acmotor.c ****     /* Turn off drive output immediately */
 259:../app/acmotor.c ****     ClrHeat_Off();
 489              		.loc 1 259 5
 490 0004 8021     		movs	r1, #128
 491 0006 0948     		ldr	r0, .L17
 492 0008 FFF7FEFF 		bl	gpio_bit_reset
 260:../app/acmotor.c ****     /* Stop phase timer */
 261:../app/acmotor.c ****     timer_disable(AC_HEAT_PHASE1_TIMER);
 493              		.loc 1 261 5
 494 000c 0848     		ldr	r0, .L17+4
 495 000e FFF7FEFF 		bl	timer_disable
 262:../app/acmotor.c ****     timer_disable(AC_HEAT_PHASE2_TIMER);
 496              		.loc 1 262 5
 497 0012 0848     		ldr	r0, .L17+8
 498 0014 FFF7FEFF 		bl	timer_disable
 263:../app/acmotor.c ****     timer_interrupt_flag_clear(AC_HEAT_PHASE1_TIMER, TIMER_INT_FLAG_UP);
 499              		.loc 1 263 5
 500 0018 0121     		movs	r1, #1
 501 001a 0548     		ldr	r0, .L17+4
 502 001c FFF7FEFF 		bl	timer_interrupt_flag_clear
 264:../app/acmotor.c ****     timer_interrupt_flag_clear(AC_HEAT_PHASE2_TIMER, TIMER_INT_FLAG_UP);
 503              		.loc 1 264 5
 504 0020 0121     		movs	r1, #1
 505 0022 0448     		ldr	r0, .L17+8
 506 0024 FFF7FEFF 		bl	timer_interrupt_flag_clear
 265:../app/acmotor.c **** }
 507              		.loc 1 265 1
 508 0028 00BF     		nop
 509 002a 80BD     		pop	{r7, pc}
 510              	.L18:
 511              		.align	2
 512              	.L17:
 513 002c 000C0140 		.word	1073810432
 514 0030 00080040 		.word	1073743872
 515 0034 000C0040 		.word	1073744896
 516              		.cfi_endproc
 517              	.LFE120:
 519              		.section	.text.ac_pumb_turnoff,"ax",%progbits
 520              		.align	1
 521              		.global	ac_pumb_turnoff
 522              		.syntax unified
 523              		.thumb
 524              		.thumb_func
 525              		.fpu softvfp
 527              	ac_pumb_turnoff:
 528              	.LFB121:
 266:../app/acmotor.c **** 
 267:../app/acmotor.c **** void ac_pumb_turnoff(void)
 268:../app/acmotor.c **** {
 529              		.loc 1 268 1
 530              		.cfi_startproc
 531              		@ args = 0, pretend = 0, frame = 0
 532              		@ frame_needed = 1, uses_anonymous_args = 0
 533 0000 80B5     		push	{r7, lr}
 534              		.cfi_def_cfa_offset 8
 535              		.cfi_offset 7, -8
 536              		.cfi_offset 14, -4
 537 0002 00AF     		add	r7, sp, #0
 538              		.cfi_def_cfa_register 7
 269:../app/acmotor.c ****     /* Turn off drive output immediately */
 270:../app/acmotor.c ****     ClrPumb_Off();
 539              		.loc 1 270 5
 540 0004 4021     		movs	r1, #64
 541 0006 0948     		ldr	r0, .L20
 542 0008 FFF7FEFF 		bl	gpio_bit_reset
 271:../app/acmotor.c ****     /* Stop phase timer */
 272:../app/acmotor.c ****     timer_disable(AC_PUMB_PHASE1_TIMER);
 543              		.loc 1 272 5
 544 000c 0848     		ldr	r0, .L20+4
 545 000e FFF7FEFF 		bl	timer_disable
 273:../app/acmotor.c ****     timer_disable(AC_PUMB_PHASE2_TIMER);
 546              		.loc 1 273 5
 547 0012 0848     		ldr	r0, .L20+8
 548 0014 FFF7FEFF 		bl	timer_disable
 274:../app/acmotor.c ****     timer_interrupt_flag_clear(AC_PUMB_PHASE1_TIMER, TIMER_INT_FLAG_UP);
 549              		.loc 1 274 5
 550 0018 0121     		movs	r1, #1
 551 001a 0548     		ldr	r0, .L20+4
 552 001c FFF7FEFF 		bl	timer_interrupt_flag_clear
 275:../app/acmotor.c ****     timer_interrupt_flag_clear(AC_PUMB_PHASE2_TIMER, TIMER_INT_FLAG_UP);
 553              		.loc 1 275 5
 554 0020 0121     		movs	r1, #1
 555 0022 0448     		ldr	r0, .L20+8
 556 0024 FFF7FEFF 		bl	timer_interrupt_flag_clear
 276:../app/acmotor.c **** }
 557              		.loc 1 276 1
 558 0028 00BF     		nop
 559 002a 80BD     		pop	{r7, pc}
 560              	.L21:
 561              		.align	2
 562              	.L20:
 563 002c 000C0140 		.word	1073810432
 564 0030 00100040 		.word	1073745920
 565 0034 00140040 		.word	1073746944
 566              		.cfi_endproc
 567              	.LFE121:
 569              		.section	.text.ac_grind_turnoff,"ax",%progbits
 570              		.align	1
 571              		.global	ac_grind_turnoff
 572              		.syntax unified
 573              		.thumb
 574              		.thumb_func
 575              		.fpu softvfp
 577              	ac_grind_turnoff:
 578              	.LFB122:
 277:../app/acmotor.c **** 
 278:../app/acmotor.c **** void ac_grind_turnoff(void)
 279:../app/acmotor.c **** {
 579              		.loc 1 279 1
 580              		.cfi_startproc
 581              		@ args = 0, pretend = 0, frame = 0
 582              		@ frame_needed = 1, uses_anonymous_args = 0
 583 0000 80B5     		push	{r7, lr}
 584              		.cfi_def_cfa_offset 8
 585              		.cfi_offset 7, -8
 586              		.cfi_offset 14, -4
 587 0002 00AF     		add	r7, sp, #0
 588              		.cfi_def_cfa_register 7
 280:../app/acmotor.c ****     /* Turn off drive output immediately */
 281:../app/acmotor.c ****     ClrGrind_Off();
 589              		.loc 1 281 5
 590 0004 8021     		movs	r1, #128
 591 0006 0948     		ldr	r0, .L23
 592 0008 FFF7FEFF 		bl	gpio_bit_reset
 282:../app/acmotor.c ****     /* Stop phase timer */
 283:../app/acmotor.c ****     timer_disable(AC_GRIND_PHASE1_TIMER);
 593              		.loc 1 283 5
 594 000c 0848     		ldr	r0, .L23+4
 595 000e FFF7FEFF 		bl	timer_disable
 284:../app/acmotor.c ****     timer_disable(AC_GRIND_PHASE2_TIMER);
 596              		.loc 1 284 5
 597 0012 0848     		ldr	r0, .L23+8
 598 0014 FFF7FEFF 		bl	timer_disable
 285:../app/acmotor.c ****     timer_interrupt_flag_clear(AC_GRIND_PHASE1_TIMER, TIMER_INT_FLAG_UP);
 599              		.loc 1 285 5
 600 0018 0121     		movs	r1, #1
 601 001a 0548     		ldr	r0, .L23+4
 602 001c FFF7FEFF 		bl	timer_interrupt_flag_clear
 286:../app/acmotor.c ****     timer_interrupt_flag_clear(AC_GRIND_PHASE2_TIMER, TIMER_INT_FLAG_UP);
 603              		.loc 1 286 5
 604 0020 0121     		movs	r1, #1
 605 0022 0448     		ldr	r0, .L23+8
 606 0024 FFF7FEFF 		bl	timer_interrupt_flag_clear
 287:../app/acmotor.c **** }
 607              		.loc 1 287 1
 608 0028 00BF     		nop
 609 002a 80BD     		pop	{r7, pc}
 610              	.L24:
 611              		.align	2
 612              	.L23:
 613 002c 00080140 		.word	1073809408
 614 0030 00100040 		.word	1073745920
 615 0034 00140040 		.word	1073746944
 616              		.cfi_endproc
 617              	.LFE122:
 619              		.section	.text.ac_angle_to_delay_us,"ax",%progbits
 620              		.align	1
 621              		.syntax unified
 622              		.thumb
 623              		.thumb_func
 624              		.fpu softvfp
 626              	ac_angle_to_delay_us:
 627              	.LFB123:
 288:../app/acmotor.c **** 
 289:../app/acmotor.c **** /**
 290:../app/acmotor.c ****   * @brief  Convert phase angle to delay time (microseconds)
 291:../app/acmotor.c ****   */
 292:../app/acmotor.c **** static uint16_t ac_angle_to_delay_us(uint16_t angle)
 293:../app/acmotor.c **** {
 628              		.loc 1 293 1
 629              		.cfi_startproc
 630              		@ args = 0, pretend = 0, frame = 16
 631              		@ frame_needed = 1, uses_anonymous_args = 0
 632              		@ link register save eliminated.
 633 0000 80B4     		push	{r7}
 634              		.cfi_def_cfa_offset 4
 635              		.cfi_offset 7, -4
 636 0002 85B0     		sub	sp, sp, #20
 637              		.cfi_def_cfa_offset 24
 638 0004 00AF     		add	r7, sp, #0
 639              		.cfi_def_cfa_register 7
 640 0006 0346     		mov	r3, r0
 641 0008 FB80     		strh	r3, [r7, #6]	@ movhi
 294:../app/acmotor.c ****     uint16_t half_cycle_us;
 295:../app/acmotor.c ****     
 296:../app/acmotor.c ****     if (AC_FREQUENCY_50HZ == AC_FREQUENCY) {
 297:../app/acmotor.c ****         half_cycle_us = 10000;
 642              		.loc 1 297 23
 643 000a 42F21073 		movw	r3, #10000
 644 000e FB81     		strh	r3, [r7, #14]	@ movhi
 298:../app/acmotor.c ****     } else {
 299:../app/acmotor.c ****         half_cycle_us = 8333;
 300:../app/acmotor.c ****     }
 301:../app/acmotor.c ****     
 302:../app/acmotor.c ****     if (angle > MAX_PHASE_ANGLE) angle = MAX_PHASE_ANGLE;
 645              		.loc 1 302 8
 646 0010 FB88     		ldrh	r3, [r7, #6]
 647 0012 B42B     		cmp	r3, #180
 648 0014 01D9     		bls	.L26
 649              		.loc 1 302 40 discriminator 1
 650 0016 B423     		movs	r3, #180
 651 0018 FB80     		strh	r3, [r7, #6]	@ movhi
 652              	.L26:
 303:../app/acmotor.c ****     return (uint16_t)((uint32_t)angle * half_cycle_us / MAX_PHASE_ANGLE);
 653              		.loc 1 303 23
 654 001a FB88     		ldrh	r3, [r7, #6]
 655              		.loc 1 303 39
 656 001c FA89     		ldrh	r2, [r7, #14]
 657 001e 02FB03F3 		mul	r3, r2, r3
 658              		.loc 1 303 55
 659 0022 9B08     		lsrs	r3, r3, #2
 660 0024 044A     		ldr	r2, .L28
 661 0026 A2FB0323 		umull	r2, r3, r2, r3
 662 002a 9B08     		lsrs	r3, r3, #2
 663              		.loc 1 303 12
 664 002c 9BB2     		uxth	r3, r3
 304:../app/acmotor.c **** }
 665              		.loc 1 304 1
 666 002e 1846     		mov	r0, r3
 667 0030 1437     		adds	r7, r7, #20
 668              		.cfi_def_cfa_offset 4
 669 0032 BD46     		mov	sp, r7
 670              		.cfi_def_cfa_register 13
 671              		@ sp needed
 672 0034 80BC     		pop	{r7}
 673              		.cfi_restore 7
 674              		.cfi_def_cfa_offset 0
 675 0036 7047     		bx	lr
 676              	.L29:
 677              		.align	2
 678              	.L28:
 679 0038 176CC116 		.word	381774871
 680              		.cfi_endproc
 681              	.LFE123:
 683              		.section	.text.ac_delay_us_to_angle,"ax",%progbits
 684              		.align	1
 685              		.syntax unified
 686              		.thumb
 687              		.thumb_func
 688              		.fpu softvfp
 690              	ac_delay_us_to_angle:
 691              	.LFB124:
 305:../app/acmotor.c **** 
 306:../app/acmotor.c **** /**
 307:../app/acmotor.c ****   * @brief  Convert delay time to phase angle (degrees)
 308:../app/acmotor.c ****   */
 309:../app/acmotor.c **** static uint16_t ac_delay_us_to_angle(uint16_t delay_us)
 310:../app/acmotor.c **** {
 692              		.loc 1 310 1
 693              		.cfi_startproc
 694              		@ args = 0, pretend = 0, frame = 16
 695              		@ frame_needed = 1, uses_anonymous_args = 0
 696              		@ link register save eliminated.
 697 0000 80B4     		push	{r7}
 698              		.cfi_def_cfa_offset 4
 699              		.cfi_offset 7, -4
 700 0002 85B0     		sub	sp, sp, #20
 701              		.cfi_def_cfa_offset 24
 702 0004 00AF     		add	r7, sp, #0
 703              		.cfi_def_cfa_register 7
 704 0006 0346     		mov	r3, r0
 705 0008 FB80     		strh	r3, [r7, #6]	@ movhi
 311:../app/acmotor.c ****     uint16_t half_cycle_us;
 312:../app/acmotor.c ****     
 313:../app/acmotor.c ****     if (AC_FREQUENCY_50HZ == AC_FREQUENCY) {
 314:../app/acmotor.c ****         half_cycle_us = 10000;
 706              		.loc 1 314 23
 707 000a 42F21073 		movw	r3, #10000
 708 000e FB81     		strh	r3, [r7, #14]	@ movhi
 315:../app/acmotor.c ****     } else {
 316:../app/acmotor.c ****         half_cycle_us = 8333;
 317:../app/acmotor.c ****     }
 318:../app/acmotor.c ****     
 319:../app/acmotor.c ****     if (delay_us > half_cycle_us) delay_us = half_cycle_us;
 709              		.loc 1 319 8
 710 0010 FA88     		ldrh	r2, [r7, #6]
 711 0012 FB89     		ldrh	r3, [r7, #14]
 712 0014 9A42     		cmp	r2, r3
 713 0016 01D9     		bls	.L31
 714              		.loc 1 319 44 discriminator 1
 715 0018 FB89     		ldrh	r3, [r7, #14]	@ movhi
 716 001a FB80     		strh	r3, [r7, #6]	@ movhi
 717              	.L31:
 320:../app/acmotor.c ****     return (uint16_t)((uint32_t)((delay_us * MAX_PHASE_ANGLE) / half_cycle_us));
 718              		.loc 1 320 44
 719 001c FB88     		ldrh	r3, [r7, #6]
 720 001e B422     		movs	r2, #180
 721 0020 02FB03F2 		mul	r2, r2, r3
 722              		.loc 1 320 63
 723 0024 FB89     		ldrh	r3, [r7, #14]
 724 0026 B2FBF3F3 		udiv	r3, r2, r3
 725              		.loc 1 320 12
 726 002a 9BB2     		uxth	r3, r3
 321:../app/acmotor.c **** }
 727              		.loc 1 321 1
 728 002c 1846     		mov	r0, r3
 729 002e 1437     		adds	r7, r7, #20
 730              		.cfi_def_cfa_offset 4
 731 0030 BD46     		mov	sp, r7
 732              		.cfi_def_cfa_register 13
 733              		@ sp needed
 734 0032 80BC     		pop	{r7}
 735              		.cfi_restore 7
 736              		.cfi_def_cfa_offset 0
 737 0034 7047     		bx	lr
 738              		.cfi_endproc
 739              	.LFE124:
 741              		.section	.text.ac_motor1_safe_shutdown,"ax",%progbits
 742              		.align	1
 743              		.syntax unified
 744              		.thumb
 745              		.thumb_func
 746              		.fpu softvfp
 748              	ac_motor1_safe_shutdown:
 749              	.LFB125:
 322:../app/acmotor.c **** 
 323:../app/acmotor.c **** /**
 324:../app/acmotor.c ****   * @brief  Safely shut down motor and set error code
 325:../app/acmotor.c ****   * @param  error_code: Error code to set
 326:../app/acmotor.c ****   * @retval None
 327:../app/acmotor.c ****   */
 328:../app/acmotor.c **** static void ac_motor1_safe_shutdown(uint8_t error_code)
 329:../app/acmotor.c **** {
 750              		.loc 1 329 1
 751              		.cfi_startproc
 752              		@ args = 0, pretend = 0, frame = 8
 753              		@ frame_needed = 1, uses_anonymous_args = 0
 754 0000 80B5     		push	{r7, lr}
 755              		.cfi_def_cfa_offset 8
 756              		.cfi_offset 7, -8
 757              		.cfi_offset 14, -4
 758 0002 82B0     		sub	sp, sp, #8
 759              		.cfi_def_cfa_offset 16
 760 0004 00AF     		add	r7, sp, #0
 761              		.cfi_def_cfa_register 7
 762 0006 0346     		mov	r3, r0
 763 0008 FB71     		strb	r3, [r7, #7]
 330:../app/acmotor.c **** 
 331:../app/acmotor.c ****     ac_grind_turnoff();
 764              		.loc 1 331 5
 765 000a FFF7FEFF 		bl	ac_grind_turnoff
 766              	.LBB26:
 767              	.LBB27:
 768              		.file 2 "../Firmware/CMSIS/core_cmFunc.h"
   1:../Firmware/CMSIS/core_cmFunc.h **** /**************************************************************************//**
   2:../Firmware/CMSIS/core_cmFunc.h ****  * @file     core_cmFunc.h
   3:../Firmware/CMSIS/core_cmFunc.h ****  * @brief    CMSIS Cortex-M Core Function Access Header File
   4:../Firmware/CMSIS/core_cmFunc.h ****  * @version  V3.01
   5:../Firmware/CMSIS/core_cmFunc.h ****  * @date     06. March 2012
   6:../Firmware/CMSIS/core_cmFunc.h ****  *
   7:../Firmware/CMSIS/core_cmFunc.h ****  * @note
   8:../Firmware/CMSIS/core_cmFunc.h ****  * Copyright (C) 2009-2012 ARM Limited. All rights reserved.
   9:../Firmware/CMSIS/core_cmFunc.h ****  *
  10:../Firmware/CMSIS/core_cmFunc.h ****  * @par
  11:../Firmware/CMSIS/core_cmFunc.h ****  * ARM Limited (ARM) is supplying this software for use with Cortex-M
  12:../Firmware/CMSIS/core_cmFunc.h ****  * processor based microcontrollers.  This file can be freely distributed
  13:../Firmware/CMSIS/core_cmFunc.h ****  * within development tools that are supporting such ARM based processors.
  14:../Firmware/CMSIS/core_cmFunc.h ****  *
  15:../Firmware/CMSIS/core_cmFunc.h ****  * @par
  16:../Firmware/CMSIS/core_cmFunc.h ****  * THIS SOFTWARE IS PROVIDED "AS IS".  NO WARRANTIES, WHETHER EXPRESS, IMPLIED
  17:../Firmware/CMSIS/core_cmFunc.h ****  * OR STATUTORY, INCLUDING, BUT NOT LIMITED TO, IMPLIED WARRANTIES OF
  18:../Firmware/CMSIS/core_cmFunc.h ****  * MERCHANTABILITY AND FITNESS FOR A PARTICULAR PURPOSE APPLY TO THIS SOFTWARE.
  19:../Firmware/CMSIS/core_cmFunc.h ****  * ARM SHALL NOT, IN ANY CIRCUMSTANCES, BE LIABLE FOR SPECIAL, INCIDENTAL, OR
  20:../Firmware/CMSIS/core_cmFunc.h ****  * CONSEQUENTIAL DAMAGES, FOR ANY REASON WHATSOEVER.
  21:../Firmware/CMSIS/core_cmFunc.h ****  *
  22:../Firmware/CMSIS/core_cmFunc.h ****  ******************************************************************************/
  23:../Firmware/CMSIS/core_cmFunc.h **** 
  24:../Firmware/CMSIS/core_cmFunc.h **** #ifndef __CORE_CMFUNC_H
  25:../Firmware/CMSIS/core_cmFunc.h **** #define __CORE_CMFUNC_H
  26:../Firmware/CMSIS/core_cmFunc.h **** 
  27:../Firmware/CMSIS/core_cmFunc.h **** 
  28:../Firmware/CMSIS/core_cmFunc.h **** /* ###########################  Core Function Access  ########################### */
  29:../Firmware/CMSIS/core_cmFunc.h **** /** \ingroup  CMSIS_Core_FunctionInterface
  30:../Firmware/CMSIS/core_cmFunc.h ****     \defgroup CMSIS_Core_RegAccFunctions CMSIS Core Register Access Functions
  31:../Firmware/CMSIS/core_cmFunc.h ****   @{
  32:../Firmware/CMSIS/core_cmFunc.h ****  */
  33:../Firmware/CMSIS/core_cmFunc.h **** 
  34:../Firmware/CMSIS/core_cmFunc.h **** #if   defined ( __CC_ARM ) /*------------------RealView Compiler -----------------*/
  35:../Firmware/CMSIS/core_cmFunc.h **** /* ARM armcc specific functions */
  36:../Firmware/CMSIS/core_cmFunc.h **** 
  37:../Firmware/CMSIS/core_cmFunc.h **** #if (__ARMCC_VERSION < 400677)
  38:../Firmware/CMSIS/core_cmFunc.h ****   #error "Please use ARM Compiler Toolchain V4.0.677 or later!"
  39:../Firmware/CMSIS/core_cmFunc.h **** #endif
  40:../Firmware/CMSIS/core_cmFunc.h **** 
  41:../Firmware/CMSIS/core_cmFunc.h **** /* intrinsic void __enable_irq();     */
  42:../Firmware/CMSIS/core_cmFunc.h **** /* intrinsic void __disable_irq();    */
  43:../Firmware/CMSIS/core_cmFunc.h **** 
  44:../Firmware/CMSIS/core_cmFunc.h **** /** \brief  Get Control Register
  45:../Firmware/CMSIS/core_cmFunc.h **** 
  46:../Firmware/CMSIS/core_cmFunc.h ****     This function returns the content of the Control Register.
  47:../Firmware/CMSIS/core_cmFunc.h **** 
  48:../Firmware/CMSIS/core_cmFunc.h ****     \return               Control Register value
  49:../Firmware/CMSIS/core_cmFunc.h ****  */
  50:../Firmware/CMSIS/core_cmFunc.h **** __STATIC_INLINE uint32_t __get_CONTROL(void)
  51:../Firmware/CMSIS/core_cmFunc.h **** {
  52:../Firmware/CMSIS/core_cmFunc.h ****   register uint32_t __regControl         __ASM("control");
  53:../Firmware/CMSIS/core_cmFunc.h ****   return(__regControl);
  54:../Firmware/CMSIS/core_cmFunc.h **** }
  55:../Firmware/CMSIS/core_cmFunc.h **** 
  56:../Firmware/CMSIS/core_cmFunc.h **** 
  57:../Firmware/CMSIS/core_cmFunc.h **** /** \brief  Set Control Register
  58:../Firmware/CMSIS/core_cmFunc.h **** 
  59:../Firmware/CMSIS/core_cmFunc.h ****     This function writes the given value to the Control Register.
  60:../Firmware/CMSIS/core_cmFunc.h **** 
  61:../Firmware/CMSIS/core_cmFunc.h ****     \param [in]    control  Control Register value to set
  62:../Firmware/CMSIS/core_cmFunc.h ****  */
  63:../Firmware/CMSIS/core_cmFunc.h **** __STATIC_INLINE void __set_CONTROL(uint32_t control)
  64:../Firmware/CMSIS/core_cmFunc.h **** {
  65:../Firmware/CMSIS/core_cmFunc.h ****   register uint32_t __regControl         __ASM("control");
  66:../Firmware/CMSIS/core_cmFunc.h ****   __regControl = control;
  67:../Firmware/CMSIS/core_cmFunc.h **** }
  68:../Firmware/CMSIS/core_cmFunc.h **** 
  69:../Firmware/CMSIS/core_cmFunc.h **** 
  70:../Firmware/CMSIS/core_cmFunc.h **** /** \brief  Get IPSR Register
  71:../Firmware/CMSIS/core_cmFunc.h **** 
  72:../Firmware/CMSIS/core_cmFunc.h ****     This function returns the content of the IPSR Register.
  73:../Firmware/CMSIS/core_cmFunc.h **** 
  74:../Firmware/CMSIS/core_cmFunc.h ****     \return               IPSR Register value
  75:../Firmware/CMSIS/core_cmFunc.h ****  */
  76:../Firmware/CMSIS/core_cmFunc.h **** __STATIC_INLINE uint32_t __get_IPSR(void)
  77:../Firmware/CMSIS/core_cmFunc.h **** {
  78:../Firmware/CMSIS/core_cmFunc.h ****   register uint32_t __regIPSR          __ASM("ipsr");
  79:../Firmware/CMSIS/core_cmFunc.h ****   return(__regIPSR);
  80:../Firmware/CMSIS/core_cmFunc.h **** }
  81:../Firmware/CMSIS/core_cmFunc.h **** 
  82:../Firmware/CMSIS/core_cmFunc.h **** 
  83:../Firmware/CMSIS/core_cmFunc.h **** /** \brief  Get APSR Register
  84:../Firmware/CMSIS/core_cmFunc.h **** 
  85:../Firmware/CMSIS/core_cmFunc.h ****     This function returns the content of the APSR Register.
  86:../Firmware/CMSIS/core_cmFunc.h **** 
  87:../Firmware/CMSIS/core_cmFunc.h ****     \return               APSR Register value
  88:../Firmware/CMSIS/core_cmFunc.h ****  */
  89:../Firmware/CMSIS/core_cmFunc.h **** __STATIC_INLINE uint32_t __get_APSR(void)
  90:../Firmware/CMSIS/core_cmFunc.h **** {
  91:../Firmware/CMSIS/core_cmFunc.h ****   register uint32_t __regAPSR          __ASM("apsr");
  92:../Firmware/CMSIS/core_cmFunc.h ****   return(__regAPSR);
  93:../Firmware/CMSIS/core_cmFunc.h **** }
  94:../Firmware/CMSIS/core_cmFunc.h **** 
  95:../Firmware/CMSIS/core_cmFunc.h **** 
  96:../Firmware/CMSIS/core_cmFunc.h **** /** \brief  Get xPSR Register
  97:../Firmware/CMSIS/core_cmFunc.h **** 
  98:../Firmware/CMSIS/core_cmFunc.h ****     This function returns the content of the xPSR Register.
  99:../Firmware/CMSIS/core_cmFunc.h **** 
 100:../Firmware/CMSIS/core_cmFunc.h ****     \return               xPSR Register value
 101:../Firmware/CMSIS/core_cmFunc.h ****  */
 102:../Firmware/CMSIS/core_cmFunc.h **** __STATIC_INLINE uint32_t __get_xPSR(void)
 103:../Firmware/CMSIS/core_cmFunc.h **** {
 104:../Firmware/CMSIS/core_cmFunc.h ****   register uint32_t __regXPSR          __ASM("xpsr");
 105:../Firmware/CMSIS/core_cmFunc.h ****   return(__regXPSR);
 106:../Firmware/CMSIS/core_cmFunc.h **** }
 107:../Firmware/CMSIS/core_cmFunc.h **** 
 108:../Firmware/CMSIS/core_cmFunc.h **** 
 109:../Firmware/CMSIS/core_cmFunc.h **** /** \brief  Get Process Stack Pointer
 110:../Firmware/CMSIS/core_cmFunc.h **** 
 111:../Firmware/CMSIS/core_cmFunc.h ****     This function returns the current value of the Process Stack Pointer (PSP).
 112:../Firmware/CMSIS/core_cmFunc.h **** 
 113:../Firmware/CMSIS/core_cmFunc.h ****     \return               PSP Register value
 114:../Firmware/CMSIS/core_cmFunc.h ****  */
 115:../Firmware/CMSIS/core_cmFunc.h **** __STATIC_INLINE uint32_t __get_PSP(void)
 116:../Firmware/CMSIS/core_cmFunc.h **** {
 117:../Firmware/CMSIS/core_cmFunc.h ****   register uint32_t __regProcessStackPointer  __ASM("psp");
 118:../Firmware/CMSIS/core_cmFunc.h ****   return(__regProcessStackPointer);
 119:../Firmware/CMSIS/core_cmFunc.h **** }
 120:../Firmware/CMSIS/core_cmFunc.h **** 
 121:../Firmware/CMSIS/core_cmFunc.h **** 
 122:../Firmware/CMSIS/core_cmFunc.h **** /** \brief  Set Process Stack Pointer
 123:../Firmware/CMSIS/core_cmFunc.h **** 
 124:../Firmware/CMSIS/core_cmFunc.h ****     This function assigns the given value to the Process Stack Pointer (PSP).
 125:../Firmware/CMSIS/core_cmFunc.h **** 
 126:../Firmware/CMSIS/core_cmFunc.h ****     \param [in]    topOfProcStack  Process Stack Pointer value to set
 127:../Firmware/CMSIS/core_cmFunc.h ****  */
 128:../Firmware/CMSIS/core_cmFunc.h **** __STATIC_INLINE void __set_PSP(uint32_t topOfProcStack)
 129:../Firmware/CMSIS/core_cmFunc.h **** {
 130:../Firmware/CMSIS/core_cmFunc.h ****   register uint32_t __regProcessStackPointer  __ASM("psp");
 131:../Firmware/CMSIS/core_cmFunc.h ****   __regProcessStackPointer = topOfProcStack;
 132:../Firmware/CMSIS/core_cmFunc.h **** }
 133:../Firmware/CMSIS/core_cmFunc.h **** 
 134:../Firmware/CMSIS/core_cmFunc.h **** 
 135:../Firmware/CMSIS/core_cmFunc.h **** /** \brief  Get Main Stack Pointer
 136:../Firmware/CMSIS/core_cmFunc.h **** 
 137:../Firmware/CMSIS/core_cmFunc.h ****     This function returns the current value of the Main Stack Pointer (MSP).
 138:../Firmware/CMSIS/core_cmFunc.h **** 
 139:../Firmware/CMSIS/core_cmFunc.h ****     \return               MSP Register value
 140:../Firmware/CMSIS/core_cmFunc.h ****  */
 141:../Firmware/CMSIS/core_cmFunc.h **** __STATIC_INLINE uint32_t __get_MSP(void)
 142:../Firmware/CMSIS/core_cmFunc.h **** {
 143:../Firmware/CMSIS/core_cmFunc.h ****   register uint32_t __regMainStackPointer     __ASM("msp");
 144:../Firmware/CMSIS/core_cmFunc.h ****   return(__regMainStackPointer);
 145:../Firmware/CMSIS/core_cmFunc.h **** }
 146:../Firmware/CMSIS/core_cmFunc.h **** 
 147:../Firmware/CMSIS/core_cmFunc.h **** 
 148:../Firmware/CMSIS/core_cmFunc.h **** /** \brief  Set Main Stack Pointer
 149:../Firmware/CMSIS/core_cmFunc.h **** 
 150:../Firmware/CMSIS/core_cmFunc.h ****     This function assigns the given value to the Main Stack Pointer (MSP).
 151:../Firmware/CMSIS/core_cmFunc.h **** 
 152:../Firmware/CMSIS/core_cmFunc.h ****     \param [in]    topOfMainStack  Main Stack Pointer value to set
 153:../Firmware/CMSIS/core_cmFunc.h ****  */
 154:../Firmware/CMSIS/core_cmFunc.h **** __STATIC_INLINE void __set_MSP(uint32_t topOfMainStack)
 155:../Firmware/CMSIS/core_cmFunc.h **** {
 156:../Firmware/CMSIS/core_cmFunc.h ****   register uint32_t __regMainStackPointer     __ASM("msp");
 157:../Firmware/CMSIS/core_cmFunc.h ****   __regMainStackPointer = topOfMainStack;
 158:../Firmware/CMSIS/core_cmFunc.h **** }
 159:../Firmware/CMSIS/core_cmFunc.h **** 
 160:../Firmware/CMSIS/core_cmFunc.h **** 
 161:../Firmware/CMSIS/core_cmFunc.h **** /** \brief  Get Priority Mask
 162:../Firmware/CMSIS/core_cmFunc.h **** 
 163:../Firmware/CMSIS/core_cmFunc.h ****     This function returns the current state of the priority mask bit from the Priority Mask Registe
 164:../Firmware/CMSIS/core_cmFunc.h **** 
 165:../Firmware/CMSIS/core_cmFunc.h ****     \return               Priority Mask value
 166:../Firmware/CMSIS/core_cmFunc.h ****  */
 167:../Firmware/CMSIS/core_cmFunc.h **** __STATIC_INLINE uint32_t __get_PRIMASK(void)
 168:../Firmware/CMSIS/core_cmFunc.h **** {
 169:../Firmware/CMSIS/core_cmFunc.h ****   register uint32_t __regPriMask         __ASM("primask");
 170:../Firmware/CMSIS/core_cmFunc.h ****   return(__regPriMask);
 171:../Firmware/CMSIS/core_cmFunc.h **** }
 172:../Firmware/CMSIS/core_cmFunc.h **** 
 173:../Firmware/CMSIS/core_cmFunc.h **** 
 174:../Firmware/CMSIS/core_cmFunc.h **** /** \brief  Set Priority Mask
 175:../Firmware/CMSIS/core_cmFunc.h **** 
 176:../Firmware/CMSIS/core_cmFunc.h ****     This function assigns the given value to the Priority Mask Register.
 177:../Firmware/CMSIS/core_cmFunc.h **** 
 178:../Firmware/CMSIS/core_cmFunc.h ****     \param [in]    priMask  Priority Mask
 179:../Firmware/CMSIS/core_cmFunc.h ****  */
 180:../Firmware/CMSIS/core_cmFunc.h **** __STATIC_INLINE void __set_PRIMASK(uint32_t priMask)
 181:../Firmware/CMSIS/core_cmFunc.h **** {
 182:../Firmware/CMSIS/core_cmFunc.h ****   register uint32_t __regPriMask         __ASM("primask");
 183:../Firmware/CMSIS/core_cmFunc.h ****   __regPriMask = (priMask);
 184:../Firmware/CMSIS/core_cmFunc.h **** }
 185:../Firmware/CMSIS/core_cmFunc.h **** 
 186:../Firmware/CMSIS/core_cmFunc.h **** 
 187:../Firmware/CMSIS/core_cmFunc.h **** #if       (__CORTEX_M >= 0x03)
 188:../Firmware/CMSIS/core_cmFunc.h **** 
 189:../Firmware/CMSIS/core_cmFunc.h **** /** \brief  Enable FIQ
 190:../Firmware/CMSIS/core_cmFunc.h **** 
 191:../Firmware/CMSIS/core_cmFunc.h ****     This function enables FIQ interrupts by clearing the F-bit in the CPSR.
 192:../Firmware/CMSIS/core_cmFunc.h ****     Can only be executed in Privileged modes.
 193:../Firmware/CMSIS/core_cmFunc.h ****  */
 194:../Firmware/CMSIS/core_cmFunc.h **** #define __enable_fault_irq                __enable_fiq
 195:../Firmware/CMSIS/core_cmFunc.h **** 
 196:../Firmware/CMSIS/core_cmFunc.h **** 
 197:../Firmware/CMSIS/core_cmFunc.h **** /** \brief  Disable FIQ
 198:../Firmware/CMSIS/core_cmFunc.h **** 
 199:../Firmware/CMSIS/core_cmFunc.h ****     This function disables FIQ interrupts by setting the F-bit in the CPSR.
 200:../Firmware/CMSIS/core_cmFunc.h ****     Can only be executed in Privileged modes.
 201:../Firmware/CMSIS/core_cmFunc.h ****  */
 202:../Firmware/CMSIS/core_cmFunc.h **** #define __disable_fault_irq               __disable_fiq
 203:../Firmware/CMSIS/core_cmFunc.h **** 
 204:../Firmware/CMSIS/core_cmFunc.h **** 
 205:../Firmware/CMSIS/core_cmFunc.h **** /** \brief  Get Base Priority
 206:../Firmware/CMSIS/core_cmFunc.h **** 
 207:../Firmware/CMSIS/core_cmFunc.h ****     This function returns the current value of the Base Priority register.
 208:../Firmware/CMSIS/core_cmFunc.h **** 
 209:../Firmware/CMSIS/core_cmFunc.h ****     \return               Base Priority register value
 210:../Firmware/CMSIS/core_cmFunc.h ****  */
 211:../Firmware/CMSIS/core_cmFunc.h **** __STATIC_INLINE uint32_t  __get_BASEPRI(void)
 212:../Firmware/CMSIS/core_cmFunc.h **** {
 213:../Firmware/CMSIS/core_cmFunc.h ****   register uint32_t __regBasePri         __ASM("basepri");
 214:../Firmware/CMSIS/core_cmFunc.h ****   return(__regBasePri);
 215:../Firmware/CMSIS/core_cmFunc.h **** }
 216:../Firmware/CMSIS/core_cmFunc.h **** 
 217:../Firmware/CMSIS/core_cmFunc.h **** 
 218:../Firmware/CMSIS/core_cmFunc.h **** /** \brief  Set Base Priority
 219:../Firmware/CMSIS/core_cmFunc.h **** 
 220:../Firmware/CMSIS/core_cmFunc.h ****     This function assigns the given value to the Base Priority register.
 221:../Firmware/CMSIS/core_cmFunc.h **** 
 222:../Firmware/CMSIS/core_cmFunc.h ****     \param [in]    basePri  Base Priority value to set
 223:../Firmware/CMSIS/core_cmFunc.h ****  */
 224:../Firmware/CMSIS/core_cmFunc.h **** __STATIC_INLINE void __set_BASEPRI(uint32_t basePri)
 225:../Firmware/CMSIS/core_cmFunc.h **** {
 226:../Firmware/CMSIS/core_cmFunc.h ****   register uint32_t __regBasePri         __ASM("basepri");
 227:../Firmware/CMSIS/core_cmFunc.h ****   __regBasePri = (basePri & 0xff);
 228:../Firmware/CMSIS/core_cmFunc.h **** }
 229:../Firmware/CMSIS/core_cmFunc.h **** 
 230:../Firmware/CMSIS/core_cmFunc.h **** 
 231:../Firmware/CMSIS/core_cmFunc.h **** /** \brief  Get Fault Mask
 232:../Firmware/CMSIS/core_cmFunc.h **** 
 233:../Firmware/CMSIS/core_cmFunc.h ****     This function returns the current value of the Fault Mask register.
 234:../Firmware/CMSIS/core_cmFunc.h **** 
 235:../Firmware/CMSIS/core_cmFunc.h ****     \return               Fault Mask register value
 236:../Firmware/CMSIS/core_cmFunc.h ****  */
 237:../Firmware/CMSIS/core_cmFunc.h **** __STATIC_INLINE uint32_t __get_FAULTMASK(void)
 238:../Firmware/CMSIS/core_cmFunc.h **** {
 239:../Firmware/CMSIS/core_cmFunc.h ****   register uint32_t __regFaultMask       __ASM("faultmask");
 240:../Firmware/CMSIS/core_cmFunc.h ****   return(__regFaultMask);
 241:../Firmware/CMSIS/core_cmFunc.h **** }
 242:../Firmware/CMSIS/core_cmFunc.h **** 
 243:../Firmware/CMSIS/core_cmFunc.h **** 
 244:../Firmware/CMSIS/core_cmFunc.h **** /** \brief  Set Fault Mask
 245:../Firmware/CMSIS/core_cmFunc.h **** 
 246:../Firmware/CMSIS/core_cmFunc.h ****     This function assigns the given value to the Fault Mask register.
 247:../Firmware/CMSIS/core_cmFunc.h **** 
 248:../Firmware/CMSIS/core_cmFunc.h ****     \param [in]    faultMask  Fault Mask value to set
 249:../Firmware/CMSIS/core_cmFunc.h ****  */
 250:../Firmware/CMSIS/core_cmFunc.h **** __STATIC_INLINE void __set_FAULTMASK(uint32_t faultMask)
 251:../Firmware/CMSIS/core_cmFunc.h **** {
 252:../Firmware/CMSIS/core_cmFunc.h ****   register uint32_t __regFaultMask       __ASM("faultmask");
 253:../Firmware/CMSIS/core_cmFunc.h ****   __regFaultMask = (faultMask & (uint32_t)1);
 254:../Firmware/CMSIS/core_cmFunc.h **** }
 255:../Firmware/CMSIS/core_cmFunc.h **** 
 256:../Firmware/CMSIS/core_cmFunc.h **** #endif /* (__CORTEX_M >= 0x03) */
 257:../Firmware/CMSIS/core_cmFunc.h **** 
 258:../Firmware/CMSIS/core_cmFunc.h **** 
 259:../Firmware/CMSIS/core_cmFunc.h **** #if       (__CORTEX_M == 0x04)
 260:../Firmware/CMSIS/core_cmFunc.h **** 
 261:../Firmware/CMSIS/core_cmFunc.h **** /** \brief  Get FPSCR
 262:../Firmware/CMSIS/core_cmFunc.h **** 
 263:../Firmware/CMSIS/core_cmFunc.h ****     This function returns the current value of the Floating Point Status/Control register.
 264:../Firmware/CMSIS/core_cmFunc.h **** 
 265:../Firmware/CMSIS/core_cmFunc.h ****     \return               Floating Point Status/Control register value
 266:../Firmware/CMSIS/core_cmFunc.h ****  */
 267:../Firmware/CMSIS/core_cmFunc.h **** __STATIC_INLINE uint32_t __get_FPSCR(void)
 268:../Firmware/CMSIS/core_cmFunc.h **** {
 269:../Firmware/CMSIS/core_cmFunc.h **** #if (__FPU_PRESENT == 1) && (__FPU_USED == 1)
 270:../Firmware/CMSIS/core_cmFunc.h ****   register uint32_t __regfpscr         __ASM("fpscr");
 271:../Firmware/CMSIS/core_cmFunc.h ****   return(__regfpscr);
 272:../Firmware/CMSIS/core_cmFunc.h **** #else
 273:../Firmware/CMSIS/core_cmFunc.h ****    return(0);
 274:../Firmware/CMSIS/core_cmFunc.h **** #endif
 275:../Firmware/CMSIS/core_cmFunc.h **** }
 276:../Firmware/CMSIS/core_cmFunc.h **** 
 277:../Firmware/CMSIS/core_cmFunc.h **** 
 278:../Firmware/CMSIS/core_cmFunc.h **** /** \brief  Set FPSCR
 279:../Firmware/CMSIS/core_cmFunc.h **** 
 280:../Firmware/CMSIS/core_cmFunc.h ****     This function assigns the given value to the Floating Point Status/Control register.
 281:../Firmware/CMSIS/core_cmFunc.h **** 
 282:../Firmware/CMSIS/core_cmFunc.h ****     \param [in]    fpscr  Floating Point Status/Control value to set
 283:../Firmware/CMSIS/core_cmFunc.h ****  */
 284:../Firmware/CMSIS/core_cmFunc.h **** __STATIC_INLINE void __set_FPSCR(uint32_t fpscr)
 285:../Firmware/CMSIS/core_cmFunc.h **** {
 286:../Firmware/CMSIS/core_cmFunc.h **** #if (__FPU_PRESENT == 1) && (__FPU_USED == 1)
 287:../Firmware/CMSIS/core_cmFunc.h ****   register uint32_t __regfpscr         __ASM("fpscr");
 288:../Firmware/CMSIS/core_cmFunc.h ****   __regfpscr = (fpscr);
 289:../Firmware/CMSIS/core_cmFunc.h **** #endif
 290:../Firmware/CMSIS/core_cmFunc.h **** }
 291:../Firmware/CMSIS/core_cmFunc.h **** 
 292:../Firmware/CMSIS/core_cmFunc.h **** #endif /* (__CORTEX_M == 0x04) */
 293:../Firmware/CMSIS/core_cmFunc.h **** 
 294:../Firmware/CMSIS/core_cmFunc.h **** 
 295:../Firmware/CMSIS/core_cmFunc.h **** #elif defined ( __ICCARM__ ) /*------------------ ICC Compiler -------------------*/
 296:../Firmware/CMSIS/core_cmFunc.h **** /* IAR iccarm specific functions */
 297:../Firmware/CMSIS/core_cmFunc.h **** 
 298:../Firmware/CMSIS/core_cmFunc.h **** #include <cmsis_iar.h>
 299:../Firmware/CMSIS/core_cmFunc.h **** 
 300:../Firmware/CMSIS/core_cmFunc.h **** 
 301:../Firmware/CMSIS/core_cmFunc.h **** #elif defined ( __TMS470__ ) /*---------------- TI CCS Compiler ------------------*/
 302:../Firmware/CMSIS/core_cmFunc.h **** /* TI CCS specific functions */
 303:../Firmware/CMSIS/core_cmFunc.h **** 
 304:../Firmware/CMSIS/core_cmFunc.h **** #include <cmsis_ccs.h>
 305:../Firmware/CMSIS/core_cmFunc.h **** 
 306:../Firmware/CMSIS/core_cmFunc.h **** 
 307:../Firmware/CMSIS/core_cmFunc.h **** #elif defined ( __GNUC__ ) /*------------------ GNU Compiler ---------------------*/
 308:../Firmware/CMSIS/core_cmFunc.h **** /* GNU gcc specific functions */
 309:../Firmware/CMSIS/core_cmFunc.h **** 
 310:../Firmware/CMSIS/core_cmFunc.h **** /** \brief  Enable IRQ Interrupts
 311:../Firmware/CMSIS/core_cmFunc.h **** 
 312:../Firmware/CMSIS/core_cmFunc.h ****   This function enables IRQ interrupts by clearing the I-bit in the CPSR.
 313:../Firmware/CMSIS/core_cmFunc.h ****   Can only be executed in Privileged modes.
 314:../Firmware/CMSIS/core_cmFunc.h ****  */
 315:../Firmware/CMSIS/core_cmFunc.h **** __attribute__( ( always_inline ) ) __STATIC_INLINE void __enable_irq(void)
 316:../Firmware/CMSIS/core_cmFunc.h **** {
 317:../Firmware/CMSIS/core_cmFunc.h ****   __ASM volatile ("cpsie i");
 318:../Firmware/CMSIS/core_cmFunc.h **** }
 319:../Firmware/CMSIS/core_cmFunc.h **** 
 320:../Firmware/CMSIS/core_cmFunc.h **** 
 321:../Firmware/CMSIS/core_cmFunc.h **** /** \brief  Disable IRQ Interrupts
 322:../Firmware/CMSIS/core_cmFunc.h **** 
 323:../Firmware/CMSIS/core_cmFunc.h ****   This function disables IRQ interrupts by setting the I-bit in the CPSR.
 324:../Firmware/CMSIS/core_cmFunc.h ****   Can only be executed in Privileged modes.
 325:../Firmware/CMSIS/core_cmFunc.h ****  */
 326:../Firmware/CMSIS/core_cmFunc.h **** __attribute__( ( always_inline ) ) __STATIC_INLINE void __disable_irq(void)
 327:../Firmware/CMSIS/core_cmFunc.h **** {
 328:../Firmware/CMSIS/core_cmFunc.h ****   __ASM volatile ("cpsid i");
 769              		.loc 2 328 3
 770              		.syntax unified
 771              	@ 328 "../Firmware/CMSIS/core_cmFunc.h" 1
 772 000e 72B6     		cpsid i
 773              	@ 0 "" 2
 329:../Firmware/CMSIS/core_cmFunc.h **** }
 774              		.loc 2 329 1
 775              		.thumb
 776              		.syntax unified
 777 0010 00BF     		nop
 778              	.LBE27:
 779              	.LBE26:
 332:../app/acmotor.c ****     /* Disable interrupts temporarily to avoid race conditions */
 333:../app/acmotor.c ****     __disable_irq();
 334:../app/acmotor.c ****     /* Set error state */
 335:../app/acmotor.c ****     motor_error = error_code;
 780              		.loc 1 335 17
 781 0012 094A     		ldr	r2, .L34
 782 0014 FB79     		ldrb	r3, [r7, #7]
 783 0016 1370     		strb	r3, [r2]
 336:../app/acmotor.c ****     grind_motor_state = MOTOR_STATE_ERROR;
 784              		.loc 1 336 23
 785 0018 084B     		ldr	r3, .L34+4
 786 001a 0222     		movs	r2, #2
 787 001c 1A70     		strb	r2, [r3]
 337:../app/acmotor.c ****     
 338:../app/acmotor.c ****     /* Clear target speed */
 339:../app/acmotor.c ****     target_speed_rpm = 0;
 788              		.loc 1 339 22
 789 001e 084B     		ldr	r3, .L34+8
 790 0020 0022     		movs	r2, #0
 791 0022 1A80     		strh	r2, [r3]	@ movhi
 340:../app/acmotor.c ****     target_phase_delay_us = 0;
 792              		.loc 1 340 27
 793 0024 074B     		ldr	r3, .L34+12
 794 0026 0022     		movs	r2, #0
 795 0028 1A80     		strh	r2, [r3]	@ movhi
 796              	.LBB28:
 797              	.LBB29:
 317:../Firmware/CMSIS/core_cmFunc.h **** }
 798              		.loc 2 317 3
 799              		.syntax unified
 800              	@ 317 "../Firmware/CMSIS/core_cmFunc.h" 1
 801 002a 62B6     		cpsie i
 802              	@ 0 "" 2
 318:../Firmware/CMSIS/core_cmFunc.h **** 
 803              		.loc 2 318 1
 804              		.thumb
 805              		.syntax unified
 806 002c 00BF     		nop
 807              	.LBE29:
 808              	.LBE28:
 341:../app/acmotor.c ****     __enable_irq();
 342:../app/acmotor.c **** }
 809              		.loc 1 342 1
 810 002e 00BF     		nop
 811 0030 0837     		adds	r7, r7, #8
 812              		.cfi_def_cfa_offset 8
 813 0032 BD46     		mov	sp, r7
 814              		.cfi_def_cfa_register 13
 815              		@ sp needed
 816 0034 80BD     		pop	{r7, pc}
 817              	.L35:
 818 0036 00BF     		.align	2
 819              	.L34:
 820 0038 00000000 		.word	motor_error
 821 003c 00000000 		.word	grind_motor_state
 822 0040 00000000 		.word	target_speed_rpm
 823 0044 00000000 		.word	target_phase_delay_us
 824              		.cfi_endproc
 825              	.LFE125:
 827              		.section	.text.ac_grind_health_monitor,"ax",%progbits
 828              		.align	1
 829              		.syntax unified
 830              		.thumb
 831              		.thumb_func
 832              		.fpu softvfp
 834              	ac_grind_health_monitor:
 835              	.LFB126:
 343:../app/acmotor.c **** 
 344:../app/acmotor.c **** /**
 345:../app/acmotor.c ****   * @brief  Health monitoring routine (call periodically, e.g., every 10ms)
 346:../app/acmotor.c ****   */
 347:../app/acmotor.c **** static void ac_grind_health_monitor(void)
 348:../app/acmotor.c **** {
 836              		.loc 1 348 1
 837              		.cfi_startproc
 838              		@ args = 0, pretend = 0, frame = 8
 839              		@ frame_needed = 1, uses_anonymous_args = 0
 840 0000 80B5     		push	{r7, lr}
 841              		.cfi_def_cfa_offset 8
 842              		.cfi_offset 7, -8
 843              		.cfi_offset 14, -4
 844 0002 82B0     		sub	sp, sp, #8
 845              		.cfi_def_cfa_offset 16
 846 0004 00AF     		add	r7, sp, #0
 847              		.cfi_def_cfa_register 7
 349:../app/acmotor.c ****     uint32_t now = systick_get();
 848              		.loc 1 349 20
 849 0006 FFF7FEFF 		bl	systick_get
 850 000a 7860     		str	r0, [r7, #4]
 350:../app/acmotor.c ****     
 351:../app/acmotor.c ****     /* Check for zero crossing loss (only when motor running) */
 352:../app/acmotor.c ****     if (grind_motor_state == MOTOR_STATE_RUNNING) {
 851              		.loc 1 352 27
 852 000c 114B     		ldr	r3, .L40
 853 000e 1B78     		ldrb	r3, [r3]	@ zero_extendqisi2
 854              		.loc 1 352 8
 855 0010 012B     		cmp	r3, #1
 856 0012 08D1     		bne	.L37
 353:../app/acmotor.c ****         if ((now - last_zero_cross_tick_ms) > ZERO_CROSS_TIMEOUT_MS) {
 857              		.loc 1 353 18
 858 0014 104B     		ldr	r3, .L40+4
 859 0016 1B68     		ldr	r3, [r3]
 860 0018 7A68     		ldr	r2, [r7, #4]
 861 001a D31A     		subs	r3, r2, r3
 862              		.loc 1 353 12
 863 001c 192B     		cmp	r3, #25
 864 001e 02D9     		bls	.L37
 354:../app/acmotor.c ****             ac_motor1_safe_shutdown(ERROR_ZERO_CROSS_LOST);
 865              		.loc 1 354 13
 866 0020 0120     		movs	r0, #1
 867 0022 FFF7FEFF 		bl	ac_motor1_safe_shutdown
 868              	.L37:
 355:../app/acmotor.c ****         }
 356:../app/acmotor.c ****     }
 357:../app/acmotor.c ****     
 358:../app/acmotor.c ****     /* Check for feedback signal loss (optional, when running) */
 359:../app/acmotor.c ****     if ((grind_motor_state == MOTOR_STATE_RUNNING) && (target_speed_rpm > 0)) {
 869              		.loc 1 359 28
 870 0026 0B4B     		ldr	r3, .L40
 871 0028 1B78     		ldrb	r3, [r3]	@ zero_extendqisi2
 872              		.loc 1 359 8
 873 002a 012B     		cmp	r3, #1
 874 002c 0DD1     		bne	.L39
 875              		.loc 1 359 73 discriminator 1
 876 002e 0B4B     		ldr	r3, .L40+8
 877 0030 1B88     		ldrh	r3, [r3]
 878              		.loc 1 359 52 discriminator 1
 879 0032 002B     		cmp	r3, #0
 880 0034 09D0     		beq	.L39
 360:../app/acmotor.c ****         if ((now - last_feedback_tick_ms) > FEEDBACK_TIMEOUT_MS) {
 881              		.loc 1 360 18
 882 0036 0A4B     		ldr	r3, .L40+12
 883 0038 1B68     		ldr	r3, [r3]
 884 003a 7A68     		ldr	r2, [r7, #4]
 885 003c D31A     		subs	r3, r2, r3
 886              		.loc 1 360 12
 887 003e B3F5FA7F 		cmp	r3, #500
 888 0042 02D9     		bls	.L39
 361:../app/acmotor.c ****             ac_motor1_safe_shutdown(ERROR_FEEDBACK_LOST);
 889              		.loc 1 361 13
 890 0044 0220     		movs	r0, #2
 891 0046 FFF7FEFF 		bl	ac_motor1_safe_shutdown
 892              	.L39:
 362:../app/acmotor.c ****         }
 363:../app/acmotor.c ****     }
 364:../app/acmotor.c ****     
 365:../app/acmotor.c ****     /* Clear error after recovery attempt (if motor stopped and error set) */
 366:../app/acmotor.c ****     if (grind_motor_state == MOTOR_STATE_ERROR) {
 367:../app/acmotor.c ****         /* User must call ac_motor_clear_error() after fixing issue */
 368:../app/acmotor.c ****         /* This function does not auto-clear to avoid automatic unsafe restart */
 369:../app/acmotor.c ****     }
 370:../app/acmotor.c **** }
 893              		.loc 1 370 1
 894 004a 00BF     		nop
 895 004c 0837     		adds	r7, r7, #8
 896              		.cfi_def_cfa_offset 8
 897 004e BD46     		mov	sp, r7
 898              		.cfi_def_cfa_register 13
 899              		@ sp needed
 900 0050 80BD     		pop	{r7, pc}
 901              	.L41:
 902 0052 00BF     		.align	2
 903              	.L40:
 904 0054 00000000 		.word	grind_motor_state
 905 0058 00000000 		.word	last_zero_cross_tick_ms
 906 005c 00000000 		.word	target_speed_rpm
 907 0060 00000000 		.word	last_feedback_tick_ms
 908              		.cfi_endproc
 909              	.LFE126:
 911              		.section	.text.ac_motor_set_phase_delay,"ax",%progbits
 912              		.align	1
 913              		.syntax unified
 914              		.thumb
 915              		.thumb_func
 916              		.fpu softvfp
 918              	ac_motor_set_phase_delay:
 919              	.LFB127:
 371:../app/acmotor.c **** 
 372:../app/acmotor.c **** /**
 373:../app/acmotor.c ****   * @brief  Set phase delay with validation and atomic update
 374:../app/acmotor.c ****   * @param  delay_us: Delay time in microseconds (0 - half-cycle)
 375:../app/acmotor.c ****   * @retval None
 376:../app/acmotor.c ****   */
 377:../app/acmotor.c **** static void ac_motor_set_phase_delay(uint16_t delay_us)
 378:../app/acmotor.c **** {
 920              		.loc 1 378 1
 921              		.cfi_startproc
 922              		@ args = 0, pretend = 0, frame = 16
 923              		@ frame_needed = 1, uses_anonymous_args = 0
 924              		@ link register save eliminated.
 925 0000 80B4     		push	{r7}
 926              		.cfi_def_cfa_offset 4
 927              		.cfi_offset 7, -4
 928 0002 85B0     		sub	sp, sp, #20
 929              		.cfi_def_cfa_offset 24
 930 0004 00AF     		add	r7, sp, #0
 931              		.cfi_def_cfa_register 7
 932 0006 0346     		mov	r3, r0
 933 0008 FB80     		strh	r3, [r7, #6]	@ movhi
 379:../app/acmotor.c ****     uint16_t half_cycle_us = (AC_FREQUENCY_50HZ == 1) ? 10000 : 8333;
 934              		.loc 1 379 14
 935 000a 42F28D03 		movw	r3, #8333
 936 000e FB81     		strh	r3, [r7, #14]	@ movhi
 380:../app/acmotor.c ****     
 381:../app/acmotor.c ****     /* Validate input */
 382:../app/acmotor.c ****     if (delay_us > half_cycle_us) {
 937              		.loc 1 382 8
 938 0010 FA88     		ldrh	r2, [r7, #6]
 939 0012 FB89     		ldrh	r3, [r7, #14]
 940 0014 9A42     		cmp	r2, r3
 941 0016 01D9     		bls	.L43
 383:../app/acmotor.c ****         delay_us = half_cycle_us;
 942              		.loc 1 383 18
 943 0018 FB89     		ldrh	r3, [r7, #14]	@ movhi
 944 001a FB80     		strh	r3, [r7, #6]	@ movhi
 945              	.L43:
 946              	.LBB30:
 947              	.LBB31:
 328:../Firmware/CMSIS/core_cmFunc.h **** }
 948              		.loc 2 328 3
 949              		.syntax unified
 950              	@ 328 "../Firmware/CMSIS/core_cmFunc.h" 1
 951 001c 72B6     		cpsid i
 952              	@ 0 "" 2
 953              		.loc 2 329 1
 954              		.thumb
 955              		.syntax unified
 956 001e 00BF     		nop
 957              	.LBE31:
 958              	.LBE30:
 384:../app/acmotor.c ****     }
 385:../app/acmotor.c ****     
 386:../app/acmotor.c ****     /* Atomic update */
 387:../app/acmotor.c ****     __disable_irq();
 388:../app/acmotor.c ****     target_phase_delay_us = delay_us;
 959              		.loc 1 388 27
 960 0020 044A     		ldr	r2, .L44
 961 0022 FB88     		ldrh	r3, [r7, #6]	@ movhi
 962 0024 1380     		strh	r3, [r2]	@ movhi
 963              	.LBB32:
 964              	.LBB33:
 317:../Firmware/CMSIS/core_cmFunc.h **** }
 965              		.loc 2 317 3
 966              		.syntax unified
 967              	@ 317 "../Firmware/CMSIS/core_cmFunc.h" 1
 968 0026 62B6     		cpsie i
 969              	@ 0 "" 2
 318:../Firmware/CMSIS/core_cmFunc.h **** 
 970              		.loc 2 318 1
 971              		.thumb
 972              		.syntax unified
 973 0028 00BF     		nop
 974              	.LBE33:
 975              	.LBE32:
 389:../app/acmotor.c ****     __enable_irq();
 390:../app/acmotor.c **** }
 976              		.loc 1 390 1
 977 002a 00BF     		nop
 978 002c 1437     		adds	r7, r7, #20
 979              		.cfi_def_cfa_offset 4
 980 002e BD46     		mov	sp, r7
 981              		.cfi_def_cfa_register 13
 982              		@ sp needed
 983 0030 80BC     		pop	{r7}
 984              		.cfi_restore 7
 985              		.cfi_def_cfa_offset 0
 986 0032 7047     		bx	lr
 987              	.L45:
 988              		.align	2
 989              	.L44:
 990 0034 00000000 		.word	target_phase_delay_us
 991              		.cfi_endproc
 992              	.LFE127:
 994              		.section	.text.ac_motor_clear_error,"ax",%progbits
 995              		.align	1
 996              		.global	ac_motor_clear_error
 997              		.syntax unified
 998              		.thumb
 999              		.thumb_func
 1000              		.fpu softvfp
 1002              	ac_motor_clear_error:
 1003              	.LFB128:
 391:../app/acmotor.c **** 
 392:../app/acmotor.c **** /**
 393:../app/acmotor.c ****   * @brief  Clear error and return to stopped state
 394:../app/acmotor.c ****   */
 395:../app/acmotor.c **** void ac_motor_clear_error(void)
 396:../app/acmotor.c **** {
 1004              		.loc 1 396 1
 1005              		.cfi_startproc
 1006              		@ args = 0, pretend = 0, frame = 0
 1007              		@ frame_needed = 1, uses_anonymous_args = 0
 1008              		@ link register save eliminated.
 1009 0000 80B4     		push	{r7}
 1010              		.cfi_def_cfa_offset 4
 1011              		.cfi_offset 7, -4
 1012 0002 00AF     		add	r7, sp, #0
 1013              		.cfi_def_cfa_register 7
 1014              	.LBB34:
 1015              	.LBB35:
 328:../Firmware/CMSIS/core_cmFunc.h **** }
 1016              		.loc 2 328 3
 1017              		.syntax unified
 1018              	@ 328 "../Firmware/CMSIS/core_cmFunc.h" 1
 1019 0004 72B6     		cpsid i
 1020              	@ 0 "" 2
 1021              		.loc 2 329 1
 1022              		.thumb
 1023              		.syntax unified
 1024 0006 00BF     		nop
 1025              	.LBE35:
 1026              	.LBE34:
 397:../app/acmotor.c ****     __disable_irq();
 398:../app/acmotor.c ****     grind_motor_state = MOTOR_STATE_STOPPED;
 1027              		.loc 1 398 23
 1028 0008 054B     		ldr	r3, .L47
 1029 000a 0022     		movs	r2, #0
 1030 000c 1A70     		strb	r2, [r3]
 399:../app/acmotor.c ****     motor_error = ERROR_NONE;
 1031              		.loc 1 399 17
 1032 000e 054B     		ldr	r3, .L47+4
 1033 0010 0022     		movs	r2, #0
 1034 0012 1A70     		strb	r2, [r3]
 1035              	.LBB36:
 1036              	.LBB37:
 317:../Firmware/CMSIS/core_cmFunc.h **** }
 1037              		.loc 2 317 3
 1038              		.syntax unified
 1039              	@ 317 "../Firmware/CMSIS/core_cmFunc.h" 1
 1040 0014 62B6     		cpsie i
 1041              	@ 0 "" 2
 318:../Firmware/CMSIS/core_cmFunc.h **** 
 1042              		.loc 2 318 1
 1043              		.thumb
 1044              		.syntax unified
 1045 0016 00BF     		nop
 1046              	.LBE37:
 1047              	.LBE36:
 400:../app/acmotor.c ****     __enable_irq();
 401:../app/acmotor.c **** }
 1048              		.loc 1 401 1
 1049 0018 00BF     		nop
 1050 001a BD46     		mov	sp, r7
 1051              		.cfi_def_cfa_register 13
 1052              		@ sp needed
 1053 001c 80BC     		pop	{r7}
 1054              		.cfi_restore 7
 1055              		.cfi_def_cfa_offset 0
 1056 001e 7047     		bx	lr
 1057              	.L48:
 1058              		.align	2
 1059              	.L47:
 1060 0020 00000000 		.word	grind_motor_state
 1061 0024 00000000 		.word	motor_error
 1062              		.cfi_endproc
 1063              	.LFE128:
 1065              		.section	.text.gd_acmotor_Init,"ax",%progbits
 1066              		.align	1
 1067              		.global	gd_acmotor_Init
 1068              		.syntax unified
 1069              		.thumb
 1070              		.thumb_func
 1071              		.fpu softvfp
 1073              	gd_acmotor_Init:
 1074              	.LFB129:
 402:../app/acmotor.c **** 
 403:../app/acmotor.c **** /*============================ Public API ============================*/
 404:../app/acmotor.c **** 
 405:../app/acmotor.c **** /**
 406:../app/acmotor.c ****   * @brief  Initialize AC motor driver with enhanced reliability
 407:../app/acmotor.c ****   * @param  None
 408:../app/acmotor.c ****   * @retval None
 409:../app/acmotor.c ****   */
 410:../app/acmotor.c **** void gd_acmotor_Init(void)
 411:../app/acmotor.c **** {
 1075              		.loc 1 411 1
 1076              		.cfi_startproc
 1077              		@ args = 0, pretend = 0, frame = 0
 1078              		@ frame_needed = 1, uses_anonymous_args = 0
 1079 0000 80B5     		push	{r7, lr}
 1080              		.cfi_def_cfa_offset 8
 1081              		.cfi_offset 7, -8
 1082              		.cfi_offset 14, -4
 1083 0002 00AF     		add	r7, sp, #0
 1084              		.cfi_def_cfa_register 7
 412:../app/acmotor.c ****     /* Initialize hardware */
 413:../app/acmotor.c ****     ac_motor_gpio_init();
 1085              		.loc 1 413 5
 1086 0004 FFF7FEFF 		bl	ac_motor_gpio_init
 414:../app/acmotor.c ****     ac_motor_zero_cross_exti_init();
 1087              		.loc 1 414 5
 1088 0008 FFF7FEFF 		bl	ac_motor_zero_cross_exti_init
 415:../app/acmotor.c ****     ac_motor_feedback_timer_init(AC_GRIND_FB_TIMER, AC_GRIND_FB_CLK);
 1089              		.loc 1 415 5
 1090 000c 4FF4E061 		mov	r1, #1792
 1091 0010 4FF08040 		mov	r0, #1073741824
 1092 0014 FFF7FEFF 		bl	ac_motor_feedback_timer_init
 416:../app/acmotor.c ****     ac_motor_phase_timer_init(AC_GRIND_PHASE1_TIMER, AC_GRIND_PHASE1_CLK);
 1093              		.loc 1 416 5
 1094 0018 40F20471 		movw	r1, #1796
 1095 001c 1A48     		ldr	r0, .L50
 1096 001e FFF7FEFF 		bl	ac_motor_phase_timer_init
 417:../app/acmotor.c ****     ac_motor_phase_timer_init(AC_GRIND_PHASE2_TIMER, AC_GRIND_PHASE2_CLK);
 1097              		.loc 1 417 5
 1098 0022 40F20571 		movw	r1, #1797
 1099 0026 1948     		ldr	r0, .L50+4
 1100 0028 FFF7FEFF 		bl	ac_motor_phase_timer_init
 418:../app/acmotor.c ****     ac_motor_phase_timer_init(AC_HEAT_PHASE1_TIMER, AC_HEAT_PHASE1_CLK);
 1101              		.loc 1 418 5
 1102 002c 40F20271 		movw	r1, #1794
 1103 0030 1748     		ldr	r0, .L50+8
 1104 0032 FFF7FEFF 		bl	ac_motor_phase_timer_init
 419:../app/acmotor.c ****     ac_motor_phase_timer_init(AC_HEAT_PHASE2_TIMER, AC_HEAT_PHASE2_CLK);
 1105              		.loc 1 419 5
 1106 0036 40F20371 		movw	r1, #1795
 1107 003a 1648     		ldr	r0, .L50+12
 1108 003c FFF7FEFF 		bl	ac_motor_phase_timer_init
 420:../app/acmotor.c **** 
 421:../app/acmotor.c ****     /* Initialize variables */
 422:../app/acmotor.c ****     heat_motor_state = MOTOR_STATE_STOPPED;
 1109              		.loc 1 422 22
 1110 0040 154B     		ldr	r3, .L50+16
 1111 0042 0022     		movs	r2, #0
 1112 0044 1A70     		strb	r2, [r3]
 423:../app/acmotor.c ****     pumb_motor_state = MOTOR_STATE_STOPPED;
 1113              		.loc 1 423 22
 1114 0046 154B     		ldr	r3, .L50+20
 1115 0048 0022     		movs	r2, #0
 1116 004a 1A70     		strb	r2, [r3]
 424:../app/acmotor.c ****     grind_motor_state = MOTOR_STATE_STOPPED;
 1117              		.loc 1 424 23
 1118 004c 144B     		ldr	r3, .L50+24
 1119 004e 0022     		movs	r2, #0
 1120 0050 1A70     		strb	r2, [r3]
 425:../app/acmotor.c ****     motor_error = ERROR_NONE;
 1121              		.loc 1 425 17
 1122 0052 144B     		ldr	r3, .L50+28
 1123 0054 0022     		movs	r2, #0
 1124 0056 1A70     		strb	r2, [r3]
 426:../app/acmotor.c ****     target_phase_delay_us = 0;
 1125              		.loc 1 426 27
 1126 0058 134B     		ldr	r3, .L50+32
 1127 005a 0022     		movs	r2, #0
 1128 005c 1A80     		strh	r2, [r3]	@ movhi
 427:../app/acmotor.c ****     current_phase_delay_us = 0;
 1129              		.loc 1 427 28
 1130 005e 134B     		ldr	r3, .L50+36
 1131 0060 0022     		movs	r2, #0
 1132 0062 1A80     		strh	r2, [r3]	@ movhi
 428:../app/acmotor.c ****     current_speed_rpm = 0;
 1133              		.loc 1 428 23
 1134 0064 124B     		ldr	r3, .L50+40
 1135 0066 0022     		movs	r2, #0
 1136 0068 1A80     		strh	r2, [r3]	@ movhi
 429:../app/acmotor.c ****     target_speed_rpm = 0;
 1137              		.loc 1 429 22
 1138 006a 124B     		ldr	r3, .L50+44
 1139 006c 0022     		movs	r2, #0
 1140 006e 1A80     		strh	r2, [r3]	@ movhi
 430:../app/acmotor.c ****     last_zero_cross_tick_ms = systick_get();
 1141              		.loc 1 430 31
 1142 0070 FFF7FEFF 		bl	systick_get
 1143 0074 0346     		mov	r3, r0
 1144              		.loc 1 430 29
 1145 0076 104A     		ldr	r2, .L50+48
 1146 0078 1360     		str	r3, [r2]
 431:../app/acmotor.c ****     last_feedback_tick_ms = last_zero_cross_tick_ms;
 1147              		.loc 1 431 27
 1148 007a 0F4B     		ldr	r3, .L50+48
 1149 007c 1B68     		ldr	r3, [r3]
 1150 007e 0F4A     		ldr	r2, .L50+52
 1151 0080 1360     		str	r3, [r2]
 432:../app/acmotor.c **** }
 1152              		.loc 1 432 1
 1153 0082 00BF     		nop
 1154 0084 80BD     		pop	{r7, pc}
 1155              	.L51:
 1156 0086 00BF     		.align	2
 1157              	.L50:
 1158 0088 00100040 		.word	1073745920
 1159 008c 00140040 		.word	1073746944
 1160 0090 00080040 		.word	1073743872
 1161 0094 000C0040 		.word	1073744896
 1162 0098 00000000 		.word	heat_motor_state
 1163 009c 00000000 		.word	pumb_motor_state
 1164 00a0 00000000 		.word	grind_motor_state
 1165 00a4 00000000 		.word	motor_error
 1166 00a8 00000000 		.word	target_phase_delay_us
 1167 00ac 00000000 		.word	current_phase_delay_us
 1168 00b0 00000000 		.word	current_speed_rpm
 1169 00b4 00000000 		.word	target_speed_rpm
 1170 00b8 00000000 		.word	last_zero_cross_tick_ms
 1171 00bc 00000000 		.word	last_feedback_tick_ms
 1172              		.cfi_endproc
 1173              	.LFE129:
 1175              		.section	.text.ac_heat_start,"ax",%progbits
 1176              		.align	1
 1177              		.global	ac_heat_start
 1178              		.syntax unified
 1179              		.thumb
 1180              		.thumb_func
 1181              		.fpu softvfp
 1183              	ac_heat_start:
 1184              	.LFB130:
 433:../app/acmotor.c **** 
 434:../app/acmotor.c **** /**
 435:../app/acmotor.c ****   * @brief  Start AC heat motor
 436:../app/acmotor.c ****   * @param  None
 437:../app/acmotor.c ****   * @retval None
 438:../app/acmotor.c ****   */
 439:../app/acmotor.c **** void ac_heat_start(void)
 440:../app/acmotor.c **** {
 1185              		.loc 1 440 1
 1186              		.cfi_startproc
 1187              		@ args = 0, pretend = 0, frame = 0
 1188              		@ frame_needed = 1, uses_anonymous_args = 0
 1189 0000 80B5     		push	{r7, lr}
 1190              		.cfi_def_cfa_offset 8
 1191              		.cfi_offset 7, -8
 1192              		.cfi_offset 14, -4
 1193 0002 00AF     		add	r7, sp, #0
 1194              		.cfi_def_cfa_register 7
 441:../app/acmotor.c ****     if (heat_motor_state == MOTOR_STATE_RUNNING) {
 1195              		.loc 1 441 26
 1196 0004 084B     		ldr	r3, .L56
 1197 0006 1B78     		ldrb	r3, [r3]	@ zero_extendqisi2
 1198              		.loc 1 441 8
 1199 0008 012B     		cmp	r3, #1
 1200 000a 0BD0     		beq	.L55
 442:../app/acmotor.c ****         /* Cannot start when in error state - must clear error first */
 443:../app/acmotor.c ****         return;
 444:../app/acmotor.c ****     }
 445:../app/acmotor.c ****     /* Update state */
 446:../app/acmotor.c ****     heat_motor_state = MOTOR_STATE_RUNNING;
 1201              		.loc 1 446 22
 1202 000c 064B     		ldr	r3, .L56
 1203 000e 0122     		movs	r2, #1
 1204 0010 1A70     		strb	r2, [r3]
 447:../app/acmotor.c ****     motor_error = ERROR_NONE;
 1205              		.loc 1 447 17
 1206 0012 064B     		ldr	r3, .L56+4
 1207 0014 0022     		movs	r2, #0
 1208 0016 1A70     		strb	r2, [r3]
 448:../app/acmotor.c ****     
 449:../app/acmotor.c ****     /* Reset timeout counters */
 450:../app/acmotor.c ****     last_zero_cross_tick_ms = systick_get();
 1209              		.loc 1 450 31
 1210 0018 FFF7FEFF 		bl	systick_get
 1211 001c 0346     		mov	r3, r0
 1212              		.loc 1 450 29
 1213 001e 044A     		ldr	r2, .L56+8
 1214 0020 1360     		str	r3, [r2]
 1215 0022 00E0     		b	.L52
 1216              	.L55:
 443:../app/acmotor.c ****     }
 1217              		.loc 1 443 9
 1218 0024 00BF     		nop
 1219              	.L52:
 451:../app/acmotor.c **** }
 1220              		.loc 1 451 1
 1221 0026 80BD     		pop	{r7, pc}
 1222              	.L57:
 1223              		.align	2
 1224              	.L56:
 1225 0028 00000000 		.word	heat_motor_state
 1226 002c 00000000 		.word	motor_error
 1227 0030 00000000 		.word	last_zero_cross_tick_ms
 1228              		.cfi_endproc
 1229              	.LFE130:
 1231              		.section	.text.ac_pumb_start,"ax",%progbits
 1232              		.align	1
 1233              		.global	ac_pumb_start
 1234              		.syntax unified
 1235              		.thumb
 1236              		.thumb_func
 1237              		.fpu softvfp
 1239              	ac_pumb_start:
 1240              	.LFB131:
 452:../app/acmotor.c **** 
 453:../app/acmotor.c **** /**
 454:../app/acmotor.c ****   * @brief  Start AC pumb motor
 455:../app/acmotor.c ****   * @param  initial_mode:duty or continue
 456:../app/acmotor.c ****   * @retval None
 457:../app/acmotor.c ****   */
 458:../app/acmotor.c **** void ac_pumb_start(uint8_t mode)
 459:../app/acmotor.c **** {
 1241              		.loc 1 459 1
 1242              		.cfi_startproc
 1243              		@ args = 0, pretend = 0, frame = 8
 1244              		@ frame_needed = 1, uses_anonymous_args = 0
 1245 0000 80B5     		push	{r7, lr}
 1246              		.cfi_def_cfa_offset 8
 1247              		.cfi_offset 7, -8
 1248              		.cfi_offset 14, -4
 1249 0002 82B0     		sub	sp, sp, #8
 1250              		.cfi_def_cfa_offset 16
 1251 0004 00AF     		add	r7, sp, #0
 1252              		.cfi_def_cfa_register 7
 1253 0006 0346     		mov	r3, r0
 1254 0008 FB71     		strb	r3, [r7, #7]
 460:../app/acmotor.c ****     if (pumb_motor_state == MOTOR_STATE_RUNNING) {
 1255              		.loc 1 460 26
 1256 000a 0E4B     		ldr	r3, .L62
 1257 000c 1B78     		ldrb	r3, [r3]	@ zero_extendqisi2
 1258              		.loc 1 460 8
 1259 000e 012B     		cmp	r3, #1
 1260 0010 14D0     		beq	.L61
 461:../app/acmotor.c ****         /* Cannot start when in error state - must clear error first */
 462:../app/acmotor.c ****         return;
 463:../app/acmotor.c ****     }
 464:../app/acmotor.c ****     pumb_motor_mode = mode;
 1261              		.loc 1 464 21
 1262 0012 0D4A     		ldr	r2, .L62+4
 1263 0014 FB79     		ldrb	r3, [r7, #7]
 1264 0016 1370     		strb	r3, [r2]
 465:../app/acmotor.c ****     pumb_motor_duty = 0;
 1265              		.loc 1 465 21
 1266 0018 0C4B     		ldr	r3, .L62+8
 1267 001a 0022     		movs	r2, #0
 1268 001c 1A70     		strb	r2, [r3]
 466:../app/acmotor.c ****     steam_cycle_counter = 0;
 1269              		.loc 1 466 25
 1270 001e 0C4B     		ldr	r3, .L62+12
 1271 0020 0022     		movs	r2, #0
 1272 0022 1A80     		strh	r2, [r3]	@ movhi
 467:../app/acmotor.c ****     
 468:../app/acmotor.c ****     /* Update state */
 469:../app/acmotor.c ****     pumb_motor_state = MOTOR_STATE_RUNNING;
 1273              		.loc 1 469 22
 1274 0024 074B     		ldr	r3, .L62
 1275 0026 0122     		movs	r2, #1
 1276 0028 1A70     		strb	r2, [r3]
 470:../app/acmotor.c ****     motor_error = ERROR_NONE;
 1277              		.loc 1 470 17
 1278 002a 0A4B     		ldr	r3, .L62+16
 1279 002c 0022     		movs	r2, #0
 1280 002e 1A70     		strb	r2, [r3]
 471:../app/acmotor.c ****     
 472:../app/acmotor.c ****     /* Reset timeout counters */
 473:../app/acmotor.c ****     last_zero_cross_tick_ms = systick_get();
 1281              		.loc 1 473 31
 1282 0030 FFF7FEFF 		bl	systick_get
 1283 0034 0346     		mov	r3, r0
 1284              		.loc 1 473 29
 1285 0036 084A     		ldr	r2, .L62+20
 1286 0038 1360     		str	r3, [r2]
 1287 003a 00E0     		b	.L58
 1288              	.L61:
 462:../app/acmotor.c ****     }
 1289              		.loc 1 462 9
 1290 003c 00BF     		nop
 1291              	.L58:
 474:../app/acmotor.c **** }
 1292              		.loc 1 474 1
 1293 003e 0837     		adds	r7, r7, #8
 1294              		.cfi_def_cfa_offset 8
 1295 0040 BD46     		mov	sp, r7
 1296              		.cfi_def_cfa_register 13
 1297              		@ sp needed
 1298 0042 80BD     		pop	{r7, pc}
 1299              	.L63:
 1300              		.align	2
 1301              	.L62:
 1302 0044 00000000 		.word	pumb_motor_state
 1303 0048 00000000 		.word	pumb_motor_mode
 1304 004c 00000000 		.word	pumb_motor_duty
 1305 0050 00000000 		.word	steam_cycle_counter
 1306 0054 00000000 		.word	motor_error
 1307 0058 00000000 		.word	last_zero_cross_tick_ms
 1308              		.cfi_endproc
 1309              	.LFE131:
 1311              		.section	.text.ac_grind_start,"ax",%progbits
 1312              		.align	1
 1313              		.global	ac_grind_start
 1314              		.syntax unified
 1315              		.thumb
 1316              		.thumb_func
 1317              		.fpu softvfp
 1319              	ac_grind_start:
 1320              	.LFB132:
 475:../app/acmotor.c **** 
 476:../app/acmotor.c **** /**
 477:../app/acmotor.c ****   * @brief  Start AC grind motor
 478:../app/acmotor.c ****   * @param  initial_speed_rpm: Initial target speed (RPM)
 479:../app/acmotor.c ****   * @retval None
 480:../app/acmotor.c ****   */
 481:../app/acmotor.c **** void ac_grind_start(uint16_t initial_speed_rpm)
 482:../app/acmotor.c **** {
 1321              		.loc 1 482 1
 1322              		.cfi_startproc
 1323              		@ args = 0, pretend = 0, frame = 16
 1324              		@ frame_needed = 1, uses_anonymous_args = 0
 1325 0000 80B5     		push	{r7, lr}
 1326              		.cfi_def_cfa_offset 8
 1327              		.cfi_offset 7, -8
 1328              		.cfi_offset 14, -4
 1329 0002 84B0     		sub	sp, sp, #16
 1330              		.cfi_def_cfa_offset 24
 1331 0004 00AF     		add	r7, sp, #0
 1332              		.cfi_def_cfa_register 7
 1333 0006 0346     		mov	r3, r0
 1334 0008 FB80     		strh	r3, [r7, #6]	@ movhi
 483:../app/acmotor.c ****     uint16_t angle;
 484:../app/acmotor.c ****     if ((grind_motor_state == MOTOR_STATE_RUNNING) ||(grind_motor_state == MOTOR_STATE_ERROR)) {
 1335              		.loc 1 484 28
 1336 000a 1F4B     		ldr	r3, .L71
 1337 000c 1B78     		ldrb	r3, [r3]	@ zero_extendqisi2
 1338              		.loc 1 484 8
 1339 000e 012B     		cmp	r3, #1
 1340 0010 35D0     		beq	.L70
 1341              		.loc 1 484 73 discriminator 1
 1342 0012 1D4B     		ldr	r3, .L71
 1343 0014 1B78     		ldrb	r3, [r3]	@ zero_extendqisi2
 1344              		.loc 1 484 52 discriminator 1
 1345 0016 022B     		cmp	r3, #2
 1346 0018 31D0     		beq	.L70
 485:../app/acmotor.c ****         /* Cannot start when in error state - must clear error first */
 486:../app/acmotor.c ****         return;
 487:../app/acmotor.c ****     }
 488:../app/acmotor.c ****     
 489:../app/acmotor.c ****     /* Validate speed range */
 490:../app/acmotor.c ****     if (initial_speed_rpm > 2000) initial_speed_rpm = 2000;
 1347              		.loc 1 490 8
 1348 001a FB88     		ldrh	r3, [r7, #6]
 1349 001c B3F5FA6F 		cmp	r3, #2000
 1350 0020 02D9     		bls	.L68
 1351              		.loc 1 490 53 discriminator 1
 1352 0022 4FF4FA63 		mov	r3, #2000
 1353 0026 FB80     		strh	r3, [r7, #6]	@ movhi
 1354              	.L68:
 491:../app/acmotor.c ****     
 492:../app/acmotor.c ****     /* Set target speed */
 493:../app/acmotor.c ****     target_speed_rpm = initial_speed_rpm;
 1355              		.loc 1 493 22
 1356 0028 184A     		ldr	r2, .L71+4
 1357 002a FB88     		ldrh	r3, [r7, #6]	@ movhi
 1358 002c 1380     		strh	r3, [r2]	@ movhi
 494:../app/acmotor.c ****     
 495:../app/acmotor.c ****     /* Calculate initial phase delay */
 496:../app/acmotor.c ****     angle = (uint16_t)((uint32_t)((target_speed_rpm * MAX_PHASE_ANGLE) / 2000u));
 1359              		.loc 1 496 53
 1360 002e 174B     		ldr	r3, .L71+4
 1361 0030 1B88     		ldrh	r3, [r3]
 1362 0032 1A46     		mov	r2, r3
 1363 0034 B423     		movs	r3, #180
 1364 0036 03FB02F3 		mul	r3, r3, r2
 1365              		.loc 1 496 72
 1366 003a 154A     		ldr	r2, .L71+8
 1367 003c A2FB0323 		umull	r2, r3, r2, r3
 1368 0040 DB09     		lsrs	r3, r3, #7
 1369              		.loc 1 496 11
 1370 0042 FB81     		strh	r3, [r7, #14]	@ movhi
 497:../app/acmotor.c ****     if (angle < 10) angle = 10;
 1371              		.loc 1 497 8
 1372 0044 FB89     		ldrh	r3, [r7, #14]
 1373 0046 092B     		cmp	r3, #9
 1374 0048 01D8     		bhi	.L69
 1375              		.loc 1 497 27 discriminator 1
 1376 004a 0A23     		movs	r3, #10
 1377 004c FB81     		strh	r3, [r7, #14]	@ movhi
 1378              	.L69:
 498:../app/acmotor.c ****     ac_motor_set_phase_delay(ac_angle_to_delay_us(angle));
 1379              		.loc 1 498 5
 1380 004e FB89     		ldrh	r3, [r7, #14]
 1381 0050 1846     		mov	r0, r3
 1382 0052 FFF7FEFF 		bl	ac_angle_to_delay_us
 1383 0056 0346     		mov	r3, r0
 1384 0058 1846     		mov	r0, r3
 1385 005a FFF7FEFF 		bl	ac_motor_set_phase_delay
 499:../app/acmotor.c ****     
 500:../app/acmotor.c ****     /* Update state */
 501:../app/acmotor.c ****     grind_motor_state = MOTOR_STATE_RUNNING;
 1386              		.loc 1 501 23
 1387 005e 0A4B     		ldr	r3, .L71
 1388 0060 0122     		movs	r2, #1
 1389 0062 1A70     		strb	r2, [r3]
 502:../app/acmotor.c ****     motor_error = ERROR_NONE;
 1390              		.loc 1 502 17
 1391 0064 0B4B     		ldr	r3, .L71+12
 1392 0066 0022     		movs	r2, #0
 1393 0068 1A70     		strb	r2, [r3]
 503:../app/acmotor.c ****     
 504:../app/acmotor.c ****     /* Reset timeout counters */
 505:../app/acmotor.c ****     last_zero_cross_tick_ms = systick_get();
 1394              		.loc 1 505 31
 1395 006a FFF7FEFF 		bl	systick_get
 1396 006e 0346     		mov	r3, r0
 1397              		.loc 1 505 29
 1398 0070 094A     		ldr	r2, .L71+16
 1399 0072 1360     		str	r3, [r2]
 506:../app/acmotor.c ****     last_feedback_tick_ms = last_zero_cross_tick_ms;
 1400              		.loc 1 506 27
 1401 0074 084B     		ldr	r3, .L71+16
 1402 0076 1B68     		ldr	r3, [r3]
 1403 0078 084A     		ldr	r2, .L71+20
 1404 007a 1360     		str	r3, [r2]
 1405 007c 00E0     		b	.L64
 1406              	.L70:
 486:../app/acmotor.c ****     }
 1407              		.loc 1 486 9
 1408 007e 00BF     		nop
 1409              	.L64:
 507:../app/acmotor.c **** }
 1410              		.loc 1 507 1
 1411 0080 1037     		adds	r7, r7, #16
 1412              		.cfi_def_cfa_offset 8
 1413 0082 BD46     		mov	sp, r7
 1414              		.cfi_def_cfa_register 13
 1415              		@ sp needed
 1416 0084 80BD     		pop	{r7, pc}
 1417              	.L72:
 1418 0086 00BF     		.align	2
 1419              	.L71:
 1420 0088 00000000 		.word	grind_motor_state
 1421 008c 00000000 		.word	target_speed_rpm
 1422 0090 D34D6210 		.word	274877907
 1423 0094 00000000 		.word	motor_error
 1424 0098 00000000 		.word	last_zero_cross_tick_ms
 1425 009c 00000000 		.word	last_feedback_tick_ms
 1426              		.cfi_endproc
 1427              	.LFE132:
 1429              		.section	.text.ac_grind_stop,"ax",%progbits
 1430              		.align	1
 1431              		.global	ac_grind_stop
 1432              		.syntax unified
 1433              		.thumb
 1434              		.thumb_func
 1435              		.fpu softvfp
 1437              	ac_grind_stop:
 1438              	.LFB133:
 508:../app/acmotor.c **** 
 509:../app/acmotor.c **** /**
 510:../app/acmotor.c ****   * @brief  Stop AC grind motor
 511:../app/acmotor.c ****   * @param  None
 512:../app/acmotor.c ****   * @retval None
 513:../app/acmotor.c ****   */
 514:../app/acmotor.c **** void ac_grind_stop(void)
 515:../app/acmotor.c **** {
 1439              		.loc 1 515 1
 1440              		.cfi_startproc
 1441              		@ args = 0, pretend = 0, frame = 0
 1442              		@ frame_needed = 1, uses_anonymous_args = 0
 1443 0000 80B5     		push	{r7, lr}
 1444              		.cfi_def_cfa_offset 8
 1445              		.cfi_offset 7, -8
 1446              		.cfi_offset 14, -4
 1447 0002 00AF     		add	r7, sp, #0
 1448              		.cfi_def_cfa_register 7
 1449              	.LBB38:
 1450              	.LBB39:
 328:../Firmware/CMSIS/core_cmFunc.h **** }
 1451              		.loc 2 328 3
 1452              		.syntax unified
 1453              	@ 328 "../Firmware/CMSIS/core_cmFunc.h" 1
 1454 0004 72B6     		cpsid i
 1455              	@ 0 "" 2
 1456              		.loc 2 329 1
 1457              		.thumb
 1458              		.syntax unified
 1459 0006 00BF     		nop
 1460              	.LBE39:
 1461              	.LBE38:
 516:../app/acmotor.c ****     __disable_irq();
 517:../app/acmotor.c ****     grind_motor_state = MOTOR_STATE_STOPPED;
 1462              		.loc 1 517 23
 1463 0008 084B     		ldr	r3, .L74
 1464 000a 0022     		movs	r2, #0
 1465 000c 1A70     		strb	r2, [r3]
 518:../app/acmotor.c ****     motor_error = ERROR_NONE;
 1466              		.loc 1 518 17
 1467 000e 084B     		ldr	r3, .L74+4
 1468 0010 0022     		movs	r2, #0
 1469 0012 1A70     		strb	r2, [r3]
 519:../app/acmotor.c ****     target_speed_rpm = 0;
 1470              		.loc 1 519 22
 1471 0014 074B     		ldr	r3, .L74+8
 1472 0016 0022     		movs	r2, #0
 1473 0018 1A80     		strh	r2, [r3]	@ movhi
 520:../app/acmotor.c ****     target_phase_delay_us = 0;
 1474              		.loc 1 520 27
 1475 001a 074B     		ldr	r3, .L74+12
 1476 001c 0022     		movs	r2, #0
 1477 001e 1A80     		strh	r2, [r3]	@ movhi
 1478              	.LBB40:
 1479              	.LBB41:
 317:../Firmware/CMSIS/core_cmFunc.h **** }
 1480              		.loc 2 317 3
 1481              		.syntax unified
 1482              	@ 317 "../Firmware/CMSIS/core_cmFunc.h" 1
 1483 0020 62B6     		cpsie i
 1484              	@ 0 "" 2
 318:../Firmware/CMSIS/core_cmFunc.h **** 
 1485              		.loc 2 318 1
 1486              		.thumb
 1487              		.syntax unified
 1488 0022 00BF     		nop
 1489              	.LBE41:
 1490              	.LBE40:
 521:../app/acmotor.c ****     __enable_irq();
 522:../app/acmotor.c ****     ac_grind_turnoff();
 1491              		.loc 1 522 5
 1492 0024 FFF7FEFF 		bl	ac_grind_turnoff
 523:../app/acmotor.c **** }
 1493              		.loc 1 523 1
 1494 0028 00BF     		nop
 1495 002a 80BD     		pop	{r7, pc}
 1496              	.L75:
 1497              		.align	2
 1498              	.L74:
 1499 002c 00000000 		.word	grind_motor_state
 1500 0030 00000000 		.word	motor_error
 1501 0034 00000000 		.word	target_speed_rpm
 1502 0038 00000000 		.word	target_phase_delay_us
 1503              		.cfi_endproc
 1504              	.LFE133:
 1506              		.section	.text.ac_pumb_stop,"ax",%progbits
 1507              		.align	1
 1508              		.global	ac_pumb_stop
 1509              		.syntax unified
 1510              		.thumb
 1511              		.thumb_func
 1512              		.fpu softvfp
 1514              	ac_pumb_stop:
 1515              	.LFB134:
 524:../app/acmotor.c **** 
 525:../app/acmotor.c **** /**
 526:../app/acmotor.c ****   * @brief  Stop AC pumb motor
 527:../app/acmotor.c ****   * @param  None
 528:../app/acmotor.c ****   * @retval None
 529:../app/acmotor.c ****   */
 530:../app/acmotor.c **** void ac_pumb_stop(void)
 531:../app/acmotor.c **** {
 1516              		.loc 1 531 1
 1517              		.cfi_startproc
 1518              		@ args = 0, pretend = 0, frame = 0
 1519              		@ frame_needed = 1, uses_anonymous_args = 0
 1520 0000 80B5     		push	{r7, lr}
 1521              		.cfi_def_cfa_offset 8
 1522              		.cfi_offset 7, -8
 1523              		.cfi_offset 14, -4
 1524 0002 00AF     		add	r7, sp, #0
 1525              		.cfi_def_cfa_register 7
 1526              	.LBB42:
 1527              	.LBB43:
 328:../Firmware/CMSIS/core_cmFunc.h **** }
 1528              		.loc 2 328 3
 1529              		.syntax unified
 1530              	@ 328 "../Firmware/CMSIS/core_cmFunc.h" 1
 1531 0004 72B6     		cpsid i
 1532              	@ 0 "" 2
 1533              		.loc 2 329 1
 1534              		.thumb
 1535              		.syntax unified
 1536 0006 00BF     		nop
 1537              	.LBE43:
 1538              	.LBE42:
 532:../app/acmotor.c ****     __disable_irq();
 533:../app/acmotor.c ****     pumb_motor_state = MOTOR_STATE_STOPPED;
 1539              		.loc 1 533 22
 1540 0008 074B     		ldr	r3, .L77
 1541 000a 0022     		movs	r2, #0
 1542 000c 1A70     		strb	r2, [r3]
 534:../app/acmotor.c ****     motor_error = ERROR_NONE;
 1543              		.loc 1 534 17
 1544 000e 074B     		ldr	r3, .L77+4
 1545 0010 0022     		movs	r2, #0
 1546 0012 1A70     		strb	r2, [r3]
 535:../app/acmotor.c ****     steam_cycle_counter = 0;
 1547              		.loc 1 535 25
 1548 0014 064B     		ldr	r3, .L77+8
 1549 0016 0022     		movs	r2, #0
 1550 0018 1A80     		strh	r2, [r3]	@ movhi
 1551              	.LBB44:
 1552              	.LBB45:
 317:../Firmware/CMSIS/core_cmFunc.h **** }
 1553              		.loc 2 317 3
 1554              		.syntax unified
 1555              	@ 317 "../Firmware/CMSIS/core_cmFunc.h" 1
 1556 001a 62B6     		cpsie i
 1557              	@ 0 "" 2
 318:../Firmware/CMSIS/core_cmFunc.h **** 
 1558              		.loc 2 318 1
 1559              		.thumb
 1560              		.syntax unified
 1561 001c 00BF     		nop
 1562              	.LBE45:
 1563              	.LBE44:
 536:../app/acmotor.c ****     __enable_irq();
 537:../app/acmotor.c ****     ac_pumb_turnoff();
 1564              		.loc 1 537 5
 1565 001e FFF7FEFF 		bl	ac_pumb_turnoff
 538:../app/acmotor.c **** }
 1566              		.loc 1 538 1
 1567 0022 00BF     		nop
 1568 0024 80BD     		pop	{r7, pc}
 1569              	.L78:
 1570 0026 00BF     		.align	2
 1571              	.L77:
 1572 0028 00000000 		.word	pumb_motor_state
 1573 002c 00000000 		.word	motor_error
 1574 0030 00000000 		.word	steam_cycle_counter
 1575              		.cfi_endproc
 1576              	.LFE134:
 1578              		.section	.text.ac_heat_stop,"ax",%progbits
 1579              		.align	1
 1580              		.global	ac_heat_stop
 1581              		.syntax unified
 1582              		.thumb
 1583              		.thumb_func
 1584              		.fpu softvfp
 1586              	ac_heat_stop:
 1587              	.LFB135:
 539:../app/acmotor.c **** 
 540:../app/acmotor.c **** /**
 541:../app/acmotor.c ****   * @brief  Stop AC heat motor
 542:../app/acmotor.c ****   * @param  None
 543:../app/acmotor.c ****   * @retval None
 544:../app/acmotor.c ****   */
 545:../app/acmotor.c **** void ac_heat_stop(void)
 546:../app/acmotor.c **** {
 1588              		.loc 1 546 1
 1589              		.cfi_startproc
 1590              		@ args = 0, pretend = 0, frame = 0
 1591              		@ frame_needed = 1, uses_anonymous_args = 0
 1592 0000 80B5     		push	{r7, lr}
 1593              		.cfi_def_cfa_offset 8
 1594              		.cfi_offset 7, -8
 1595              		.cfi_offset 14, -4
 1596 0002 00AF     		add	r7, sp, #0
 1597              		.cfi_def_cfa_register 7
 1598              	.LBB46:
 1599              	.LBB47:
 328:../Firmware/CMSIS/core_cmFunc.h **** }
 1600              		.loc 2 328 3
 1601              		.syntax unified
 1602              	@ 328 "../Firmware/CMSIS/core_cmFunc.h" 1
 1603 0004 72B6     		cpsid i
 1604              	@ 0 "" 2
 1605              		.loc 2 329 1
 1606              		.thumb
 1607              		.syntax unified
 1608 0006 00BF     		nop
 1609              	.LBE47:
 1610              	.LBE46:
 547:../app/acmotor.c ****     __disable_irq();
 548:../app/acmotor.c ****     heat_motor_state = MOTOR_STATE_STOPPED;
 1611              		.loc 1 548 22
 1612 0008 054B     		ldr	r3, .L80
 1613 000a 0022     		movs	r2, #0
 1614 000c 1A70     		strb	r2, [r3]
 549:../app/acmotor.c ****     motor_error = ERROR_NONE;
 1615              		.loc 1 549 17
 1616 000e 054B     		ldr	r3, .L80+4
 1617 0010 0022     		movs	r2, #0
 1618 0012 1A70     		strb	r2, [r3]
 1619              	.LBB48:
 1620              	.LBB49:
 317:../Firmware/CMSIS/core_cmFunc.h **** }
 1621              		.loc 2 317 3
 1622              		.syntax unified
 1623              	@ 317 "../Firmware/CMSIS/core_cmFunc.h" 1
 1624 0014 62B6     		cpsie i
 1625              	@ 0 "" 2
 318:../Firmware/CMSIS/core_cmFunc.h **** 
 1626              		.loc 2 318 1
 1627              		.thumb
 1628              		.syntax unified
 1629 0016 00BF     		nop
 1630              	.LBE49:
 1631              	.LBE48:
 550:../app/acmotor.c ****     __enable_irq();
 551:../app/acmotor.c ****     ac_heat_turnoff();
 1632              		.loc 1 551 5
 1633 0018 FFF7FEFF 		bl	ac_heat_turnoff
 552:../app/acmotor.c **** }
 1634              		.loc 1 552 1
 1635 001c 00BF     		nop
 1636 001e 80BD     		pop	{r7, pc}
 1637              	.L81:
 1638              		.align	2
 1639              	.L80:
 1640 0020 00000000 		.word	heat_motor_state
 1641 0024 00000000 		.word	motor_error
 1642              		.cfi_endproc
 1643              	.LFE135:
 1645              		.section	.text.ac_grind_set_speed,"ax",%progbits
 1646              		.align	1
 1647              		.global	ac_grind_set_speed
 1648              		.syntax unified
 1649              		.thumb
 1650              		.thumb_func
 1651              		.fpu softvfp
 1653              	ac_grind_set_speed:
 1654              	.LFB136:
 553:../app/acmotor.c **** 
 554:../app/acmotor.c **** /**
 555:../app/acmotor.c ****   * @brief  Set AC motor speed (safe)
 556:../app/acmotor.c ****   * @param  speed_rpm: Target speed (RPM)
 557:../app/acmotor.c ****   * @retval None
 558:../app/acmotor.c ****   */
 559:../app/acmotor.c **** void ac_grind_set_speed(uint16_t speed_rpm)
 560:../app/acmotor.c **** {
 1655              		.loc 1 560 1
 1656              		.cfi_startproc
 1657              		@ args = 0, pretend = 0, frame = 16
 1658              		@ frame_needed = 1, uses_anonymous_args = 0
 1659 0000 80B5     		push	{r7, lr}
 1660              		.cfi_def_cfa_offset 8
 1661              		.cfi_offset 7, -8
 1662              		.cfi_offset 14, -4
 1663 0002 84B0     		sub	sp, sp, #16
 1664              		.cfi_def_cfa_offset 24
 1665 0004 00AF     		add	r7, sp, #0
 1666              		.cfi_def_cfa_register 7
 1667 0006 0346     		mov	r3, r0
 1668 0008 FB80     		strh	r3, [r7, #6]	@ movhi
 561:../app/acmotor.c ****     uint16_t angle;
 562:../app/acmotor.c ****     if ((grind_motor_state != MOTOR_STATE_RUNNING) || (speed_rpm == 0)) {
 1669              		.loc 1 562 28
 1670 000a 194B     		ldr	r3, .L90
 1671 000c 1B78     		ldrb	r3, [r3]	@ zero_extendqisi2
 1672              		.loc 1 562 8
 1673 000e 012B     		cmp	r3, #1
 1674 0010 02D1     		bne	.L83
 1675              		.loc 1 562 52 discriminator 1
 1676 0012 FB88     		ldrh	r3, [r7, #6]
 1677 0014 002B     		cmp	r3, #0
 1678 0016 05D1     		bne	.L84
 1679              	.L83:
 563:../app/acmotor.c ****         if (speed_rpm == 0) {
 1680              		.loc 1 563 12
 1681 0018 FB88     		ldrh	r3, [r7, #6]
 1682 001a 002B     		cmp	r3, #0
 1683 001c 23D1     		bne	.L89
 564:../app/acmotor.c ****             ac_grind_stop();
 1684              		.loc 1 564 13
 1685 001e FFF7FEFF 		bl	ac_grind_stop
 565:../app/acmotor.c ****         }
 566:../app/acmotor.c ****         return;
 1686              		.loc 1 566 9
 1687 0022 20E0     		b	.L89
 1688              	.L84:
 567:../app/acmotor.c ****     }
 568:../app/acmotor.c ****     /* Validate speed range */
 569:../app/acmotor.c ****     if (speed_rpm > 2000) speed_rpm = 2000;
 1689              		.loc 1 569 8
 1690 0024 FB88     		ldrh	r3, [r7, #6]
 1691 0026 B3F5FA6F 		cmp	r3, #2000
 1692 002a 02D9     		bls	.L87
 1693              		.loc 1 569 37 discriminator 1
 1694 002c 4FF4FA63 		mov	r3, #2000
 1695 0030 FB80     		strh	r3, [r7, #6]	@ movhi
 1696              	.L87:
 570:../app/acmotor.c ****     
 571:../app/acmotor.c ****     /* Update target speed */
 572:../app/acmotor.c ****     target_speed_rpm = speed_rpm;
 1697              		.loc 1 572 22
 1698 0032 104A     		ldr	r2, .L90+4
 1699 0034 FB88     		ldrh	r3, [r7, #6]	@ movhi
 1700 0036 1380     		strh	r3, [r2]	@ movhi
 573:../app/acmotor.c ****     
 574:../app/acmotor.c ****     /* Calculate new phase delay */
 575:../app/acmotor.c ****     angle = (uint16_t)((uint32_t)speed_rpm * MAX_PHASE_ANGLE / 2000);
 1701              		.loc 1 575 24
 1702 0038 FB88     		ldrh	r3, [r7, #6]
 1703              		.loc 1 575 44
 1704 003a B422     		movs	r2, #180
 1705 003c 02FB03F3 		mul	r3, r2, r3
 1706              		.loc 1 575 62
 1707 0040 0D4A     		ldr	r2, .L90+8
 1708 0042 A2FB0323 		umull	r2, r3, r2, r3
 1709 0046 DB09     		lsrs	r3, r3, #7
 1710              		.loc 1 575 11
 1711 0048 FB81     		strh	r3, [r7, #14]	@ movhi
 576:../app/acmotor.c ****     if (angle < 10) angle = 10;
 1712              		.loc 1 576 8
 1713 004a FB89     		ldrh	r3, [r7, #14]
 1714 004c 092B     		cmp	r3, #9
 1715 004e 01D8     		bhi	.L88
 1716              		.loc 1 576 27 discriminator 1
 1717 0050 0A23     		movs	r3, #10
 1718 0052 FB81     		strh	r3, [r7, #14]	@ movhi
 1719              	.L88:
 577:../app/acmotor.c ****     ac_motor_set_phase_delay(ac_angle_to_delay_us(angle));
 1720              		.loc 1 577 5
 1721 0054 FB89     		ldrh	r3, [r7, #14]
 1722 0056 1846     		mov	r0, r3
 1723 0058 FFF7FEFF 		bl	ac_angle_to_delay_us
 1724 005c 0346     		mov	r3, r0
 1725 005e 1846     		mov	r0, r3
 1726 0060 FFF7FEFF 		bl	ac_motor_set_phase_delay
 1727 0064 00E0     		b	.L82
 1728              	.L89:
 566:../app/acmotor.c ****     }
 1729              		.loc 1 566 9
 1730 0066 00BF     		nop
 1731              	.L82:
 578:../app/acmotor.c **** }
 1732              		.loc 1 578 1
 1733 0068 1037     		adds	r7, r7, #16
 1734              		.cfi_def_cfa_offset 8
 1735 006a BD46     		mov	sp, r7
 1736              		.cfi_def_cfa_register 13
 1737              		@ sp needed
 1738 006c 80BD     		pop	{r7, pc}
 1739              	.L91:
 1740 006e 00BF     		.align	2
 1741              	.L90:
 1742 0070 00000000 		.word	grind_motor_state
 1743 0074 00000000 		.word	target_speed_rpm
 1744 0078 D34D6210 		.word	274877907
 1745              		.cfi_endproc
 1746              	.LFE136:
 1748              		.section	.text.ac_motor_get_state,"ax",%progbits
 1749              		.align	1
 1750              		.global	ac_motor_get_state
 1751              		.syntax unified
 1752              		.thumb
 1753              		.thumb_func
 1754              		.fpu softvfp
 1756              	ac_motor_get_state:
 1757              	.LFB137:
 579:../app/acmotor.c **** 
 580:../app/acmotor.c **** /**
 581:../app/acmotor.c ****   * @brief  Get current motor state
 582:../app/acmotor.c ****   * @retval Motor state (0=stopped, 1=running, 2=error, 3=recovering)
 583:../app/acmotor.c ****   */
 584:../app/acmotor.c **** uint8_t ac_motor_get_state(void)
 585:../app/acmotor.c **** {
 1758              		.loc 1 585 1
 1759              		.cfi_startproc
 1760              		@ args = 0, pretend = 0, frame = 0
 1761              		@ frame_needed = 1, uses_anonymous_args = 0
 1762              		@ link register save eliminated.
 1763 0000 80B4     		push	{r7}
 1764              		.cfi_def_cfa_offset 4
 1765              		.cfi_offset 7, -4
 1766 0002 00AF     		add	r7, sp, #0
 1767              		.cfi_def_cfa_register 7
 586:../app/acmotor.c ****     return grind_motor_state;
 1768              		.loc 1 586 12
 1769 0004 024B     		ldr	r3, .L94
 1770 0006 1B78     		ldrb	r3, [r3]	@ zero_extendqisi2
 587:../app/acmotor.c **** }
 1771              		.loc 1 587 1
 1772 0008 1846     		mov	r0, r3
 1773 000a BD46     		mov	sp, r7
 1774              		.cfi_def_cfa_register 13
 1775              		@ sp needed
 1776 000c 80BC     		pop	{r7}
 1777              		.cfi_restore 7
 1778              		.cfi_def_cfa_offset 0
 1779 000e 7047     		bx	lr
 1780              	.L95:
 1781              		.align	2
 1782              	.L94:
 1783 0010 00000000 		.word	grind_motor_state
 1784              		.cfi_endproc
 1785              	.LFE137:
 1787              		.section	.text.ac_motor_get_error,"ax",%progbits
 1788              		.align	1
 1789              		.global	ac_motor_get_error
 1790              		.syntax unified
 1791              		.thumb
 1792              		.thumb_func
 1793              		.fpu softvfp
 1795              	ac_motor_get_error:
 1796              	.LFB138:
 588:../app/acmotor.c **** 
 589:../app/acmotor.c **** /**
 590:../app/acmotor.c ****   * @brief  Get current error code
 591:../app/acmotor.c ****   * @retval Error code (0=none)
 592:../app/acmotor.c ****   */
 593:../app/acmotor.c **** uint8_t ac_motor_get_error(void)
 594:../app/acmotor.c **** {
 1797              		.loc 1 594 1
 1798              		.cfi_startproc
 1799              		@ args = 0, pretend = 0, frame = 0
 1800              		@ frame_needed = 1, uses_anonymous_args = 0
 1801              		@ link register save eliminated.
 1802 0000 80B4     		push	{r7}
 1803              		.cfi_def_cfa_offset 4
 1804              		.cfi_offset 7, -4
 1805 0002 00AF     		add	r7, sp, #0
 1806              		.cfi_def_cfa_register 7
 595:../app/acmotor.c ****     return motor_error;
 1807              		.loc 1 595 12
 1808 0004 024B     		ldr	r3, .L98
 1809 0006 1B78     		ldrb	r3, [r3]	@ zero_extendqisi2
 596:../app/acmotor.c **** }
 1810              		.loc 1 596 1
 1811 0008 1846     		mov	r0, r3
 1812 000a BD46     		mov	sp, r7
 1813              		.cfi_def_cfa_register 13
 1814              		@ sp needed
 1815 000c 80BC     		pop	{r7}
 1816              		.cfi_restore 7
 1817              		.cfi_def_cfa_offset 0
 1818 000e 7047     		bx	lr
 1819              	.L99:
 1820              		.align	2
 1821              	.L98:
 1822 0010 00000000 		.word	motor_error
 1823              		.cfi_endproc
 1824              	.LFE138:
 1826              		.section	.text.ac_motor_get_speed,"ax",%progbits
 1827              		.align	1
 1828              		.global	ac_motor_get_speed
 1829              		.syntax unified
 1830              		.thumb
 1831              		.thumb_func
 1832              		.fpu softvfp
 1834              	ac_motor_get_speed:
 1835              	.LFB139:
 597:../app/acmotor.c **** 
 598:../app/acmotor.c **** /**
 599:../app/acmotor.c ****   * @brief  Get current speed (RPM)
 600:../app/acmotor.c ****   * @retval Speed value (RPM)
 601:../app/acmotor.c ****   */
 602:../app/acmotor.c **** uint16_t ac_motor_get_speed(void)
 603:../app/acmotor.c **** {
 1836              		.loc 1 603 1
 1837              		.cfi_startproc
 1838              		@ args = 0, pretend = 0, frame = 0
 1839              		@ frame_needed = 1, uses_anonymous_args = 0
 1840              		@ link register save eliminated.
 1841 0000 80B4     		push	{r7}
 1842              		.cfi_def_cfa_offset 4
 1843              		.cfi_offset 7, -4
 1844 0002 00AF     		add	r7, sp, #0
 1845              		.cfi_def_cfa_register 7
 604:../app/acmotor.c ****     return current_speed_rpm;
 1846              		.loc 1 604 12
 1847 0004 024B     		ldr	r3, .L102
 1848 0006 1B88     		ldrh	r3, [r3]
 605:../app/acmotor.c **** }
 1849              		.loc 1 605 1
 1850 0008 1846     		mov	r0, r3
 1851 000a BD46     		mov	sp, r7
 1852              		.cfi_def_cfa_register 13
 1853              		@ sp needed
 1854 000c 80BC     		pop	{r7}
 1855              		.cfi_restore 7
 1856              		.cfi_def_cfa_offset 0
 1857 000e 7047     		bx	lr
 1858              	.L103:
 1859              		.align	2
 1860              	.L102:
 1861 0010 00000000 		.word	current_speed_rpm
 1862              		.cfi_endproc
 1863              	.LFE139:
 1865              		.section	.text.ac_motor_get_phase_angle,"ax",%progbits
 1866              		.align	1
 1867              		.global	ac_motor_get_phase_angle
 1868              		.syntax unified
 1869              		.thumb
 1870              		.thumb_func
 1871              		.fpu softvfp
 1873              	ac_motor_get_phase_angle:
 1874              	.LFB140:
 606:../app/acmotor.c **** 
 607:../app/acmotor.c **** /**
 608:../app/acmotor.c ****   * @brief  Get current conduction angle (degrees)
 609:../app/acmotor.c ****   * @retval Angle (0-180)
 610:../app/acmotor.c ****   */
 611:../app/acmotor.c **** uint16_t ac_motor_get_phase_angle(void)
 612:../app/acmotor.c **** {
 1875              		.loc 1 612 1
 1876              		.cfi_startproc
 1877              		@ args = 0, pretend = 0, frame = 0
 1878              		@ frame_needed = 1, uses_anonymous_args = 0
 1879 0000 80B5     		push	{r7, lr}
 1880              		.cfi_def_cfa_offset 8
 1881              		.cfi_offset 7, -8
 1882              		.cfi_offset 14, -4
 1883 0002 00AF     		add	r7, sp, #0
 1884              		.cfi_def_cfa_register 7
 613:../app/acmotor.c ****     return ac_delay_us_to_angle(current_phase_delay_us);
 1885              		.loc 1 613 12
 1886 0004 034B     		ldr	r3, .L106
 1887 0006 1B88     		ldrh	r3, [r3]
 1888 0008 1846     		mov	r0, r3
 1889 000a FFF7FEFF 		bl	ac_delay_us_to_angle
 1890 000e 0346     		mov	r3, r0
 614:../app/acmotor.c **** }
 1891              		.loc 1 614 1
 1892 0010 1846     		mov	r0, r3
 1893 0012 80BD     		pop	{r7, pc}
 1894              	.L107:
 1895              		.align	2
 1896              	.L106:
 1897 0014 00000000 		.word	current_phase_delay_us
 1898              		.cfi_endproc
 1899              	.LFE140:
 1901              		.section	.text.ac_motor_periodic_check,"ax",%progbits
 1902              		.align	1
 1903              		.global	ac_motor_periodic_check
 1904              		.syntax unified
 1905              		.thumb
 1906              		.thumb_func
 1907              		.fpu softvfp
 1909              	ac_motor_periodic_check:
 1910              	.LFB141:
 615:../app/acmotor.c **** 
 616:../app/acmotor.c **** /**
 617:../app/acmotor.c ****   * @brief  Periodic health check (call from main loop every 10ms)
 618:../app/acmotor.c ****   */
 619:../app/acmotor.c **** void ac_motor_periodic_check(void)
 620:../app/acmotor.c **** {
 1911              		.loc 1 620 1
 1912              		.cfi_startproc
 1913              		@ args = 0, pretend = 0, frame = 0
 1914              		@ frame_needed = 1, uses_anonymous_args = 0
 1915 0000 80B5     		push	{r7, lr}
 1916              		.cfi_def_cfa_offset 8
 1917              		.cfi_offset 7, -8
 1918              		.cfi_offset 14, -4
 1919 0002 00AF     		add	r7, sp, #0
 1920              		.cfi_def_cfa_register 7
 621:../app/acmotor.c ****     ac_grind_health_monitor();
 1921              		.loc 1 621 5
 1922 0004 FFF7FEFF 		bl	ac_grind_health_monitor
 622:../app/acmotor.c ****     
 623:../app/acmotor.c ****     /* Refresh watchdog to prevent reset */
 624:../app/acmotor.c ****     fwdgt_counter_reload();
 1923              		.loc 1 624 5
 1924 0008 FFF7FEFF 		bl	fwdgt_counter_reload
 625:../app/acmotor.c **** }
 1925              		.loc 1 625 1
 1926 000c 00BF     		nop
 1927 000e 80BD     		pop	{r7, pc}
 1928              		.cfi_endproc
 1929              	.LFE141:
 1931              		.section	.text.ac_motor_zeroCross_irqHandler,"ax",%progbits
 1932              		.align	1
 1933              		.global	ac_motor_zeroCross_irqHandler
 1934              		.syntax unified
 1935              		.thumb
 1936              		.thumb_func
 1937              		.fpu softvfp
 1939              	ac_motor_zeroCross_irqHandler:
 1940              	.LFB142:
 626:../app/acmotor.c **** 
 627:../app/acmotor.c **** /*============================ Interrupt Service Routines ============================*/
 628:../app/acmotor.c **** 
 629:../app/acmotor.c **** /**
 630:../app/acmotor.c ****   * @brief  zero crossing with debounce
 631:../app/acmotor.c ****   */
 632:../app/acmotor.c **** void ac_motor_zeroCross_irqHandler(void)
 633:../app/acmotor.c **** {
 1941              		.loc 1 633 1
 1942              		.cfi_startproc
 1943              		@ args = 0, pretend = 0, frame = 0
 1944              		@ frame_needed = 1, uses_anonymous_args = 0
 1945 0000 80B5     		push	{r7, lr}
 1946              		.cfi_def_cfa_offset 8
 1947              		.cfi_offset 7, -8
 1948              		.cfi_offset 14, -4
 1949 0002 00AF     		add	r7, sp, #0
 1950              		.cfi_def_cfa_register 7
 634:../app/acmotor.c **** 	/* Trigger phase control if motor running */
 635:../app/acmotor.c **** 	if (grind_motor_state == MOTOR_STATE_RUNNING) {
 1951              		.loc 1 635 24
 1952 0004 204B     		ldr	r3, .L114
 1953 0006 1B78     		ldrb	r3, [r3]	@ zero_extendqisi2
 1954              		.loc 1 635 5
 1955 0008 012B     		cmp	r3, #1
 1956 000a 0ED1     		bne	.L110
 636:../app/acmotor.c **** 		ac_grind_turnoff();
 1957              		.loc 1 636 3
 1958 000c FFF7FEFF 		bl	ac_grind_turnoff
 637:../app/acmotor.c **** 		/* Start new timing */
 638:../app/acmotor.c **** 		timer_counter_value_config(AC_GRIND_PHASE1_TIMER, 0);
 1959              		.loc 1 638 3
 1960 0010 0021     		movs	r1, #0
 1961 0012 1E48     		ldr	r0, .L114+4
 1962 0014 FFF7FEFF 		bl	timer_counter_value_config
 639:../app/acmotor.c **** 		timer_autoreload_value_config(AC_GRIND_PHASE1_TIMER, 300/*target_phase_delay_us*/);		// delay tim
 1963              		.loc 1 639 3
 1964 0018 4FF49671 		mov	r1, #300
 1965 001c 1B48     		ldr	r0, .L114+4
 1966 001e FFF7FEFF 		bl	timer_autoreload_value_config
 640:../app/acmotor.c **** 		timer_enable(AC_GRIND_PHASE1_TIMER);
 1967              		.loc 1 640 3
 1968 0022 1A48     		ldr	r0, .L114+4
 1969 0024 FFF7FEFF 		bl	timer_enable
 1970 0028 16E0     		b	.L111
 1971              	.L110:
 641:../app/acmotor.c **** 	}
 642:../app/acmotor.c **** 	/* Trigger phase control if motor running */
 643:../app/acmotor.c **** 	else if (pumb_motor_state == MOTOR_STATE_RUNNING) {
 1972              		.loc 1 643 28
 1973 002a 194B     		ldr	r3, .L114+8
 1974 002c 1B78     		ldrb	r3, [r3]	@ zero_extendqisi2
 1975              		.loc 1 643 10
 1976 002e 012B     		cmp	r3, #1
 1977 0030 0ED1     		bne	.L112
 644:../app/acmotor.c **** 		ac_pumb_turnoff();
 1978              		.loc 1 644 3
 1979 0032 FFF7FEFF 		bl	ac_pumb_turnoff
 645:../app/acmotor.c **** 		/* Start new timing */
 646:../app/acmotor.c **** 		timer_counter_value_config(AC_PUMB_PHASE1_TIMER, 0);
 1980              		.loc 1 646 3
 1981 0036 0021     		movs	r1, #0
 1982 0038 1448     		ldr	r0, .L114+4
 1983 003a FFF7FEFF 		bl	timer_counter_value_config
 647:../app/acmotor.c **** 		timer_autoreload_value_config(AC_PUMB_PHASE1_TIMER, 300/*target_phase_delay_us*/);		// delay time
 1984              		.loc 1 647 3
 1985 003e 4FF49671 		mov	r1, #300
 1986 0042 1248     		ldr	r0, .L114+4
 1987 0044 FFF7FEFF 		bl	timer_autoreload_value_config
 648:../app/acmotor.c **** 		timer_enable(AC_PUMB_PHASE1_TIMER);
 1988              		.loc 1 648 3
 1989 0048 1048     		ldr	r0, .L114+4
 1990 004a FFF7FEFF 		bl	timer_enable
 1991 004e 03E0     		b	.L111
 1992              	.L112:
 649:../app/acmotor.c **** 	}
 650:../app/acmotor.c **** 	else {
 651:../app/acmotor.c **** 		ac_grind_turnoff();
 1993              		.loc 1 651 3
 1994 0050 FFF7FEFF 		bl	ac_grind_turnoff
 652:../app/acmotor.c **** 		ac_pumb_turnoff();
 1995              		.loc 1 652 3
 1996 0054 FFF7FEFF 		bl	ac_pumb_turnoff
 1997              	.L111:
 653:../app/acmotor.c **** 	}
 654:../app/acmotor.c **** 	ac_heat_turnoff();
 1998              		.loc 1 654 2
 1999 0058 FFF7FEFF 		bl	ac_heat_turnoff
 655:../app/acmotor.c **** 	/* Trigger phase control if motor running */
 656:../app/acmotor.c **** 	if (heat_motor_state == MOTOR_STATE_RUNNING) {
 2000              		.loc 1 656 23
 2001 005c 0D4B     		ldr	r3, .L114+12
 2002 005e 1B78     		ldrb	r3, [r3]	@ zero_extendqisi2
 2003              		.loc 1 656 5
 2004 0060 012B     		cmp	r3, #1
 2005 0062 0AD1     		bne	.L113
 657:../app/acmotor.c **** 		/* Start new timing */
 658:../app/acmotor.c **** 		timer_counter_value_config(AC_HEAT_PHASE1_TIMER, 0);
 2006              		.loc 1 658 3
 2007 0064 0021     		movs	r1, #0
 2008 0066 0C48     		ldr	r0, .L114+16
 2009 0068 FFF7FEFF 		bl	timer_counter_value_config
 659:../app/acmotor.c **** 		timer_autoreload_value_config(AC_HEAT_PHASE1_TIMER, 100);		// delay time
 2010              		.loc 1 659 3
 2011 006c 6421     		movs	r1, #100
 2012 006e 0A48     		ldr	r0, .L114+16
 2013 0070 FFF7FEFF 		bl	timer_autoreload_value_config
 660:../app/acmotor.c **** 		timer_enable(AC_HEAT_PHASE1_TIMER);
 2014              		.loc 1 660 3
 2015 0074 0848     		ldr	r0, .L114+16
 2016 0076 FFF7FEFF 		bl	timer_enable
 2017              	.L113:
 661:../app/acmotor.c **** 	}
 662:../app/acmotor.c **** 	last_zero_cross_tick_ms = systick_get();
 2018              		.loc 1 662 28
 2019 007a FFF7FEFF 		bl	systick_get
 2020 007e 0346     		mov	r3, r0
 2021              		.loc 1 662 26
 2022 0080 064A     		ldr	r2, .L114+20
 2023 0082 1360     		str	r3, [r2]
 663:../app/acmotor.c **** }
 2024              		.loc 1 663 1
 2025 0084 00BF     		nop
 2026 0086 80BD     		pop	{r7, pc}
 2027              	.L115:
 2028              		.align	2
 2029              	.L114:
 2030 0088 00000000 		.word	grind_motor_state
 2031 008c 00100040 		.word	1073745920
 2032 0090 00000000 		.word	pumb_motor_state
 2033 0094 00000000 		.word	heat_motor_state
 2034 0098 00080040 		.word	1073743872
 2035 009c 00000000 		.word	last_zero_cross_tick_ms
 2036              		.cfi_endproc
 2037              	.LFE142:
 2039              		.section	.text.ac_grind_fb_irqHandler,"ax",%progbits
 2040              		.align	1
 2041              		.global	ac_grind_fb_irqHandler
 2042              		.syntax unified
 2043              		.thumb
 2044              		.thumb_func
 2045              		.fpu softvfp
 2047              	ac_grind_fb_irqHandler:
 2048              	.LFB143:
 664:../app/acmotor.c **** 
 665:../app/acmotor.c **** /**
 666:../app/acmotor.c ****   * @brief  speed feedback capture
 667:../app/acmotor.c ****   */
 668:../app/acmotor.c **** void ac_grind_fb_irqHandler(uint32_t capture)
 669:../app/acmotor.c **** {
 2049              		.loc 1 669 1
 2050              		.cfi_startproc
 2051              		@ args = 0, pretend = 0, frame = 16
 2052              		@ frame_needed = 1, uses_anonymous_args = 0
 2053 0000 80B5     		push	{r7, lr}
 2054              		.cfi_def_cfa_offset 8
 2055              		.cfi_offset 7, -8
 2056              		.cfi_offset 14, -4
 2057 0002 84B0     		sub	sp, sp, #16
 2058              		.cfi_def_cfa_offset 24
 2059 0004 00AF     		add	r7, sp, #0
 2060              		.cfi_def_cfa_register 7
 2061 0006 7860     		str	r0, [r7, #4]
 670:../app/acmotor.c ****         uint32_t period, freq_hz;
 671:../app/acmotor.c **** 
 672:../app/acmotor.c ****         if (capture >= last_capture_value) {
 2062              		.loc 1 672 21
 2063 0008 1B4B     		ldr	r3, .L120
 2064 000a 1B68     		ldr	r3, [r3]
 2065              		.loc 1 672 12
 2066 000c 7A68     		ldr	r2, [r7, #4]
 2067 000e 9A42     		cmp	r2, r3
 2068 0010 05D3     		bcc	.L117
 673:../app/acmotor.c ****             period = capture - last_capture_value;
 2069              		.loc 1 673 30
 2070 0012 194B     		ldr	r3, .L120
 2071 0014 1B68     		ldr	r3, [r3]
 2072              		.loc 1 673 20
 2073 0016 7A68     		ldr	r2, [r7, #4]
 2074 0018 D31A     		subs	r3, r2, r3
 2075 001a FB60     		str	r3, [r7, #12]
 2076 001c 07E0     		b	.L118
 2077              	.L117:
 674:../app/acmotor.c ****         } else {
 675:../app/acmotor.c ****             period = (0xFFFF - last_capture_value) + capture;
 2078              		.loc 1 675 52
 2079 001e 164B     		ldr	r3, .L120
 2080 0020 1B68     		ldr	r3, [r3]
 2081 0022 7A68     		ldr	r2, [r7, #4]
 2082 0024 D31A     		subs	r3, r2, r3
 2083              		.loc 1 675 20
 2084 0026 03F57F43 		add	r3, r3, #65280
 2085 002a FF33     		adds	r3, r3, #255
 2086 002c FB60     		str	r3, [r7, #12]
 2087              	.L118:
 676:../app/acmotor.c ****         }
 677:../app/acmotor.c ****         /* Validate period (ignore invalid values) */
 678:../app/acmotor.c ****         if ((period > FEEDBACK_MIN_VALID_PERIOD_US) && (period < FEEDBACK_MAX_VALID_PERIOD_US)) {
 2088              		.loc 1 678 12
 2089 002e FB68     		ldr	r3, [r7, #12]
 2090 0030 642B     		cmp	r3, #100
 2091 0032 19D9     		bls	.L119
 2092              		.loc 1 678 53 discriminator 1
 2093 0034 FB68     		ldr	r3, [r7, #12]
 2094 0036 114A     		ldr	r2, .L120+4
 2095 0038 9342     		cmp	r3, r2
 2096 003a 15D8     		bhi	.L119
 679:../app/acmotor.c ****             current_period_us = period;
 2097              		.loc 1 679 31
 2098 003c 104A     		ldr	r2, .L120+8
 2099 003e FB68     		ldr	r3, [r7, #12]
 2100 0040 1360     		str	r3, [r2]
 680:../app/acmotor.c ****             freq_hz = 1000000 / period;
 2101              		.loc 1 680 21
 2102 0042 104A     		ldr	r2, .L120+12
 2103 0044 FB68     		ldr	r3, [r7, #12]
 2104 0046 B2FBF3F3 		udiv	r3, r2, r3
 2105 004a BB60     		str	r3, [r7, #8]
 681:../app/acmotor.c ****             current_speed_rpm = (uint16_t)(freq_hz * 60);
 2106              		.loc 1 681 33
 2107 004c BB68     		ldr	r3, [r7, #8]
 2108 004e 9BB2     		uxth	r3, r3
 2109 0050 1A46     		mov	r2, r3	@ movhi
 2110 0052 1201     		lsls	r2, r2, #4
 2111 0054 D31A     		subs	r3, r2, r3
 2112 0056 9B00     		lsls	r3, r3, #2
 2113 0058 9AB2     		uxth	r2, r3
 2114              		.loc 1 681 31
 2115 005a 0B4B     		ldr	r3, .L120+16
 2116 005c 1A80     		strh	r2, [r3]	@ movhi
 682:../app/acmotor.c ****             last_feedback_tick_ms = systick_get();
 2117              		.loc 1 682 37
 2118 005e FFF7FEFF 		bl	systick_get
 2119 0062 0346     		mov	r3, r0
 2120              		.loc 1 682 35
 2121 0064 094A     		ldr	r2, .L120+20
 2122 0066 1360     		str	r3, [r2]
 2123              	.L119:
 683:../app/acmotor.c ****         }
 684:../app/acmotor.c ****         last_capture_value = capture;
 2124              		.loc 1 684 28
 2125 0068 034A     		ldr	r2, .L120
 2126 006a 7B68     		ldr	r3, [r7, #4]
 2127 006c 1360     		str	r3, [r2]
 685:../app/acmotor.c **** }
 2128              		.loc 1 685 1
 2129 006e 00BF     		nop
 2130 0070 1037     		adds	r7, r7, #16
 2131              		.cfi_def_cfa_offset 8
 2132 0072 BD46     		mov	sp, r7
 2133              		.cfi_def_cfa_register 13
 2134              		@ sp needed
 2135 0074 80BD     		pop	{r7, pc}
 2136              	.L121:
 2137 0076 00BF     		.align	2
 2138              	.L120:
 2139 0078 00000000 		.word	last_capture_value
 2140 007c 1FA10700 		.word	499999
 2141 0080 00000000 		.word	current_period_us
 2142 0084 40420F00 		.word	1000000
 2143 0088 00000000 		.word	current_speed_rpm
 2144 008c 00000000 		.word	last_feedback_tick_ms
 2145              		.cfi_endproc
 2146              	.LFE143:
 2148              		.section	.text.ac_grind_nofb_irqHandler,"ax",%progbits
 2149              		.align	1
 2150              		.global	ac_grind_nofb_irqHandler
 2151              		.syntax unified
 2152              		.thumb
 2153              		.thumb_func
 2154              		.fpu softvfp
 2156              	ac_grind_nofb_irqHandler:
 2157              	.LFB144:
 686:../app/acmotor.c **** 
 687:../app/acmotor.c **** /**
 688:../app/acmotor.c ****   * @brief  no speed feedback capture
 689:../app/acmotor.c ****   */
 690:../app/acmotor.c **** void ac_grind_nofb_irqHandler(void)
 691:../app/acmotor.c **** {
 2158              		.loc 1 691 1
 2159              		.cfi_startproc
 2160              		@ args = 0, pretend = 0, frame = 8
 2161              		@ frame_needed = 1, uses_anonymous_args = 0
 2162 0000 80B5     		push	{r7, lr}
 2163              		.cfi_def_cfa_offset 8
 2164              		.cfi_offset 7, -8
 2165              		.cfi_offset 14, -4
 2166 0002 82B0     		sub	sp, sp, #8
 2167              		.cfi_def_cfa_offset 16
 2168 0004 00AF     		add	r7, sp, #0
 2169              		.cfi_def_cfa_register 7
 692:../app/acmotor.c ****         /* Overflow - no valid signal for long time */
 693:../app/acmotor.c ****         if (grind_motor_state == MOTOR_STATE_RUNNING) {
 2170              		.loc 1 693 31
 2171 0006 0A4B     		ldr	r3, .L125
 2172 0008 1B78     		ldrb	r3, [r3]	@ zero_extendqisi2
 2173              		.loc 1 693 12
 2174 000a 012B     		cmp	r3, #1
 2175 000c 0CD1     		bne	.L124
 2176              	.LBB50:
 694:../app/acmotor.c ****             uint32_t system_tick_ms = systick_get();		
 2177              		.loc 1 694 39
 2178 000e FFF7FEFF 		bl	systick_get
 2179 0012 7860     		str	r0, [r7, #4]
 695:../app/acmotor.c ****             if ((system_tick_ms - last_feedback_tick_ms) > FEEDBACK_TIMEOUT_MS) {
 2180              		.loc 1 695 33
 2181 0014 074B     		ldr	r3, .L125+4
 2182 0016 1B68     		ldr	r3, [r3]
 2183 0018 7A68     		ldr	r2, [r7, #4]
 2184 001a D31A     		subs	r3, r2, r3
 2185              		.loc 1 695 16
 2186 001c B3F5FA7F 		cmp	r3, #500
 2187 0020 02D9     		bls	.L124
 696:../app/acmotor.c ****                 ac_motor1_safe_shutdown(ERROR_FEEDBACK_LOST);
 2188              		.loc 1 696 17
 2189 0022 0220     		movs	r0, #2
 2190 0024 FFF7FEFF 		bl	ac_motor1_safe_shutdown
 2191              	.L124:
 2192              	.LBE50:
 697:../app/acmotor.c ****             }
 698:../app/acmotor.c ****         }
 699:../app/acmotor.c **** }
 2193              		.loc 1 699 1
 2194 0028 00BF     		nop
 2195 002a 0837     		adds	r7, r7, #8
 2196              		.cfi_def_cfa_offset 8
 2197 002c BD46     		mov	sp, r7
 2198              		.cfi_def_cfa_register 13
 2199              		@ sp needed
 2200 002e 80BD     		pop	{r7, pc}
 2201              	.L126:
 2202              		.align	2
 2203              	.L125:
 2204 0030 00000000 		.word	grind_motor_state
 2205 0034 00000000 		.word	last_feedback_tick_ms
 2206              		.cfi_endproc
 2207              	.LFE144:
 2209              		.text
 2210              	.Letext0:
 2211              		.file 3 "d:\\project\\coffee\\ide\\tools\\gnu tools arm embedded\\xpack-arm-none-eabi-gcc\\9.2.1-1
 2212              		.file 4 "d:\\project\\coffee\\ide\\tools\\gnu tools arm embedded\\xpack-arm-none-eabi-gcc\\9.2.1-1
 2213              		.file 5 "d:\\project\\coffee\\ide\\tools\\gnu tools arm embedded\\xpack-arm-none-eabi-gcc\\9.2.1-1
 2214              		.file 6 "d:\\project\\coffee\\ide\\tools\\gnu tools arm embedded\\xpack-arm-none-eabi-gcc\\9.2.1-1
 2215              		.file 7 "d:\\project\\coffee\\ide\\tools\\gnu tools arm embedded\\xpack-arm-none-eabi-gcc\\9.2.1-1
 2216              		.file 8 "d:\\project\\coffee\\ide\\tools\\gnu tools arm embedded\\xpack-arm-none-eabi-gcc\\9.2.1-1
 2217              		.file 9 "d:\\project\\coffee\\ide\\tools\\gnu tools arm embedded\\xpack-arm-none-eabi-gcc\\9.2.1-1
 2218              		.file 10 "../inc/systick.h"
 2219              		.file 11 "../Firmware/CMSIS/core_cm4.h"
 2220              		.file 12 "../Firmware/CMSIS/GD/GD32F30x/Include/system_gd32f30x.h"
 2221              		.file 13 "../Firmware/GD32F30x_standard_peripheral/Include/gd32f30x_rcu.h"
 2222              		.file 14 "../Firmware/CMSIS/GD/GD32F30x/Include/gd32f30x.h"
 2223              		.file 15 "../Firmware/GD32F30x_standard_peripheral/Include/gd32f30x_dbg.h"
 2224              		.file 16 "../Firmware/GD32F30x_standard_peripheral/Include/gd32f30x_exti.h"
 2225              		.file 17 "../Firmware/GD32F30x_standard_peripheral/Include/gd32f30x_timer.h"
 2226              		.file 18 "../osal/os_lyh_core.h"
 2227              		.file 19 "../app/acmotor.h"