   1              		.cpu cortex-m4
   2              		.eabi_attribute 20, 1
   3              		.eabi_attribute 21, 1
   4              		.eabi_attribute 23, 3
   5              		.eabi_attribute 24, 1
   6              		.eabi_attribute 25, 1
   7              		.eabi_attribute 26, 1
   8              		.eabi_attribute 30, 6
   9              		.eabi_attribute 34, 1
  10              		.eabi_attribute 18, 4
  11              		.file	"app.c"
  12              		.text
  13              	.Ltext0:
  14              		.cfi_sections	.debug_frame
  15              		.comm	app_id,1,1
  16              		.comm	app_task_step,1,1
  17              		.comm	app_task_substep,1,1
  18              		.comm	manual_setup,3,4
  19              		.comm	run_max_time,2,2
  20              		.comm	Buzzer_times,1,1
  21              		.comm	Leds_loop_run,1,1
  22              		.comm	cup_loop,1,1
  23              		.comm	turn_off_flag,1,1
  24              		.comm	flush_flag,1,1
  25              		.comm	CERRNT_STATE,1,1
  26              		.comm	drop_beans_time,2,2
  27              		.section	.text.app_virtual_croszero_cbfunc,"ax",%progbits
  28              		.align	1
  29              		.global	app_virtual_croszero_cbfunc
  30              		.arch armv7e-m
  31              		.syntax unified
  32              		.thumb
  33              		.thumb_func
  34              		.fpu softvfp
  36              	app_virtual_croszero_cbfunc:
  37              	.LFB116:
  38              		.file 1 "../app/app.c"
   1:../app/app.c  **** /******************** (C) COPYRIGHT 2017 ST *******************************
   2:../app/app.c  **** * COMPANY:	ST
   3:../app/app.c  **** * DATE:		2024/5
   4:../app/app.c  **** * AUTHOR:	
   5:../app/app.c  **** * IC:		STM32G0B1
   6:../app/app.c  **** *____________________________________________________________________________
   7:../app/app.c  **** * REVISION       V0001		
   8:../app/app.c  **** * SDK Version    SDK_Release_V2.03_0428              
   9:../app/app.c  **** * Date					 		
  10:../app/app.c  **** * Description
  11:../app/app.c  **** *____________________________________________________________________________*/
  12:../app/app.c  **** 
  13:../app/app.c  **** /*_____ I N C L U D E S ____________________________________________________*/
  14:../app/app.c  **** #define _APP_C_
  15:../app/app.c  **** #include <string.h>
  16:../app/app.c  **** #include "gd32f30x.h"
  17:../app/app.c  **** #include "user_apiopt.h"
  18:../app/app.c  **** 
  19:../app/app.c  **** /*_____ M A C R O S ______________________________________________________*/
  20:../app/app.c  **** #define _ON_		1u
  21:../app/app.c  **** #define _OFF_		0u
  22:../app/app.c  **** 
  23:../app/app.c  **** #define MOTOR_FIX_TIME		Ms_300	
  24:../app/app.c  **** 
  25:../app/app.c  **** /*_____ D E F I N I T I O N S ________________________________________________*/
  26:../app/app.c  ****  uint16_t run_max_time;
  27:../app/app.c  ****  uint8_t Buzzer_times;
  28:../app/app.c  ****  uint8_t Leds_loop_run;
  29:../app/app.c  **** 
  30:../app/app.c  **** /************ ๆฐๅข ***********/
  31:../app/app.c  ****  uint8_t cup_loop;			//ๆฏๆฐๅพช็ฏๆฌกๆฐ	0๏ผx1๏ผ1๏ผx2
  32:../app/app.c  ****  uint8_t turn_off_flag;		//ๅณๆบๆ ๅฟไฝ
  33:../app/app.c  ****  uint8_t flush_flag;		//ๅฒๆดๆ ๅฟไฝ
  34:../app/app.c  **** enum _RUNNING_STATE CERRNT_STATE;	//ๅฝๅ่ฟ่ก็ถๆ
  35:../app/app.c  **** uint16_t drop_beans_time;		//ๅๅพไธขๅๅกๆธฃๅฉไฝๆถ้ด
  36:../app/app.c  **** /*_____ F U N C T I O N S __________________________________________________*/
  37:../app/app.c  **** void app_virtual_croszero_cbfunc(void)
  38:../app/app.c  **** {
  39              		.loc 1 38 1
  40              		.cfi_startproc
  41              		@ args = 0, pretend = 0, frame = 0
  42              		@ frame_needed = 1, uses_anonymous_args = 0
  43 0000 80B5     		push	{r7, lr}
  44              		.cfi_def_cfa_offset 8
  45              		.cfi_offset 7, -8
  46              		.cfi_offset 14, -4
  47 0002 00AF     		add	r7, sp, #0
  48              		.cfi_def_cfa_register 7
  39:../app/app.c  **** 	ToggleTest4();
  49              		.loc 1 39 2
  50 0004 4FF40041 		mov	r1, #32768
  51 0008 0A48     		ldr	r0, .L2
  52 000a FFF7FEFF 		bl	gpio_output_bit_get
  53 000e 0346     		mov	r3, r0
  54 0010 C3F10103 		rsb	r3, r3, #1
  55 0014 DBB2     		uxtb	r3, r3
  56 0016 1A46     		mov	r2, r3
  57 0018 4FF40041 		mov	r1, #32768
  58 001c 0548     		ldr	r0, .L2
  59 001e FFF7FEFF 		bl	gpio_bit_write
  40:../app/app.c  **** 	osal_lyh_over_timer(OS_VIRAC_50HZ, Ms_10, app_virtual_croszero_cbfunc);
  60              		.loc 1 40 2
  61 0022 054A     		ldr	r2, .L2+4
  62 0024 0A21     		movs	r1, #10
  63 0026 4FF40040 		mov	r0, #32768
  64 002a FFF7FEFF 		bl	osal_lyh_over_timer
  41:../app/app.c  **** }
  65              		.loc 1 41 1
  66 002e 00BF     		nop
  67 0030 80BD     		pop	{r7, pc}
  68              	.L3:
  69 0032 00BF     		.align	2
  70              	.L2:
  71 0034 00080140 		.word	1073809408
  72 0038 00000000 		.word	app_virtual_croszero_cbfunc
  73              		.cfi_endproc
  74              	.LFE116:
  76              		.section	.text.app_buzon_cbfunc,"ax",%progbits
  77              		.align	1
  78              		.global	app_buzon_cbfunc
  79              		.syntax unified
  80              		.thumb
  81              		.thumb_func
  82              		.fpu softvfp
  84              	app_buzon_cbfunc:
  85              	.LFB117:
  42:../app/app.c  **** 
  43:../app/app.c  **** void app_buzon_cbfunc(void)
  44:../app/app.c  **** {
  86              		.loc 1 44 1
  87              		.cfi_startproc
  88              		@ args = 0, pretend = 0, frame = 0
  89              		@ frame_needed = 1, uses_anonymous_args = 0
  90 0000 80B5     		push	{r7, lr}
  91              		.cfi_def_cfa_offset 8
  92              		.cfi_offset 7, -8
  93              		.cfi_offset 14, -4
  94 0002 00AF     		add	r7, sp, #0
  95              		.cfi_def_cfa_register 7
  45:../app/app.c  **** 	if (--Buzzer_times) {
  96              		.loc 1 45 6
  97 0004 094B     		ldr	r3, .L7
  98 0006 1B78     		ldrb	r3, [r3]	@ zero_extendqisi2
  99 0008 013B     		subs	r3, r3, #1
 100 000a DAB2     		uxtb	r2, r3
 101              		.loc 1 45 5
 102 000c 074B     		ldr	r3, .L7
 103 000e 1A70     		strb	r2, [r3]
 104              		.loc 1 45 6
 105 0010 064B     		ldr	r3, .L7
 106 0012 1B78     		ldrb	r3, [r3]	@ zero_extendqisi2
 107              		.loc 1 45 5
 108 0014 002B     		cmp	r3, #0
 109 0016 07D0     		beq	.L6
  46:../app/app.c  **** 		gd_timer_buz(_ON_);
 110              		.loc 1 46 3
 111 0018 0120     		movs	r0, #1
 112 001a FFF7FEFF 		bl	gd_timer_buz
  47:../app/app.c  **** 		osal_lyh_over_timer(OS_TONE_TIME, Ms_80, app_buzoff_cbfunc);
 113              		.loc 1 47 3
 114 001e 044A     		ldr	r2, .L7+4
 115 0020 5021     		movs	r1, #80
 116 0022 0120     		movs	r0, #1
 117 0024 FFF7FEFF 		bl	osal_lyh_over_timer
 118              	.L6:
  48:../app/app.c  **** 	}
  49:../app/app.c  **** }
 119              		.loc 1 49 1
 120 0028 00BF     		nop
 121 002a 80BD     		pop	{r7, pc}
 122              	.L8:
 123              		.align	2
 124              	.L7:
 125 002c 00000000 		.word	Buzzer_times
 126 0030 00000000 		.word	app_buzoff_cbfunc
 127              		.cfi_endproc
 128              	.LFE117:
 130              		.section	.text.app_buzoff_cbfunc,"ax",%progbits
 131              		.align	1
 132              		.global	app_buzoff_cbfunc
 133              		.syntax unified
 134              		.thumb
 135              		.thumb_func
 136              		.fpu softvfp
 138              	app_buzoff_cbfunc:
 139              	.LFB118:
  50:../app/app.c  **** 
  51:../app/app.c  **** void app_buzoff_cbfunc(void)
  52:../app/app.c  **** {
 140              		.loc 1 52 1
 141              		.cfi_startproc
 142              		@ args = 0, pretend = 0, frame = 0
 143              		@ frame_needed = 1, uses_anonymous_args = 0
 144 0000 80B5     		push	{r7, lr}
 145              		.cfi_def_cfa_offset 8
 146              		.cfi_offset 7, -8
 147              		.cfi_offset 14, -4
 148 0002 00AF     		add	r7, sp, #0
 149              		.cfi_def_cfa_register 7
  53:../app/app.c  **** 	gd_timer_buz(_OFF_);
 150              		.loc 1 53 2
 151 0004 0020     		movs	r0, #0
 152 0006 FFF7FEFF 		bl	gd_timer_buz
  54:../app/app.c  **** 	osal_lyh_over_timer(OS_TONE_TIME, Ms_80, app_buzon_cbfunc);
 153              		.loc 1 54 2
 154 000a 034A     		ldr	r2, .L10
 155 000c 5021     		movs	r1, #80
 156 000e 0120     		movs	r0, #1
 157 0010 FFF7FEFF 		bl	osal_lyh_over_timer
  55:../app/app.c  **** }
 158              		.loc 1 55 1
 159 0014 00BF     		nop
 160 0016 80BD     		pop	{r7, pc}
 161              	.L11:
 162              		.align	2
 163              	.L10:
 164 0018 00000000 		.word	app_buzon_cbfunc
 165              		.cfi_endproc
 166              	.LFE118:
 168              		.section	.text.app_buzzer_on,"ax",%progbits
 169              		.align	1
 170              		.global	app_buzzer_on
 171              		.syntax unified
 172              		.thumb
 173              		.thumb_func
 174              		.fpu softvfp
 176              	app_buzzer_on:
 177              	.LFB119:
  56:../app/app.c  **** 
  57:../app/app.c  **** void app_buzzer_on(uint8_t time)
  58:../app/app.c  **** {
 178              		.loc 1 58 1
 179              		.cfi_startproc
 180              		@ args = 0, pretend = 0, frame = 8
 181              		@ frame_needed = 1, uses_anonymous_args = 0
 182 0000 80B5     		push	{r7, lr}
 183              		.cfi_def_cfa_offset 8
 184              		.cfi_offset 7, -8
 185              		.cfi_offset 14, -4
 186 0002 82B0     		sub	sp, sp, #8
 187              		.cfi_def_cfa_offset 16
 188 0004 00AF     		add	r7, sp, #0
 189              		.cfi_def_cfa_register 7
 190 0006 0346     		mov	r3, r0
 191 0008 FB71     		strb	r3, [r7, #7]
  59:../app/app.c  **** 	if (time) {
 192              		.loc 1 59 5
 193 000a FB79     		ldrb	r3, [r7, #7]	@ zero_extendqisi2
 194 000c 002B     		cmp	r3, #0
 195 000e 0BD0     		beq	.L13
  60:../app/app.c  **** 		Buzzer_times = time;
 196              		.loc 1 60 16
 197 0010 0A4A     		ldr	r2, .L16
 198 0012 FB79     		ldrb	r3, [r7, #7]
 199 0014 1370     		strb	r3, [r2]
  61:../app/app.c  **** 		gd_timer_buz(_ON_);
 200              		.loc 1 61 3
 201 0016 0120     		movs	r0, #1
 202 0018 FFF7FEFF 		bl	gd_timer_buz
  62:../app/app.c  **** 		osal_lyh_over_timer(OS_TONE_TIME, Ms_80, app_buzoff_cbfunc);
 203              		.loc 1 62 3
 204 001c 084A     		ldr	r2, .L16+4
 205 001e 5021     		movs	r1, #80
 206 0020 0120     		movs	r0, #1
 207 0022 FFF7FEFF 		bl	osal_lyh_over_timer
  63:../app/app.c  **** 	}
  64:../app/app.c  **** 	else {
  65:../app/app.c  **** 		gd_timer_buz(_OFF_);
  66:../app/app.c  **** 		osal_lyh_kill_over_timer(OS_TONE_TIME);
  67:../app/app.c  **** 	}
  68:../app/app.c  **** }
 208              		.loc 1 68 1
 209 0026 05E0     		b	.L15
 210              	.L13:
  65:../app/app.c  **** 		osal_lyh_kill_over_timer(OS_TONE_TIME);
 211              		.loc 1 65 3
 212 0028 0020     		movs	r0, #0
 213 002a FFF7FEFF 		bl	gd_timer_buz
  66:../app/app.c  **** 	}
 214              		.loc 1 66 3
 215 002e 0120     		movs	r0, #1
 216 0030 FFF7FEFF 		bl	osal_lyh_kill_over_timer
 217              	.L15:
 218              		.loc 1 68 1
 219 0034 00BF     		nop
 220 0036 0837     		adds	r7, r7, #8
 221              		.cfi_def_cfa_offset 8
 222 0038 BD46     		mov	sp, r7
 223              		.cfi_def_cfa_register 13
 224              		@ sp needed
 225 003a 80BD     		pop	{r7, pc}
 226              	.L17:
 227              		.align	2
 228              	.L16:
 229 003c 00000000 		.word	Buzzer_times
 230 0040 00000000 		.word	app_buzoff_cbfunc
 231              		.cfi_endproc
 232              	.LFE119:
 234              		.section	.text.app_resource_init,"ax",%progbits
 235              		.align	1
 236              		.global	app_resource_init
 237              		.syntax unified
 238              		.thumb
 239              		.thumb_func
 240              		.fpu softvfp
 242              	app_resource_init:
 243              	.LFB120:
  69:../app/app.c  **** 
  70:../app/app.c  **** void app_resource_init(uint8_t Step)
  71:../app/app.c  **** {
 244              		.loc 1 71 1
 245              		.cfi_startproc
 246              		@ args = 0, pretend = 0, frame = 8
 247              		@ frame_needed = 1, uses_anonymous_args = 0
 248              		@ link register save eliminated.
 249 0000 80B4     		push	{r7}
 250              		.cfi_def_cfa_offset 4
 251              		.cfi_offset 7, -4
 252 0002 83B0     		sub	sp, sp, #12
 253              		.cfi_def_cfa_offset 16
 254 0004 00AF     		add	r7, sp, #0
 255              		.cfi_def_cfa_register 7
 256 0006 0346     		mov	r3, r0
 257 0008 FB71     		strb	r3, [r7, #7]
  72:../app/app.c  **** 	switch(Step){
 258              		.loc 1 72 2
 259 000a FB79     		ldrb	r3, [r7, #7]	@ zero_extendqisi2
 260 000c 013B     		subs	r3, r3, #1
 261 000e 0A2B     		cmp	r3, #10
 262 0010 18D8     		bhi	.L32
 263 0012 01A2     		adr	r2, .L21
 264 0014 52F823F0 		ldr	pc, [r2, r3, lsl #2]
 265              		.p2align 2
 266              	.L21:
 267 0018 45000000 		.word	.L32+1
 268 001c 45000000 		.word	.L32+1
 269 0020 45000000 		.word	.L32+1
 270 0024 45000000 		.word	.L32+1
 271 0028 45000000 		.word	.L32+1
 272 002c 45000000 		.word	.L32+1
 273 0030 45000000 		.word	.L32+1
 274 0034 45000000 		.word	.L32+1
 275 0038 45000000 		.word	.L32+1
 276 003c 45000000 		.word	.L32+1
 277 0040 45000000 		.word	.L32+1
 278              		.p2align 1
 279              	.L32:
  73:../app/app.c  **** 	case APP_IDLE_STATE:
  74:../app/app.c  **** 		break;
  75:../app/app.c  **** 	case APP_STARTUP_STATE:
  76:../app/app.c  **** 	case APP_NORMAL_STATE:
  77:../app/app.c  **** 		break;
  78:../app/app.c  **** 	case APP_ESPRESSO_STATE:
  79:../app/app.c  **** 		break;
  80:../app/app.c  **** 	case APP_AMERICAN_STATE:
  81:../app/app.c  **** 		break;
  82:../app/app.c  **** 	case APP_HOTWATER_STATE:
  83:../app/app.c  **** 		break;
  84:../app/app.c  **** 	case APP_STEAM_STATE:
  85:../app/app.c  **** 		break;
  86:../app/app.c  **** 	case APP_AQUA_STATE:
  87:../app/app.c  **** 		break;
  88:../app/app.c  **** 	case APP_CALC_STATE:
  89:../app/app.c  **** 		break;
  90:../app/app.c  **** 	case APP_SETUP_STATE:
  91:../app/app.c  **** 		break;
  92:../app/app.c  **** 	case APP_RUNNING_ONOFF_STATE:
  93:../app/app.c  **** 		break;
  94:../app/app.c  **** 	default:
  95:../app/app.c  **** 		break;
 280              		.loc 1 95 3
 281 0044 00BF     		nop
  96:../app/app.c  **** 	}
  97:../app/app.c  **** }
 282              		.loc 1 97 1
 283 0046 00BF     		nop
 284 0048 0C37     		adds	r7, r7, #12
 285              		.cfi_def_cfa_offset 4
 286 004a BD46     		mov	sp, r7
 287              		.cfi_def_cfa_register 13
 288              		@ sp needed
 289 004c 80BC     		pop	{r7}
 290              		.cfi_restore 7
 291              		.cfi_def_cfa_offset 0
 292 004e 7047     		bx	lr
 293              		.cfi_endproc
 294              	.LFE120:
 296              		.section	.text.app_resource_free,"ax",%progbits
 297              		.align	1
 298              		.global	app_resource_free
 299              		.syntax unified
 300              		.thumb
 301              		.thumb_func
 302              		.fpu softvfp
 304              	app_resource_free:
 305              	.LFB121:
  98:../app/app.c  **** 
  99:../app/app.c  **** void app_resource_free(uint8_t Step)
 100:../app/app.c  **** {
 306              		.loc 1 100 1
 307              		.cfi_startproc
 308              		@ args = 0, pretend = 0, frame = 8
 309              		@ frame_needed = 1, uses_anonymous_args = 0
 310 0000 80B5     		push	{r7, lr}
 311              		.cfi_def_cfa_offset 8
 312              		.cfi_offset 7, -8
 313              		.cfi_offset 14, -4
 314 0002 82B0     		sub	sp, sp, #8
 315              		.cfi_def_cfa_offset 16
 316 0004 00AF     		add	r7, sp, #0
 317              		.cfi_def_cfa_register 7
 318 0006 0346     		mov	r3, r0
 319 0008 FB71     		strb	r3, [r7, #7]
 101:../app/app.c  **** 	switch(Step){
 320              		.loc 1 101 2
 321 000a FB79     		ldrb	r3, [r7, #7]	@ zero_extendqisi2
 322 000c 013B     		subs	r3, r3, #1
 323 000e 0A2B     		cmp	r3, #10
 324 0010 1CD8     		bhi	.L41
 325 0012 01A2     		adr	r2, .L36
 326 0014 52F823F0 		ldr	pc, [r2, r3, lsl #2]
 327              		.p2align 2
 328              	.L36:
 329 0018 4D000000 		.word	.L41+1
 330 001c 45000000 		.word	.L38+1
 331 0020 45000000 		.word	.L38+1
 332 0024 45000000 		.word	.L38+1
 333 0028 45000000 		.word	.L38+1
 334 002c 45000000 		.word	.L38+1
 335 0030 45000000 		.word	.L38+1
 336 0034 45000000 		.word	.L38+1
 337 0038 45000000 		.word	.L38+1
 338 003c 4D000000 		.word	.L41+1
 339 0040 4D000000 		.word	.L41+1
 340              		.p2align 1
 341              	.L38:
 102:../app/app.c  **** 	case APP_IDLE_STATE:
 103:../app/app.c  **** 		break;
 104:../app/app.c  **** 	case APP_STARTUP_STATE:
 105:../app/app.c  **** 	case APP_NORMAL_STATE:
 106:../app/app.c  **** 	case APP_ESPRESSO_STATE:
 107:../app/app.c  **** 	case APP_AMERICAN_STATE:
 108:../app/app.c  **** 	case APP_HOTWATER_STATE:
 109:../app/app.c  **** 	case APP_STEAM_STATE:
 110:../app/app.c  **** 	case APP_AQUA_STATE:
 111:../app/app.c  **** 	case APP_CALC_STATE:
 112:../app/app.c  **** 		osal_lyh_kill_over_timer(OS_LED_TIME);
 342              		.loc 1 112 3
 343 0044 0220     		movs	r0, #2
 344 0046 FFF7FEFF 		bl	osal_lyh_kill_over_timer
 113:../app/app.c  **** 		break;
 345              		.loc 1 113 3
 346 004a 00E0     		b	.L40
 347              	.L41:
 114:../app/app.c  **** 	case APP_SETUP_STATE:
 115:../app/app.c  **** 		break;
 116:../app/app.c  **** 	case APP_RUNNING_ONOFF_STATE:
 117:../app/app.c  **** 		break;
 118:../app/app.c  **** 	default:
 119:../app/app.c  **** 		break;
 348              		.loc 1 119 3
 349 004c 00BF     		nop
 350              	.L40:
 120:../app/app.c  **** 	}
 121:../app/app.c  **** }
 351              		.loc 1 121 1
 352 004e 00BF     		nop
 353 0050 0837     		adds	r7, r7, #8
 354              		.cfi_def_cfa_offset 8
 355 0052 BD46     		mov	sp, r7
 356              		.cfi_def_cfa_register 13
 357              		@ sp needed
 358 0054 80BD     		pop	{r7, pc}
 359              		.cfi_endproc
 360              	.LFE121:
 362 0056 00BF     		.section	.text.app_task_nextstep,"ax",%progbits
 363              		.align	1
 364              		.global	app_task_nextstep
 365              		.syntax unified
 366              		.thumb
 367              		.thumb_func
 368              		.fpu softvfp
 370              	app_task_nextstep:
 371              	.LFB122:
 122:../app/app.c  **** 
 123:../app/app.c  **** void app_task_nextstep(uint8_t Step, uint8_t suStep)
 124:../app/app.c  **** {
 372              		.loc 1 124 1
 373              		.cfi_startproc
 374              		@ args = 0, pretend = 0, frame = 8
 375              		@ frame_needed = 1, uses_anonymous_args = 0
 376 0000 80B5     		push	{r7, lr}
 377              		.cfi_def_cfa_offset 8
 378              		.cfi_offset 7, -8
 379              		.cfi_offset 14, -4
 380 0002 82B0     		sub	sp, sp, #8
 381              		.cfi_def_cfa_offset 16
 382 0004 00AF     		add	r7, sp, #0
 383              		.cfi_def_cfa_register 7
 384 0006 0346     		mov	r3, r0
 385 0008 0A46     		mov	r2, r1
 386 000a FB71     		strb	r3, [r7, #7]
 387 000c 1346     		mov	r3, r2
 388 000e BB71     		strb	r3, [r7, #6]
 125:../app/app.c  **** 	app_resource_free(app_task_step);
 389              		.loc 1 125 2
 390 0010 0B4B     		ldr	r3, .L43
 391 0012 1B78     		ldrb	r3, [r3]	@ zero_extendqisi2
 392 0014 1846     		mov	r0, r3
 393 0016 FFF7FEFF 		bl	app_resource_free
 126:../app/app.c  **** 	app_resource_init(Step);
 394              		.loc 1 126 2
 395 001a FB79     		ldrb	r3, [r7, #7]	@ zero_extendqisi2
 396 001c 1846     		mov	r0, r3
 397 001e FFF7FEFF 		bl	app_resource_init
 127:../app/app.c  **** 	osal_lyh_restore_task(app_id);
 398              		.loc 1 127 2
 399 0022 084B     		ldr	r3, .L43+4
 400 0024 1B78     		ldrb	r3, [r3]	@ zero_extendqisi2
 401 0026 1846     		mov	r0, r3
 402 0028 FFF7FEFF 		bl	osal_lyh_restore_task
 128:../app/app.c  **** 	app_task_substep = suStep;
 403              		.loc 1 128 19
 404 002c 064A     		ldr	r2, .L43+8
 405 002e BB79     		ldrb	r3, [r7, #6]
 406 0030 1370     		strb	r3, [r2]
 129:../app/app.c  **** 	app_task_step = Step;
 407              		.loc 1 129 16
 408 0032 034A     		ldr	r2, .L43
 409 0034 FB79     		ldrb	r3, [r7, #7]
 410 0036 1370     		strb	r3, [r2]
 130:../app/app.c  **** }
 411              		.loc 1 130 1
 412 0038 00BF     		nop
 413 003a 0837     		adds	r7, r7, #8
 414              		.cfi_def_cfa_offset 8
 415 003c BD46     		mov	sp, r7
 416              		.cfi_def_cfa_register 13
 417              		@ sp needed
 418 003e 80BD     		pop	{r7, pc}
 419              	.L44:
 420              		.align	2
 421              	.L43:
 422 0040 00000000 		.word	app_task_step
 423 0044 00000000 		.word	app_id
 424 0048 00000000 		.word	app_task_substep
 425              		.cfi_endproc
 426              	.LFE122:
 428              		.section	.text.app_task_nextsubstep,"ax",%progbits
 429              		.align	1
 430              		.global	app_task_nextsubstep
 431              		.syntax unified
 432              		.thumb
 433              		.thumb_func
 434              		.fpu softvfp
 436              	app_task_nextsubstep:
 437              	.LFB123:
 131:../app/app.c  **** 
 132:../app/app.c  **** void app_task_nextsubstep(uint8_t suStep)
 133:../app/app.c  **** {
 438              		.loc 1 133 1
 439              		.cfi_startproc
 440              		@ args = 0, pretend = 0, frame = 8
 441              		@ frame_needed = 1, uses_anonymous_args = 0
 442 0000 80B5     		push	{r7, lr}
 443              		.cfi_def_cfa_offset 8
 444              		.cfi_offset 7, -8
 445              		.cfi_offset 14, -4
 446 0002 82B0     		sub	sp, sp, #8
 447              		.cfi_def_cfa_offset 16
 448 0004 00AF     		add	r7, sp, #0
 449              		.cfi_def_cfa_register 7
 450 0006 0346     		mov	r3, r0
 451 0008 FB71     		strb	r3, [r7, #7]
 134:../app/app.c  **** 	osal_lyh_restore_task(app_id);
 452              		.loc 1 134 2
 453 000a 064B     		ldr	r3, .L46
 454 000c 1B78     		ldrb	r3, [r3]	@ zero_extendqisi2
 455 000e 1846     		mov	r0, r3
 456 0010 FFF7FEFF 		bl	osal_lyh_restore_task
 135:../app/app.c  **** 	app_task_substep = suStep;
 457              		.loc 1 135 19
 458 0014 044A     		ldr	r2, .L46+4
 459 0016 FB79     		ldrb	r3, [r7, #7]
 460 0018 1370     		strb	r3, [r2]
 136:../app/app.c  **** }
 461              		.loc 1 136 1
 462 001a 00BF     		nop
 463 001c 0837     		adds	r7, r7, #8
 464              		.cfi_def_cfa_offset 8
 465 001e BD46     		mov	sp, r7
 466              		.cfi_def_cfa_register 13
 467              		@ sp needed
 468 0020 80BD     		pop	{r7, pc}
 469              	.L47:
 470 0022 00BF     		.align	2
 471              	.L46:
 472 0024 00000000 		.word	app_id
 473 0028 00000000 		.word	app_task_substep
 474              		.cfi_endproc
 475              	.LFE123:
 477              		.section	.text.app_water_ready,"ax",%progbits
 478              		.align	1
 479              		.global	app_water_ready
 480              		.syntax unified
 481              		.thumb
 482              		.thumb_func
 483              		.fpu softvfp
 485              	app_water_ready:
 486              	.LFB124:
 137:../app/app.c  **** 
 138:../app/app.c  **** uint8_t app_water_ready(void)
 139:../app/app.c  **** {
 487              		.loc 1 139 1
 488              		.cfi_startproc
 489              		@ args = 0, pretend = 0, frame = 0
 490              		@ frame_needed = 1, uses_anonymous_args = 0
 491              		@ link register save eliminated.
 492 0000 80B4     		push	{r7}
 493              		.cfi_def_cfa_offset 4
 494              		.cfi_offset 7, -4
 495 0002 00AF     		add	r7, sp, #0
 496              		.cfi_def_cfa_register 7
 140:../app/app.c  **** 	return (keyinfo.ulUIOnboardSwitches & WATER_DET_MASK)? TRUE:FAIL;
 497              		.loc 1 140 17
 498 0004 054B     		ldr	r3, .L50
 499 0006 DB69     		ldr	r3, [r3, #28]
 500              		.loc 1 140 61
 501 0008 1B0C     		lsrs	r3, r3, #16
 502 000a DBB2     		uxtb	r3, r3
 503 000c 03F00103 		and	r3, r3, #1
 504 0010 DBB2     		uxtb	r3, r3
 141:../app/app.c  **** }
 505              		.loc 1 141 1
 506 0012 1846     		mov	r0, r3
 507 0014 BD46     		mov	sp, r7
 508              		.cfi_def_cfa_register 13
 509              		@ sp needed
 510 0016 80BC     		pop	{r7}
 511              		.cfi_restore 7
 512              		.cfi_def_cfa_offset 0
 513 0018 7047     		bx	lr
 514              	.L51:
 515 001a 00BF     		.align	2
 516              	.L50:
 517 001c 00000000 		.word	keyinfo
 518              		.cfi_endproc
 519              	.LFE124:
 521              		.section	.text.app_pallet_ready,"ax",%progbits
 522              		.align	1
 523              		.global	app_pallet_ready
 524              		.syntax unified
 525              		.thumb
 526              		.thumb_func
 527              		.fpu softvfp
 529              	app_pallet_ready:
 530              	.LFB125:
 142:../app/app.c  **** 
 143:../app/app.c  **** uint8_t app_pallet_ready(void)
 144:../app/app.c  **** {
 531              		.loc 1 144 1
 532              		.cfi_startproc
 533              		@ args = 0, pretend = 0, frame = 0
 534              		@ frame_needed = 1, uses_anonymous_args = 0
 535              		@ link register save eliminated.
 536 0000 80B4     		push	{r7}
 537              		.cfi_def_cfa_offset 4
 538              		.cfi_offset 7, -4
 539 0002 00AF     		add	r7, sp, #0
 540              		.cfi_def_cfa_register 7
 145:../app/app.c  **** 	return (keyinfo.ulUIOnboardSwitches & PALLET_DET_MASK)? TRUE:FAIL;
 541              		.loc 1 145 17
 542 0004 054B     		ldr	r3, .L54
 543 0006 DB69     		ldr	r3, [r3, #28]
 544              		.loc 1 145 62
 545 0008 DB0A     		lsrs	r3, r3, #11
 546 000a DBB2     		uxtb	r3, r3
 547 000c 03F00103 		and	r3, r3, #1
 548 0010 DBB2     		uxtb	r3, r3
 146:../app/app.c  **** }
 549              		.loc 1 146 1
 550 0012 1846     		mov	r0, r3
 551 0014 BD46     		mov	sp, r7
 552              		.cfi_def_cfa_register 13
 553              		@ sp needed
 554 0016 80BC     		pop	{r7}
 555              		.cfi_restore 7
 556              		.cfi_def_cfa_offset 0
 557 0018 7047     		bx	lr
 558              	.L55:
 559 001a 00BF     		.align	2
 560              	.L54:
 561 001c 00000000 		.word	keyinfo
 562              		.cfi_endproc
 563              	.LFE125:
 565              		.section	.text.app_meter_ready,"ax",%progbits
 566              		.align	1
 567              		.global	app_meter_ready
 568              		.syntax unified
 569              		.thumb
 570              		.thumb_func
 571              		.fpu softvfp
 573              	app_meter_ready:
 574              	.LFB126:
 147:../app/app.c  **** 
 148:../app/app.c  **** uint8_t app_meter_ready(void)
 149:../app/app.c  **** {
 575              		.loc 1 149 1
 576              		.cfi_startproc
 577              		@ args = 0, pretend = 0, frame = 0
 578              		@ frame_needed = 1, uses_anonymous_args = 0
 579              		@ link register save eliminated.
 580 0000 80B4     		push	{r7}
 581              		.cfi_def_cfa_offset 4
 582              		.cfi_offset 7, -4
 583 0002 00AF     		add	r7, sp, #0
 584              		.cfi_def_cfa_register 7
 150:../app/app.c  **** 	return (keyinfo.ulUIOnboardSwitches & METER_DET_MASK)? TRUE:FAIL;
 585              		.loc 1 150 17
 586 0004 054B     		ldr	r3, .L58
 587 0006 DB69     		ldr	r3, [r3, #28]
 588              		.loc 1 150 61
 589 0008 9B0B     		lsrs	r3, r3, #14
 590 000a DBB2     		uxtb	r3, r3
 591 000c 03F00103 		and	r3, r3, #1
 592 0010 DBB2     		uxtb	r3, r3
 151:../app/app.c  **** }
 593              		.loc 1 151 1
 594 0012 1846     		mov	r0, r3
 595 0014 BD46     		mov	sp, r7
 596              		.cfi_def_cfa_register 13
 597              		@ sp needed
 598 0016 80BC     		pop	{r7}
 599              		.cfi_restore 7
 600              		.cfi_def_cfa_offset 0
 601 0018 7047     		bx	lr
 602              	.L59:
 603 001a 00BF     		.align	2
 604              	.L58:
 605 001c 00000000 		.word	keyinfo
 606              		.cfi_endproc
 607              	.LFE126:
 609              		.section	.text.app_motor_ready,"ax",%progbits
 610              		.align	1
 611              		.global	app_motor_ready
 612              		.syntax unified
 613              		.thumb
 614              		.thumb_func
 615              		.fpu softvfp
 617              	app_motor_ready:
 618              	.LFB127:
 152:../app/app.c  **** 
 153:../app/app.c  **** uint8_t app_motor_ready(void)
 154:../app/app.c  **** {
 619              		.loc 1 154 1
 620              		.cfi_startproc
 621              		@ args = 0, pretend = 0, frame = 0
 622              		@ frame_needed = 1, uses_anonymous_args = 0
 623              		@ link register save eliminated.
 624 0000 80B4     		push	{r7}
 625              		.cfi_def_cfa_offset 4
 626              		.cfi_offset 7, -4
 627 0002 00AF     		add	r7, sp, #0
 628              		.cfi_def_cfa_register 7
 155:../app/app.c  **** 	return (!(keyinfo.ulUIOnboardSwitches & MOTOR_DET_MASK))? TRUE:FAIL;
 629              		.loc 1 155 19
 630 0004 064B     		ldr	r3, .L62
 631 0006 DB69     		ldr	r3, [r3, #28]
 632              		.loc 1 155 40
 633 0008 03F40043 		and	r3, r3, #32768
 634              		.loc 1 155 64
 635 000c 002B     		cmp	r3, #0
 636 000e 0CBF     		ite	eq
 637 0010 0123     		moveq	r3, #1
 638 0012 0023     		movne	r3, #0
 639 0014 DBB2     		uxtb	r3, r3
 156:../app/app.c  **** }
 640              		.loc 1 156 1
 641 0016 1846     		mov	r0, r3
 642 0018 BD46     		mov	sp, r7
 643              		.cfi_def_cfa_register 13
 644              		@ sp needed
 645 001a 80BC     		pop	{r7}
 646              		.cfi_restore 7
 647              		.cfi_def_cfa_offset 0
 648 001c 7047     		bx	lr
 649              	.L63:
 650 001e 00BF     		.align	2
 651              	.L62:
 652 0020 00000000 		.word	keyinfo
 653              		.cfi_endproc
 654              	.LFE127:
 656              		.section	.text.app_turn_heat_off,"ax",%progbits
 657              		.align	1
 658              		.global	app_turn_heat_off
 659              		.syntax unified
 660              		.thumb
 661              		.thumb_func
 662              		.fpu softvfp
 664              	app_turn_heat_off:
 665              	.LFB128:
 157:../app/app.c  **** 
 158:../app/app.c  **** void app_turn_heat_off(void)
 159:../app/app.c  **** {
 666              		.loc 1 159 1
 667              		.cfi_startproc
 668              		@ args = 0, pretend = 0, frame = 0
 669              		@ frame_needed = 1, uses_anonymous_args = 0
 670              		@ link register save eliminated.
 671 0000 80B4     		push	{r7}
 672              		.cfi_def_cfa_offset 4
 673              		.cfi_offset 7, -4
 674 0002 00AF     		add	r7, sp, #0
 675              		.cfi_def_cfa_register 7
 160:../app/app.c  **** 	osal_lyh_set_event(heat_id, HEAT_STOP_EVENT);
 676              		.loc 1 160 2
 677 0004 084B     		ldr	r3, .L65
 678 0006 1B78     		ldrb	r3, [r3]	@ zero_extendqisi2
 679 0008 1A46     		mov	r2, r3
 680 000a 084B     		ldr	r3, .L65+4
 681 000c 53F82230 		ldr	r3, [r3, r2, lsl #2]
 682 0010 054A     		ldr	r2, .L65
 683 0012 1278     		ldrb	r2, [r2]	@ zero_extendqisi2
 684 0014 1146     		mov	r1, r2
 685 0016 43F00203 		orr	r3, r3, #2
 686 001a 044A     		ldr	r2, .L65+4
 687 001c 42F82130 		str	r3, [r2, r1, lsl #2]
 161:../app/app.c  **** }
 688              		.loc 1 161 1
 689 0020 00BF     		nop
 690 0022 BD46     		mov	sp, r7
 691              		.cfi_def_cfa_register 13
 692              		@ sp needed
 693 0024 80BC     		pop	{r7}
 694              		.cfi_restore 7
 695              		.cfi_def_cfa_offset 0
 696 0026 7047     		bx	lr
 697              	.L66:
 698              		.align	2
 699              	.L65:
 700 0028 00000000 		.word	heat_id
 701 002c 00000000 		.word	eventMap
 702              		.cfi_endproc
 703              	.LFE128:
 705              		.section	.text.app_turn_heat_on,"ax",%progbits
 706              		.align	1
 707              		.global	app_turn_heat_on
 708              		.syntax unified
 709              		.thumb
 710              		.thumb_func
 711              		.fpu softvfp
 713              	app_turn_heat_on:
 714              	.LFB129:
 162:../app/app.c  **** 
 163:../app/app.c  **** void app_turn_heat_on(uint16_t target)
 164:../app/app.c  **** {
 715              		.loc 1 164 1
 716              		.cfi_startproc
 717              		@ args = 0, pretend = 0, frame = 8
 718              		@ frame_needed = 1, uses_anonymous_args = 0
 719              		@ link register save eliminated.
 720 0000 80B4     		push	{r7}
 721              		.cfi_def_cfa_offset 4
 722              		.cfi_offset 7, -4
 723 0002 83B0     		sub	sp, sp, #12
 724              		.cfi_def_cfa_offset 16
 725 0004 00AF     		add	r7, sp, #0
 726              		.cfi_def_cfa_register 7
 727 0006 0346     		mov	r3, r0
 728 0008 FB80     		strh	r3, [r7, #6]	@ movhi
 165:../app/app.c  **** 	osal_lyh_set_event(heat_id, HEAT_START_EVENT);
 729              		.loc 1 165 2
 730 000a 0B4B     		ldr	r3, .L68
 731 000c 1B78     		ldrb	r3, [r3]	@ zero_extendqisi2
 732 000e 1A46     		mov	r2, r3
 733 0010 0A4B     		ldr	r3, .L68+4
 734 0012 53F82230 		ldr	r3, [r3, r2, lsl #2]
 735 0016 084A     		ldr	r2, .L68
 736 0018 1278     		ldrb	r2, [r2]	@ zero_extendqisi2
 737 001a 1146     		mov	r1, r2
 738 001c 43F00103 		orr	r3, r3, #1
 739 0020 064A     		ldr	r2, .L68+4
 740 0022 42F82130 		str	r3, [r2, r1, lsl #2]
 166:../app/app.c  **** 	target_temp = target;
 741              		.loc 1 166 14
 742 0026 064A     		ldr	r2, .L68+8
 743 0028 FB88     		ldrh	r3, [r7, #6]	@ movhi
 744 002a 1380     		strh	r3, [r2]	@ movhi
 167:../app/app.c  **** }
 745              		.loc 1 167 1
 746 002c 00BF     		nop
 747 002e 0C37     		adds	r7, r7, #12
 748              		.cfi_def_cfa_offset 4
 749 0030 BD46     		mov	sp, r7
 750              		.cfi_def_cfa_register 13
 751              		@ sp needed
 752 0032 80BC     		pop	{r7}
 753              		.cfi_restore 7
 754              		.cfi_def_cfa_offset 0
 755 0034 7047     		bx	lr
 756              	.L69:
 757 0036 00BF     		.align	2
 758              	.L68:
 759 0038 00000000 		.word	heat_id
 760 003c 00000000 		.word	eventMap
 761 0040 00000000 		.word	target_temp
 762              		.cfi_endproc
 763              	.LFE129:
 765              		.section	.text.app_temperature_state,"ax",%progbits
 766              		.align	1
 767              		.global	app_temperature_state
 768              		.syntax unified
 769              		.thumb
 770              		.thumb_func
 771              		.fpu softvfp
 773              	app_temperature_state:
 774              	.LFB130:
 168:../app/app.c  **** 
 169:../app/app.c  **** uint8_t app_temperature_state(uint16_t target)
 170:../app/app.c  **** {
 775              		.loc 1 170 1
 776              		.cfi_startproc
 777              		@ args = 0, pretend = 0, frame = 8
 778              		@ frame_needed = 1, uses_anonymous_args = 0
 779 0000 80B5     		push	{r7, lr}
 780              		.cfi_def_cfa_offset 8
 781              		.cfi_offset 7, -8
 782              		.cfi_offset 14, -4
 783 0002 82B0     		sub	sp, sp, #8
 784              		.cfi_def_cfa_offset 16
 785 0004 00AF     		add	r7, sp, #0
 786              		.cfi_def_cfa_register 7
 787 0006 0346     		mov	r3, r0
 788 0008 FB80     		strh	r3, [r7, #6]	@ movhi
 171:../app/app.c  **** 	return heat_get_temp(target);
 789              		.loc 1 171 9
 790 000a FB88     		ldrh	r3, [r7, #6]
 791 000c 1846     		mov	r0, r3
 792 000e FFF7FEFF 		bl	heat_get_temp
 793 0012 0346     		mov	r3, r0
 172:../app/app.c  **** }
 794              		.loc 1 172 1
 795 0014 1846     		mov	r0, r3
 796 0016 0837     		adds	r7, r7, #8
 797              		.cfi_def_cfa_offset 8
 798 0018 BD46     		mov	sp, r7
 799              		.cfi_def_cfa_register 13
 800              		@ sp needed
 801 001a 80BD     		pop	{r7, pc}
 802              		.cfi_endproc
 803              	.LFE130:
 805              		.section	.text.app_relay_set,"ax",%progbits
 806              		.align	1
 807              		.global	app_relay_set
 808              		.syntax unified
 809              		.thumb
 810              		.thumb_func
 811              		.fpu softvfp
 813              	app_relay_set:
 814              	.LFB131:
 173:../app/app.c  **** 
 174:../app/app.c  **** void app_relay_set(uint8_t MODE)
 175:../app/app.c  **** {
 815              		.loc 1 175 1
 816              		.cfi_startproc
 817              		@ args = 0, pretend = 0, frame = 8
 818              		@ frame_needed = 1, uses_anonymous_args = 0
 819 0000 80B5     		push	{r7, lr}
 820              		.cfi_def_cfa_offset 8
 821              		.cfi_offset 7, -8
 822              		.cfi_offset 14, -4
 823 0002 82B0     		sub	sp, sp, #8
 824              		.cfi_def_cfa_offset 16
 825 0004 00AF     		add	r7, sp, #0
 826              		.cfi_def_cfa_register 7
 827 0006 0346     		mov	r3, r0
 828 0008 FB71     		strb	r3, [r7, #7]
 176:../app/app.c  **** 	if(MODE == COFFEE_MODE){
 829              		.loc 1 176 4
 830 000a FB79     		ldrb	r3, [r7, #7]	@ zero_extendqisi2
 831 000c 002B     		cmp	r3, #0
 832 000e 02D1     		bne	.L73
 177:../app/app.c  **** 		Relay2_OFF();
 833              		.loc 1 177 3
 834 0010 FFF7FEFF 		bl	Relay2_OFF
 178:../app/app.c  **** 	}
 179:../app/app.c  **** 	else if(MODE == WATER_MODE){
 180:../app/app.c  **** 		Relay2_ON();
 181:../app/app.c  **** 	}
 182:../app/app.c  **** }
 835              		.loc 1 182 1
 836 0014 04E0     		b	.L75
 837              	.L73:
 179:../app/app.c  **** 		Relay2_ON();
 838              		.loc 1 179 9
 839 0016 FB79     		ldrb	r3, [r7, #7]	@ zero_extendqisi2
 840 0018 012B     		cmp	r3, #1
 841 001a 01D1     		bne	.L75
 180:../app/app.c  **** 	}
 842              		.loc 1 180 3
 843 001c FFF7FEFF 		bl	Relay2_ON
 844              	.L75:
 845              		.loc 1 182 1
 846 0020 00BF     		nop
 847 0022 0837     		adds	r7, r7, #8
 848              		.cfi_def_cfa_offset 8
 849 0024 BD46     		mov	sp, r7
 850              		.cfi_def_cfa_register 13
 851              		@ sp needed
 852 0026 80BD     		pop	{r7, pc}
 853              		.cfi_endproc
 854              	.LFE131:
 856              		.section	.text.app_step_state,"ax",%progbits
 857              		.align	1
 858              		.global	app_step_state
 859              		.syntax unified
 860              		.thumb
 861              		.thumb_func
 862              		.fpu softvfp
 864              	app_step_state:
 865              	.LFB132:
 183:../app/app.c  **** 
 184:../app/app.c  **** uint8_t app_step_state(uint8_t step)
 185:../app/app.c  **** {
 866              		.loc 1 185 1
 867              		.cfi_startproc
 868              		@ args = 0, pretend = 0, frame = 8
 869              		@ frame_needed = 1, uses_anonymous_args = 0
 870              		@ link register save eliminated.
 871 0000 80B4     		push	{r7}
 872              		.cfi_def_cfa_offset 4
 873              		.cfi_offset 7, -4
 874 0002 83B0     		sub	sp, sp, #12
 875              		.cfi_def_cfa_offset 16
 876 0004 00AF     		add	r7, sp, #0
 877              		.cfi_def_cfa_register 7
 878 0006 0346     		mov	r3, r0
 879 0008 FB71     		strb	r3, [r7, #7]
 186:../app/app.c  **** 	return (app_task_step == step)? TRUE:FAIL;
 880              		.loc 1 186 38
 881 000a 064B     		ldr	r3, .L78
 882 000c 1B78     		ldrb	r3, [r3]	@ zero_extendqisi2
 883 000e FA79     		ldrb	r2, [r7, #7]	@ zero_extendqisi2
 884 0010 9A42     		cmp	r2, r3
 885 0012 0CBF     		ite	eq
 886 0014 0123     		moveq	r3, #1
 887 0016 0023     		movne	r3, #0
 888 0018 DBB2     		uxtb	r3, r3
 187:../app/app.c  **** }
 889              		.loc 1 187 1
 890 001a 1846     		mov	r0, r3
 891 001c 0C37     		adds	r7, r7, #12
 892              		.cfi_def_cfa_offset 4
 893 001e BD46     		mov	sp, r7
 894              		.cfi_def_cfa_register 13
 895              		@ sp needed
 896 0020 80BC     		pop	{r7}
 897              		.cfi_restore 7
 898              		.cfi_def_cfa_offset 0
 899 0022 7047     		bx	lr
 900              	.L79:
 901              		.align	2
 902              	.L78:
 903 0024 00000000 		.word	app_task_step
 904              		.cfi_endproc
 905              	.LFE132:
 907              		.section	.text.app_led_heat_cbfunc,"ax",%progbits
 908              		.align	1
 909              		.global	app_led_heat_cbfunc
 910              		.syntax unified
 911              		.thumb
 912              		.thumb_func
 913              		.fpu softvfp
 915              	app_led_heat_cbfunc:
 916              	.LFB133:
 188:../app/app.c  **** 
 189:../app/app.c  **** void app_led_heat_cbfunc(void)
 190:../app/app.c  **** {
 917              		.loc 1 190 1
 918              		.cfi_startproc
 919              		@ args = 0, pretend = 0, frame = 8
 920              		@ frame_needed = 1, uses_anonymous_args = 0
 921 0000 80B5     		push	{r7, lr}
 922              		.cfi_def_cfa_offset 8
 923              		.cfi_offset 7, -8
 924              		.cfi_offset 14, -4
 925 0002 82B0     		sub	sp, sp, #8
 926              		.cfi_def_cfa_offset 16
 927 0004 00AF     		add	r7, sp, #0
 928              		.cfi_def_cfa_register 7
 191:../app/app.c  **** 	uint8_t i, led_id[] = {ESPRESSO1_LED, AMERICANO1_LED, STEAM_LED, HOT_WATER};
 929              		.loc 1 191 13
 930 0006 1F4B     		ldr	r3, .L84
 931 0008 3B60     		str	r3, [r7]
 192:../app/app.c  **** 
 193:../app/app.c  **** 	for (i = 0; i<sizeof(led_id); i++){
 932              		.loc 1 193 9
 933 000a 0023     		movs	r3, #0
 934 000c FB71     		strb	r3, [r7, #7]
 935              		.loc 1 193 2
 936 000e 16E0     		b	.L81
 937              	.L82:
 194:../app/app.c  **** 		display_led(led_id[i], (Leds_loop_run & (1<<i))? LED_ON:LED_OFF);
 938              		.loc 1 194 3 discriminator 3
 939 0010 FB79     		ldrb	r3, [r7, #7]	@ zero_extendqisi2
 940 0012 07F10802 		add	r2, r7, #8
 941 0016 1344     		add	r3, r3, r2
 942 0018 13F8082C 		ldrb	r2, [r3, #-8]	@ zero_extendqisi2
 943              		.loc 1 194 50 discriminator 3
 944 001c 1A4B     		ldr	r3, .L84+4
 945 001e 1B78     		ldrb	r3, [r3]	@ zero_extendqisi2
 946 0020 1946     		mov	r1, r3
 947 0022 FB79     		ldrb	r3, [r7, #7]	@ zero_extendqisi2
 948 0024 41FA03F3 		asr	r3, r1, r3
 949              		.loc 1 194 58 discriminator 3
 950 0028 DBB2     		uxtb	r3, r3
 951              		.loc 1 194 3 discriminator 3
 952 002a 03F00103 		and	r3, r3, #1
 953 002e DBB2     		uxtb	r3, r3
 954 0030 1946     		mov	r1, r3
 955 0032 1046     		mov	r0, r2
 956 0034 FFF7FEFF 		bl	display_led
 193:../app/app.c  **** 		display_led(led_id[i], (Leds_loop_run & (1<<i))? LED_ON:LED_OFF);
 957              		.loc 1 193 33 discriminator 3
 958 0038 FB79     		ldrb	r3, [r7, #7]	@ zero_extendqisi2
 959 003a 0133     		adds	r3, r3, #1
 960 003c FB71     		strb	r3, [r7, #7]
 961              	.L81:
 193:../app/app.c  **** 		display_led(led_id[i], (Leds_loop_run & (1<<i))? LED_ON:LED_OFF);
 962              		.loc 1 193 2 discriminator 1
 963 003e FB79     		ldrb	r3, [r7, #7]	@ zero_extendqisi2
 964 0040 032B     		cmp	r3, #3
 965 0042 E5D9     		bls	.L82
 195:../app/app.c  **** 	}
 196:../app/app.c  **** 	Leds_loop_run <<= 1;
 966              		.loc 1 196 16
 967 0044 104B     		ldr	r3, .L84+4
 968 0046 1B78     		ldrb	r3, [r3]	@ zero_extendqisi2
 969 0048 5B00     		lsls	r3, r3, #1
 970 004a DAB2     		uxtb	r2, r3
 971 004c 0E4B     		ldr	r3, .L84+4
 972 004e 1A70     		strb	r2, [r3]
 197:../app/app.c  **** 	if (Leds_loop_run & (1<<i)) {
 973              		.loc 1 197 6
 974 0050 0D4B     		ldr	r3, .L84+4
 975 0052 1B78     		ldrb	r3, [r3]	@ zero_extendqisi2
 976 0054 1A46     		mov	r2, r3
 977 0056 FB79     		ldrb	r3, [r7, #7]	@ zero_extendqisi2
 978 0058 42FA03F3 		asr	r3, r2, r3
 979 005c 03F00103 		and	r3, r3, #1
 980              		.loc 1 197 5
 981 0060 002B     		cmp	r3, #0
 982 0062 05D0     		beq	.L83
 198:../app/app.c  **** 		Leds_loop_run++;
 983              		.loc 1 198 16
 984 0064 084B     		ldr	r3, .L84+4
 985 0066 1B78     		ldrb	r3, [r3]	@ zero_extendqisi2
 986 0068 0133     		adds	r3, r3, #1
 987 006a DAB2     		uxtb	r2, r3
 988 006c 064B     		ldr	r3, .L84+4
 989 006e 1A70     		strb	r2, [r3]
 990              	.L83:
 199:../app/app.c  **** 	}
 200:../app/app.c  **** 	osal_lyh_over_timer(OS_LED_TIME, Ms_500, app_led_heat_cbfunc);
 991              		.loc 1 200 2
 992 0070 064A     		ldr	r2, .L84+8
 993 0072 4FF4FA71 		mov	r1, #500
 994 0076 0220     		movs	r0, #2
 995 0078 FFF7FEFF 		bl	osal_lyh_over_timer
 201:../app/app.c  **** }
 996              		.loc 1 201 1
 997 007c 00BF     		nop
 998 007e 0837     		adds	r7, r7, #8
 999              		.cfi_def_cfa_offset 8
 1000 0080 BD46     		mov	sp, r7
 1001              		.cfi_def_cfa_register 13
 1002              		@ sp needed
 1003 0082 80BD     		pop	{r7, pc}
 1004              	.L85:
 1005              		.align	2
 1006              	.L84:
 1007 0084 0C0F1215 		.word	353505036
 1008 0088 00000000 		.word	Leds_loop_run
 1009 008c 00000000 		.word	app_led_heat_cbfunc
 1010              		.cfi_endproc
 1011              	.LFE133:
 1013              		.section	.text.app_led_show_init,"ax",%progbits
 1014              		.align	1
 1015              		.global	app_led_show_init
 1016              		.syntax unified
 1017              		.thumb
 1018              		.thumb_func
 1019              		.fpu softvfp
 1021              	app_led_show_init:
 1022              	.LFB134:
 202:../app/app.c  **** 
 203:../app/app.c  **** void app_led_show_init(void)
 204:../app/app.c  **** {
 1023              		.loc 1 204 1
 1024              		.cfi_startproc
 1025              		@ args = 0, pretend = 0, frame = 0
 1026              		@ frame_needed = 1, uses_anonymous_args = 0
 1027 0000 80B5     		push	{r7, lr}
 1028              		.cfi_def_cfa_offset 8
 1029              		.cfi_offset 7, -8
 1030              		.cfi_offset 14, -4
 1031 0002 00AF     		add	r7, sp, #0
 1032              		.cfi_def_cfa_register 7
 205:../app/app.c  **** 	Leds_loop_run = 0x03;
 1033              		.loc 1 205 16
 1034 0004 084B     		ldr	r3, .L87
 1035 0006 0322     		movs	r2, #3
 1036 0008 1A70     		strb	r2, [r3]
 206:../app/app.c  **** 	app_leds_all_fun(LED_OFF);
 1037              		.loc 1 206 2
 1038 000a 0020     		movs	r0, #0
 1039 000c FFF7FEFF 		bl	app_leds_all_fun
 207:../app/app.c  **** 	display_led(ESPRESSO1_LED, LED_ON);
 1040              		.loc 1 207 2
 1041 0010 0121     		movs	r1, #1
 1042 0012 0C20     		movs	r0, #12
 1043 0014 FFF7FEFF 		bl	display_led
 208:../app/app.c  **** 	osal_lyh_over_timer(OS_LED_TIME, Ms_500, app_led_heat_cbfunc);
 1044              		.loc 1 208 2
 1045 0018 044A     		ldr	r2, .L87+4
 1046 001a 4FF4FA71 		mov	r1, #500
 1047 001e 0220     		movs	r0, #2
 1048 0020 FFF7FEFF 		bl	osal_lyh_over_timer
 209:../app/app.c  **** }
 1049              		.loc 1 209 1
 1050 0024 00BF     		nop
 1051 0026 80BD     		pop	{r7, pc}
 1052              	.L88:
 1053              		.align	2
 1054              	.L87:
 1055 0028 00000000 		.word	Leds_loop_run
 1056 002c 00000000 		.word	app_led_heat_cbfunc
 1057              		.cfi_endproc
 1058              	.LFE134:
 1060              		.section	.text.app_led_start_cbfunc,"ax",%progbits
 1061              		.align	1
 1062              		.global	app_led_start_cbfunc
 1063              		.syntax unified
 1064              		.thumb
 1065              		.thumb_func
 1066              		.fpu softvfp
 1068              	app_led_start_cbfunc:
 1069              	.LFB135:
 210:../app/app.c  **** 
 211:../app/app.c  **** void app_led_start_cbfunc(void)
 212:../app/app.c  **** {
 1070              		.loc 1 212 1
 1071              		.cfi_startproc
 1072              		@ args = 0, pretend = 0, frame = 0
 1073              		@ frame_needed = 1, uses_anonymous_args = 0
 1074 0000 80B5     		push	{r7, lr}
 1075              		.cfi_def_cfa_offset 8
 1076              		.cfi_offset 7, -8
 1077              		.cfi_offset 14, -4
 1078 0002 00AF     		add	r7, sp, #0
 1079              		.cfi_def_cfa_register 7
 213:../app/app.c  **** 	display_led(START_LED, LED_TOGGLE);
 1080              		.loc 1 213 2
 1081 0004 0221     		movs	r1, #2
 1082 0006 0520     		movs	r0, #5
 1083 0008 FFF7FEFF 		bl	display_led
 214:../app/app.c  **** 	osal_lyh_over_timer(OS_LED_TIME, Ms_500, app_led_start_cbfunc);
 1084              		.loc 1 214 2
 1085 000c 034A     		ldr	r2, .L90
 1086 000e 4FF4FA71 		mov	r1, #500
 1087 0012 0220     		movs	r0, #2
 1088 0014 FFF7FEFF 		bl	osal_lyh_over_timer
 215:../app/app.c  **** }
 1089              		.loc 1 215 1
 1090 0018 00BF     		nop
 1091 001a 80BD     		pop	{r7, pc}
 1092              	.L91:
 1093              		.align	2
 1094              	.L90:
 1095 001c 00000000 		.word	app_led_start_cbfunc
 1096              		.cfi_endproc
 1097              	.LFE135:
 1099              		.section	.text.app_led_start_init,"ax",%progbits
 1100              		.align	1
 1101              		.global	app_led_start_init
 1102              		.syntax unified
 1103              		.thumb
 1104              		.thumb_func
 1105              		.fpu softvfp
 1107              	app_led_start_init:
 1108              	.LFB136:
 216:../app/app.c  **** 
 217:../app/app.c  **** void app_led_start_init(void)
 218:../app/app.c  **** {
 1109              		.loc 1 218 1
 1110              		.cfi_startproc
 1111              		@ args = 0, pretend = 0, frame = 0
 1112              		@ frame_needed = 1, uses_anonymous_args = 0
 1113 0000 80B5     		push	{r7, lr}
 1114              		.cfi_def_cfa_offset 8
 1115              		.cfi_offset 7, -8
 1116              		.cfi_offset 14, -4
 1117 0002 00AF     		add	r7, sp, #0
 1118              		.cfi_def_cfa_register 7
 219:../app/app.c  **** 	display_led(START_LED, LED_ON);
 1119              		.loc 1 219 2
 1120 0004 0121     		movs	r1, #1
 1121 0006 0520     		movs	r0, #5
 1122 0008 FFF7FEFF 		bl	display_led
 220:../app/app.c  **** 	osal_lyh_over_timer(OS_LED_TIME, Ms_500, app_led_start_cbfunc);
 1123              		.loc 1 220 2
 1124 000c 034A     		ldr	r2, .L93
 1125 000e 4FF4FA71 		mov	r1, #500
 1126 0012 0220     		movs	r0, #2
 1127 0014 FFF7FEFF 		bl	osal_lyh_over_timer
 221:../app/app.c  **** }
 1128              		.loc 1 221 1
 1129 0018 00BF     		nop
 1130 001a 80BD     		pop	{r7, pc}
 1131              	.L94:
 1132              		.align	2
 1133              	.L93:
 1134 001c 00000000 		.word	app_led_start_cbfunc
 1135              		.cfi_endproc
 1136              	.LFE136:
 1138              		.section	.text.app_led_espresso_cbfunc,"ax",%progbits
 1139              		.align	1
 1140              		.global	app_led_espresso_cbfunc
 1141              		.syntax unified
 1142              		.thumb
 1143              		.thumb_func
 1144              		.fpu softvfp
 1146              	app_led_espresso_cbfunc:
 1147              	.LFB137:
 222:../app/app.c  **** 
 223:../app/app.c  **** void app_led_espresso_cbfunc(void)
 224:../app/app.c  **** {
 1148              		.loc 1 224 1
 1149              		.cfi_startproc
 1150              		@ args = 0, pretend = 0, frame = 0
 1151              		@ frame_needed = 1, uses_anonymous_args = 0
 1152 0000 80B5     		push	{r7, lr}
 1153              		.cfi_def_cfa_offset 8
 1154              		.cfi_offset 7, -8
 1155              		.cfi_offset 14, -4
 1156 0002 00AF     		add	r7, sp, #0
 1157              		.cfi_def_cfa_register 7
 225:../app/app.c  **** 	//ๆ นๆฎๆฏๆฐๆพ็คบๅฏนๅบ็ๆ็คบ็ฏ
 226:../app/app.c  **** 	if(0 == manual_setup.cup){
 1158              		.loc 1 226 22
 1159 0004 0C4B     		ldr	r3, .L98
 1160 0006 1B78     		ldrb	r3, [r3]	@ zero_extendqisi2
 1161              		.loc 1 226 4
 1162 0008 002B     		cmp	r3, #0
 1163 000a 04D1     		bne	.L96
 227:../app/app.c  **** 		display_led(ESPRESSO1_LED, LED_TOGGLE);
 1164              		.loc 1 227 3
 1165 000c 0221     		movs	r1, #2
 1166 000e 0C20     		movs	r0, #12
 1167 0010 FFF7FEFF 		bl	display_led
 1168 0014 07E0     		b	.L97
 1169              	.L96:
 228:../app/app.c  **** 	}
 229:../app/app.c  **** 	else if(1 == manual_setup.cup){
 1170              		.loc 1 229 27
 1171 0016 084B     		ldr	r3, .L98
 1172 0018 1B78     		ldrb	r3, [r3]	@ zero_extendqisi2
 1173              		.loc 1 229 9
 1174 001a 012B     		cmp	r3, #1
 1175 001c 03D1     		bne	.L97
 230:../app/app.c  **** 		display_led(ESPRESSO2_LED, LED_TOGGLE);
 1176              		.loc 1 230 3
 1177 001e 0221     		movs	r1, #2
 1178 0020 0920     		movs	r0, #9
 1179 0022 FFF7FEFF 		bl	display_led
 1180              	.L97:
 231:../app/app.c  **** 	}
 232:../app/app.c  **** 	osal_lyh_over_timer(OS_LED_TIME, Ms_500, app_led_espresso_cbfunc);
 1181              		.loc 1 232 2
 1182 0026 054A     		ldr	r2, .L98+4
 1183 0028 4FF4FA71 		mov	r1, #500
 1184 002c 0220     		movs	r0, #2
 1185 002e FFF7FEFF 		bl	osal_lyh_over_timer
 233:../app/app.c  **** }
 1186              		.loc 1 233 1
 1187 0032 00BF     		nop
 1188 0034 80BD     		pop	{r7, pc}
 1189              	.L99:
 1190 0036 00BF     		.align	2
 1191              	.L98:
 1192 0038 00000000 		.word	manual_setup
 1193 003c 00000000 		.word	app_led_espresso_cbfunc
 1194              		.cfi_endproc
 1195              	.LFE137:
 1197              		.section	.text.app_led_espresso_init,"ax",%progbits
 1198              		.align	1
 1199              		.global	app_led_espresso_init
 1200              		.syntax unified
 1201              		.thumb
 1202              		.thumb_func
 1203              		.fpu softvfp
 1205              	app_led_espresso_init:
 1206              	.LFB138:
 234:../app/app.c  **** 
 235:../app/app.c  **** void app_led_espresso_init(void)
 236:../app/app.c  **** {
 1207              		.loc 1 236 1
 1208              		.cfi_startproc
 1209              		@ args = 0, pretend = 0, frame = 0
 1210              		@ frame_needed = 1, uses_anonymous_args = 0
 1211 0000 80B5     		push	{r7, lr}
 1212              		.cfi_def_cfa_offset 8
 1213              		.cfi_offset 7, -8
 1214              		.cfi_offset 14, -4
 1215 0002 00AF     		add	r7, sp, #0
 1216              		.cfi_def_cfa_register 7
 237:../app/app.c  **** 	//ๆ นๆฎๆฏๆฐๆพ็คบๅฏนๅบ็ๆ็คบ็ฏ
 238:../app/app.c  **** 	if(0 == manual_setup.cup){
 1217              		.loc 1 238 22
 1218 0004 0C4B     		ldr	r3, .L103
 1219 0006 1B78     		ldrb	r3, [r3]	@ zero_extendqisi2
 1220              		.loc 1 238 4
 1221 0008 002B     		cmp	r3, #0
 1222 000a 04D1     		bne	.L101
 239:../app/app.c  **** 		display_led(ESPRESSO1_LED, LED_ON);
 1223              		.loc 1 239 3
 1224 000c 0121     		movs	r1, #1
 1225 000e 0C20     		movs	r0, #12
 1226 0010 FFF7FEFF 		bl	display_led
 1227 0014 07E0     		b	.L102
 1228              	.L101:
 240:../app/app.c  **** 	}
 241:../app/app.c  **** 	else if(1 == manual_setup.cup){
 1229              		.loc 1 241 27
 1230 0016 084B     		ldr	r3, .L103
 1231 0018 1B78     		ldrb	r3, [r3]	@ zero_extendqisi2
 1232              		.loc 1 241 9
 1233 001a 012B     		cmp	r3, #1
 1234 001c 03D1     		bne	.L102
 242:../app/app.c  **** 		display_led(ESPRESSO2_LED, LED_ON);
 1235              		.loc 1 242 3
 1236 001e 0121     		movs	r1, #1
 1237 0020 0920     		movs	r0, #9
 1238 0022 FFF7FEFF 		bl	display_led
 1239              	.L102:
 243:../app/app.c  **** 	}
 244:../app/app.c  **** 	osal_lyh_over_timer(OS_LED_TIME, Ms_500, app_led_espresso_cbfunc);
 1240              		.loc 1 244 2
 1241 0026 054A     		ldr	r2, .L103+4
 1242 0028 4FF4FA71 		mov	r1, #500
 1243 002c 0220     		movs	r0, #2
 1244 002e FFF7FEFF 		bl	osal_lyh_over_timer
 245:../app/app.c  **** }
 1245              		.loc 1 245 1
 1246 0032 00BF     		nop
 1247 0034 80BD     		pop	{r7, pc}
 1248              	.L104:
 1249 0036 00BF     		.align	2
 1250              	.L103:
 1251 0038 00000000 		.word	manual_setup
 1252 003c 00000000 		.word	app_led_espresso_cbfunc
 1253              		.cfi_endproc
 1254              	.LFE138:
 1256              		.section	.text.app_led_americano_cbfunc,"ax",%progbits
 1257              		.align	1
 1258              		.global	app_led_americano_cbfunc
 1259              		.syntax unified
 1260              		.thumb
 1261              		.thumb_func
 1262              		.fpu softvfp
 1264              	app_led_americano_cbfunc:
 1265              	.LFB139:
 246:../app/app.c  **** 
 247:../app/app.c  **** void app_led_americano_cbfunc(void)
 248:../app/app.c  **** {
 1266              		.loc 1 248 1
 1267              		.cfi_startproc
 1268              		@ args = 0, pretend = 0, frame = 0
 1269              		@ frame_needed = 1, uses_anonymous_args = 0
 1270 0000 80B5     		push	{r7, lr}
 1271              		.cfi_def_cfa_offset 8
 1272              		.cfi_offset 7, -8
 1273              		.cfi_offset 14, -4
 1274 0002 00AF     		add	r7, sp, #0
 1275              		.cfi_def_cfa_register 7
 249:../app/app.c  **** 	//ๆ นๆฎๆฏๆฐๆพ็คบๅฏนๅบ็ๆ็คบ็ฏ
 250:../app/app.c  **** 	if(0 == manual_setup.cup){
 1276              		.loc 1 250 22
 1277 0004 0C4B     		ldr	r3, .L108
 1278 0006 1B78     		ldrb	r3, [r3]	@ zero_extendqisi2
 1279              		.loc 1 250 4
 1280 0008 002B     		cmp	r3, #0
 1281 000a 04D1     		bne	.L106
 251:../app/app.c  **** 		display_led(AMERICANO1_LED, LED_TOGGLE);
 1282              		.loc 1 251 3
 1283 000c 0221     		movs	r1, #2
 1284 000e 0F20     		movs	r0, #15
 1285 0010 FFF7FEFF 		bl	display_led
 1286 0014 07E0     		b	.L107
 1287              	.L106:
 252:../app/app.c  **** 	}
 253:../app/app.c  **** 	else if(1 == manual_setup.cup){
 1288              		.loc 1 253 27
 1289 0016 084B     		ldr	r3, .L108
 1290 0018 1B78     		ldrb	r3, [r3]	@ zero_extendqisi2
 1291              		.loc 1 253 9
 1292 001a 012B     		cmp	r3, #1
 1293 001c 03D1     		bne	.L107
 254:../app/app.c  **** 		display_led(AMERICANO2_LED, LED_TOGGLE);
 1294              		.loc 1 254 3
 1295 001e 0221     		movs	r1, #2
 1296 0020 0620     		movs	r0, #6
 1297 0022 FFF7FEFF 		bl	display_led
 1298              	.L107:
 255:../app/app.c  **** 	}
 256:../app/app.c  **** 	osal_lyh_over_timer(OS_LED_TIME, Ms_500, app_led_americano_cbfunc);
 1299              		.loc 1 256 2
 1300 0026 054A     		ldr	r2, .L108+4
 1301 0028 4FF4FA71 		mov	r1, #500
 1302 002c 0220     		movs	r0, #2
 1303 002e FFF7FEFF 		bl	osal_lyh_over_timer
 257:../app/app.c  **** }
 1304              		.loc 1 257 1
 1305 0032 00BF     		nop
 1306 0034 80BD     		pop	{r7, pc}
 1307              	.L109:
 1308 0036 00BF     		.align	2
 1309              	.L108:
 1310 0038 00000000 		.word	manual_setup
 1311 003c 00000000 		.word	app_led_americano_cbfunc
 1312              		.cfi_endproc
 1313              	.LFE139:
 1315              		.section	.text.app_led_americano_init,"ax",%progbits
 1316              		.align	1
 1317              		.global	app_led_americano_init
 1318              		.syntax unified
 1319              		.thumb
 1320              		.thumb_func
 1321              		.fpu softvfp
 1323              	app_led_americano_init:
 1324              	.LFB140:
 258:../app/app.c  **** 
 259:../app/app.c  **** void app_led_americano_init(void)
 260:../app/app.c  **** {
 1325              		.loc 1 260 1
 1326              		.cfi_startproc
 1327              		@ args = 0, pretend = 0, frame = 0
 1328              		@ frame_needed = 1, uses_anonymous_args = 0
 1329 0000 80B5     		push	{r7, lr}
 1330              		.cfi_def_cfa_offset 8
 1331              		.cfi_offset 7, -8
 1332              		.cfi_offset 14, -4
 1333 0002 00AF     		add	r7, sp, #0
 1334              		.cfi_def_cfa_register 7
 261:../app/app.c  **** 	//ๆ นๆฎๆฏๆฐๆพ็คบๅฏนๅบ็ๆ็คบ็ฏ
 262:../app/app.c  **** 	if(0 == manual_setup.cup){
 1335              		.loc 1 262 22
 1336 0004 0C4B     		ldr	r3, .L113
 1337 0006 1B78     		ldrb	r3, [r3]	@ zero_extendqisi2
 1338              		.loc 1 262 4
 1339 0008 002B     		cmp	r3, #0
 1340 000a 04D1     		bne	.L111
 263:../app/app.c  **** 		display_led(AMERICANO1_LED, LED_TOGGLE);
 1341              		.loc 1 263 3
 1342 000c 0221     		movs	r1, #2
 1343 000e 0F20     		movs	r0, #15
 1344 0010 FFF7FEFF 		bl	display_led
 1345 0014 07E0     		b	.L112
 1346              	.L111:
 264:../app/app.c  **** 	}
 265:../app/app.c  **** 	else if(1 == manual_setup.cup){
 1347              		.loc 1 265 27
 1348 0016 084B     		ldr	r3, .L113
 1349 0018 1B78     		ldrb	r3, [r3]	@ zero_extendqisi2
 1350              		.loc 1 265 9
 1351 001a 012B     		cmp	r3, #1
 1352 001c 03D1     		bne	.L112
 266:../app/app.c  **** 		display_led(AMERICANO2_LED, LED_TOGGLE);
 1353              		.loc 1 266 3
 1354 001e 0221     		movs	r1, #2
 1355 0020 0620     		movs	r0, #6
 1356 0022 FFF7FEFF 		bl	display_led
 1357              	.L112:
 267:../app/app.c  **** 	}
 268:../app/app.c  **** 	osal_lyh_over_timer(OS_LED_TIME, Ms_500, app_led_americano_cbfunc);
 1358              		.loc 1 268 2
 1359 0026 054A     		ldr	r2, .L113+4
 1360 0028 4FF4FA71 		mov	r1, #500
 1361 002c 0220     		movs	r0, #2
 1362 002e FFF7FEFF 		bl	osal_lyh_over_timer
 269:../app/app.c  **** }
 1363              		.loc 1 269 1
 1364 0032 00BF     		nop
 1365 0034 80BD     		pop	{r7, pc}
 1366              	.L114:
 1367 0036 00BF     		.align	2
 1368              	.L113:
 1369 0038 00000000 		.word	manual_setup
 1370 003c 00000000 		.word	app_led_americano_cbfunc
 1371              		.cfi_endproc
 1372              	.LFE140:
 1374              		.section	.text.app_led_hotwater_cbfunc,"ax",%progbits
 1375              		.align	1
 1376              		.global	app_led_hotwater_cbfunc
 1377              		.syntax unified
 1378              		.thumb
 1379              		.thumb_func
 1380              		.fpu softvfp
 1382              	app_led_hotwater_cbfunc:
 1383              	.LFB141:
 270:../app/app.c  **** 
 271:../app/app.c  **** void app_led_hotwater_cbfunc(void)
 272:../app/app.c  **** {
 1384              		.loc 1 272 1
 1385              		.cfi_startproc
 1386              		@ args = 0, pretend = 0, frame = 0
 1387              		@ frame_needed = 1, uses_anonymous_args = 0
 1388 0000 80B5     		push	{r7, lr}
 1389              		.cfi_def_cfa_offset 8
 1390              		.cfi_offset 7, -8
 1391              		.cfi_offset 14, -4
 1392 0002 00AF     		add	r7, sp, #0
 1393              		.cfi_def_cfa_register 7
 273:../app/app.c  **** 	display_led(HOT_WATER, LED_TOGGLE);
 1394              		.loc 1 273 2
 1395 0004 0221     		movs	r1, #2
 1396 0006 1520     		movs	r0, #21
 1397 0008 FFF7FEFF 		bl	display_led
 274:../app/app.c  **** 	osal_lyh_over_timer(OS_LED_TIME, Ms_500, app_led_hotwater_cbfunc);
 1398              		.loc 1 274 2
 1399 000c 034A     		ldr	r2, .L116
 1400 000e 4FF4FA71 		mov	r1, #500
 1401 0012 0220     		movs	r0, #2
 1402 0014 FFF7FEFF 		bl	osal_lyh_over_timer
 275:../app/app.c  **** }
 1403              		.loc 1 275 1
 1404 0018 00BF     		nop
 1405 001a 80BD     		pop	{r7, pc}
 1406              	.L117:
 1407              		.align	2
 1408              	.L116:
 1409 001c 00000000 		.word	app_led_hotwater_cbfunc
 1410              		.cfi_endproc
 1411              	.LFE141:
 1413              		.section	.text.app_led_hotwater_init,"ax",%progbits
 1414              		.align	1
 1415              		.global	app_led_hotwater_init
 1416              		.syntax unified
 1417              		.thumb
 1418              		.thumb_func
 1419              		.fpu softvfp
 1421              	app_led_hotwater_init:
 1422              	.LFB142:
 276:../app/app.c  **** 
 277:../app/app.c  **** void app_led_hotwater_init(void)
 278:../app/app.c  **** {
 1423              		.loc 1 278 1
 1424              		.cfi_startproc
 1425              		@ args = 0, pretend = 0, frame = 0
 1426              		@ frame_needed = 1, uses_anonymous_args = 0
 1427 0000 80B5     		push	{r7, lr}
 1428              		.cfi_def_cfa_offset 8
 1429              		.cfi_offset 7, -8
 1430              		.cfi_offset 14, -4
 1431 0002 00AF     		add	r7, sp, #0
 1432              		.cfi_def_cfa_register 7
 279:../app/app.c  **** 	display_led(HOT_WATER, LED_ON);
 1433              		.loc 1 279 2
 1434 0004 0121     		movs	r1, #1
 1435 0006 1520     		movs	r0, #21
 1436 0008 FFF7FEFF 		bl	display_led
 280:../app/app.c  **** 	osal_lyh_over_timer(OS_LED_TIME, Ms_500, app_led_hotwater_cbfunc);
 1437              		.loc 1 280 2
 1438 000c 034A     		ldr	r2, .L119
 1439 000e 4FF4FA71 		mov	r1, #500
 1440 0012 0220     		movs	r0, #2
 1441 0014 FFF7FEFF 		bl	osal_lyh_over_timer
 281:../app/app.c  **** }
 1442              		.loc 1 281 1
 1443 0018 00BF     		nop
 1444 001a 80BD     		pop	{r7, pc}
 1445              	.L120:
 1446              		.align	2
 1447              	.L119:
 1448 001c 00000000 		.word	app_led_hotwater_cbfunc
 1449              		.cfi_endproc
 1450              	.LFE142:
 1452              		.section	.text.app_led_steam_cbfunc,"ax",%progbits
 1453              		.align	1
 1454              		.global	app_led_steam_cbfunc
 1455              		.syntax unified
 1456              		.thumb
 1457              		.thumb_func
 1458              		.fpu softvfp
 1460              	app_led_steam_cbfunc:
 1461              	.LFB143:
 282:../app/app.c  **** 
 283:../app/app.c  **** void app_led_steam_cbfunc(void)
 284:../app/app.c  **** {
 1462              		.loc 1 284 1
 1463              		.cfi_startproc
 1464              		@ args = 0, pretend = 0, frame = 0
 1465              		@ frame_needed = 1, uses_anonymous_args = 0
 1466 0000 80B5     		push	{r7, lr}
 1467              		.cfi_def_cfa_offset 8
 1468              		.cfi_offset 7, -8
 1469              		.cfi_offset 14, -4
 1470 0002 00AF     		add	r7, sp, #0
 1471              		.cfi_def_cfa_register 7
 285:../app/app.c  **** 	display_led(STEAM_LED, LED_TOGGLE);
 1472              		.loc 1 285 2
 1473 0004 0221     		movs	r1, #2
 1474 0006 1220     		movs	r0, #18
 1475 0008 FFF7FEFF 		bl	display_led
 286:../app/app.c  **** 	osal_lyh_over_timer(OS_LED_TIME, Ms_500, app_led_steam_cbfunc);
 1476              		.loc 1 286 2
 1477 000c 034A     		ldr	r2, .L122
 1478 000e 4FF4FA71 		mov	r1, #500
 1479 0012 0220     		movs	r0, #2
 1480 0014 FFF7FEFF 		bl	osal_lyh_over_timer
 287:../app/app.c  **** }
 1481              		.loc 1 287 1
 1482 0018 00BF     		nop
 1483 001a 80BD     		pop	{r7, pc}
 1484              	.L123:
 1485              		.align	2
 1486              	.L122:
 1487 001c 00000000 		.word	app_led_steam_cbfunc
 1488              		.cfi_endproc
 1489              	.LFE143:
 1491              		.section	.text.app_led_steam_init,"ax",%progbits
 1492              		.align	1
 1493              		.global	app_led_steam_init
 1494              		.syntax unified
 1495              		.thumb
 1496              		.thumb_func
 1497              		.fpu softvfp
 1499              	app_led_steam_init:
 1500              	.LFB144:
 288:../app/app.c  **** 
 289:../app/app.c  **** void app_led_steam_init(void)
 290:../app/app.c  **** {
 1501              		.loc 1 290 1
 1502              		.cfi_startproc
 1503              		@ args = 0, pretend = 0, frame = 0
 1504              		@ frame_needed = 1, uses_anonymous_args = 0
 1505 0000 80B5     		push	{r7, lr}
 1506              		.cfi_def_cfa_offset 8
 1507              		.cfi_offset 7, -8
 1508              		.cfi_offset 14, -4
 1509 0002 00AF     		add	r7, sp, #0
 1510              		.cfi_def_cfa_register 7
 291:../app/app.c  **** 	display_led(STEAM_LED, LED_ON);
 1511              		.loc 1 291 2
 1512 0004 0121     		movs	r1, #1
 1513 0006 1220     		movs	r0, #18
 1514 0008 FFF7FEFF 		bl	display_led
 292:../app/app.c  **** 	osal_lyh_over_timer(OS_LED_TIME, Ms_500, app_led_steam_cbfunc);
 1515              		.loc 1 292 2
 1516 000c 034A     		ldr	r2, .L125
 1517 000e 4FF4FA71 		mov	r1, #500
 1518 0012 0220     		movs	r0, #2
 1519 0014 FFF7FEFF 		bl	osal_lyh_over_timer
 293:../app/app.c  **** }
 1520              		.loc 1 293 1
 1521 0018 00BF     		nop
 1522 001a 80BD     		pop	{r7, pc}
 1523              	.L126:
 1524              		.align	2
 1525              	.L125:
 1526 001c 00000000 		.word	app_led_steam_cbfunc
 1527              		.cfi_endproc
 1528              	.LFE144:
 1530              		.section	.text.app_led_aqua_cbfunc,"ax",%progbits
 1531              		.align	1
 1532              		.global	app_led_aqua_cbfunc
 1533              		.syntax unified
 1534              		.thumb
 1535              		.thumb_func
 1536              		.fpu softvfp
 1538              	app_led_aqua_cbfunc:
 1539              	.LFB145:
 294:../app/app.c  **** 
 295:../app/app.c  **** void app_led_aqua_cbfunc(void)
 296:../app/app.c  **** {
 1540              		.loc 1 296 1
 1541              		.cfi_startproc
 1542              		@ args = 0, pretend = 0, frame = 0
 1543              		@ frame_needed = 1, uses_anonymous_args = 0
 1544 0000 80B5     		push	{r7, lr}
 1545              		.cfi_def_cfa_offset 8
 1546              		.cfi_offset 7, -8
 1547              		.cfi_offset 14, -4
 1548 0002 00AF     		add	r7, sp, #0
 1549              		.cfi_def_cfa_register 7
 297:../app/app.c  **** 	display_led(AQUA_CLEAN_LED, LED_TOGGLE);
 1550              		.loc 1 297 2
 1551 0004 0221     		movs	r1, #2
 1552 0006 1120     		movs	r0, #17
 1553 0008 FFF7FEFF 		bl	display_led
 298:../app/app.c  **** 	osal_lyh_over_timer(OS_LED_TIME, Ms_1000, app_led_aqua_cbfunc);
 1554              		.loc 1 298 2
 1555 000c 034A     		ldr	r2, .L128
 1556 000e 4FF47A71 		mov	r1, #1000
 1557 0012 0220     		movs	r0, #2
 1558 0014 FFF7FEFF 		bl	osal_lyh_over_timer
 299:../app/app.c  **** }
 1559              		.loc 1 299 1
 1560 0018 00BF     		nop
 1561 001a 80BD     		pop	{r7, pc}
 1562              	.L129:
 1563              		.align	2
 1564              	.L128:
 1565 001c 00000000 		.word	app_led_aqua_cbfunc
 1566              		.cfi_endproc
 1567              	.LFE145:
 1569              		.section	.text.app_led_aqua_init,"ax",%progbits
 1570              		.align	1
 1571              		.global	app_led_aqua_init
 1572              		.syntax unified
 1573              		.thumb
 1574              		.thumb_func
 1575              		.fpu softvfp
 1577              	app_led_aqua_init:
 1578              	.LFB146:
 300:../app/app.c  **** 
 301:../app/app.c  **** void app_led_aqua_init(void)
 302:../app/app.c  **** {
 1579              		.loc 1 302 1
 1580              		.cfi_startproc
 1581              		@ args = 0, pretend = 0, frame = 0
 1582              		@ frame_needed = 1, uses_anonymous_args = 0
 1583 0000 80B5     		push	{r7, lr}
 1584              		.cfi_def_cfa_offset 8
 1585              		.cfi_offset 7, -8
 1586              		.cfi_offset 14, -4
 1587 0002 00AF     		add	r7, sp, #0
 1588              		.cfi_def_cfa_register 7
 303:../app/app.c  **** 	display_led(AQUA_CLEAN_LED, LED_ON);
 1589              		.loc 1 303 2
 1590 0004 0121     		movs	r1, #1
 1591 0006 1120     		movs	r0, #17
 1592 0008 FFF7FEFF 		bl	display_led
 304:../app/app.c  **** 	osal_lyh_over_timer(OS_LED_TIME, Ms_1000, app_led_aqua_cbfunc);
 1593              		.loc 1 304 2
 1594 000c 034A     		ldr	r2, .L131
 1595 000e 4FF47A71 		mov	r1, #1000
 1596 0012 0220     		movs	r0, #2
 1597 0014 FFF7FEFF 		bl	osal_lyh_over_timer
 305:../app/app.c  **** }
 1598              		.loc 1 305 1
 1599 0018 00BF     		nop
 1600 001a 80BD     		pop	{r7, pc}
 1601              	.L132:
 1602              		.align	2
 1603              	.L131:
 1604 001c 00000000 		.word	app_led_aqua_cbfunc
 1605              		.cfi_endproc
 1606              	.LFE146:
 1608              		.section	.text.app_led_calc_cbfunc,"ax",%progbits
 1609              		.align	1
 1610              		.global	app_led_calc_cbfunc
 1611              		.syntax unified
 1612              		.thumb
 1613              		.thumb_func
 1614              		.fpu softvfp
 1616              	app_led_calc_cbfunc:
 1617              	.LFB147:
 306:../app/app.c  **** 
 307:../app/app.c  **** void app_led_calc_cbfunc(void)
 308:../app/app.c  **** {
 1618              		.loc 1 308 1
 1619              		.cfi_startproc
 1620              		@ args = 0, pretend = 0, frame = 0
 1621              		@ frame_needed = 1, uses_anonymous_args = 0
 1622 0000 80B5     		push	{r7, lr}
 1623              		.cfi_def_cfa_offset 8
 1624              		.cfi_offset 7, -8
 1625              		.cfi_offset 14, -4
 1626 0002 00AF     		add	r7, sp, #0
 1627              		.cfi_def_cfa_register 7
 309:../app/app.c  **** 	display_led(CALC_CLEAN_LED, LED_TOGGLE);
 1628              		.loc 1 309 2
 1629 0004 0221     		movs	r1, #2
 1630 0006 0220     		movs	r0, #2
 1631 0008 FFF7FEFF 		bl	display_led
 310:../app/app.c  **** 	osal_lyh_over_timer(OS_LED_TIME, Ms_1000, app_led_calc_cbfunc);
 1632              		.loc 1 310 2
 1633 000c 034A     		ldr	r2, .L134
 1634 000e 4FF47A71 		mov	r1, #1000
 1635 0012 0220     		movs	r0, #2
 1636 0014 FFF7FEFF 		bl	osal_lyh_over_timer
 311:../app/app.c  **** }
 1637              		.loc 1 311 1
 1638 0018 00BF     		nop
 1639 001a 80BD     		pop	{r7, pc}
 1640              	.L135:
 1641              		.align	2
 1642              	.L134:
 1643 001c 00000000 		.word	app_led_calc_cbfunc
 1644              		.cfi_endproc
 1645              	.LFE147:
 1647              		.section	.text.app_led_calc_init,"ax",%progbits
 1648              		.align	1
 1649              		.global	app_led_calc_init
 1650              		.syntax unified
 1651              		.thumb
 1652              		.thumb_func
 1653              		.fpu softvfp
 1655              	app_led_calc_init:
 1656              	.LFB148:
 312:../app/app.c  **** 
 313:../app/app.c  **** void app_led_calc_init(void)
 314:../app/app.c  **** {
 1657              		.loc 1 314 1
 1658              		.cfi_startproc
 1659              		@ args = 0, pretend = 0, frame = 0
 1660              		@ frame_needed = 1, uses_anonymous_args = 0
 1661 0000 80B5     		push	{r7, lr}
 1662              		.cfi_def_cfa_offset 8
 1663              		.cfi_offset 7, -8
 1664              		.cfi_offset 14, -4
 1665 0002 00AF     		add	r7, sp, #0
 1666              		.cfi_def_cfa_register 7
 315:../app/app.c  **** 	display_led(CALC_CLEAN_LED, LED_ON);
 1667              		.loc 1 315 2
 1668 0004 0121     		movs	r1, #1
 1669 0006 0220     		movs	r0, #2
 1670 0008 FFF7FEFF 		bl	display_led
 316:../app/app.c  **** 	osal_lyh_over_timer(OS_LED_TIME, Ms_1000, app_led_calc_cbfunc);
 1671              		.loc 1 316 2
 1672 000c 034A     		ldr	r2, .L137
 1673 000e 4FF47A71 		mov	r1, #1000
 1674 0012 0220     		movs	r0, #2
 1675 0014 FFF7FEFF 		bl	osal_lyh_over_timer
 317:../app/app.c  **** }
 1676              		.loc 1 317 1
 1677 0018 00BF     		nop
 1678 001a 80BD     		pop	{r7, pc}
 1679              	.L138:
 1680              		.align	2
 1681              	.L137:
 1682 001c 00000000 		.word	app_led_calc_cbfunc
 1683              		.cfi_endproc
 1684              	.LFE148:
 1686              		.section	.text.app_leds_all_fun,"ax",%progbits
 1687              		.align	1
 1688              		.global	app_leds_all_fun
 1689              		.syntax unified
 1690              		.thumb
 1691              		.thumb_func
 1692              		.fpu softvfp
 1694              	app_leds_all_fun:
 1695              	.LFB149:
 318:../app/app.c  **** 
 319:../app/app.c  **** void app_leds_all_fun(uint8_t status)
 320:../app/app.c  **** {
 1696              		.loc 1 320 1
 1697              		.cfi_startproc
 1698              		@ args = 0, pretend = 0, frame = 8
 1699              		@ frame_needed = 1, uses_anonymous_args = 0
 1700 0000 80B5     		push	{r7, lr}
 1701              		.cfi_def_cfa_offset 8
 1702              		.cfi_offset 7, -8
 1703              		.cfi_offset 14, -4
 1704 0002 82B0     		sub	sp, sp, #8
 1705              		.cfi_def_cfa_offset 16
 1706 0004 00AF     		add	r7, sp, #0
 1707              		.cfi_def_cfa_register 7
 1708 0006 0346     		mov	r3, r0
 1709 0008 FB71     		strb	r3, [r7, #7]
 321:../app/app.c  **** 	display_led(STEAM_LED, status);
 1710              		.loc 1 321 2
 1711 000a FB79     		ldrb	r3, [r7, #7]	@ zero_extendqisi2
 1712 000c 1946     		mov	r1, r3
 1713 000e 1220     		movs	r0, #18
 1714 0010 FFF7FEFF 		bl	display_led
 322:../app/app.c  **** 	display_led(HOT_WATER, status);
 1715              		.loc 1 322 2
 1716 0014 FB79     		ldrb	r3, [r7, #7]	@ zero_extendqisi2
 1717 0016 1946     		mov	r1, r3
 1718 0018 1520     		movs	r0, #21
 1719 001a FFF7FEFF 		bl	display_led
 323:../app/app.c  **** 	display_led(ESPRESSO1_LED, status);
 1720              		.loc 1 323 2
 1721 001e FB79     		ldrb	r3, [r7, #7]	@ zero_extendqisi2
 1722 0020 1946     		mov	r1, r3
 1723 0022 0C20     		movs	r0, #12
 1724 0024 FFF7FEFF 		bl	display_led
 324:../app/app.c  **** 	display_led(AMERICANO1_LED, status);
 1725              		.loc 1 324 2
 1726 0028 FB79     		ldrb	r3, [r7, #7]	@ zero_extendqisi2
 1727 002a 1946     		mov	r1, r3
 1728 002c 0F20     		movs	r0, #15
 1729 002e FFF7FEFF 		bl	display_led
 325:../app/app.c  **** 	display_led(AQUA_GREEN_LED, status);
 1730              		.loc 1 325 2
 1731 0032 FB79     		ldrb	r3, [r7, #7]	@ zero_extendqisi2
 1732 0034 1946     		mov	r1, r3
 1733 0036 1A20     		movs	r0, #26
 1734 0038 FFF7FEFF 		bl	display_led
 326:../app/app.c  **** 	if (status == LED_OFF){
 1735              		.loc 1 326 5
 1736 003c FB79     		ldrb	r3, [r7, #7]	@ zero_extendqisi2
 1737 003e 002B     		cmp	r3, #0
 1738 0040 13D1     		bne	.L141
 327:../app/app.c  **** 		display_led(ESPRESSO2_LED, status);
 1739              		.loc 1 327 3
 1740 0042 FB79     		ldrb	r3, [r7, #7]	@ zero_extendqisi2
 1741 0044 1946     		mov	r1, r3
 1742 0046 0920     		movs	r0, #9
 1743 0048 FFF7FEFF 		bl	display_led
 328:../app/app.c  **** 		display_led(AMERICANO2_LED, status);
 1744              		.loc 1 328 3
 1745 004c FB79     		ldrb	r3, [r7, #7]	@ zero_extendqisi2
 1746 004e 1946     		mov	r1, r3
 1747 0050 0620     		movs	r0, #6
 1748 0052 FFF7FEFF 		bl	display_led
 329:../app/app.c  **** 		display_led(AQUA_CLEAN_LED, status);
 1749              		.loc 1 329 3
 1750 0056 FB79     		ldrb	r3, [r7, #7]	@ zero_extendqisi2
 1751 0058 1946     		mov	r1, r3
 1752 005a 1120     		movs	r0, #17
 1753 005c FFF7FEFF 		bl	display_led
 330:../app/app.c  **** 		display_led(CALC_CLEAN_LED, status);
 1754              		.loc 1 330 3
 1755 0060 FB79     		ldrb	r3, [r7, #7]	@ zero_extendqisi2
 1756 0062 1946     		mov	r1, r3
 1757 0064 0220     		movs	r0, #2
 1758 0066 FFF7FEFF 		bl	display_led
 1759              	.L141:
 331:../app/app.c  **** 	}
 332:../app/app.c  **** }
 1760              		.loc 1 332 1
 1761 006a 00BF     		nop
 1762 006c 0837     		adds	r7, r7, #8
 1763              		.cfi_def_cfa_offset 8
 1764 006e BD46     		mov	sp, r7
 1765              		.cfi_def_cfa_register 13
 1766              		@ sp needed
 1767 0070 80BD     		pop	{r7, pc}
 1768              		.cfi_endproc
 1769              	.LFE149:
 1771              		.section	.text.app_leds_all_ind,"ax",%progbits
 1772              		.align	1
 1773              		.global	app_leds_all_ind
 1774              		.syntax unified
 1775              		.thumb
 1776              		.thumb_func
 1777              		.fpu softvfp
 1779              	app_leds_all_ind:
 1780              	.LFB150:
 333:../app/app.c  **** 
 334:../app/app.c  **** void app_leds_all_ind(uint8_t status)
 335:../app/app.c  **** {
 1781              		.loc 1 335 1
 1782              		.cfi_startproc
 1783              		@ args = 0, pretend = 0, frame = 8
 1784              		@ frame_needed = 1, uses_anonymous_args = 0
 1785 0000 80B5     		push	{r7, lr}
 1786              		.cfi_def_cfa_offset 8
 1787              		.cfi_offset 7, -8
 1788              		.cfi_offset 14, -4
 1789 0002 82B0     		sub	sp, sp, #8
 1790              		.cfi_def_cfa_offset 16
 1791 0004 00AF     		add	r7, sp, #0
 1792              		.cfi_def_cfa_register 7
 1793 0006 0346     		mov	r3, r0
 1794 0008 FB71     		strb	r3, [r7, #7]
 336:../app/app.c  **** 	display_led(COFFEE1_LED, status);
 1795              		.loc 1 336 2
 1796 000a FB79     		ldrb	r3, [r7, #7]	@ zero_extendqisi2
 1797 000c 1946     		mov	r1, r3
 1798 000e 0120     		movs	r0, #1
 1799 0010 FFF7FEFF 		bl	display_led
 337:../app/app.c  **** 	display_led(COFFEE2_LED, status);
 1800              		.loc 1 337 2
 1801 0014 FB79     		ldrb	r3, [r7, #7]	@ zero_extendqisi2
 1802 0016 1946     		mov	r1, r3
 1803 0018 0A20     		movs	r0, #10
 1804 001a FFF7FEFF 		bl	display_led
 338:../app/app.c  **** 	display_led(COFFEE3_LED, status);
 1805              		.loc 1 338 2
 1806 001e FB79     		ldrb	r3, [r7, #7]	@ zero_extendqisi2
 1807 0020 1946     		mov	r1, r3
 1808 0022 0D20     		movs	r0, #13
 1809 0024 FFF7FEFF 		bl	display_led
 339:../app/app.c  **** 	display_led(COFFEE4_LED, status);
 1810              		.loc 1 339 2
 1811 0028 FB79     		ldrb	r3, [r7, #7]	@ zero_extendqisi2
 1812 002a 1946     		mov	r1, r3
 1813 002c 1320     		movs	r0, #19
 1814 002e FFF7FEFF 		bl	display_led
 340:../app/app.c  **** 	display_led(WATER1_LED, status);
 1815              		.loc 1 340 2
 1816 0032 FB79     		ldrb	r3, [r7, #7]	@ zero_extendqisi2
 1817 0034 1946     		mov	r1, r3
 1818 0036 0420     		movs	r0, #4
 1819 0038 FFF7FEFF 		bl	display_led
 341:../app/app.c  **** 	display_led(WATER2_LED, status);
 1820              		.loc 1 341 2
 1821 003c FB79     		ldrb	r3, [r7, #7]	@ zero_extendqisi2
 1822 003e 1946     		mov	r1, r3
 1823 0040 1920     		movs	r0, #25
 1824 0042 FFF7FEFF 		bl	display_led
 342:../app/app.c  **** 	display_led(WATER3_LED, status);
 1825              		.loc 1 342 2
 1826 0046 FB79     		ldrb	r3, [r7, #7]	@ zero_extendqisi2
 1827 0048 1946     		mov	r1, r3
 1828 004a 1020     		movs	r0, #16
 1829 004c FFF7FEFF 		bl	display_led
 343:../app/app.c  **** }
 1830              		.loc 1 343 1
 1831 0050 00BF     		nop
 1832 0052 0837     		adds	r7, r7, #8
 1833              		.cfi_def_cfa_offset 8
 1834 0054 BD46     		mov	sp, r7
 1835              		.cfi_def_cfa_register 13
 1836              		@ sp needed
 1837 0056 80BD     		pop	{r7, pc}
 1838              		.cfi_endproc
 1839              	.LFE150:
 1841              		.section	.text.app_led_oneloop,"ax",%progbits
 1842              		.align	1
 1843              		.global	app_led_oneloop
 1844              		.syntax unified
 1845              		.thumb
 1846              		.thumb_func
 1847              		.fpu softvfp
 1849              	app_led_oneloop:
 1850              	.LFB151:
 344:../app/app.c  **** 
 345:../app/app.c  **** uint8_t app_led_oneloop(void)
 346:../app/app.c  **** {
 1851              		.loc 1 346 1
 1852              		.cfi_startproc
 1853              		@ args = 0, pretend = 0, frame = 0
 1854              		@ frame_needed = 1, uses_anonymous_args = 0
 1855 0000 80B5     		push	{r7, lr}
 1856              		.cfi_def_cfa_offset 8
 1857              		.cfi_offset 7, -8
 1858              		.cfi_offset 14, -4
 1859 0002 00AF     		add	r7, sp, #0
 1860              		.cfi_def_cfa_register 7
 347:../app/app.c  **** 	if (display_get_led(ESPRESSO1_LED) && display_get_led(AMERICANO1_LED))
 1861              		.loc 1 347 6
 1862 0004 0C20     		movs	r0, #12
 1863 0006 FFF7FEFF 		bl	display_get_led
 1864 000a 0346     		mov	r3, r0
 1865              		.loc 1 347 5
 1866 000c 002B     		cmp	r3, #0
 1867 000e 07D0     		beq	.L144
 1868              		.loc 1 347 40 discriminator 1
 1869 0010 0F20     		movs	r0, #15
 1870 0012 FFF7FEFF 		bl	display_get_led
 1871 0016 0346     		mov	r3, r0
 1872              		.loc 1 347 37 discriminator 1
 1873 0018 002B     		cmp	r3, #0
 1874 001a 01D0     		beq	.L144
 348:../app/app.c  **** 	{
 349:../app/app.c  **** 		return TRUE;
 1875              		.loc 1 349 10
 1876 001c 0123     		movs	r3, #1
 1877 001e 00E0     		b	.L145
 1878              	.L144:
 350:../app/app.c  **** 	}
 351:../app/app.c  **** 	return FAIL;
 1879              		.loc 1 351 9
 1880 0020 0023     		movs	r3, #0
 1881              	.L145:
 352:../app/app.c  **** }
 1882              		.loc 1 352 1
 1883 0022 1846     		mov	r0, r3
 1884 0024 80BD     		pop	{r7, pc}
 1885              		.cfi_endproc
 1886              	.LFE151:
 1888              		.section	.text.app_led_finish_step,"ax",%progbits
 1889              		.align	1
 1890              		.global	app_led_finish_step
 1891              		.syntax unified
 1892              		.thumb
 1893              		.thumb_func
 1894              		.fpu softvfp
 1896              	app_led_finish_step:
 1897              	.LFB152:
 353:../app/app.c  **** 
 354:../app/app.c  **** /**************************************************************************
 355:../app/app.c  ****  * @brief ๅฒ็ฎๆต็จ็ปๆๅLEDๆพ็คบๅค็ๅฝๆฐ
 356:../app/app.c  ****  * @return none
 357:../app/app.c  ****  * @note ๆตๆฐด็ฏๅธธ้๏ผaquaไบฎ่็ฏ๏ผstart_led็็ญ
 358:../app/app.c  ****  *************************************************************************/
 359:../app/app.c  **** void app_led_finish_step(void)
 360:../app/app.c  **** {
 1898              		.loc 1 360 1
 1899              		.cfi_startproc
 1900              		@ args = 0, pretend = 0, frame = 0
 1901              		@ frame_needed = 1, uses_anonymous_args = 0
 1902 0000 80B5     		push	{r7, lr}
 1903              		.cfi_def_cfa_offset 8
 1904              		.cfi_offset 7, -8
 1905              		.cfi_offset 14, -4
 1906 0002 00AF     		add	r7, sp, #0
 1907              		.cfi_def_cfa_register 7
 361:../app/app.c  **** 	app_leds_all_fun(LED_OFF);
 1908              		.loc 1 361 2
 1909 0004 0020     		movs	r0, #0
 1910 0006 FFF7FEFF 		bl	app_leds_all_fun
 362:../app/app.c  **** 	app_leds_all_ind(LED_OFF);
 1911              		.loc 1 362 2
 1912 000a 0020     		movs	r0, #0
 1913 000c FFF7FEFF 		bl	app_leds_all_ind
 363:../app/app.c  **** 	display_led(START_LED, LED_OFF);
 1914              		.loc 1 363 2
 1915 0010 0021     		movs	r1, #0
 1916 0012 0520     		movs	r0, #5
 1917 0014 FFF7FEFF 		bl	display_led
 364:../app/app.c  **** 
 365:../app/app.c  **** 	app_leds_all_fun(LED_ON);
 1918              		.loc 1 365 2
 1919 0018 0120     		movs	r0, #1
 1920 001a FFF7FEFF 		bl	app_leds_all_fun
 366:../app/app.c  **** }
 1921              		.loc 1 366 1
 1922 001e 00BF     		nop
 1923 0020 80BD     		pop	{r7, pc}
 1924              		.cfi_endproc
 1925              	.LFE152:
 1927              		.section	.text.app_onoff_key_deal,"ax",%progbits
 1928              		.align	1
 1929              		.global	app_onoff_key_deal
 1930              		.syntax unified
 1931              		.thumb
 1932              		.thumb_func
 1933              		.fpu softvfp
 1935              	app_onoff_key_deal:
 1936              	.LFB153:
 367:../app/app.c  **** 
 368:../app/app.c  **** /**************************************************************************
 369:../app/app.c  ****  * @brief on/off้ฎๅค็ๅฝๆฐ
 370:../app/app.c  ****  * @return none
 371:../app/app.c  ****  * @note none
 372:../app/app.c  ****  *************************************************************************/
 373:../app/app.c  **** void app_onoff_key_deal(void)
 374:../app/app.c  **** {
 1937              		.loc 1 374 1
 1938              		.cfi_startproc
 1939              		@ args = 0, pretend = 0, frame = 0
 1940              		@ frame_needed = 1, uses_anonymous_args = 0
 1941 0000 80B5     		push	{r7, lr}
 1942              		.cfi_def_cfa_offset 8
 1943              		.cfi_offset 7, -8
 1944              		.cfi_offset 14, -4
 1945 0002 00AF     		add	r7, sp, #0
 1946              		.cfi_def_cfa_register 7
 375:../app/app.c  **** 	switch(app_task_step)
 1947              		.loc 1 375 2
 1948 0004 0E4B     		ldr	r3, .L157
 1949 0006 1B78     		ldrb	r3, [r3]	@ zero_extendqisi2
 1950 0008 072B     		cmp	r3, #7
 1951 000a 13DC     		bgt	.L154
 1952 000c 032B     		cmp	r3, #3
 1953 000e 0CDA     		bge	.L149
 1954 0010 012B     		cmp	r3, #1
 1955 0012 02DC     		bgt	.L150
 1956 0014 002B     		cmp	r3, #0
 1957 0016 03DA     		bge	.L151
 376:../app/app.c  **** 	{
 377:../app/app.c  **** 	case APP_INIT_STATE:
 378:../app/app.c  **** 	case APP_IDLE_STATE:
 379:../app/app.c  **** 		app_task_nextstep(APP_STARTUP_STATE, STARTUP_INIT_STATE);
 380:../app/app.c  **** 		break;
 381:../app/app.c  **** 	case APP_STARTUP_STATE:
 382:../app/app.c  **** 		break;
 383:../app/app.c  **** 	case APP_NORMAL_STATE:
 384:../app/app.c  **** 	case APP_ESPRESSO_STATE:
 385:../app/app.c  **** 	case APP_AMERICAN_STATE:
 386:../app/app.c  **** 	case APP_HOTWATER_STATE:
 387:../app/app.c  **** 	case APP_STEAM_STATE:
 388:../app/app.c  **** 		app_task_nextstep(APP_RUNNING_ONOFF_STATE, RUNNING_ONOFF_INIT_STATE);		
 389:../app/app.c  **** 		break;	
 390:../app/app.c  **** 	default:
 391:../app/app.c  **** 		break;
 1958              		.loc 1 391 3
 1959 0018 0CE0     		b	.L154
 1960              	.L150:
 375:../app/app.c  **** 	switch(app_task_step)
 1961              		.loc 1 375 2
 1962 001a 022B     		cmp	r3, #2
 1963 001c 0CD0     		beq	.L155
 1964              		.loc 1 391 3
 1965 001e 09E0     		b	.L154
 1966              	.L151:
 379:../app/app.c  **** 		break;
 1967              		.loc 1 379 3
 1968 0020 0021     		movs	r1, #0
 1969 0022 0220     		movs	r0, #2
 1970 0024 FFF7FEFF 		bl	app_task_nextstep
 380:../app/app.c  **** 	case APP_STARTUP_STATE:
 1971              		.loc 1 380 3
 1972 0028 07E0     		b	.L153
 1973              	.L149:
 388:../app/app.c  **** 		break;	
 1974              		.loc 1 388 3
 1975 002a 0021     		movs	r1, #0
 1976 002c 0B20     		movs	r0, #11
 1977 002e FFF7FEFF 		bl	app_task_nextstep
 389:../app/app.c  **** 	default:
 1978              		.loc 1 389 3
 1979 0032 02E0     		b	.L153
 1980              	.L154:
 1981              		.loc 1 391 3
 1982 0034 00BF     		nop
 1983 0036 00E0     		b	.L156
 1984              	.L155:
 382:../app/app.c  **** 	case APP_NORMAL_STATE:
 1985              		.loc 1 382 3
 1986 0038 00BF     		nop
 1987              	.L153:
 1988              	.L156:
 392:../app/app.c  **** 	}
 393:../app/app.c  **** }
 1989              		.loc 1 393 1
 1990 003a 00BF     		nop
 1991 003c 80BD     		pop	{r7, pc}
 1992              	.L158:
 1993 003e 00BF     		.align	2
 1994              	.L157:
 1995 0040 00000000 		.word	app_task_step
 1996              		.cfi_endproc
 1997              	.LFE153:
 1999              		.section	.text.app_start_key_deal,"ax",%progbits
 2000              		.align	1
 2001              		.global	app_start_key_deal
 2002              		.syntax unified
 2003              		.thumb
 2004              		.thumb_func
 2005              		.fpu softvfp
 2007              	app_start_key_deal:
 2008              	.LFB154:
 394:../app/app.c  **** 
 395:../app/app.c  **** uint8_t app_start_key_deal(void)
 396:../app/app.c  **** {
 2009              		.loc 1 396 1
 2010              		.cfi_startproc
 2011              		@ args = 0, pretend = 0, frame = 8
 2012              		@ frame_needed = 1, uses_anonymous_args = 0
 2013 0000 80B5     		push	{r7, lr}
 2014              		.cfi_def_cfa_offset 8
 2015              		.cfi_offset 7, -8
 2016              		.cfi_offset 14, -4
 2017 0002 82B0     		sub	sp, sp, #8
 2018              		.cfi_def_cfa_offset 16
 2019 0004 00AF     		add	r7, sp, #0
 2020              		.cfi_def_cfa_register 7
 397:../app/app.c  **** 	uint8_t ret = 0;
 2021              		.loc 1 397 10
 2022 0006 0023     		movs	r3, #0
 2023 0008 FB71     		strb	r3, [r7, #7]
 398:../app/app.c  **** 
 399:../app/app.c  **** 	switch(app_task_step)
 2024              		.loc 1 399 2
 2025 000a 2D4B     		ldr	r3, .L175
 2026 000c 1B78     		ldrb	r3, [r3]	@ zero_extendqisi2
 2027 000e 032B     		cmp	r3, #3
 2028 0010 02D0     		beq	.L160
 2029 0012 042B     		cmp	r3, #4
 2030 0014 4AD0     		beq	.L161
 400:../app/app.c  **** 	{
 401:../app/app.c  **** 		case APP_NORMAL_STATE:
 402:../app/app.c  **** 			switch(app_task_substep){
 403:../app/app.c  **** 			case NORMAL_ESPRESSO_RUN_STATE:
 404:../app/app.c  **** 				app_task_nextstep(APP_ESPRESSO_STATE, ESPRESSO_INIT_STATE);
 405:../app/app.c  **** 				ret = 1;
 406:../app/app.c  **** 				break;
 407:../app/app.c  **** 			case NORMAL_AMERICANO_RUN_STATE:
 408:../app/app.c  **** 				app_task_nextstep(APP_AMERICAN_STATE, AMERICANO_INIT_STATE);
 409:../app/app.c  **** 				ret = 1;
 410:../app/app.c  **** 				break;
 411:../app/app.c  **** 			case NORMAL_HOTWATER_RUN_STATE:
 412:../app/app.c  **** 				app_task_nextstep(APP_HOTWATER_STATE, HOTWATER_INIT_STATE);
 413:../app/app.c  **** 				ret = 1;
 414:../app/app.c  **** 				break;
 415:../app/app.c  **** 			case NORMAL_STEAM_RUN_STATE:
 416:../app/app.c  **** 				app_task_nextstep(APP_STEAM_STATE, STEAM_INIT_STATE);
 417:../app/app.c  **** 				ret = 1;
 418:../app/app.c  **** 				break;
 419:../app/app.c  **** 			case NORMAL_AQUA_RUN_STATE:
 420:../app/app.c  **** 				app_task_nextstep(APP_AQUA_STATE, AQUA_INIT_STATE);
 421:../app/app.c  **** 				ret = 1;
 422:../app/app.c  **** 				break;
 423:../app/app.c  **** 			case NORMAL_CALC_RUN_STATE:
 424:../app/app.c  **** 				app_task_nextstep(APP_CALC_STATE, CALC_INIT_STATE);
 425:../app/app.c  **** 				ret = 1;
 426:../app/app.c  **** 				break;
 427:../app/app.c  **** 			default:
 428:../app/app.c  **** 				break;
 429:../app/app.c  **** 			}
 430:../app/app.c  **** 			break;
 431:../app/app.c  **** 	
 432:../app/app.c  **** 		case APP_ESPRESSO_STATE:
 433:../app/app.c  **** 			cup_loop = 0;	//ๅฐๆฏๆฐๅพช็ฏๆธ้ค๏ผๅชๆง่กๆฌๆฌกๅฒ็ฎๆต็จ
 434:../app/app.c  **** 			break;
 435:../app/app.c  **** 
 436:../app/app.c  **** 		default:
 437:../app/app.c  **** 			break;
 2031              		.loc 1 437 4
 2032 0016 4DE0     		b	.L172
 2033              	.L160:
 402:../app/app.c  **** 			case NORMAL_ESPRESSO_RUN_STATE:
 2034              		.loc 1 402 4
 2035 0018 2A4B     		ldr	r3, .L175+4
 2036 001a 1B78     		ldrb	r3, [r3]	@ zero_extendqisi2
 2037 001c 023B     		subs	r3, r3, #2
 2038 001e 0A2B     		cmp	r3, #10
 2039 0020 42D8     		bhi	.L174
 2040 0022 01A2     		adr	r2, .L165
 2041 0024 52F823F0 		ldr	pc, [r2, r3, lsl #2]
 2042              		.p2align 2
 2043              	.L165:
 2044 0028 55000000 		.word	.L170+1
 2045 002c A9000000 		.word	.L174+1
 2046 0030 63000000 		.word	.L169+1
 2047 0034 A9000000 		.word	.L174+1
 2048 0038 71000000 		.word	.L168+1
 2049 003c A9000000 		.word	.L174+1
 2050 0040 7F000000 		.word	.L167+1
 2051 0044 A9000000 		.word	.L174+1
 2052 0048 8D000000 		.word	.L166+1
 2053 004c A9000000 		.word	.L174+1
 2054 0050 9B000000 		.word	.L164+1
 2055              		.p2align 1
 2056              	.L170:
 404:../app/app.c  **** 				ret = 1;
 2057              		.loc 1 404 5
 2058 0054 0021     		movs	r1, #0
 2059 0056 0420     		movs	r0, #4
 2060 0058 FFF7FEFF 		bl	app_task_nextstep
 405:../app/app.c  **** 				break;
 2061              		.loc 1 405 9
 2062 005c 0123     		movs	r3, #1
 2063 005e FB71     		strb	r3, [r7, #7]
 406:../app/app.c  **** 			case NORMAL_AMERICANO_RUN_STATE:
 2064              		.loc 1 406 5
 2065 0060 23E0     		b	.L171
 2066              	.L169:
 408:../app/app.c  **** 				ret = 1;
 2067              		.loc 1 408 5
 2068 0062 0021     		movs	r1, #0
 2069 0064 0520     		movs	r0, #5
 2070 0066 FFF7FEFF 		bl	app_task_nextstep
 409:../app/app.c  **** 				break;
 2071              		.loc 1 409 9
 2072 006a 0123     		movs	r3, #1
 2073 006c FB71     		strb	r3, [r7, #7]
 410:../app/app.c  **** 			case NORMAL_HOTWATER_RUN_STATE:
 2074              		.loc 1 410 5
 2075 006e 1CE0     		b	.L171
 2076              	.L168:
 412:../app/app.c  **** 				ret = 1;
 2077              		.loc 1 412 5
 2078 0070 0021     		movs	r1, #0
 2079 0072 0620     		movs	r0, #6
 2080 0074 FFF7FEFF 		bl	app_task_nextstep
 413:../app/app.c  **** 				break;
 2081              		.loc 1 413 9
 2082 0078 0123     		movs	r3, #1
 2083 007a FB71     		strb	r3, [r7, #7]
 414:../app/app.c  **** 			case NORMAL_STEAM_RUN_STATE:
 2084              		.loc 1 414 5
 2085 007c 15E0     		b	.L171
 2086              	.L167:
 416:../app/app.c  **** 				ret = 1;
 2087              		.loc 1 416 5
 2088 007e 0021     		movs	r1, #0
 2089 0080 0720     		movs	r0, #7
 2090 0082 FFF7FEFF 		bl	app_task_nextstep
 417:../app/app.c  **** 				break;
 2091              		.loc 1 417 9
 2092 0086 0123     		movs	r3, #1
 2093 0088 FB71     		strb	r3, [r7, #7]
 418:../app/app.c  **** 			case NORMAL_AQUA_RUN_STATE:
 2094              		.loc 1 418 5
 2095 008a 0EE0     		b	.L171
 2096              	.L166:
 420:../app/app.c  **** 				ret = 1;
 2097              		.loc 1 420 5
 2098 008c 0021     		movs	r1, #0
 2099 008e 0820     		movs	r0, #8
 2100 0090 FFF7FEFF 		bl	app_task_nextstep
 421:../app/app.c  **** 				break;
 2101              		.loc 1 421 9
 2102 0094 0123     		movs	r3, #1
 2103 0096 FB71     		strb	r3, [r7, #7]
 422:../app/app.c  **** 			case NORMAL_CALC_RUN_STATE:
 2104              		.loc 1 422 5
 2105 0098 07E0     		b	.L171
 2106              	.L164:
 424:../app/app.c  **** 				ret = 1;
 2107              		.loc 1 424 5
 2108 009a 0021     		movs	r1, #0
 2109 009c 0920     		movs	r0, #9
 2110 009e FFF7FEFF 		bl	app_task_nextstep
 425:../app/app.c  **** 				break;
 2111              		.loc 1 425 9
 2112 00a2 0123     		movs	r3, #1
 2113 00a4 FB71     		strb	r3, [r7, #7]
 426:../app/app.c  **** 			default:
 2114              		.loc 1 426 5
 2115 00a6 00E0     		b	.L171
 2116              	.L174:
 428:../app/app.c  **** 			}
 2117              		.loc 1 428 5
 2118 00a8 00BF     		nop
 2119              	.L171:
 430:../app/app.c  **** 	
 2120              		.loc 1 430 4
 2121 00aa 03E0     		b	.L172
 2122              	.L161:
 433:../app/app.c  **** 			break;
 2123              		.loc 1 433 13
 2124 00ac 064B     		ldr	r3, .L175+8
 2125 00ae 0022     		movs	r2, #0
 2126 00b0 1A70     		strb	r2, [r3]
 434:../app/app.c  **** 
 2127              		.loc 1 434 4
 2128 00b2 00BF     		nop
 2129              	.L172:
 438:../app/app.c  **** 	}
 439:../app/app.c  **** 	return ret;
 2130              		.loc 1 439 9
 2131 00b4 FB79     		ldrb	r3, [r7, #7]	@ zero_extendqisi2
 440:../app/app.c  **** }
 2132              		.loc 1 440 1
 2133 00b6 1846     		mov	r0, r3
 2134 00b8 0837     		adds	r7, r7, #8
 2135              		.cfi_def_cfa_offset 8
 2136 00ba BD46     		mov	sp, r7
 2137              		.cfi_def_cfa_register 13
 2138              		@ sp needed
 2139 00bc 80BD     		pop	{r7, pc}
 2140              	.L176:
 2141 00be 00BF     		.align	2
 2142              	.L175:
 2143 00c0 00000000 		.word	app_task_step
 2144 00c4 00000000 		.word	app_task_substep
 2145 00c8 00000000 		.word	cup_loop
 2146              		.cfi_endproc
 2147              	.LFE154:
 2149              		.section	.text.app_hotwater_key_deal,"ax",%progbits
 2150              		.align	1
 2151              		.global	app_hotwater_key_deal
 2152              		.syntax unified
 2153              		.thumb
 2154              		.thumb_func
 2155              		.fpu softvfp
 2157              	app_hotwater_key_deal:
 2158              	.LFB155:
 441:../app/app.c  **** 
 442:../app/app.c  **** uint8_t app_hotwater_key_deal(void)
 443:../app/app.c  **** {
 2159              		.loc 1 443 1
 2160              		.cfi_startproc
 2161              		@ args = 0, pretend = 0, frame = 8
 2162              		@ frame_needed = 1, uses_anonymous_args = 0
 2163 0000 80B5     		push	{r7, lr}
 2164              		.cfi_def_cfa_offset 8
 2165              		.cfi_offset 7, -8
 2166              		.cfi_offset 14, -4
 2167 0002 82B0     		sub	sp, sp, #8
 2168              		.cfi_def_cfa_offset 16
 2169 0004 00AF     		add	r7, sp, #0
 2170              		.cfi_def_cfa_register 7
 444:../app/app.c  **** 	uint8_t ret = 0;
 2171              		.loc 1 444 10
 2172 0006 0023     		movs	r3, #0
 2173 0008 FB71     		strb	r3, [r7, #7]
 445:../app/app.c  **** 
 446:../app/app.c  **** 	switch(app_task_step)
 2174              		.loc 1 446 2
 2175 000a 0B4B     		ldr	r3, .L185
 2176 000c 1B78     		ldrb	r3, [r3]	@ zero_extendqisi2
 2177 000e 032B     		cmp	r3, #3
 2178 0010 0CD1     		bne	.L183
 447:../app/app.c  **** 	{
 448:../app/app.c  **** 	case APP_NORMAL_STATE:
 449:../app/app.c  **** 		switch(app_task_substep){
 2179              		.loc 1 449 3
 2180 0012 0A4B     		ldr	r3, .L185+4
 2181 0014 1B78     		ldrb	r3, [r3]	@ zero_extendqisi2
 2182 0016 053B     		subs	r3, r3, #5
 2183 0018 012B     		cmp	r3, #1
 2184 001a 03D9     		bls	.L184
 450:../app/app.c  **** 		case NORMAL_HOTWATER_INIT_STATE:
 451:../app/app.c  **** 		case NORMAL_HOTWATER_RUN_STATE:
 452:../app/app.c  **** 			break;
 453:../app/app.c  **** 		default:
 454:../app/app.c  **** 			app_task_nextsubstep(NORMAL_HOTWATER_INIT_STATE);
 2185              		.loc 1 454 4
 2186 001c 0520     		movs	r0, #5
 2187 001e FFF7FEFF 		bl	app_task_nextsubstep
 455:../app/app.c  **** 			break;
 2188              		.loc 1 455 4
 2189 0022 00E0     		b	.L180
 2190              	.L184:
 452:../app/app.c  **** 		default:
 2191              		.loc 1 452 4
 2192 0024 00BF     		nop
 2193              	.L180:
 456:../app/app.c  **** 		}
 457:../app/app.c  **** 		ret = 1;
 2194              		.loc 1 457 7
 2195 0026 0123     		movs	r3, #1
 2196 0028 FB71     		strb	r3, [r7, #7]
 458:../app/app.c  **** 		break;
 2197              		.loc 1 458 3
 2198 002a 00E0     		b	.L181
 2199              	.L183:
 459:../app/app.c  **** 	default:
 460:../app/app.c  **** 		break;
 2200              		.loc 1 460 3
 2201 002c 00BF     		nop
 2202              	.L181:
 461:../app/app.c  **** 	}
 462:../app/app.c  **** 	return ret;
 2203              		.loc 1 462 9
 2204 002e FB79     		ldrb	r3, [r7, #7]	@ zero_extendqisi2
 463:../app/app.c  **** }
 2205              		.loc 1 463 1
 2206 0030 1846     		mov	r0, r3
 2207 0032 0837     		adds	r7, r7, #8
 2208              		.cfi_def_cfa_offset 8
 2209 0034 BD46     		mov	sp, r7
 2210              		.cfi_def_cfa_register 13
 2211              		@ sp needed
 2212 0036 80BD     		pop	{r7, pc}
 2213              	.L186:
 2214              		.align	2
 2215              	.L185:
 2216 0038 00000000 		.word	app_task_step
 2217 003c 00000000 		.word	app_task_substep
 2218              		.cfi_endproc
 2219              	.LFE155:
 2221              		.section	.text.app_espresso_key_deal,"ax",%progbits
 2222              		.align	1
 2223              		.global	app_espresso_key_deal
 2224              		.syntax unified
 2225              		.thumb
 2226              		.thumb_func
 2227              		.fpu softvfp
 2229              	app_espresso_key_deal:
 2230              	.LFB156:
 464:../app/app.c  **** 
 465:../app/app.c  **** uint8_t app_espresso_key_deal(void)
 466:../app/app.c  **** {
 2231              		.loc 1 466 1
 2232              		.cfi_startproc
 2233              		@ args = 0, pretend = 0, frame = 8
 2234              		@ frame_needed = 1, uses_anonymous_args = 0
 2235 0000 80B5     		push	{r7, lr}
 2236              		.cfi_def_cfa_offset 8
 2237              		.cfi_offset 7, -8
 2238              		.cfi_offset 14, -4
 2239 0002 82B0     		sub	sp, sp, #8
 2240              		.cfi_def_cfa_offset 16
 2241 0004 00AF     		add	r7, sp, #0
 2242              		.cfi_def_cfa_register 7
 467:../app/app.c  **** 	uint8_t ret = 0;
 2243              		.loc 1 467 10
 2244 0006 0023     		movs	r3, #0
 2245 0008 FB71     		strb	r3, [r7, #7]
 468:../app/app.c  **** 
 469:../app/app.c  **** 	switch(app_task_step)
 2246              		.loc 1 469 2
 2247 000a 1C4B     		ldr	r3, .L196
 2248 000c 1B78     		ldrb	r3, [r3]	@ zero_extendqisi2
 2249 000e 032B     		cmp	r3, #3
 2250 0010 2ED1     		bne	.L195
 470:../app/app.c  **** 	{
 471:../app/app.c  **** 	case APP_NORMAL_STATE:
 472:../app/app.c  **** 		switch(app_task_substep){
 2251              		.loc 1 472 3
 2252 0012 1B4B     		ldr	r3, .L196+4
 2253 0014 1B78     		ldrb	r3, [r3]	@ zero_extendqisi2
 2254 0016 013B     		subs	r3, r3, #1
 2255 0018 012B     		cmp	r3, #1
 2256 001a 22D8     		bhi	.L189
 473:../app/app.c  **** 		case NORMAL_ESPRESSO_INIT_STATE:
 474:../app/app.c  **** 		case NORMAL_ESPRESSO_RUN_STATE:
 475:../app/app.c  **** 			manual_setup.cup++;
 2257              		.loc 1 475 16
 2258 001c 194B     		ldr	r3, .L196+8
 2259 001e 1B78     		ldrb	r3, [r3]	@ zero_extendqisi2
 2260              		.loc 1 475 20
 2261 0020 0133     		adds	r3, r3, #1
 2262 0022 DAB2     		uxtb	r2, r3
 2263 0024 174B     		ldr	r3, .L196+8
 2264 0026 1A70     		strb	r2, [r3]
 476:../app/app.c  **** 			manual_setup.cup &= 0x01;
 2265              		.loc 1 476 21
 2266 0028 164B     		ldr	r3, .L196+8
 2267 002a 1B78     		ldrb	r3, [r3]	@ zero_extendqisi2
 2268 002c 03F00103 		and	r3, r3, #1
 2269 0030 DAB2     		uxtb	r2, r3
 2270 0032 144B     		ldr	r3, .L196+8
 2271 0034 1A70     		strb	r2, [r3]
 477:../app/app.c  **** 			display_led(ESPRESSO1_LED, LED_OFF);
 2272              		.loc 1 477 4
 2273 0036 0021     		movs	r1, #0
 2274 0038 0C20     		movs	r0, #12
 2275 003a FFF7FEFF 		bl	display_led
 478:../app/app.c  **** 			display_led(ESPRESSO2_LED, LED_OFF);
 2276              		.loc 1 478 4
 2277 003e 0021     		movs	r1, #0
 2278 0040 0920     		movs	r0, #9
 2279 0042 FFF7FEFF 		bl	display_led
 479:../app/app.c  **** 			if (manual_setup.cup){
 2280              		.loc 1 479 20
 2281 0046 0F4B     		ldr	r3, .L196+8
 2282 0048 1B78     		ldrb	r3, [r3]	@ zero_extendqisi2
 2283              		.loc 1 479 7
 2284 004a 002B     		cmp	r3, #0
 2285 004c 04D0     		beq	.L190
 480:../app/app.c  **** 				display_led(ESPRESSO2_LED, LED_ON);
 2286              		.loc 1 480 5
 2287 004e 0121     		movs	r1, #1
 2288 0050 0920     		movs	r0, #9
 2289 0052 FFF7FEFF 		bl	display_led
 481:../app/app.c  **** 			}
 482:../app/app.c  **** 			else{
 483:../app/app.c  **** 				display_led(ESPRESSO1_LED, LED_ON);
 484:../app/app.c  **** 			}
 485:../app/app.c  **** 			break;
 2290              		.loc 1 485 4
 2291 0056 08E0     		b	.L192
 2292              	.L190:
 483:../app/app.c  **** 			}
 2293              		.loc 1 483 5
 2294 0058 0121     		movs	r1, #1
 2295 005a 0C20     		movs	r0, #12
 2296 005c FFF7FEFF 		bl	display_led
 2297              		.loc 1 485 4
 2298 0060 03E0     		b	.L192
 2299              	.L189:
 486:../app/app.c  **** 		default:
 487:../app/app.c  **** 			app_task_nextsubstep(NORMAL_ESPRESSO_INIT_STATE);
 2300              		.loc 1 487 4
 2301 0062 0120     		movs	r0, #1
 2302 0064 FFF7FEFF 		bl	app_task_nextsubstep
 488:../app/app.c  **** 			break;
 2303              		.loc 1 488 4
 2304 0068 00BF     		nop
 2305              	.L192:
 489:../app/app.c  **** 		}
 490:../app/app.c  **** 		ret = 1;
 2306              		.loc 1 490 7
 2307 006a 0123     		movs	r3, #1
 2308 006c FB71     		strb	r3, [r7, #7]
 491:../app/app.c  **** 		break;
 2309              		.loc 1 491 3
 2310 006e 00E0     		b	.L193
 2311              	.L195:
 492:../app/app.c  **** 	default:
 493:../app/app.c  **** 		break;
 2312              		.loc 1 493 3
 2313 0070 00BF     		nop
 2314              	.L193:
 494:../app/app.c  **** 	}
 495:../app/app.c  **** 	return ret;
 2315              		.loc 1 495 9
 2316 0072 FB79     		ldrb	r3, [r7, #7]	@ zero_extendqisi2
 496:../app/app.c  **** }
 2317              		.loc 1 496 1
 2318 0074 1846     		mov	r0, r3
 2319 0076 0837     		adds	r7, r7, #8
 2320              		.cfi_def_cfa_offset 8
 2321 0078 BD46     		mov	sp, r7
 2322              		.cfi_def_cfa_register 13
 2323              		@ sp needed
 2324 007a 80BD     		pop	{r7, pc}
 2325              	.L197:
 2326              		.align	2
 2327              	.L196:
 2328 007c 00000000 		.word	app_task_step
 2329 0080 00000000 		.word	app_task_substep
 2330 0084 00000000 		.word	manual_setup
 2331              		.cfi_endproc
 2332              	.LFE156:
 2334              		.section	.text.app_steam_key_deal,"ax",%progbits
 2335              		.align	1
 2336              		.global	app_steam_key_deal
 2337              		.syntax unified
 2338              		.thumb
 2339              		.thumb_func
 2340              		.fpu softvfp
 2342              	app_steam_key_deal:
 2343              	.LFB157:
 497:../app/app.c  **** 
 498:../app/app.c  **** uint8_t app_steam_key_deal(void)
 499:../app/app.c  **** {
 2344              		.loc 1 499 1
 2345              		.cfi_startproc
 2346              		@ args = 0, pretend = 0, frame = 8
 2347              		@ frame_needed = 1, uses_anonymous_args = 0
 2348 0000 80B5     		push	{r7, lr}
 2349              		.cfi_def_cfa_offset 8
 2350              		.cfi_offset 7, -8
 2351              		.cfi_offset 14, -4
 2352 0002 82B0     		sub	sp, sp, #8
 2353              		.cfi_def_cfa_offset 16
 2354 0004 00AF     		add	r7, sp, #0
 2355              		.cfi_def_cfa_register 7
 500:../app/app.c  **** 	uint8_t ret = 0;
 2356              		.loc 1 500 10
 2357 0006 0023     		movs	r3, #0
 2358 0008 FB71     		strb	r3, [r7, #7]
 501:../app/app.c  **** 
 502:../app/app.c  **** 	switch(app_task_step)
 2359              		.loc 1 502 2
 2360 000a 0B4B     		ldr	r3, .L206
 2361 000c 1B78     		ldrb	r3, [r3]	@ zero_extendqisi2
 2362 000e 032B     		cmp	r3, #3
 2363 0010 0CD1     		bne	.L204
 503:../app/app.c  **** 	{
 504:../app/app.c  **** 	case APP_NORMAL_STATE:
 505:../app/app.c  **** 		switch(app_task_substep){
 2364              		.loc 1 505 3
 2365 0012 0A4B     		ldr	r3, .L206+4
 2366 0014 1B78     		ldrb	r3, [r3]	@ zero_extendqisi2
 2367 0016 073B     		subs	r3, r3, #7
 2368 0018 012B     		cmp	r3, #1
 2369 001a 03D9     		bls	.L205
 506:../app/app.c  **** 		case NORMAL_STEAM_INIT_STATE:
 507:../app/app.c  **** 		case NORMAL_STEAM_RUN_STATE:
 508:../app/app.c  **** 			break;
 509:../app/app.c  **** 		default:
 510:../app/app.c  **** 			app_task_nextsubstep(NORMAL_STEAM_INIT_STATE);
 2370              		.loc 1 510 4
 2371 001c 0720     		movs	r0, #7
 2372 001e FFF7FEFF 		bl	app_task_nextsubstep
 511:../app/app.c  **** 			break;
 2373              		.loc 1 511 4
 2374 0022 00E0     		b	.L201
 2375              	.L205:
 508:../app/app.c  **** 		default:
 2376              		.loc 1 508 4
 2377 0024 00BF     		nop
 2378              	.L201:
 512:../app/app.c  **** 		}
 513:../app/app.c  **** 		ret = 1;
 2379              		.loc 1 513 7
 2380 0026 0123     		movs	r3, #1
 2381 0028 FB71     		strb	r3, [r7, #7]
 514:../app/app.c  **** 		break;
 2382              		.loc 1 514 3
 2383 002a 00E0     		b	.L202
 2384              	.L204:
 515:../app/app.c  **** 	default:
 516:../app/app.c  **** 		break;
 2385              		.loc 1 516 3
 2386 002c 00BF     		nop
 2387              	.L202:
 517:../app/app.c  **** 	}
 518:../app/app.c  **** 	return ret;
 2388              		.loc 1 518 9
 2389 002e FB79     		ldrb	r3, [r7, #7]	@ zero_extendqisi2
 519:../app/app.c  **** }
 2390              		.loc 1 519 1
 2391 0030 1846     		mov	r0, r3
 2392 0032 0837     		adds	r7, r7, #8
 2393              		.cfi_def_cfa_offset 8
 2394 0034 BD46     		mov	sp, r7
 2395              		.cfi_def_cfa_register 13
 2396              		@ sp needed
 2397 0036 80BD     		pop	{r7, pc}
 2398              	.L207:
 2399              		.align	2
 2400              	.L206:
 2401 0038 00000000 		.word	app_task_step
 2402 003c 00000000 		.word	app_task_substep
 2403              		.cfi_endproc
 2404              	.LFE157:
 2406              		.section	.text.app_ame_key_deal,"ax",%progbits
 2407              		.align	1
 2408              		.global	app_ame_key_deal
 2409              		.syntax unified
 2410              		.thumb
 2411              		.thumb_func
 2412              		.fpu softvfp
 2414              	app_ame_key_deal:
 2415              	.LFB158:
 520:../app/app.c  **** 
 521:../app/app.c  **** uint8_t app_ame_key_deal(void)
 522:../app/app.c  **** {
 2416              		.loc 1 522 1
 2417              		.cfi_startproc
 2418              		@ args = 0, pretend = 0, frame = 8
 2419              		@ frame_needed = 1, uses_anonymous_args = 0
 2420 0000 80B5     		push	{r7, lr}
 2421              		.cfi_def_cfa_offset 8
 2422              		.cfi_offset 7, -8
 2423              		.cfi_offset 14, -4
 2424 0002 82B0     		sub	sp, sp, #8
 2425              		.cfi_def_cfa_offset 16
 2426 0004 00AF     		add	r7, sp, #0
 2427              		.cfi_def_cfa_register 7
 523:../app/app.c  **** 	uint8_t ret = 0;
 2428              		.loc 1 523 10
 2429 0006 0023     		movs	r3, #0
 2430 0008 FB71     		strb	r3, [r7, #7]
 524:../app/app.c  **** 
 525:../app/app.c  **** 	switch(app_task_step)
 2431              		.loc 1 525 2
 2432 000a 1C4B     		ldr	r3, .L217
 2433 000c 1B78     		ldrb	r3, [r3]	@ zero_extendqisi2
 2434 000e 032B     		cmp	r3, #3
 2435 0010 2ED1     		bne	.L216
 526:../app/app.c  **** 	{
 527:../app/app.c  **** 	case APP_NORMAL_STATE:
 528:../app/app.c  **** 		switch(app_task_substep){
 2436              		.loc 1 528 3
 2437 0012 1B4B     		ldr	r3, .L217+4
 2438 0014 1B78     		ldrb	r3, [r3]	@ zero_extendqisi2
 2439 0016 033B     		subs	r3, r3, #3
 2440 0018 012B     		cmp	r3, #1
 2441 001a 22D8     		bhi	.L210
 529:../app/app.c  **** 		case NORMAL_AMERICANO_INIT_STATE:
 530:../app/app.c  **** 		case NORMAL_AMERICANO_RUN_STATE:
 531:../app/app.c  **** 			manual_setup.cup++;
 2442              		.loc 1 531 16
 2443 001c 194B     		ldr	r3, .L217+8
 2444 001e 1B78     		ldrb	r3, [r3]	@ zero_extendqisi2
 2445              		.loc 1 531 20
 2446 0020 0133     		adds	r3, r3, #1
 2447 0022 DAB2     		uxtb	r2, r3
 2448 0024 174B     		ldr	r3, .L217+8
 2449 0026 1A70     		strb	r2, [r3]
 532:../app/app.c  **** 			manual_setup.cup &= 0x01;
 2450              		.loc 1 532 21
 2451 0028 164B     		ldr	r3, .L217+8
 2452 002a 1B78     		ldrb	r3, [r3]	@ zero_extendqisi2
 2453 002c 03F00103 		and	r3, r3, #1
 2454 0030 DAB2     		uxtb	r2, r3
 2455 0032 144B     		ldr	r3, .L217+8
 2456 0034 1A70     		strb	r2, [r3]
 533:../app/app.c  **** 			display_led(AMERICANO1_LED, LED_OFF);
 2457              		.loc 1 533 4
 2458 0036 0021     		movs	r1, #0
 2459 0038 0F20     		movs	r0, #15
 2460 003a FFF7FEFF 		bl	display_led
 534:../app/app.c  **** 			display_led(AMERICANO2_LED, LED_OFF);
 2461              		.loc 1 534 4
 2462 003e 0021     		movs	r1, #0
 2463 0040 0620     		movs	r0, #6
 2464 0042 FFF7FEFF 		bl	display_led
 535:../app/app.c  **** 			if (manual_setup.cup){
 2465              		.loc 1 535 20
 2466 0046 0F4B     		ldr	r3, .L217+8
 2467 0048 1B78     		ldrb	r3, [r3]	@ zero_extendqisi2
 2468              		.loc 1 535 7
 2469 004a 002B     		cmp	r3, #0
 2470 004c 04D0     		beq	.L211
 536:../app/app.c  **** 				display_led(AMERICANO2_LED, LED_ON);
 2471              		.loc 1 536 5
 2472 004e 0121     		movs	r1, #1
 2473 0050 0620     		movs	r0, #6
 2474 0052 FFF7FEFF 		bl	display_led
 537:../app/app.c  **** 			}
 538:../app/app.c  **** 			else{
 539:../app/app.c  **** 				display_led(AMERICANO1_LED, LED_ON);
 540:../app/app.c  **** 			}
 541:../app/app.c  **** 			break;
 2475              		.loc 1 541 4
 2476 0056 08E0     		b	.L213
 2477              	.L211:
 539:../app/app.c  **** 			}
 2478              		.loc 1 539 5
 2479 0058 0121     		movs	r1, #1
 2480 005a 0F20     		movs	r0, #15
 2481 005c FFF7FEFF 		bl	display_led
 2482              		.loc 1 541 4
 2483 0060 03E0     		b	.L213
 2484              	.L210:
 542:../app/app.c  **** 		default:
 543:../app/app.c  **** 			app_task_nextsubstep(NORMAL_AMERICANO_INIT_STATE);
 2485              		.loc 1 543 4
 2486 0062 0320     		movs	r0, #3
 2487 0064 FFF7FEFF 		bl	app_task_nextsubstep
 544:../app/app.c  **** 			break;
 2488              		.loc 1 544 4
 2489 0068 00BF     		nop
 2490              	.L213:
 545:../app/app.c  **** 		}
 546:../app/app.c  **** 		ret = 1;
 2491              		.loc 1 546 7
 2492 006a 0123     		movs	r3, #1
 2493 006c FB71     		strb	r3, [r7, #7]
 547:../app/app.c  **** 		break;
 2494              		.loc 1 547 3
 2495 006e 00E0     		b	.L214
 2496              	.L216:
 548:../app/app.c  **** 	default:
 549:../app/app.c  **** 		break;
 2497              		.loc 1 549 3
 2498 0070 00BF     		nop
 2499              	.L214:
 550:../app/app.c  **** 	}
 551:../app/app.c  **** 	return ret;
 2500              		.loc 1 551 9
 2501 0072 FB79     		ldrb	r3, [r7, #7]	@ zero_extendqisi2
 552:../app/app.c  **** }
 2502              		.loc 1 552 1
 2503 0074 1846     		mov	r0, r3
 2504 0076 0837     		adds	r7, r7, #8
 2505              		.cfi_def_cfa_offset 8
 2506 0078 BD46     		mov	sp, r7
 2507              		.cfi_def_cfa_register 13
 2508              		@ sp needed
 2509 007a 80BD     		pop	{r7, pc}
 2510              	.L218:
 2511              		.align	2
 2512              	.L217:
 2513 007c 00000000 		.word	app_task_step
 2514 0080 00000000 		.word	app_task_substep
 2515 0084 00000000 		.word	manual_setup
 2516              		.cfi_endproc
 2517              	.LFE158:
 2519              		.section	.text.app_coffee_key_deal,"ax",%progbits
 2520              		.align	1
 2521              		.global	app_coffee_key_deal
 2522              		.syntax unified
 2523              		.thumb
 2524              		.thumb_func
 2525              		.fpu softvfp
 2527              	app_coffee_key_deal:
 2528              	.LFB159:
 553:../app/app.c  **** 
 554:../app/app.c  **** uint8_t app_coffee_key_deal(void)
 555:../app/app.c  **** {
 2529              		.loc 1 555 1
 2530              		.cfi_startproc
 2531              		@ args = 0, pretend = 0, frame = 8
 2532              		@ frame_needed = 1, uses_anonymous_args = 0
 2533 0000 80B5     		push	{r7, lr}
 2534              		.cfi_def_cfa_offset 8
 2535              		.cfi_offset 7, -8
 2536              		.cfi_offset 14, -4
 2537 0002 82B0     		sub	sp, sp, #8
 2538              		.cfi_def_cfa_offset 16
 2539 0004 00AF     		add	r7, sp, #0
 2540              		.cfi_def_cfa_register 7
 556:../app/app.c  **** 	uint8_t ret = 0;
 2541              		.loc 1 556 10
 2542 0006 0023     		movs	r3, #0
 2543 0008 FB71     		strb	r3, [r7, #7]
 557:../app/app.c  **** 
 558:../app/app.c  **** 	switch(app_task_step)
 2544              		.loc 1 558 2
 2545 000a 1E4B     		ldr	r3, .L234
 2546 000c 1B78     		ldrb	r3, [r3]	@ zero_extendqisi2
 2547 000e 032B     		cmp	r3, #3
 2548 0010 31D1     		bne	.L231
 559:../app/app.c  **** 	{
 560:../app/app.c  **** 	case APP_NORMAL_STATE:
 561:../app/app.c  **** 		switch(app_task_substep){
 2549              		.loc 1 561 3
 2550 0012 1D4B     		ldr	r3, .L234+4
 2551 0014 1B78     		ldrb	r3, [r3]	@ zero_extendqisi2
 2552 0016 022B     		cmp	r3, #2
 2553 0018 01D0     		beq	.L221
 2554 001a 042B     		cmp	r3, #4
 2555 001c 29D1     		bne	.L232
 2556              	.L221:
 562:../app/app.c  **** 		case NORMAL_AMERICANO_RUN_STATE:
 563:../app/app.c  **** 		case NORMAL_ESPRESSO_RUN_STATE:
 564:../app/app.c  **** 			display_led(COFFEE4_LED, LED_OFF);
 2557              		.loc 1 564 4 discriminator 1
 2558 001e 0021     		movs	r1, #0
 2559 0020 1320     		movs	r0, #19
 2560 0022 FFF7FEFF 		bl	display_led
 565:../app/app.c  **** 			display_led(COFFEE3_LED, LED_OFF);
 2561              		.loc 1 565 4 discriminator 1
 2562 0026 0021     		movs	r1, #0
 2563 0028 0D20     		movs	r0, #13
 2564 002a FFF7FEFF 		bl	display_led
 566:../app/app.c  **** 			manual_setup.coffee++;
 2565              		.loc 1 566 16 discriminator 1
 2566 002e 174B     		ldr	r3, .L234+8
 2567 0030 5B78     		ldrb	r3, [r3, #1]	@ zero_extendqisi2
 2568              		.loc 1 566 23 discriminator 1
 2569 0032 0133     		adds	r3, r3, #1
 2570 0034 DAB2     		uxtb	r2, r3
 2571 0036 154B     		ldr	r3, .L234+8
 2572 0038 5A70     		strb	r2, [r3, #1]
 567:../app/app.c  **** 			switch(manual_setup.coffee){
 2573              		.loc 1 567 23 discriminator 1
 2574 003a 144B     		ldr	r3, .L234+8
 2575 003c 5B78     		ldrb	r3, [r3, #1]	@ zero_extendqisi2
 2576 003e 032B     		cmp	r3, #3
 2577 0040 06D0     		beq	.L223
 2578 0042 032B     		cmp	r3, #3
 2579 0044 11DC     		bgt	.L233
 2580 0046 012B     		cmp	r3, #1
 2581 0048 0AD0     		beq	.L225
 2582 004a 022B     		cmp	r3, #2
 2583 004c 04D0     		beq	.L226
 568:../app/app.c  **** 			case 3:
 569:../app/app.c  **** 				manual_setup.coffee = 0;
 570:../app/app.c  **** 				break;
 571:../app/app.c  **** 			case 2:
 572:../app/app.c  **** 				display_led(COFFEE4_LED, LED_ON);
 573:../app/app.c  **** 			case 1:
 574:../app/app.c  **** 				display_led(COFFEE3_LED, LED_ON);
 575:../app/app.c  **** 				break;
 576:../app/app.c  **** 			default:
 577:../app/app.c  **** 				break;
 2584              		.loc 1 577 5
 2585 004e 0CE0     		b	.L233
 2586              	.L223:
 569:../app/app.c  **** 				break;
 2587              		.loc 1 569 25
 2588 0050 0E4B     		ldr	r3, .L234+8
 2589 0052 0022     		movs	r2, #0
 2590 0054 5A70     		strb	r2, [r3, #1]
 570:../app/app.c  **** 			case 2:
 2591              		.loc 1 570 5
 2592 0056 09E0     		b	.L227
 2593              	.L226:
 572:../app/app.c  **** 			case 1:
 2594              		.loc 1 572 5
 2595 0058 0121     		movs	r1, #1
 2596 005a 1320     		movs	r0, #19
 2597 005c FFF7FEFF 		bl	display_led
 2598              	.L225:
 574:../app/app.c  **** 				break;
 2599              		.loc 1 574 5
 2600 0060 0121     		movs	r1, #1
 2601 0062 0D20     		movs	r0, #13
 2602 0064 FFF7FEFF 		bl	display_led
 575:../app/app.c  **** 			default:
 2603              		.loc 1 575 5
 2604 0068 00E0     		b	.L227
 2605              	.L233:
 2606              		.loc 1 577 5
 2607 006a 00BF     		nop
 2608              	.L227:
 578:../app/app.c  **** 			}
 579:../app/app.c  **** 			ret = 1;
 2609              		.loc 1 579 8
 2610 006c 0123     		movs	r3, #1
 2611 006e FB71     		strb	r3, [r7, #7]
 580:../app/app.c  **** 			break;
 2612              		.loc 1 580 4
 2613 0070 00E0     		b	.L228
 2614              	.L232:
 581:../app/app.c  **** 		default:
 582:../app/app.c  **** 			break;
 2615              		.loc 1 582 4
 2616 0072 00BF     		nop
 2617              	.L228:
 583:../app/app.c  **** 		}
 584:../app/app.c  **** 		break;
 2618              		.loc 1 584 3
 2619 0074 00E0     		b	.L229
 2620              	.L231:
 585:../app/app.c  **** 	default:
 586:../app/app.c  **** 		break;
 2621              		.loc 1 586 3
 2622 0076 00BF     		nop
 2623              	.L229:
 587:../app/app.c  **** 	}
 588:../app/app.c  **** 	return ret;
 2624              		.loc 1 588 9
 2625 0078 FB79     		ldrb	r3, [r7, #7]	@ zero_extendqisi2
 589:../app/app.c  **** }
 2626              		.loc 1 589 1
 2627 007a 1846     		mov	r0, r3
 2628 007c 0837     		adds	r7, r7, #8
 2629              		.cfi_def_cfa_offset 8
 2630 007e BD46     		mov	sp, r7
 2631              		.cfi_def_cfa_register 13
 2632              		@ sp needed
 2633 0080 80BD     		pop	{r7, pc}
 2634              	.L235:
 2635 0082 00BF     		.align	2
 2636              	.L234:
 2637 0084 00000000 		.word	app_task_step
 2638 0088 00000000 		.word	app_task_substep
 2639 008c 00000000 		.word	manual_setup
 2640              		.cfi_endproc
 2641              	.LFE159:
 2643              		.section	.text.app_water_key_deal,"ax",%progbits
 2644              		.align	1
 2645              		.global	app_water_key_deal
 2646              		.syntax unified
 2647              		.thumb
 2648              		.thumb_func
 2649              		.fpu softvfp
 2651              	app_water_key_deal:
 2652              	.LFB160:
 590:../app/app.c  **** 
 591:../app/app.c  **** uint8_t app_water_key_deal(void)
 592:../app/app.c  **** {
 2653              		.loc 1 592 1
 2654              		.cfi_startproc
 2655              		@ args = 0, pretend = 0, frame = 8
 2656              		@ frame_needed = 1, uses_anonymous_args = 0
 2657 0000 80B5     		push	{r7, lr}
 2658              		.cfi_def_cfa_offset 8
 2659              		.cfi_offset 7, -8
 2660              		.cfi_offset 14, -4
 2661 0002 82B0     		sub	sp, sp, #8
 2662              		.cfi_def_cfa_offset 16
 2663 0004 00AF     		add	r7, sp, #0
 2664              		.cfi_def_cfa_register 7
 593:../app/app.c  **** 	uint8_t ret = 0;
 2665              		.loc 1 593 10
 2666 0006 0023     		movs	r3, #0
 2667 0008 FB71     		strb	r3, [r7, #7]
 594:../app/app.c  **** 
 595:../app/app.c  **** 	switch(app_task_step)
 2668              		.loc 1 595 2
 2669 000a 254B     		ldr	r3, .L250
 2670 000c 1B78     		ldrb	r3, [r3]	@ zero_extendqisi2
 2671 000e 032B     		cmp	r3, #3
 2672 0010 40D1     		bne	.L247
 596:../app/app.c  **** 	{
 597:../app/app.c  **** 	case APP_NORMAL_STATE:
 598:../app/app.c  **** 		switch(app_task_substep){
 2673              		.loc 1 598 3
 2674 0012 244B     		ldr	r3, .L250+4
 2675 0014 1B78     		ldrb	r3, [r3]	@ zero_extendqisi2
 2676 0016 062B     		cmp	r3, #6
 2677 0018 8CBF     		ite	hi
 2678 001a 0122     		movhi	r2, #1
 2679 001c 0022     		movls	r2, #0
 2680 001e D2B2     		uxtb	r2, r2
 2681 0020 002A     		cmp	r2, #0
 2682 0022 35D1     		bne	.L248
 2683 0024 0122     		movs	r2, #1
 2684 0026 02FA03F3 		lsl	r3, r2, r3
 2685 002a 03F05403 		and	r3, r3, #84
 2686 002e 002B     		cmp	r3, #0
 2687 0030 14BF     		ite	ne
 2688 0032 0123     		movne	r3, #1
 2689 0034 0023     		moveq	r3, #0
 2690 0036 DBB2     		uxtb	r3, r3
 2691 0038 002B     		cmp	r3, #0
 2692 003a 29D0     		beq	.L248
 599:../app/app.c  **** 		case NORMAL_AMERICANO_RUN_STATE:
 600:../app/app.c  **** 		case NORMAL_ESPRESSO_RUN_STATE:
 601:../app/app.c  **** 		case NORMAL_HOTWATER_RUN_STATE:
 602:../app/app.c  **** 			display_led(WATER3_LED, LED_OFF);
 2693              		.loc 1 602 4 discriminator 1
 2694 003c 0021     		movs	r1, #0
 2695 003e 1020     		movs	r0, #16
 2696 0040 FFF7FEFF 		bl	display_led
 603:../app/app.c  **** 			display_led(WATER2_LED, LED_OFF);
 2697              		.loc 1 603 4 discriminator 1
 2698 0044 0021     		movs	r1, #0
 2699 0046 1920     		movs	r0, #25
 2700 0048 FFF7FEFF 		bl	display_led
 604:../app/app.c  **** 			manual_setup.water++;
 2701              		.loc 1 604 16 discriminator 1
 2702 004c 164B     		ldr	r3, .L250+8
 2703 004e 9B78     		ldrb	r3, [r3, #2]	@ zero_extendqisi2
 2704              		.loc 1 604 22 discriminator 1
 2705 0050 0133     		adds	r3, r3, #1
 2706 0052 DAB2     		uxtb	r2, r3
 2707 0054 144B     		ldr	r3, .L250+8
 2708 0056 9A70     		strb	r2, [r3, #2]
 605:../app/app.c  **** 			switch(manual_setup.water){
 2709              		.loc 1 605 23 discriminator 1
 2710 0058 134B     		ldr	r3, .L250+8
 2711 005a 9B78     		ldrb	r3, [r3, #2]	@ zero_extendqisi2
 2712 005c 032B     		cmp	r3, #3
 2713 005e 06D0     		beq	.L239
 2714 0060 032B     		cmp	r3, #3
 2715 0062 11DC     		bgt	.L249
 2716 0064 012B     		cmp	r3, #1
 2717 0066 0AD0     		beq	.L241
 2718 0068 022B     		cmp	r3, #2
 2719 006a 04D0     		beq	.L242
 606:../app/app.c  **** 			case 3:
 607:../app/app.c  **** 				manual_setup.water = 0;
 608:../app/app.c  **** 				break;
 609:../app/app.c  **** 			case 2:
 610:../app/app.c  **** 				display_led(WATER3_LED, LED_ON);
 611:../app/app.c  **** 			case 1:
 612:../app/app.c  **** 				display_led(WATER2_LED, LED_ON);
 613:../app/app.c  **** 				break;
 614:../app/app.c  **** 			default:
 615:../app/app.c  **** 				break;
 2720              		.loc 1 615 5
 2721 006c 0CE0     		b	.L249
 2722              	.L239:
 607:../app/app.c  **** 				break;
 2723              		.loc 1 607 24
 2724 006e 0E4B     		ldr	r3, .L250+8
 2725 0070 0022     		movs	r2, #0
 2726 0072 9A70     		strb	r2, [r3, #2]
 608:../app/app.c  **** 			case 2:
 2727              		.loc 1 608 5
 2728 0074 09E0     		b	.L243
 2729              	.L242:
 610:../app/app.c  **** 			case 1:
 2730              		.loc 1 610 5
 2731 0076 0121     		movs	r1, #1
 2732 0078 1020     		movs	r0, #16
 2733 007a FFF7FEFF 		bl	display_led
 2734              	.L241:
 612:../app/app.c  **** 				break;
 2735              		.loc 1 612 5
 2736 007e 0121     		movs	r1, #1
 2737 0080 1920     		movs	r0, #25
 2738 0082 FFF7FEFF 		bl	display_led
 613:../app/app.c  **** 			default:
 2739              		.loc 1 613 5
 2740 0086 00E0     		b	.L243
 2741              	.L249:
 2742              		.loc 1 615 5
 2743 0088 00BF     		nop
 2744              	.L243:
 616:../app/app.c  **** 			}
 617:../app/app.c  **** 			ret = 1;
 2745              		.loc 1 617 8
 2746 008a 0123     		movs	r3, #1
 2747 008c FB71     		strb	r3, [r7, #7]
 618:../app/app.c  **** 			break;
 2748              		.loc 1 618 4
 2749 008e 00E0     		b	.L244
 2750              	.L248:
 619:../app/app.c  **** 		default:
 620:../app/app.c  **** 			break;
 2751              		.loc 1 620 4
 2752 0090 00BF     		nop
 2753              	.L244:
 621:../app/app.c  **** 		}
 622:../app/app.c  **** 		break;
 2754              		.loc 1 622 3
 2755 0092 00E0     		b	.L245
 2756              	.L247:
 623:../app/app.c  **** 	default:
 624:../app/app.c  **** 		break;
 2757              		.loc 1 624 3
 2758 0094 00BF     		nop
 2759              	.L245:
 625:../app/app.c  **** 	}
 626:../app/app.c  **** 	return ret;
 2760              		.loc 1 626 9
 2761 0096 FB79     		ldrb	r3, [r7, #7]	@ zero_extendqisi2
 627:../app/app.c  **** }
 2762              		.loc 1 627 1
 2763 0098 1846     		mov	r0, r3
 2764 009a 0837     		adds	r7, r7, #8
 2765              		.cfi_def_cfa_offset 8
 2766 009c BD46     		mov	sp, r7
 2767              		.cfi_def_cfa_register 13
 2768              		@ sp needed
 2769 009e 80BD     		pop	{r7, pc}
 2770              	.L251:
 2771              		.align	2
 2772              	.L250:
 2773 00a0 00000000 		.word	app_task_step
 2774 00a4 00000000 		.word	app_task_substep
 2775 00a8 00000000 		.word	manual_setup
 2776              		.cfi_endproc
 2777              	.LFE160:
 2779              		.section	.text.app_calc_key_deal,"ax",%progbits
 2780              		.align	1
 2781              		.global	app_calc_key_deal
 2782              		.syntax unified
 2783              		.thumb
 2784              		.thumb_func
 2785              		.fpu softvfp
 2787              	app_calc_key_deal:
 2788              	.LFB161:
 628:../app/app.c  **** 
 629:../app/app.c  **** uint8_t app_calc_key_deal(void)
 630:../app/app.c  **** {
 2789              		.loc 1 630 1
 2790              		.cfi_startproc
 2791              		@ args = 0, pretend = 0, frame = 8
 2792              		@ frame_needed = 1, uses_anonymous_args = 0
 2793 0000 80B5     		push	{r7, lr}
 2794              		.cfi_def_cfa_offset 8
 2795              		.cfi_offset 7, -8
 2796              		.cfi_offset 14, -4
 2797 0002 82B0     		sub	sp, sp, #8
 2798              		.cfi_def_cfa_offset 16
 2799 0004 00AF     		add	r7, sp, #0
 2800              		.cfi_def_cfa_register 7
 631:../app/app.c  **** 	uint8_t ret = 0;
 2801              		.loc 1 631 10
 2802 0006 0023     		movs	r3, #0
 2803 0008 FB71     		strb	r3, [r7, #7]
 632:../app/app.c  **** 
 633:../app/app.c  **** 	switch(app_task_step)
 2804              		.loc 1 633 2
 2805 000a 0B4B     		ldr	r3, .L260
 2806 000c 1B78     		ldrb	r3, [r3]	@ zero_extendqisi2
 2807 000e 032B     		cmp	r3, #3
 2808 0010 0CD1     		bne	.L258
 634:../app/app.c  **** 	{
 635:../app/app.c  **** 	case APP_NORMAL_STATE:
 636:../app/app.c  **** 		switch(app_task_substep){
 2809              		.loc 1 636 3
 2810 0012 0A4B     		ldr	r3, .L260+4
 2811 0014 1B78     		ldrb	r3, [r3]	@ zero_extendqisi2
 2812 0016 0B3B     		subs	r3, r3, #11
 2813 0018 012B     		cmp	r3, #1
 2814 001a 03D9     		bls	.L259
 637:../app/app.c  **** 		case NORMAL_CALC_INIT_STATE:
 638:../app/app.c  **** 		case NORMAL_CALC_RUN_STATE:
 639:../app/app.c  **** 			break;
 640:../app/app.c  **** 		default:
 641:../app/app.c  **** 			app_task_nextsubstep(NORMAL_CALC_INIT_STATE);
 2815              		.loc 1 641 4
 2816 001c 0B20     		movs	r0, #11
 2817 001e FFF7FEFF 		bl	app_task_nextsubstep
 642:../app/app.c  **** 			break;
 2818              		.loc 1 642 4
 2819 0022 00E0     		b	.L255
 2820              	.L259:
 639:../app/app.c  **** 		default:
 2821              		.loc 1 639 4
 2822 0024 00BF     		nop
 2823              	.L255:
 643:../app/app.c  **** 		}
 644:../app/app.c  **** 		ret = 1;
 2824              		.loc 1 644 7
 2825 0026 0123     		movs	r3, #1
 2826 0028 FB71     		strb	r3, [r7, #7]
 645:../app/app.c  **** 		break;
 2827              		.loc 1 645 3
 2828 002a 00E0     		b	.L256
 2829              	.L258:
 646:../app/app.c  **** 	default:
 647:../app/app.c  **** 		break;
 2830              		.loc 1 647 3
 2831 002c 00BF     		nop
 2832              	.L256:
 648:../app/app.c  **** 	}
 649:../app/app.c  **** 	return ret;
 2833              		.loc 1 649 9
 2834 002e FB79     		ldrb	r3, [r7, #7]	@ zero_extendqisi2
 650:../app/app.c  **** }
 2835              		.loc 1 650 1
 2836 0030 1846     		mov	r0, r3
 2837 0032 0837     		adds	r7, r7, #8
 2838              		.cfi_def_cfa_offset 8
 2839 0034 BD46     		mov	sp, r7
 2840              		.cfi_def_cfa_register 13
 2841              		@ sp needed
 2842 0036 80BD     		pop	{r7, pc}
 2843              	.L261:
 2844              		.align	2
 2845              	.L260:
 2846 0038 00000000 		.word	app_task_step
 2847 003c 00000000 		.word	app_task_substep
 2848              		.cfi_endproc
 2849              	.LFE161:
 2851              		.section	.text.app_aqua_key_deal,"ax",%progbits
 2852              		.align	1
 2853              		.global	app_aqua_key_deal
 2854              		.syntax unified
 2855              		.thumb
 2856              		.thumb_func
 2857              		.fpu softvfp
 2859              	app_aqua_key_deal:
 2860              	.LFB162:
 651:../app/app.c  **** 
 652:../app/app.c  **** uint8_t app_aqua_key_deal(void)
 653:../app/app.c  **** {
 2861              		.loc 1 653 1
 2862              		.cfi_startproc
 2863              		@ args = 0, pretend = 0, frame = 8
 2864              		@ frame_needed = 1, uses_anonymous_args = 0
 2865 0000 80B5     		push	{r7, lr}
 2866              		.cfi_def_cfa_offset 8
 2867              		.cfi_offset 7, -8
 2868              		.cfi_offset 14, -4
 2869 0002 82B0     		sub	sp, sp, #8
 2870              		.cfi_def_cfa_offset 16
 2871 0004 00AF     		add	r7, sp, #0
 2872              		.cfi_def_cfa_register 7
 654:../app/app.c  **** 	uint8_t ret = 0;
 2873              		.loc 1 654 10
 2874 0006 0023     		movs	r3, #0
 2875 0008 FB71     		strb	r3, [r7, #7]
 655:../app/app.c  **** 
 656:../app/app.c  **** 	switch(app_task_step)
 2876              		.loc 1 656 2
 2877 000a 0B4B     		ldr	r3, .L270
 2878 000c 1B78     		ldrb	r3, [r3]	@ zero_extendqisi2
 2879 000e 032B     		cmp	r3, #3
 2880 0010 0CD1     		bne	.L268
 657:../app/app.c  **** 	{
 658:../app/app.c  **** 	case APP_NORMAL_STATE:
 659:../app/app.c  **** 		switch(app_task_substep){
 2881              		.loc 1 659 3
 2882 0012 0A4B     		ldr	r3, .L270+4
 2883 0014 1B78     		ldrb	r3, [r3]	@ zero_extendqisi2
 2884 0016 093B     		subs	r3, r3, #9
 2885 0018 012B     		cmp	r3, #1
 2886 001a 03D9     		bls	.L269
 660:../app/app.c  **** 		case NORMAL_AQUA_INIT_STATE:
 661:../app/app.c  **** 		case NORMAL_AQUA_RUN_STATE:
 662:../app/app.c  **** 			break;
 663:../app/app.c  **** 		default:
 664:../app/app.c  **** 			app_task_nextsubstep(NORMAL_AQUA_INIT_STATE);
 2887              		.loc 1 664 4
 2888 001c 0920     		movs	r0, #9
 2889 001e FFF7FEFF 		bl	app_task_nextsubstep
 665:../app/app.c  **** 			break;
 2890              		.loc 1 665 4
 2891 0022 00E0     		b	.L265
 2892              	.L269:
 662:../app/app.c  **** 		default:
 2893              		.loc 1 662 4
 2894 0024 00BF     		nop
 2895              	.L265:
 666:../app/app.c  **** 		}
 667:../app/app.c  **** 		ret = 1;
 2896              		.loc 1 667 7
 2897 0026 0123     		movs	r3, #1
 2898 0028 FB71     		strb	r3, [r7, #7]
 668:../app/app.c  **** 		break;
 2899              		.loc 1 668 3
 2900 002a 00E0     		b	.L266
 2901              	.L268:
 669:../app/app.c  **** 	default:
 670:../app/app.c  **** 		break;
 2902              		.loc 1 670 3
 2903 002c 00BF     		nop
 2904              	.L266:
 671:../app/app.c  **** 	}
 672:../app/app.c  **** 	return ret;
 2905              		.loc 1 672 9
 2906 002e FB79     		ldrb	r3, [r7, #7]	@ zero_extendqisi2
 673:../app/app.c  **** }
 2907              		.loc 1 673 1
 2908 0030 1846     		mov	r0, r3
 2909 0032 0837     		adds	r7, r7, #8
 2910              		.cfi_def_cfa_offset 8
 2911 0034 BD46     		mov	sp, r7
 2912              		.cfi_def_cfa_register 13
 2913              		@ sp needed
 2914 0036 80BD     		pop	{r7, pc}
 2915              	.L271:
 2916              		.align	2
 2917              	.L270:
 2918 0038 00000000 		.word	app_task_step
 2919 003c 00000000 		.word	app_task_substep
 2920              		.cfi_endproc
 2921              	.LFE162:
 2923              		.section	.text.app_pad_key_deal,"ax",%progbits
 2924              		.align	1
 2925              		.global	app_pad_key_deal
 2926              		.syntax unified
 2927              		.thumb
 2928              		.thumb_func
 2929              		.fpu softvfp
 2931              	app_pad_key_deal:
 2932              	.LFB163:
 674:../app/app.c  **** 
 675:../app/app.c  **** 
 676:../app/app.c  **** void app_pad_key_deal(void)
 677:../app/app.c  **** {
 2933              		.loc 1 677 1
 2934              		.cfi_startproc
 2935              		@ args = 0, pretend = 0, frame = 0
 2936              		@ frame_needed = 1, uses_anonymous_args = 0
 2937              		@ link register save eliminated.
 2938 0000 80B4     		push	{r7}
 2939              		.cfi_def_cfa_offset 4
 2940              		.cfi_offset 7, -4
 2941 0002 00AF     		add	r7, sp, #0
 2942              		.cfi_def_cfa_register 7
 678:../app/app.c  **** 	switch(app_task_step)
 2943              		.loc 1 678 2
 2944 0004 034B     		ldr	r3, .L275
 2945 0006 1B78     		ldrb	r3, [r3]	@ zero_extendqisi2
 2946 0008 032B     		cmp	r3, #3
 679:../app/app.c  **** 	{
 680:../app/app.c  **** 	case APP_NORMAL_STATE:
 681:../app/app.c  **** 		break;
 682:../app/app.c  **** 	default:
 683:../app/app.c  **** 		break;
 2947              		.loc 1 683 3
 2948 000a 00BF     		nop
 684:../app/app.c  **** 	}
 685:../app/app.c  **** }
 2949              		.loc 1 685 1
 2950 000c 00BF     		nop
 2951 000e BD46     		mov	sp, r7
 2952              		.cfi_def_cfa_register 13
 2953              		@ sp needed
 2954 0010 80BC     		pop	{r7}
 2955              		.cfi_restore 7
 2956              		.cfi_def_cfa_offset 0
 2957 0012 7047     		bx	lr
 2958              	.L276:
 2959              		.align	2
 2960              	.L275:
 2961 0014 00000000 		.word	app_task_step
 2962              		.cfi_endproc
 2963              	.LFE163:
 2965              		.section	.text.app_key_handler,"ax",%progbits
 2966              		.align	1
 2967              		.global	app_key_handler
 2968              		.syntax unified
 2969              		.thumb
 2970              		.thumb_func
 2971              		.fpu softvfp
 2973              	app_key_handler:
 2974              	.LFB164:
 686:../app/app.c  **** 
 687:../app/app.c  **** /************************************************************************
 688:../app/app.c  **** * function name: app_key_handler
 689:../app/app.c  **** * input: non
 690:../app/app.c  **** * output: non
 691:../app/app.c  **** * description: this object's message loop
 692:../app/app.c  **** *************************************************************************/
 693:../app/app.c  **** void app_key_handler(_keystruct* pkey)
 694:../app/app.c  **** {
 2975              		.loc 1 694 1
 2976              		.cfi_startproc
 2977              		@ args = 0, pretend = 0, frame = 8
 2978              		@ frame_needed = 1, uses_anonymous_args = 0
 2979 0000 80B5     		push	{r7, lr}
 2980              		.cfi_def_cfa_offset 8
 2981              		.cfi_offset 7, -8
 2982              		.cfi_offset 14, -4
 2983 0002 82B0     		sub	sp, sp, #8
 2984              		.cfi_def_cfa_offset 16
 2985 0004 00AF     		add	r7, sp, #0
 2986              		.cfi_def_cfa_register 7
 2987 0006 7860     		str	r0, [r7, #4]
 695:../app/app.c  **** 	if (pkey->ulLPressF & KEY_ONOFF_MASK){
 2988              		.loc 1 695 10
 2989 0008 7B68     		ldr	r3, [r7, #4]
 2990 000a 5B68     		ldr	r3, [r3, #4]
 2991              		.loc 1 695 22
 2992 000c 03F00103 		and	r3, r3, #1
 2993              		.loc 1 695 5
 2994 0010 002B     		cmp	r3, #0
 2995 0012 02D0     		beq	.L278
 696:../app/app.c  **** 		app_buzzer_on(1);
 2996              		.loc 1 696 3
 2997 0014 0120     		movs	r0, #1
 2998 0016 FFF7FEFF 		bl	app_buzzer_on
 2999              	.L278:
 697:../app/app.c  **** 	}
 698:../app/app.c  **** 	if (pkey->ulReleaseF & KEY_ONOFF_MASK){
 3000              		.loc 1 698 10
 3001 001a 7B68     		ldr	r3, [r7, #4]
 3002 001c 9B68     		ldr	r3, [r3, #8]
 3003              		.loc 1 698 23
 3004 001e 03F00103 		and	r3, r3, #1
 3005              		.loc 1 698 5
 3006 0022 002B     		cmp	r3, #0
 3007 0024 19D0     		beq	.L279
 699:../app/app.c  **** 		if (pkey->ulLPressMaskF & KEY_ONOFF_MASK){
 3008              		.loc 1 699 11
 3009 0026 7B68     		ldr	r3, [r7, #4]
 3010 0028 1B69     		ldr	r3, [r3, #16]
 3011              		.loc 1 699 27
 3012 002a 03F00103 		and	r3, r3, #1
 3013              		.loc 1 699 6
 3014 002e 002B     		cmp	r3, #0
 3015 0030 02D0     		beq	.L280
 700:../app/app.c  **** 			app_onoff_key_deal();
 3016              		.loc 1 700 4
 3017 0032 FFF7FEFF 		bl	app_onoff_key_deal
 3018 0036 0AE0     		b	.L281
 3019              	.L280:
 701:../app/app.c  **** 		}
 702:../app/app.c  **** 		else if (FAIL == app_step_state(APP_IDLE_STATE)){
 3020              		.loc 1 702 20
 3021 0038 0120     		movs	r0, #1
 3022 003a FFF7FEFF 		bl	app_step_state
 3023 003e 0346     		mov	r3, r0
 3024              		.loc 1 702 11
 3025 0040 002B     		cmp	r3, #0
 3026 0042 04D1     		bne	.L281
 703:../app/app.c  **** 			app_buzzer_on(1);
 3027              		.loc 1 703 4
 3028 0044 0120     		movs	r0, #1
 3029 0046 FFF7FEFF 		bl	app_buzzer_on
 704:../app/app.c  **** 			app_onoff_key_deal();
 3030              		.loc 1 704 4
 3031 004a FFF7FEFF 		bl	app_onoff_key_deal
 3032              	.L281:
 705:../app/app.c  **** 		}
 706:../app/app.c  **** 		pkey->ulLPressMaskF &= ~KEY_ONOFF_MASK;
 3033              		.loc 1 706 23
 3034 004e 7B68     		ldr	r3, [r7, #4]
 3035 0050 1B69     		ldr	r3, [r3, #16]
 3036 0052 23F00102 		bic	r2, r3, #1
 3037 0056 7B68     		ldr	r3, [r7, #4]
 3038 0058 1A61     		str	r2, [r3, #16]
 3039              	.L279:
 707:../app/app.c  **** 	}
 708:../app/app.c  **** 	
 709:../app/app.c  **** 	if (pkey->ulReleaseF & KEY_START_MASK) {
 3040              		.loc 1 709 10
 3041 005a 7B68     		ldr	r3, [r7, #4]
 3042 005c 9B68     		ldr	r3, [r3, #8]
 3043              		.loc 1 709 23
 3044 005e 03F01003 		and	r3, r3, #16
 3045              		.loc 1 709 5
 3046 0062 002B     		cmp	r3, #0
 3047 0064 07D0     		beq	.L282
 710:../app/app.c  **** 		if (app_start_key_deal()){
 3048              		.loc 1 710 7
 3049 0066 FFF7FEFF 		bl	app_start_key_deal
 3050 006a 0346     		mov	r3, r0
 3051              		.loc 1 710 6
 3052 006c 002B     		cmp	r3, #0
 3053 006e 02D0     		beq	.L282
 711:../app/app.c  **** 			app_buzzer_on(1);
 3054              		.loc 1 711 4
 3055 0070 0120     		movs	r0, #1
 3056 0072 FFF7FEFF 		bl	app_buzzer_on
 3057              	.L282:
 712:../app/app.c  **** 		}
 713:../app/app.c  **** 	}
 714:../app/app.c  **** 
 715:../app/app.c  **** 	if (pkey->ulReleaseF & KEY_ESPRESSO_MASK) {
 3058              		.loc 1 715 10
 3059 0076 7B68     		ldr	r3, [r7, #4]
 3060 0078 9B68     		ldr	r3, [r3, #8]
 3061              		.loc 1 715 23
 3062 007a 03F00403 		and	r3, r3, #4
 3063              		.loc 1 715 5
 3064 007e 002B     		cmp	r3, #0
 3065 0080 07D0     		beq	.L283
 716:../app/app.c  **** 		if (app_espresso_key_deal()){
 3066              		.loc 1 716 7
 3067 0082 FFF7FEFF 		bl	app_espresso_key_deal
 3068 0086 0346     		mov	r3, r0
 3069              		.loc 1 716 6
 3070 0088 002B     		cmp	r3, #0
 3071 008a 02D0     		beq	.L283
 717:../app/app.c  **** 			app_buzzer_on(1);
 3072              		.loc 1 717 4
 3073 008c 0120     		movs	r0, #1
 3074 008e FFF7FEFF 		bl	app_buzzer_on
 3075              	.L283:
 718:../app/app.c  **** 		}
 719:../app/app.c  **** 	}
 720:../app/app.c  **** 	
 721:../app/app.c  **** 	if (pkey->ulReleaseF & KEY_AMERICANO_MASK) {
 3076              		.loc 1 721 10
 3077 0092 7B68     		ldr	r3, [r7, #4]
 3078 0094 9B68     		ldr	r3, [r3, #8]
 3079              		.loc 1 721 23
 3080 0096 03F02003 		and	r3, r3, #32
 3081              		.loc 1 721 5
 3082 009a 002B     		cmp	r3, #0
 3083 009c 07D0     		beq	.L284
 722:../app/app.c  **** 		if (app_ame_key_deal()){
 3084              		.loc 1 722 7
 3085 009e FFF7FEFF 		bl	app_ame_key_deal
 3086 00a2 0346     		mov	r3, r0
 3087              		.loc 1 722 6
 3088 00a4 002B     		cmp	r3, #0
 3089 00a6 02D0     		beq	.L284
 723:../app/app.c  **** 			app_buzzer_on(1);
 3090              		.loc 1 723 4
 3091 00a8 0120     		movs	r0, #1
 3092 00aa FFF7FEFF 		bl	app_buzzer_on
 3093              	.L284:
 724:../app/app.c  **** 		}
 725:../app/app.c  **** 	}
 726:../app/app.c  **** 
 727:../app/app.c  **** 	if (pkey->ulReleaseF & KEY_HOTWATER_MASK) {
 3094              		.loc 1 727 10
 3095 00ae 7B68     		ldr	r3, [r7, #4]
 3096 00b0 9B68     		ldr	r3, [r3, #8]
 3097              		.loc 1 727 23
 3098 00b2 03F00203 		and	r3, r3, #2
 3099              		.loc 1 727 5
 3100 00b6 002B     		cmp	r3, #0
 3101 00b8 07D0     		beq	.L285
 728:../app/app.c  **** 		if (app_hotwater_key_deal()){
 3102              		.loc 1 728 7
 3103 00ba FFF7FEFF 		bl	app_hotwater_key_deal
 3104 00be 0346     		mov	r3, r0
 3105              		.loc 1 728 6
 3106 00c0 002B     		cmp	r3, #0
 3107 00c2 02D0     		beq	.L285
 729:../app/app.c  **** 			app_buzzer_on(1);
 3108              		.loc 1 729 4
 3109 00c4 0120     		movs	r0, #1
 3110 00c6 FFF7FEFF 		bl	app_buzzer_on
 3111              	.L285:
 730:../app/app.c  **** 		}
 731:../app/app.c  **** 	}
 732:../app/app.c  **** 
 733:../app/app.c  **** 	if (pkey->ulReleaseF & KEY_STEAM_MASK) {
 3112              		.loc 1 733 10
 3113 00ca 7B68     		ldr	r3, [r7, #4]
 3114 00cc 9B68     		ldr	r3, [r3, #8]
 3115              		.loc 1 733 23
 3116 00ce 03F00803 		and	r3, r3, #8
 3117              		.loc 1 733 5
 3118 00d2 002B     		cmp	r3, #0
 3119 00d4 07D0     		beq	.L286
 734:../app/app.c  **** 		if (app_steam_key_deal()){
 3120              		.loc 1 734 7
 3121 00d6 FFF7FEFF 		bl	app_steam_key_deal
 3122 00da 0346     		mov	r3, r0
 3123              		.loc 1 734 6
 3124 00dc 002B     		cmp	r3, #0
 3125 00de 02D0     		beq	.L286
 735:../app/app.c  **** 			app_buzzer_on(1);
 3126              		.loc 1 735 4
 3127 00e0 0120     		movs	r0, #1
 3128 00e2 FFF7FEFF 		bl	app_buzzer_on
 3129              	.L286:
 736:../app/app.c  **** 		}
 737:../app/app.c  **** 	}
 738:../app/app.c  **** 	
 739:../app/app.c  **** 	if (pkey->ulReleaseF & KEY_COFFE_MASK) {
 3130              		.loc 1 739 10
 3131 00e6 7B68     		ldr	r3, [r7, #4]
 3132 00e8 9B68     		ldr	r3, [r3, #8]
 3133              		.loc 1 739 23
 3134 00ea 03F04003 		and	r3, r3, #64
 3135              		.loc 1 739 5
 3136 00ee 002B     		cmp	r3, #0
 3137 00f0 07D0     		beq	.L287
 740:../app/app.c  **** 		if (app_coffee_key_deal()){
 3138              		.loc 1 740 7
 3139 00f2 FFF7FEFF 		bl	app_coffee_key_deal
 3140 00f6 0346     		mov	r3, r0
 3141              		.loc 1 740 6
 3142 00f8 002B     		cmp	r3, #0
 3143 00fa 02D0     		beq	.L287
 741:../app/app.c  **** 			app_buzzer_on(1);
 3144              		.loc 1 741 4
 3145 00fc 0120     		movs	r0, #1
 3146 00fe FFF7FEFF 		bl	app_buzzer_on
 3147              	.L287:
 742:../app/app.c  **** 		}
 743:../app/app.c  **** 	}
 744:../app/app.c  **** 	
 745:../app/app.c  **** 	if (pkey->ulReleaseF & KEY_WATER_MASK) {
 3148              		.loc 1 745 10
 3149 0102 7B68     		ldr	r3, [r7, #4]
 3150 0104 9B68     		ldr	r3, [r3, #8]
 3151              		.loc 1 745 23
 3152 0106 03F48063 		and	r3, r3, #1024
 3153              		.loc 1 745 5
 3154 010a 002B     		cmp	r3, #0
 3155 010c 07D0     		beq	.L288
 746:../app/app.c  **** 		if (app_water_key_deal()){
 3156              		.loc 1 746 7
 3157 010e FFF7FEFF 		bl	app_water_key_deal
 3158 0112 0346     		mov	r3, r0
 3159              		.loc 1 746 6
 3160 0114 002B     		cmp	r3, #0
 3161 0116 02D0     		beq	.L288
 747:../app/app.c  **** 			app_buzzer_on(1);
 3162              		.loc 1 747 4
 3163 0118 0120     		movs	r0, #1
 3164 011a FFF7FEFF 		bl	app_buzzer_on
 3165              	.L288:
 748:../app/app.c  **** 		}
 749:../app/app.c  **** 	}
 750:../app/app.c  **** 
 751:../app/app.c  **** 	if (pkey->ulLPressF & KEY_CALC_MASK) {
 3166              		.loc 1 751 10
 3167 011e 7B68     		ldr	r3, [r7, #4]
 3168 0120 5B68     		ldr	r3, [r3, #4]
 3169              		.loc 1 751 22
 3170 0122 03F40073 		and	r3, r3, #512
 3171              		.loc 1 751 5
 3172 0126 002B     		cmp	r3, #0
 3173 0128 07D0     		beq	.L289
 752:../app/app.c  **** 		if (app_calc_key_deal()){
 3174              		.loc 1 752 7
 3175 012a FFF7FEFF 		bl	app_calc_key_deal
 3176 012e 0346     		mov	r3, r0
 3177              		.loc 1 752 6
 3178 0130 002B     		cmp	r3, #0
 3179 0132 02D0     		beq	.L289
 753:../app/app.c  **** 			app_buzzer_on(1);
 3180              		.loc 1 753 4
 3181 0134 0120     		movs	r0, #1
 3182 0136 FFF7FEFF 		bl	app_buzzer_on
 3183              	.L289:
 754:../app/app.c  **** 		}
 755:../app/app.c  **** 	}
 756:../app/app.c  **** 
 757:../app/app.c  **** 	if (pkey->ulLPressF & KEY_AQUA_MASK) {
 3184              		.loc 1 757 10
 3185 013a 7B68     		ldr	r3, [r7, #4]
 3186 013c 5B68     		ldr	r3, [r3, #4]
 3187              		.loc 1 757 22
 3188 013e 03F48073 		and	r3, r3, #256
 3189              		.loc 1 757 5
 3190 0142 002B     		cmp	r3, #0
 3191 0144 07D0     		beq	.L290
 758:../app/app.c  **** 		if (app_aqua_key_deal()){
 3192              		.loc 1 758 7
 3193 0146 FFF7FEFF 		bl	app_aqua_key_deal
 3194 014a 0346     		mov	r3, r0
 3195              		.loc 1 758 6
 3196 014c 002B     		cmp	r3, #0
 3197 014e 02D0     		beq	.L290
 759:../app/app.c  **** 			app_buzzer_on(1);
 3198              		.loc 1 759 4
 3199 0150 0120     		movs	r0, #1
 3200 0152 FFF7FEFF 		bl	app_buzzer_on
 3201              	.L290:
 760:../app/app.c  **** 		}
 761:../app/app.c  **** 	}
 762:../app/app.c  **** 	
 763:../app/app.c  **** 	if (pkey->ulReleaseF & KEY_PAD_MASK) {
 3202              		.loc 1 763 10
 3203 0156 7B68     		ldr	r3, [r7, #4]
 3204 0158 9B68     		ldr	r3, [r3, #8]
 3205              		.loc 1 763 23
 3206 015a 03F08003 		and	r3, r3, #128
 3207              		.loc 1 763 5
 3208 015e 002B     		cmp	r3, #0
 3209 0160 01D0     		beq	.L292
 764:../app/app.c  **** 		app_pad_key_deal();
 3210              		.loc 1 764 3
 3211 0162 FFF7FEFF 		bl	app_pad_key_deal
 3212              	.L292:
 765:../app/app.c  **** 	}
 766:../app/app.c  **** }
 3213              		.loc 1 766 1
 3214 0166 00BF     		nop
 3215 0168 0837     		adds	r7, r7, #8
 3216              		.cfi_def_cfa_offset 8
 3217 016a BD46     		mov	sp, r7
 3218              		.cfi_def_cfa_register 13
 3219              		@ sp needed
 3220 016c 80BD     		pop	{r7, pc}
 3221              		.cfi_endproc
 3222              	.LFE164:
 3224              		.section	.text.app_init_handler,"ax",%progbits
 3225              		.align	1
 3226              		.global	app_init_handler
 3227              		.syntax unified
 3228              		.thumb
 3229              		.thumb_func
 3230              		.fpu softvfp
 3232              	app_init_handler:
 3233              	.LFB165:
 767:../app/app.c  **** 
 768:../app/app.c  **** /************************************************************************
 769:../app/app.c  **** * function name: app_init_handler
 770:../app/app.c  **** * input: non
 771:../app/app.c  **** * output: non
 772:../app/app.c  **** * description: object thread
 773:../app/app.c  **** *************************************************************************/
 774:../app/app.c  **** void app_init_handler(void)
 775:../app/app.c  **** {
 3234              		.loc 1 775 1
 3235              		.cfi_startproc
 3236              		@ args = 0, pretend = 0, frame = 0
 3237              		@ frame_needed = 1, uses_anonymous_args = 0
 3238 0000 80B5     		push	{r7, lr}
 3239              		.cfi_def_cfa_offset 8
 3240              		.cfi_offset 7, -8
 3241              		.cfi_offset 14, -4
 3242 0002 00AF     		add	r7, sp, #0
 3243              		.cfi_def_cfa_register 7
 776:../app/app.c  **** 	switch(app_task_substep)
 3244              		.loc 1 776 2
 3245 0004 114B     		ldr	r3, .L300
 3246 0006 1B78     		ldrb	r3, [r3]	@ zero_extendqisi2
 3247 0008 022B     		cmp	r3, #2
 3248 000a 17D0     		beq	.L294
 3249 000c 022B     		cmp	r3, #2
 3250 000e 1ADC     		bgt	.L299
 3251 0010 002B     		cmp	r3, #0
 3252 0012 02D0     		beq	.L296
 3253 0014 012B     		cmp	r3, #1
 3254 0016 0AD0     		beq	.L297
 777:../app/app.c  **** 	{
 778:../app/app.c  **** 		case INIT_STATE:
 779:../app/app.c  **** 			/* add init code here */
 780:../app/app.c  **** 			osal_lyh_over_timer(OS_VIRAC_50HZ, Ms_10, app_virtual_croszero_cbfunc);
 781:../app/app.c  **** 			app_task_substep = INIT_READY_STATE;
 782:../app/app.c  **** 			break;
 783:../app/app.c  **** 		case INIT_READY_STATE:
 784:../app/app.c  **** 			osal_lyh_delay_task(Ms_2);
 785:../app/app.c  **** 			app_task_substep = INIT_END_STATE;
 786:../app/app.c  **** 			break;
 787:../app/app.c  **** 		case INIT_END_STATE:
 788:../app/app.c  **** 			app_task_nextstep(APP_IDLE_STATE, IDLE_INIT_STATE);
 789:../app/app.c  **** 			break;
 790:../app/app.c  **** 		default:
 791:../app/app.c  **** 			break;
 3255              		.loc 1 791 4
 3256 0018 15E0     		b	.L299
 3257              	.L296:
 780:../app/app.c  **** 			app_task_substep = INIT_READY_STATE;
 3258              		.loc 1 780 4
 3259 001a 0D4A     		ldr	r2, .L300+4
 3260 001c 0A21     		movs	r1, #10
 3261 001e 4FF40040 		mov	r0, #32768
 3262 0022 FFF7FEFF 		bl	osal_lyh_over_timer
 781:../app/app.c  **** 			break;
 3263              		.loc 1 781 21
 3264 0026 094B     		ldr	r3, .L300
 3265 0028 0122     		movs	r2, #1
 3266 002a 1A70     		strb	r2, [r3]
 782:../app/app.c  **** 		case INIT_READY_STATE:
 3267              		.loc 1 782 4
 3268 002c 0CE0     		b	.L298
 3269              	.L297:
 784:../app/app.c  **** 			app_task_substep = INIT_END_STATE;
 3270              		.loc 1 784 4
 3271 002e 0220     		movs	r0, #2
 3272 0030 FFF7FEFF 		bl	osal_lyh_delay_task
 785:../app/app.c  **** 			break;
 3273              		.loc 1 785 21
 3274 0034 054B     		ldr	r3, .L300
 3275 0036 0222     		movs	r2, #2
 3276 0038 1A70     		strb	r2, [r3]
 786:../app/app.c  **** 		case INIT_END_STATE:
 3277              		.loc 1 786 4
 3278 003a 05E0     		b	.L298
 3279              	.L294:
 788:../app/app.c  **** 			break;
 3280              		.loc 1 788 4
 3281 003c 0021     		movs	r1, #0
 3282 003e 0120     		movs	r0, #1
 3283 0040 FFF7FEFF 		bl	app_task_nextstep
 789:../app/app.c  **** 		default:
 3284              		.loc 1 789 4
 3285 0044 00E0     		b	.L298
 3286              	.L299:
 3287              		.loc 1 791 4
 3288 0046 00BF     		nop
 3289              	.L298:
 792:../app/app.c  **** 	}
 793:../app/app.c  **** }
 3290              		.loc 1 793 1
 3291 0048 00BF     		nop
 3292 004a 80BD     		pop	{r7, pc}
 3293              	.L301:
 3294              		.align	2
 3295              	.L300:
 3296 004c 00000000 		.word	app_task_substep
 3297 0050 00000000 		.word	app_virtual_croszero_cbfunc
 3298              		.cfi_endproc
 3299              	.LFE165:
 3301              		.section	.text.app_idle_handler,"ax",%progbits
 3302              		.align	1
 3303              		.global	app_idle_handler
 3304              		.syntax unified
 3305              		.thumb
 3306              		.thumb_func
 3307              		.fpu softvfp
 3309              	app_idle_handler:
 3310              	.LFB166:
 794:../app/app.c  **** 
 795:../app/app.c  **** /************************************************************************
 796:../app/app.c  **** * function name: app_idle_handler
 797:../app/app.c  **** * input: non
 798:../app/app.c  **** * output: non
 799:../app/app.c  **** * description: object thread
 800:../app/app.c  **** *************************************************************************/
 801:../app/app.c  **** void app_idle_handler(void)
 802:../app/app.c  **** {
 3311              		.loc 1 802 1
 3312              		.cfi_startproc
 3313              		@ args = 0, pretend = 0, frame = 0
 3314              		@ frame_needed = 1, uses_anonymous_args = 0
 3315 0000 80B5     		push	{r7, lr}
 3316              		.cfi_def_cfa_offset 8
 3317              		.cfi_offset 7, -8
 3318              		.cfi_offset 14, -4
 3319 0002 00AF     		add	r7, sp, #0
 3320              		.cfi_def_cfa_register 7
 803:../app/app.c  **** 	switch(app_task_substep)
 3321              		.loc 1 803 2
 3322 0004 0A4B     		ldr	r3, .L307
 3323 0006 1B78     		ldrb	r3, [r3]	@ zero_extendqisi2
 3324 0008 002B     		cmp	r3, #0
 3325 000a 02D0     		beq	.L303
 3326 000c 012B     		cmp	r3, #1
 3327 000e 08D0     		beq	.L304
 804:../app/app.c  **** 	{
 805:../app/app.c  **** 		case IDLE_INIT_STATE:
 806:../app/app.c  **** 			display_init();
 807:../app/app.c  **** 			app_turn_heat_off();
 808:../app/app.c  **** 			app_task_substep = IDLE_RUN_STATE;
 809:../app/app.c  **** 			break;
 810:../app/app.c  **** 		case IDLE_RUN_STATE:
 811:../app/app.c  **** 			osal_lyh_delay_task(Ms_500);
 812:../app/app.c  **** 			break;
 813:../app/app.c  **** 		default:
 814:../app/app.c  **** 			break;
 3328              		.loc 1 814 4
 3329 0010 0CE0     		b	.L306
 3330              	.L303:
 806:../app/app.c  **** 			app_turn_heat_off();
 3331              		.loc 1 806 4
 3332 0012 FFF7FEFF 		bl	display_init
 807:../app/app.c  **** 			app_task_substep = IDLE_RUN_STATE;
 3333              		.loc 1 807 4
 3334 0016 FFF7FEFF 		bl	app_turn_heat_off
 808:../app/app.c  **** 			break;
 3335              		.loc 1 808 21
 3336 001a 054B     		ldr	r3, .L307
 3337 001c 0122     		movs	r2, #1
 3338 001e 1A70     		strb	r2, [r3]
 809:../app/app.c  **** 		case IDLE_RUN_STATE:
 3339              		.loc 1 809 4
 3340 0020 04E0     		b	.L306
 3341              	.L304:
 811:../app/app.c  **** 			break;
 3342              		.loc 1 811 4
 3343 0022 4FF4FA70 		mov	r0, #500
 3344 0026 FFF7FEFF 		bl	osal_lyh_delay_task
 812:../app/app.c  **** 		default:
 3345              		.loc 1 812 4
 3346 002a 00BF     		nop
 3347              	.L306:
 815:../app/app.c  **** 	}
 816:../app/app.c  **** }
 3348              		.loc 1 816 1
 3349 002c 00BF     		nop
 3350 002e 80BD     		pop	{r7, pc}
 3351              	.L308:
 3352              		.align	2
 3353              	.L307:
 3354 0030 00000000 		.word	app_task_substep
 3355              		.cfi_endproc
 3356              	.LFE166:
 3358              		.section	.text.app_startup_handler,"ax",%progbits
 3359              		.align	1
 3360              		.global	app_startup_handler
 3361              		.syntax unified
 3362              		.thumb
 3363              		.thumb_func
 3364              		.fpu softvfp
 3366              	app_startup_handler:
 3367              	.LFB167:
 817:../app/app.c  **** 
 818:../app/app.c  **** /************************************************************************
 819:../app/app.c  **** * function name: app_startup_handler
 820:../app/app.c  **** * input: non
 821:../app/app.c  **** * output: non
 822:../app/app.c  **** * description: object thread
 823:../app/app.c  **** *************************************************************************/
 824:../app/app.c  **** void app_startup_handler(void)
 825:../app/app.c  **** {
 3368              		.loc 1 825 1
 3369              		.cfi_startproc
 3370              		@ args = 0, pretend = 0, frame = 0
 3371              		@ frame_needed = 1, uses_anonymous_args = 0
 3372 0000 80B5     		push	{r7, lr}
 3373              		.cfi_def_cfa_offset 8
 3374              		.cfi_offset 7, -8
 3375              		.cfi_offset 14, -4
 3376 0002 00AF     		add	r7, sp, #0
 3377              		.cfi_def_cfa_register 7
 826:../app/app.c  **** 	switch(app_task_substep)
 3378              		.loc 1 826 2
 3379 0004 BD4B     		ldr	r3, .L357
 3380 0006 1B78     		ldrb	r3, [r3]	@ zero_extendqisi2
 3381 0008 102B     		cmp	r3, #16
 3382 000a 00F2AD81 		bhi	.L353
 3383 000e 01A2     		adr	r2, .L312
 3384 0010 52F823F0 		ldr	pc, [r2, r3, lsl #2]
 3385              		.p2align 2
 3386              	.L312:
 3387 0014 59000000 		.word	.L328+1
 3388 0018 9B000000 		.word	.L327+1
 3389 001c C5000000 		.word	.L326+1
 3390 0020 07010000 		.word	.L325+1
 3391 0024 21010000 		.word	.L324+1
 3392 0028 59010000 		.word	.L323+1
 3393 002c 83010000 		.word	.L322+1
 3394 0030 BB010000 		.word	.L321+1
 3395 0034 D5010000 		.word	.L320+1
 3396 0038 0F020000 		.word	.L319+1
 3397 003c 23020000 		.word	.L318+1
 3398 0040 53020000 		.word	.L317+1
 3399 0044 6F020000 		.word	.L316+1
 3400 0048 B1020000 		.word	.L315+1
 3401 004c CD020000 		.word	.L314+1
 3402 0050 05030000 		.word	.L313+1
 3403 0054 31030000 		.word	.L311+1
 3404              		.p2align 1
 3405              	.L328:
 827:../app/app.c  **** 	{
 828:../app/app.c  **** 		/* ๅฏๅจๆต็จๅๅงๅ */
 829:../app/app.c  **** 		case STARTUP_INIT_STATE:
 830:../app/app.c  **** 			key_prohibit_setup(KEY_ONOFF_MASK, TRUE);		//ๅฑ่ฝon/off
 3406              		.loc 1 830 4
 3407 0058 0121     		movs	r1, #1
 3408 005a 0120     		movs	r0, #1
 3409 005c FFF7FEFF 		bl	key_prohibit_setup
 831:../app/app.c  **** 			app_task_substep = STARTUP_ENTRY_STATE;
 3410              		.loc 1 831 21
 3411 0060 A64B     		ldr	r3, .L357
 3412 0062 0122     		movs	r2, #1
 3413 0064 1A70     		strb	r2, [r3]
 832:../app/app.c  **** 			if (FAIL == app_pallet_ready()){
 3414              		.loc 1 832 16
 3415 0066 FFF7FEFF 		bl	app_pallet_ready
 3416 006a 0346     		mov	r3, r0
 3417              		.loc 1 832 7
 3418 006c 002B     		cmp	r3, #0
 3419 006e 06D1     		bne	.L329
 833:../app/app.c  **** 				display_led(PALLET_ERR_LED, LED_ON);
 3420              		.loc 1 833 5
 3421 0070 0121     		movs	r1, #1
 3422 0072 0820     		movs	r0, #8
 3423 0074 FFF7FEFF 		bl	display_led
 834:../app/app.c  **** 				app_task_substep = STARTUP_FAIL_STATE;
 3424              		.loc 1 834 22
 3425 0078 A04B     		ldr	r3, .L357
 3426 007a 1022     		movs	r2, #16
 3427 007c 1A70     		strb	r2, [r3]
 3428              	.L329:
 835:../app/app.c  **** 			}
 836:../app/app.c  **** 			if (FAIL == app_water_ready()){
 3429              		.loc 1 836 16
 3430 007e FFF7FEFF 		bl	app_water_ready
 3431 0082 0346     		mov	r3, r0
 3432              		.loc 1 836 7
 3433 0084 002B     		cmp	r3, #0
 3434 0086 40F07181 		bne	.L354
 837:../app/app.c  **** 				display_led(WATER_ERR_LED, LED_ON);
 3435              		.loc 1 837 5
 3436 008a 0121     		movs	r1, #1
 3437 008c 0E20     		movs	r0, #14
 3438 008e FFF7FEFF 		bl	display_led
 838:../app/app.c  **** 				app_task_substep = STARTUP_FAIL_STATE;
 3439              		.loc 1 838 22
 3440 0092 9A4B     		ldr	r3, .L357
 3441 0094 1022     		movs	r2, #16
 3442 0096 1A70     		strb	r2, [r3]
 839:../app/app.c  **** 			}
 840:../app/app.c  **** 			break;
 3443              		.loc 1 840 4
 3444 0098 68E1     		b	.L354
 3445              	.L327:
 841:../app/app.c  **** 		/* ๆต็จๅผๅง๏ผLEDๆตๆฐด็ฏใ็ตๆบๅจไฝใๅผๅฏๅ ็ญ */	
 842:../app/app.c  **** 		case STARTUP_ENTRY_STATE:
 843:../app/app.c  **** 			app_led_show_init();
 3446              		.loc 1 843 4
 3447 009a FFF7FEFF 		bl	app_led_show_init
 844:../app/app.c  **** 			dc_motor_ClearFault();
 3448              		.loc 1 844 4
 3449 009e FFF7FEFF 		bl	dc_motor_ClearFault
 845:../app/app.c  **** 			dc_motor_Start(MOTOR_RIGHT);
 3450              		.loc 1 845 4
 3451 00a2 0120     		movs	r0, #1
 3452 00a4 FFF7FEFF 		bl	dc_motor_Start
 846:../app/app.c  **** 			app_turn_heat_on(TARGET_TEMP_107D);
 3453              		.loc 1 846 4
 3454 00a8 40F6BA00 		movw	r0, #2234
 3455 00ac FFF7FEFF 		bl	app_turn_heat_on
 847:../app/app.c  **** 			app_task_substep = STARTUP_RIGHT_RST_STATE;
 3456              		.loc 1 847 21
 3457 00b0 924B     		ldr	r3, .L357
 3458 00b2 0222     		movs	r2, #2
 3459 00b4 1A70     		strb	r2, [r3]
 848:../app/app.c  **** 			run_max_time = RIGHT_TIMER(Ms_2000, Ms_100);
 3460              		.loc 1 848 17
 3461 00b6 924B     		ldr	r3, .L357+4
 3462 00b8 1422     		movs	r2, #20
 3463 00ba 1A80     		strh	r2, [r3]	@ movhi
 849:../app/app.c  **** 			osal_lyh_delay_task(Ms_100);
 3464              		.loc 1 849 4
 3465 00bc 6420     		movs	r0, #100
 3466 00be FFF7FEFF 		bl	osal_lyh_delay_task
 850:../app/app.c  **** 			break;
 3467              		.loc 1 850 4
 3468 00c2 56E1     		b	.L331
 3469              	.L326:
 851:../app/app.c  **** 		/* ๅคๆญ็ตๆบๆฏๅฆๅฐ่งฆ็น */	
 852:../app/app.c  **** 		case STARTUP_RIGHT_RST_STATE:
 853:../app/app.c  **** 			if ((MOTOR_STATE_STOPED == dc_motor_GetState())
 3470              		.loc 1 853 31
 3471 00c4 FFF7FEFF 		bl	dc_motor_GetState
 3472 00c8 0346     		mov	r3, r0
 3473              		.loc 1 853 7
 3474 00ca 002B     		cmp	r3, #0
 3475 00cc 0ED0     		beq	.L332
 854:../app/app.c  **** 				|| (TRUE == app_motor_ready())
 3476              		.loc 1 854 17
 3477 00ce FFF7FEFF 		bl	app_motor_ready
 3478 00d2 0346     		mov	r3, r0
 3479              		.loc 1 854 5
 3480 00d4 012B     		cmp	r3, #1
 3481 00d6 09D0     		beq	.L332
 855:../app/app.c  **** 				|| (--run_max_time == 0)){
 3482              		.loc 1 855 9
 3483 00d8 894B     		ldr	r3, .L357+4
 3484 00da 1B88     		ldrh	r3, [r3]
 3485 00dc 013B     		subs	r3, r3, #1
 3486 00de 9AB2     		uxth	r2, r3
 3487              		.loc 1 855 5
 3488 00e0 874B     		ldr	r3, .L357+4
 3489 00e2 1A80     		strh	r2, [r3]	@ movhi
 3490              		.loc 1 855 9
 3491 00e4 864B     		ldr	r3, .L357+4
 3492 00e6 1B88     		ldrh	r3, [r3]
 3493              		.loc 1 855 5
 3494 00e8 002B     		cmp	r3, #0
 3495 00ea 08D1     		bne	.L333
 3496              	.L332:
 856:../app/app.c  **** 				dc_motor_Stop();
 3497              		.loc 1 856 5
 3498 00ec FFF7FEFF 		bl	dc_motor_Stop
 857:../app/app.c  **** 				osal_lyh_delay_task(Ms_200);
 3499              		.loc 1 857 5
 3500 00f0 C820     		movs	r0, #200
 3501 00f2 FFF7FEFF 		bl	osal_lyh_delay_task
 858:../app/app.c  **** 				app_task_substep = STARTUP_LEFT_STATE;
 3502              		.loc 1 858 22
 3503 00f6 814B     		ldr	r3, .L357
 3504 00f8 0322     		movs	r2, #3
 3505 00fa 1A70     		strb	r2, [r3]
 859:../app/app.c  **** 			}
 860:../app/app.c  **** 			else {
 861:../app/app.c  **** 				osal_lyh_delay_task(Ms_100);
 862:../app/app.c  **** 			}
 863:../app/app.c  **** 			break;
 3506              		.loc 1 863 4
 3507 00fc 39E1     		b	.L331
 3508              	.L333:
 861:../app/app.c  **** 			}
 3509              		.loc 1 861 5
 3510 00fe 6420     		movs	r0, #100
 3511 0100 FFF7FEFF 		bl	osal_lyh_delay_task
 3512              		.loc 1 863 4
 3513 0104 35E1     		b	.L331
 3514              	.L325:
 864:../app/app.c  **** 		/* ็ตๆบๅ่ฝฌๅฐๅ็น */	
 865:../app/app.c  **** 		case STARTUP_LEFT_STATE:
 866:../app/app.c  **** 			dc_motor_Start(MOTOR_LEFT);
 3515              		.loc 1 866 4
 3516 0106 0220     		movs	r0, #2
 3517 0108 FFF7FEFF 		bl	dc_motor_Start
 867:../app/app.c  **** 			osal_lyh_delay_task(Ms_100);
 3518              		.loc 1 867 4
 3519 010c 6420     		movs	r0, #100
 3520 010e FFF7FEFF 		bl	osal_lyh_delay_task
 868:../app/app.c  **** 			run_max_time = LEFT_TIMER(MOTOR_FIX_TIME, Ms_100);
 3521              		.loc 1 868 17
 3522 0112 7B4B     		ldr	r3, .L357+4
 3523 0114 0322     		movs	r2, #3
 3524 0116 1A80     		strh	r2, [r3]	@ movhi
 869:../app/app.c  **** 			app_task_substep = STARTUP_LEFT_RST_STATE;
 3525              		.loc 1 869 21
 3526 0118 784B     		ldr	r3, .L357
 3527 011a 0422     		movs	r2, #4
 3528 011c 1A70     		strb	r2, [r3]
 870:../app/app.c  **** 			break;
 3529              		.loc 1 870 4
 3530 011e 28E1     		b	.L331
 3531              	.L324:
 871:../app/app.c  **** 		/* ๅคๆญ็ตๆบๆฏๅฆ่ฝฌๅๅ็น */	
 872:../app/app.c  **** 		case STARTUP_LEFT_RST_STATE:
 873:../app/app.c  **** 			if (1/*(FAIL == app_motor_ready())*/	// deleting point,(temp to cancel) 
 874:../app/app.c  **** 				&& ((MOTOR_STATE_STOPED == dc_motor_GetState())
 3532              		.loc 1 874 32
 3533 0120 FFF7FEFF 		bl	dc_motor_GetState
 3534 0124 0346     		mov	r3, r0
 873:../app/app.c  **** 				&& ((MOTOR_STATE_STOPED == dc_motor_GetState())
 3535              		.loc 1 873 7
 3536 0126 002B     		cmp	r3, #0
 3537 0128 09D0     		beq	.L335
 875:../app/app.c  **** 				|| (--run_max_time == 0))){
 3538              		.loc 1 875 9
 3539 012a 754B     		ldr	r3, .L357+4
 3540 012c 1B88     		ldrh	r3, [r3]
 3541 012e 013B     		subs	r3, r3, #1
 3542 0130 9AB2     		uxth	r2, r3
 874:../app/app.c  **** 				|| (--run_max_time == 0))){
 3543              		.loc 1 874 5
 3544 0132 734B     		ldr	r3, .L357+4
 3545 0134 1A80     		strh	r2, [r3]	@ movhi
 3546              		.loc 1 875 9
 3547 0136 724B     		ldr	r3, .L357+4
 3548 0138 1B88     		ldrh	r3, [r3]
 874:../app/app.c  **** 				|| (--run_max_time == 0))){
 3549              		.loc 1 874 5
 3550 013a 002B     		cmp	r3, #0
 3551 013c 08D1     		bne	.L336
 3552              	.L335:
 876:../app/app.c  **** 				dc_motor_Stop();
 3553              		.loc 1 876 5
 3554 013e FFF7FEFF 		bl	dc_motor_Stop
 877:../app/app.c  **** 				key_prohibit_setup(KEY_ONOFF_MASK, FAIL);
 3555              		.loc 1 877 5
 3556 0142 0021     		movs	r1, #0
 3557 0144 0120     		movs	r0, #1
 3558 0146 FFF7FEFF 		bl	key_prohibit_setup
 878:../app/app.c  **** 				app_task_substep = STARTUP_HEAT_RDY_STATE;
 3559              		.loc 1 878 22
 3560 014a 6C4B     		ldr	r3, .L357
 3561 014c 0522     		movs	r2, #5
 3562 014e 1A70     		strb	r2, [r3]
 3563              	.L336:
 879:../app/app.c  **** 			}
 880:../app/app.c  **** 			osal_lyh_delay_task(Ms_100);
 3564              		.loc 1 880 4
 3565 0150 6420     		movs	r0, #100
 3566 0152 FFF7FEFF 		bl	osal_lyh_delay_task
 881:../app/app.c  **** 			break;
 3567              		.loc 1 881 4
 3568 0156 0CE1     		b	.L331
 3569              	.L323:
 882:../app/app.c  **** 		/* ๅคๆญๆธฉๅบฆๆฏๅฆๅฐ่พพ */	
 883:../app/app.c  **** 		case STARTUP_HEAT_RDY_STATE:
 884:../app/app.c  **** 			if (TRUE == app_temperature_state(TARGET_TEMP_107D)){
 3570              		.loc 1 884 16
 3571 0158 40F6BA00 		movw	r0, #2234
 3572 015c FFF7FEFF 		bl	app_temperature_state
 3573 0160 0346     		mov	r3, r0
 3574              		.loc 1 884 7
 3575 0162 012B     		cmp	r3, #1
 3576 0164 03D1     		bne	.L337
 885:../app/app.c  **** 				app_task_substep = STARTUP_COMPLETE_STATE;
 3577              		.loc 1 885 22
 3578 0166 654B     		ldr	r3, .L357
 3579 0168 0F22     		movs	r2, #15
 3580 016a 1A70     		strb	r2, [r3]
 3581 016c 05E0     		b	.L338
 3582              	.L337:
 886:../app/app.c  **** 			}
 887:../app/app.c  **** 			else {
 888:../app/app.c  **** 				run_max_time = HEAT_MAX_TIMER(Ms_100);
 3583              		.loc 1 888 18
 3584 016e 644B     		ldr	r3, .L357+4
 3585 0170 C822     		movs	r2, #200
 3586 0172 1A80     		strh	r2, [r3]	@ movhi
 889:../app/app.c  **** 				app_task_substep = STARTUP_HEAT_ING_STATE;
 3587              		.loc 1 889 22
 3588 0174 614B     		ldr	r3, .L357
 3589 0176 0622     		movs	r2, #6
 3590 0178 1A70     		strb	r2, [r3]
 3591              	.L338:
 890:../app/app.c  **** 			}
 891:../app/app.c  **** 			osal_lyh_delay_task(Ms_100);
 3592              		.loc 1 891 4
 3593 017a 6420     		movs	r0, #100
 3594 017c FFF7FEFF 		bl	osal_lyh_delay_task
 892:../app/app.c  **** 			break;	
 3595              		.loc 1 892 4
 3596 0180 F7E0     		b	.L331
 3597              	.L322:
 893:../app/app.c  **** 		case STARTUP_HEAT_ING_STATE:
 894:../app/app.c  **** 			if ((TRUE == app_temperature_state(TARGET_TEMP_107D))
 3598              		.loc 1 894 17
 3599 0182 40F6BA00 		movw	r0, #2234
 3600 0186 FFF7FEFF 		bl	app_temperature_state
 3601 018a 0346     		mov	r3, r0
 3602              		.loc 1 894 7
 3603 018c 012B     		cmp	r3, #1
 3604 018e 09D0     		beq	.L339
 895:../app/app.c  **** 				|| (--run_max_time == 0)){
 3605              		.loc 1 895 9
 3606 0190 5B4B     		ldr	r3, .L357+4
 3607 0192 1B88     		ldrh	r3, [r3]
 3608 0194 013B     		subs	r3, r3, #1
 3609 0196 9AB2     		uxth	r2, r3
 3610              		.loc 1 895 5
 3611 0198 594B     		ldr	r3, .L357+4
 3612 019a 1A80     		strh	r2, [r3]	@ movhi
 3613              		.loc 1 895 9
 3614 019c 584B     		ldr	r3, .L357+4
 3615 019e 1B88     		ldrh	r3, [r3]
 3616              		.loc 1 895 5
 3617 01a0 002B     		cmp	r3, #0
 3618 01a2 06D1     		bne	.L340
 3619              	.L339:
 896:../app/app.c  **** 				display_led(START_LED, LED_ON);
 3620              		.loc 1 896 5
 3621 01a4 0121     		movs	r1, #1
 3622 01a6 0520     		movs	r0, #5
 3623 01a8 FFF7FEFF 		bl	display_led
 897:../app/app.c  **** 				app_task_substep = STARTUP_HEAT_END_STATE;
 3624              		.loc 1 897 22
 3625 01ac 534B     		ldr	r3, .L357
 3626 01ae 0722     		movs	r2, #7
 3627 01b0 1A70     		strb	r2, [r3]
 3628              	.L340:
 898:../app/app.c  **** 			}
 899:../app/app.c  **** 			osal_lyh_delay_task(Ms_100);
 3629              		.loc 1 899 4
 3630 01b2 6420     		movs	r0, #100
 3631 01b4 FFF7FEFF 		bl	osal_lyh_delay_task
 900:../app/app.c  **** 			break;
 3632              		.loc 1 900 4
 3633 01b8 DBE0     		b	.L331
 3634              	.L321:
 901:../app/app.c  **** 		/* ็ตๆบ่ฝฌๅ่ๅไฝ็ฝฎ */	
 902:../app/app.c  **** 		case STARTUP_HEAT_END_STATE:
 903:../app/app.c  **** 			dc_motor_Start(MOTOR_LEFT);
 3635              		.loc 1 903 4
 3636 01ba 0220     		movs	r0, #2
 3637 01bc FFF7FEFF 		bl	dc_motor_Start
 904:../app/app.c  **** 			osal_lyh_delay_task(Ms_100);
 3638              		.loc 1 904 4
 3639 01c0 6420     		movs	r0, #100
 3640 01c2 FFF7FEFF 		bl	osal_lyh_delay_task
 905:../app/app.c  **** 			run_max_time = LEFT_TIMER(Ms_6000, Ms_100);
 3641              		.loc 1 905 17
 3642 01c6 4E4B     		ldr	r3, .L357+4
 3643 01c8 3C22     		movs	r2, #60
 3644 01ca 1A80     		strh	r2, [r3]	@ movhi
 906:../app/app.c  **** 			app_task_substep = STARTUP_LEFT_MOVE_STATE;
 3645              		.loc 1 906 21
 3646 01cc 4B4B     		ldr	r3, .L357
 3647 01ce 0822     		movs	r2, #8
 3648 01d0 1A70     		strb	r2, [r3]
 907:../app/app.c  **** 			break;
 3649              		.loc 1 907 4
 3650 01d2 CEE0     		b	.L331
 3651              	.L320:
 908:../app/app.c  **** 		/* ๅคๆญ็ตๆบๆฏๅฆๅฐ่พพ่ๅไฝ็ฝฎ */	
 909:../app/app.c  **** 		case STARTUP_LEFT_MOVE_STATE:
 910:../app/app.c  **** 			if ((MOTOR_STATE_STOPED == dc_motor_GetState())
 3652              		.loc 1 910 31
 3653 01d4 FFF7FEFF 		bl	dc_motor_GetState
 3654 01d8 0346     		mov	r3, r0
 3655              		.loc 1 910 7
 3656 01da 002B     		cmp	r3, #0
 3657 01dc 0ED0     		beq	.L341
 911:../app/app.c  **** 				|| (TRUE == app_motor_ready())
 3658              		.loc 1 911 17
 3659 01de FFF7FEFF 		bl	app_motor_ready
 3660 01e2 0346     		mov	r3, r0
 3661              		.loc 1 911 5
 3662 01e4 012B     		cmp	r3, #1
 3663 01e6 09D0     		beq	.L341
 912:../app/app.c  **** 				|| (--run_max_time == 0)){
 3664              		.loc 1 912 9
 3665 01e8 454B     		ldr	r3, .L357+4
 3666 01ea 1B88     		ldrh	r3, [r3]
 3667 01ec 013B     		subs	r3, r3, #1
 3668 01ee 9AB2     		uxth	r2, r3
 3669              		.loc 1 912 5
 3670 01f0 434B     		ldr	r3, .L357+4
 3671 01f2 1A80     		strh	r2, [r3]	@ movhi
 3672              		.loc 1 912 9
 3673 01f4 424B     		ldr	r3, .L357+4
 3674 01f6 1B88     		ldrh	r3, [r3]
 3675              		.loc 1 912 5
 3676 01f8 002B     		cmp	r3, #0
 3677 01fa 04D1     		bne	.L342
 3678              	.L341:
 913:../app/app.c  **** 				dc_motor_Stop();
 3679              		.loc 1 913 5
 3680 01fc FFF7FEFF 		bl	dc_motor_Stop
 914:../app/app.c  **** 				app_task_substep = STARTUP_WATER_RDY_STATE;
 3681              		.loc 1 914 22
 3682 0200 3E4B     		ldr	r3, .L357
 3683 0202 0922     		movs	r2, #9
 3684 0204 1A70     		strb	r2, [r3]
 3685              	.L342:
 915:../app/app.c  **** 			}
 916:../app/app.c  **** 			osal_lyh_delay_task(Ms_100);
 3686              		.loc 1 916 4
 3687 0206 6420     		movs	r0, #100
 3688 0208 FFF7FEFF 		bl	osal_lyh_delay_task
 917:../app/app.c  **** 			break;
 3689              		.loc 1 917 4
 3690 020c B1E0     		b	.L331
 3691              	.L319:
 918:../app/app.c  **** 		/* ๆฝๆฐดๅฒๆด */	
 919:../app/app.c  **** 		case STARTUP_WATER_RDY_STATE:
 920:../app/app.c  **** 			ac_pumb_start(CONTINUE_MODE);
 3692              		.loc 1 920 4
 3693 020e 0020     		movs	r0, #0
 3694 0210 FFF7FEFF 		bl	ac_pumb_start
 921:../app/app.c  **** 			run_max_time = WATER_MAX_TIMER(Ms_100);
 3695              		.loc 1 921 17
 3696 0214 3A4B     		ldr	r3, .L357+4
 3697 0216 6422     		movs	r2, #100
 3698 0218 1A80     		strh	r2, [r3]	@ movhi
 922:../app/app.c  **** 			app_task_substep = STARTUP_WATER_ING_STATE;
 3699              		.loc 1 922 21
 3700 021a 384B     		ldr	r3, .L357
 3701 021c 0A22     		movs	r2, #10
 3702 021e 1A70     		strb	r2, [r3]
 923:../app/app.c  **** 			break;	
 3703              		.loc 1 923 4
 3704 0220 A7E0     		b	.L331
 3705              	.L318:
 924:../app/app.c  **** 		case STARTUP_WATER_ING_STATE:
 925:../app/app.c  **** 			if (--run_max_time == 0){
 3706              		.loc 1 925 8
 3707 0222 374B     		ldr	r3, .L357+4
 3708 0224 1B88     		ldrh	r3, [r3]
 3709 0226 013B     		subs	r3, r3, #1
 3710 0228 9AB2     		uxth	r2, r3
 3711              		.loc 1 925 7
 3712 022a 354B     		ldr	r3, .L357+4
 3713 022c 1A80     		strh	r2, [r3]	@ movhi
 3714              		.loc 1 925 8
 3715 022e 344B     		ldr	r3, .L357+4
 3716 0230 1B88     		ldrh	r3, [r3]
 3717              		.loc 1 925 7
 3718 0232 002B     		cmp	r3, #0
 3719 0234 09D1     		bne	.L343
 926:../app/app.c  **** 				ac_pumb_stop();
 3720              		.loc 1 926 5
 3721 0236 FFF7FEFF 		bl	ac_pumb_stop
 927:../app/app.c  **** 				osal_lyh_delay_task(Ms_6000);
 3722              		.loc 1 927 5
 3723 023a 41F27070 		movw	r0, #6000
 3724 023e FFF7FEFF 		bl	osal_lyh_delay_task
 928:../app/app.c  **** 				app_task_substep = STARTUP_WATER_END_STATE;
 3725              		.loc 1 928 22
 3726 0242 2E4B     		ldr	r3, .L357
 3727 0244 0B22     		movs	r2, #11
 3728 0246 1A70     		strb	r2, [r3]
 929:../app/app.c  **** 			}
 930:../app/app.c  **** 			else {
 931:../app/app.c  **** 				osal_lyh_delay_task(Ms_100);
 932:../app/app.c  **** 			}
 933:../app/app.c  **** 			break;
 3729              		.loc 1 933 4
 3730 0248 93E0     		b	.L331
 3731              	.L343:
 931:../app/app.c  **** 			}
 3732              		.loc 1 931 5
 3733 024a 6420     		movs	r0, #100
 3734 024c FFF7FEFF 		bl	osal_lyh_delay_task
 3735              		.loc 1 933 4
 3736 0250 8FE0     		b	.L331
 3737              	.L317:
 934:../app/app.c  **** 		/* ็ตๆบ่ฝฌๅๅไฝ */	
 935:../app/app.c  **** 		case STARTUP_WATER_END_STATE:
 936:../app/app.c  **** 			osal_lyh_delay_task(Ms_1500);	// wait motor to move the detecting point
 3738              		.loc 1 936 4
 3739 0252 40F2DC50 		movw	r0, #1500
 3740 0256 FFF7FEFF 		bl	osal_lyh_delay_task
 937:../app/app.c  **** 			dc_motor_Start(MOTOR_RIGHT);
 3741              		.loc 1 937 4
 3742 025a 0120     		movs	r0, #1
 3743 025c FFF7FEFF 		bl	dc_motor_Start
 938:../app/app.c  **** 			run_max_time = RIGHT_TIMER(Ms_6000, Ms_100);
 3744              		.loc 1 938 17
 3745 0260 274B     		ldr	r3, .L357+4
 3746 0262 3C22     		movs	r2, #60
 3747 0264 1A80     		strh	r2, [r3]	@ movhi
 939:../app/app.c  **** 			app_task_substep = STARTUP_RIGHT_MOVE_STATE;
 3748              		.loc 1 939 21
 3749 0266 254B     		ldr	r3, .L357
 3750 0268 0C22     		movs	r2, #12
 3751 026a 1A70     		strb	r2, [r3]
 940:../app/app.c  **** 			break;
 3752              		.loc 1 940 4
 3753 026c 81E0     		b	.L331
 3754              	.L316:
 941:../app/app.c  **** 		/* ๅคๆญ็ตๆบๆฏๅฆ่งฆ็ขฐ่งฆ็น */	
 942:../app/app.c  **** 		case STARTUP_RIGHT_MOVE_STATE:
 943:../app/app.c  **** 			if ((MOTOR_STATE_STOPED ==dc_motor_GetState())
 3755              		.loc 1 943 30
 3756 026e FFF7FEFF 		bl	dc_motor_GetState
 3757 0272 0346     		mov	r3, r0
 3758              		.loc 1 943 7
 3759 0274 002B     		cmp	r3, #0
 3760 0276 0ED0     		beq	.L345
 944:../app/app.c  **** 				|| (TRUE == app_motor_ready())
 3761              		.loc 1 944 17
 3762 0278 FFF7FEFF 		bl	app_motor_ready
 3763 027c 0346     		mov	r3, r0
 3764              		.loc 1 944 5
 3765 027e 012B     		cmp	r3, #1
 3766 0280 09D0     		beq	.L345
 945:../app/app.c  **** 				|| (--run_max_time == 0)){
 3767              		.loc 1 945 9
 3768 0282 1F4B     		ldr	r3, .L357+4
 3769 0284 1B88     		ldrh	r3, [r3]
 3770 0286 013B     		subs	r3, r3, #1
 3771 0288 9AB2     		uxth	r2, r3
 3772              		.loc 1 945 5
 3773 028a 1D4B     		ldr	r3, .L357+4
 3774 028c 1A80     		strh	r2, [r3]	@ movhi
 3775              		.loc 1 945 9
 3776 028e 1C4B     		ldr	r3, .L357+4
 3777 0290 1B88     		ldrh	r3, [r3]
 3778              		.loc 1 945 5
 3779 0292 002B     		cmp	r3, #0
 3780 0294 08D1     		bne	.L346
 3781              	.L345:
 946:../app/app.c  **** 				dc_motor_Stop();
 3782              		.loc 1 946 5
 3783 0296 FFF7FEFF 		bl	dc_motor_Stop
 947:../app/app.c  **** 				osal_lyh_delay_task(Ms_200);
 3784              		.loc 1 947 5
 3785 029a C820     		movs	r0, #200
 3786 029c FFF7FEFF 		bl	osal_lyh_delay_task
 948:../app/app.c  **** 				app_task_substep = STARTUP_LEFT_START_STATE;
 3787              		.loc 1 948 22
 3788 02a0 164B     		ldr	r3, .L357
 3789 02a2 0D22     		movs	r2, #13
 3790 02a4 1A70     		strb	r2, [r3]
 949:../app/app.c  **** 			}
 950:../app/app.c  **** 			else {
 951:../app/app.c  **** 				osal_lyh_delay_task(Ms_100);
 952:../app/app.c  **** 			}
 953:../app/app.c  **** 			break;
 3791              		.loc 1 953 4
 3792 02a6 64E0     		b	.L331
 3793              	.L346:
 951:../app/app.c  **** 			}
 3794              		.loc 1 951 5
 3795 02a8 6420     		movs	r0, #100
 3796 02aa FFF7FEFF 		bl	osal_lyh_delay_task
 3797              		.loc 1 953 4
 3798 02ae 60E0     		b	.L331
 3799              	.L315:
 954:../app/app.c  **** 		/* ็ตๆบๅ่ฝฌ */	
 955:../app/app.c  **** 		case STARTUP_LEFT_START_STATE:
 956:../app/app.c  **** 			display_led(START_LED, LED_OFF);
 3800              		.loc 1 956 4
 3801 02b0 0021     		movs	r1, #0
 3802 02b2 0520     		movs	r0, #5
 3803 02b4 FFF7FEFF 		bl	display_led
 957:../app/app.c  **** 			dc_motor_Start(MOTOR_LEFT);
 3804              		.loc 1 957 4
 3805 02b8 0220     		movs	r0, #2
 3806 02ba FFF7FEFF 		bl	dc_motor_Start
 958:../app/app.c  **** 			run_max_time = LEFT_TIMER(MOTOR_FIX_TIME, Ms_100);
 3807              		.loc 1 958 17
 3808 02be 104B     		ldr	r3, .L357+4
 3809 02c0 0322     		movs	r2, #3
 3810 02c2 1A80     		strh	r2, [r3]	@ movhi
 959:../app/app.c  **** 			app_task_substep = STARTUP_LEFT_END_STATE;
 3811              		.loc 1 959 21
 3812 02c4 0D4B     		ldr	r3, .L357
 3813 02c6 0E22     		movs	r2, #14
 3814 02c8 1A70     		strb	r2, [r3]
 960:../app/app.c  **** 			break;
 3815              		.loc 1 960 4
 3816 02ca 52E0     		b	.L331
 3817              	.L314:
 961:../app/app.c  **** 		/* ๅคๆญ็ตๆบๆฏๅฆๅ่ฝฌๅฎๆ */	
 962:../app/app.c  **** 		case STARTUP_LEFT_END_STATE:
 963:../app/app.c  **** 			if (1/*(FAIL == app_motor_ready())*/	// deleting point,(temp to cancel)
 964:../app/app.c  **** 				&& ((MOTOR_STATE_STOPED ==dc_motor_GetState())
 3818              		.loc 1 964 31
 3819 02cc FFF7FEFF 		bl	dc_motor_GetState
 3820 02d0 0346     		mov	r3, r0
 963:../app/app.c  **** 				&& ((MOTOR_STATE_STOPED ==dc_motor_GetState())
 3821              		.loc 1 963 7
 3822 02d2 002B     		cmp	r3, #0
 3823 02d4 09D0     		beq	.L348
 965:../app/app.c  **** 				|| (--run_max_time == 0))){
 3824              		.loc 1 965 9
 3825 02d6 0A4B     		ldr	r3, .L357+4
 3826 02d8 1B88     		ldrh	r3, [r3]
 3827 02da 013B     		subs	r3, r3, #1
 3828 02dc 9AB2     		uxth	r2, r3
 964:../app/app.c  **** 				|| (--run_max_time == 0))){
 3829              		.loc 1 964 5
 3830 02de 084B     		ldr	r3, .L357+4
 3831 02e0 1A80     		strh	r2, [r3]	@ movhi
 3832              		.loc 1 965 9
 3833 02e2 074B     		ldr	r3, .L357+4
 3834 02e4 1B88     		ldrh	r3, [r3]
 964:../app/app.c  **** 				|| (--run_max_time == 0))){
 3835              		.loc 1 964 5
 3836 02e6 002B     		cmp	r3, #0
 3837 02e8 04D1     		bne	.L349
 3838              	.L348:
 966:../app/app.c  **** 				dc_motor_Stop();
 3839              		.loc 1 966 5
 3840 02ea FFF7FEFF 		bl	dc_motor_Stop
 967:../app/app.c  **** 				app_task_substep = STARTUP_COMPLETE_STATE;
 3841              		.loc 1 967 22
 3842 02ee 034B     		ldr	r3, .L357
 3843 02f0 0F22     		movs	r2, #15
 3844 02f2 1A70     		strb	r2, [r3]
 3845              	.L349:
 968:../app/app.c  **** 			}
 969:../app/app.c  **** 			osal_lyh_delay_task(Ms_100);
 3846              		.loc 1 969 4
 3847 02f4 6420     		movs	r0, #100
 3848 02f6 FFF7FEFF 		bl	osal_lyh_delay_task
 970:../app/app.c  **** 			break;
 3849              		.loc 1 970 4
 3850 02fa 3AE0     		b	.L331
 3851              	.L358:
 3852              		.align	2
 3853              	.L357:
 3854 02fc 00000000 		.word	app_task_substep
 3855 0300 00000000 		.word	run_max_time
 3856              	.L313:
 971:../app/app.c  **** 		/* ๅฏๅจๅฎๆ */	
 972:../app/app.c  **** 		case STARTUP_COMPLETE_STATE:
 973:../app/app.c  **** 			key_prohibit_setup(KEY_ONOFF_MASK, FAIL);
 3857              		.loc 1 973 4
 3858 0304 0021     		movs	r1, #0
 3859 0306 0120     		movs	r0, #1
 3860 0308 FFF7FEFF 		bl	key_prohibit_setup
 974:../app/app.c  **** 			app_turn_heat_off();
 3861              		.loc 1 974 4
 3862 030c FFF7FEFF 		bl	app_turn_heat_off
 975:../app/app.c  **** 			if (TRUE == app_led_oneloop()){
 3863              		.loc 1 975 16
 3864 0310 FFF7FEFF 		bl	app_led_oneloop
 3865 0314 0346     		mov	r3, r0
 3866              		.loc 1 975 7
 3867 0316 012B     		cmp	r3, #1
 3868 0318 2AD1     		bne	.L355
 976:../app/app.c  **** 				app_leds_all_fun(LED_ON);
 3869              		.loc 1 976 5
 3870 031a 0120     		movs	r0, #1
 3871 031c FFF7FEFF 		bl	app_leds_all_fun
 977:../app/app.c  **** 				osal_lyh_kill_over_timer(OS_LED_TIME);
 3872              		.loc 1 977 5
 3873 0320 0220     		movs	r0, #2
 3874 0322 FFF7FEFF 		bl	osal_lyh_kill_over_timer
 978:../app/app.c  **** 				app_task_nextstep(APP_NORMAL_STATE, NORMAL_INIT_STATE);
 3875              		.loc 1 978 5
 3876 0326 0021     		movs	r1, #0
 3877 0328 0320     		movs	r0, #3
 3878 032a FFF7FEFF 		bl	app_task_nextstep
 979:../app/app.c  **** 			}
 980:../app/app.c  **** 			break;
 3879              		.loc 1 980 4
 3880 032e 1FE0     		b	.L355
 3881              	.L311:
 981:../app/app.c  **** 		case STARTUP_FAIL_STATE:
 982:../app/app.c  **** 			if (TRUE == app_pallet_ready()){
 3882              		.loc 1 982 16
 3883 0330 FFF7FEFF 		bl	app_pallet_ready
 3884 0334 0346     		mov	r3, r0
 3885              		.loc 1 982 7
 3886 0336 012B     		cmp	r3, #1
 3887 0338 06D1     		bne	.L351
 983:../app/app.c  **** 				display_led(PALLET_ERR_LED, LED_OFF);
 3888              		.loc 1 983 5
 3889 033a 0021     		movs	r1, #0
 3890 033c 0820     		movs	r0, #8
 3891 033e FFF7FEFF 		bl	display_led
 984:../app/app.c  **** 				app_task_substep = STARTUP_INIT_STATE;
 3892              		.loc 1 984 22
 3893 0342 0D4B     		ldr	r3, .L359
 3894 0344 0022     		movs	r2, #0
 3895 0346 1A70     		strb	r2, [r3]
 3896              	.L351:
 985:../app/app.c  **** 			}
 986:../app/app.c  **** 			if (TRUE == app_water_ready()){
 3897              		.loc 1 986 16
 3898 0348 FFF7FEFF 		bl	app_water_ready
 3899 034c 0346     		mov	r3, r0
 3900              		.loc 1 986 7
 3901 034e 012B     		cmp	r3, #1
 3902 0350 06D1     		bne	.L352
 987:../app/app.c  **** 				display_led(WATER_ERR_LED, LED_OFF);
 3903              		.loc 1 987 5
 3904 0352 0021     		movs	r1, #0
 3905 0354 0E20     		movs	r0, #14
 3906 0356 FFF7FEFF 		bl	display_led
 988:../app/app.c  **** 				app_task_substep = STARTUP_INIT_STATE;
 3907              		.loc 1 988 22
 3908 035a 074B     		ldr	r3, .L359
 3909 035c 0022     		movs	r2, #0
 3910 035e 1A70     		strb	r2, [r3]
 3911              	.L352:
 989:../app/app.c  **** 			}
 990:../app/app.c  **** 			osal_lyh_delay_task(Ms_50);
 3912              		.loc 1 990 4
 3913 0360 3220     		movs	r0, #50
 3914 0362 FFF7FEFF 		bl	osal_lyh_delay_task
 991:../app/app.c  **** 			break;
 3915              		.loc 1 991 4
 3916 0366 04E0     		b	.L331
 3917              	.L353:
 992:../app/app.c  **** 		default:
 993:../app/app.c  **** 			break;
 3918              		.loc 1 993 4
 3919 0368 00BF     		nop
 3920 036a 02E0     		b	.L356
 3921              	.L354:
 840:../app/app.c  **** 		/* ๆต็จๅผๅง๏ผLEDๆตๆฐด็ฏใ็ตๆบๅจไฝใๅผๅฏๅ ็ญ */	
 3922              		.loc 1 840 4
 3923 036c 00BF     		nop
 3924 036e 00E0     		b	.L356
 3925              	.L355:
 980:../app/app.c  **** 		case STARTUP_FAIL_STATE:
 3926              		.loc 1 980 4
 3927 0370 00BF     		nop
 3928              	.L331:
 3929              	.L356:
 994:../app/app.c  **** 	}
 995:../app/app.c  **** }
 3930              		.loc 1 995 1
 3931 0372 00BF     		nop
 3932 0374 80BD     		pop	{r7, pc}
 3933              	.L360:
 3934 0376 00BF     		.align	2
 3935              	.L359:
 3936 0378 00000000 		.word	app_task_substep
 3937              		.cfi_endproc
 3938              	.LFE167:
 3940              		.section	.text.app_normal_handler,"ax",%progbits
 3941              		.align	1
 3942              		.global	app_normal_handler
 3943              		.syntax unified
 3944              		.thumb
 3945              		.thumb_func
 3946              		.fpu softvfp
 3948              	app_normal_handler:
 3949              	.LFB168:
 996:../app/app.c  **** 
 997:../app/app.c  **** /************************************************************************
 998:../app/app.c  **** * function name: app_normal_handler
 999:../app/app.c  **** * input: non
1000:../app/app.c  **** * output: non
1001:../app/app.c  **** * description: object thread
1002:../app/app.c  **** *************************************************************************/
1003:../app/app.c  **** void app_normal_handler(void)
1004:../app/app.c  **** {
 3950              		.loc 1 1004 1
 3951              		.cfi_startproc
 3952              		@ args = 0, pretend = 0, frame = 0
 3953              		@ frame_needed = 1, uses_anonymous_args = 0
 3954 0000 80B5     		push	{r7, lr}
 3955              		.cfi_def_cfa_offset 8
 3956              		.cfi_offset 7, -8
 3957              		.cfi_offset 14, -4
 3958 0002 00AF     		add	r7, sp, #0
 3959              		.cfi_def_cfa_register 7
1005:../app/app.c  **** 	switch(app_task_substep)
 3960              		.loc 1 1005 2
 3961 0004 694B     		ldr	r3, .L379
 3962 0006 1B78     		ldrb	r3, [r3]	@ zero_extendqisi2
 3963 0008 0C2B     		cmp	r3, #12
 3964 000a 00F2CC80 		bhi	.L378
 3965 000e 01A2     		adr	r2, .L364
 3966 0010 52F823F0 		ldr	pc, [r2, r3, lsl #2]
 3967              		.p2align 2
 3968              	.L364:
 3969 0014 49000000 		.word	.L376+1
 3970 0018 51000000 		.word	.L375+1
 3971 001c 8B000000 		.word	.L374+1
 3972 0020 93000000 		.word	.L373+1
 3973 0024 CD000000 		.word	.L372+1
 3974 0028 D5000000 		.word	.L371+1
 3975 002c 1D010000 		.word	.L370+1
 3976 0030 25010000 		.word	.L369+1
 3977 0034 4F010000 		.word	.L368+1
 3978 0038 57010000 		.word	.L367+1
 3979 003c 77010000 		.word	.L366+1
 3980 0040 7F010000 		.word	.L365+1
 3981 0044 9F010000 		.word	.L363+1
 3982              		.p2align 1
 3983              	.L376:
1006:../app/app.c  **** 	{
1007:../app/app.c  **** 		case NORMAL_INIT_STATE:
1008:../app/app.c  **** 			osal_lyh_delay_task(Ms_10);
 3984              		.loc 1 1008 4
 3985 0048 0A20     		movs	r0, #10
 3986 004a FFF7FEFF 		bl	osal_lyh_delay_task
1009:../app/app.c  **** 			break;
 3987              		.loc 1 1009 4
 3988 004e ABE0     		b	.L377
 3989              	.L375:
1010:../app/app.c  **** 		case NORMAL_ESPRESSO_INIT_STATE:
1011:../app/app.c  **** 			memset((uint8_t *)&manual_setup, 0, sizeof(st_opDef));
 3990              		.loc 1 1011 4
 3991 0050 0322     		movs	r2, #3
 3992 0052 0021     		movs	r1, #0
 3993 0054 5648     		ldr	r0, .L379+4
 3994 0056 FFF7FEFF 		bl	memset
1012:../app/app.c  **** 			app_led_start_init();
 3995              		.loc 1 1012 4
 3996 005a FFF7FEFF 		bl	app_led_start_init
1013:../app/app.c  **** 			app_leds_all_fun(LED_OFF);
 3997              		.loc 1 1013 4
 3998 005e 0020     		movs	r0, #0
 3999 0060 FFF7FEFF 		bl	app_leds_all_fun
1014:../app/app.c  **** 			app_leds_all_ind(LED_OFF);
 4000              		.loc 1 1014 4
 4001 0064 0020     		movs	r0, #0
 4002 0066 FFF7FEFF 		bl	app_leds_all_ind
1015:../app/app.c  **** 			display_led(ESPRESSO1_LED, LED_ON);
 4003              		.loc 1 1015 4
 4004 006a 0121     		movs	r1, #1
 4005 006c 0C20     		movs	r0, #12
 4006 006e FFF7FEFF 		bl	display_led
1016:../app/app.c  **** 			display_led(COFFEE2_LED, LED_ON);
 4007              		.loc 1 1016 4
 4008 0072 0121     		movs	r1, #1
 4009 0074 0A20     		movs	r0, #10
 4010 0076 FFF7FEFF 		bl	display_led
1017:../app/app.c  **** 			display_led(WATER1_LED, LED_ON);
 4011              		.loc 1 1017 4
 4012 007a 0121     		movs	r1, #1
 4013 007c 0420     		movs	r0, #4
 4014 007e FFF7FEFF 		bl	display_led
1018:../app/app.c  **** 			app_task_substep = NORMAL_ESPRESSO_RUN_STATE;
 4015              		.loc 1 1018 21
 4016 0082 4A4B     		ldr	r3, .L379
 4017 0084 0222     		movs	r2, #2
 4018 0086 1A70     		strb	r2, [r3]
1019:../app/app.c  **** 			break;
 4019              		.loc 1 1019 4
 4020 0088 8EE0     		b	.L377
 4021              	.L374:
1020:../app/app.c  **** 		case NORMAL_ESPRESSO_RUN_STATE:
1021:../app/app.c  **** 			osal_lyh_delay_task(Ms_10);
 4022              		.loc 1 1021 4
 4023 008a 0A20     		movs	r0, #10
 4024 008c FFF7FEFF 		bl	osal_lyh_delay_task
1022:../app/app.c  **** 			break;
 4025              		.loc 1 1022 4
 4026 0090 8AE0     		b	.L377
 4027              	.L373:
1023:../app/app.c  **** 		case NORMAL_AMERICANO_INIT_STATE:
1024:../app/app.c  **** 			memset((uint8_t *)&manual_setup, 0, sizeof(st_opDef));
 4028              		.loc 1 1024 4
 4029 0092 0322     		movs	r2, #3
 4030 0094 0021     		movs	r1, #0
 4031 0096 4648     		ldr	r0, .L379+4
 4032 0098 FFF7FEFF 		bl	memset
1025:../app/app.c  **** 			app_led_start_init();
 4033              		.loc 1 1025 4
 4034 009c FFF7FEFF 		bl	app_led_start_init
1026:../app/app.c  **** 			app_leds_all_fun(LED_OFF);
 4035              		.loc 1 1026 4
 4036 00a0 0020     		movs	r0, #0
 4037 00a2 FFF7FEFF 		bl	app_leds_all_fun
1027:../app/app.c  **** 			app_leds_all_ind(LED_OFF);
 4038              		.loc 1 1027 4
 4039 00a6 0020     		movs	r0, #0
 4040 00a8 FFF7FEFF 		bl	app_leds_all_ind
1028:../app/app.c  **** 			display_led(AMERICANO1_LED, LED_ON);
 4041              		.loc 1 1028 4
 4042 00ac 0121     		movs	r1, #1
 4043 00ae 0F20     		movs	r0, #15
 4044 00b0 FFF7FEFF 		bl	display_led
1029:../app/app.c  **** 			display_led(COFFEE2_LED, LED_ON);
 4045              		.loc 1 1029 4
 4046 00b4 0121     		movs	r1, #1
 4047 00b6 0A20     		movs	r0, #10
 4048 00b8 FFF7FEFF 		bl	display_led
1030:../app/app.c  **** 			display_led(WATER1_LED, LED_ON);
 4049              		.loc 1 1030 4
 4050 00bc 0121     		movs	r1, #1
 4051 00be 0420     		movs	r0, #4
 4052 00c0 FFF7FEFF 		bl	display_led
1031:../app/app.c  **** 			app_task_substep = NORMAL_AMERICANO_RUN_STATE;
 4053              		.loc 1 1031 21
 4054 00c4 394B     		ldr	r3, .L379
 4055 00c6 0422     		movs	r2, #4
 4056 00c8 1A70     		strb	r2, [r3]
1032:../app/app.c  **** 			break;
 4057              		.loc 1 1032 4
 4058 00ca 6DE0     		b	.L377
 4059              	.L372:
1033:../app/app.c  **** 		case NORMAL_AMERICANO_RUN_STATE:
1034:../app/app.c  **** 			osal_lyh_delay_task(Ms_10);
 4060              		.loc 1 1034 4
 4061 00cc 0A20     		movs	r0, #10
 4062 00ce FFF7FEFF 		bl	osal_lyh_delay_task
1035:../app/app.c  **** 			break;
 4063              		.loc 1 1035 4
 4064 00d2 69E0     		b	.L377
 4065              	.L371:
1036:../app/app.c  **** 		case NORMAL_HOTWATER_INIT_STATE:
1037:../app/app.c  **** 			memset((uint8_t *)&manual_setup, 0, sizeof(st_opDef));
 4066              		.loc 1 1037 4
 4067 00d4 0322     		movs	r2, #3
 4068 00d6 0021     		movs	r1, #0
 4069 00d8 3548     		ldr	r0, .L379+4
 4070 00da FFF7FEFF 		bl	memset
1038:../app/app.c  **** 			manual_setup.water = 2;
 4071              		.loc 1 1038 23
 4072 00de 344B     		ldr	r3, .L379+4
 4073 00e0 0222     		movs	r2, #2
 4074 00e2 9A70     		strb	r2, [r3, #2]
1039:../app/app.c  **** 			app_led_start_init();
 4075              		.loc 1 1039 4
 4076 00e4 FFF7FEFF 		bl	app_led_start_init
1040:../app/app.c  **** 			app_leds_all_fun(LED_OFF);
 4077              		.loc 1 1040 4
 4078 00e8 0020     		movs	r0, #0
 4079 00ea FFF7FEFF 		bl	app_leds_all_fun
1041:../app/app.c  **** 			app_leds_all_ind(LED_OFF);
 4080              		.loc 1 1041 4
 4081 00ee 0020     		movs	r0, #0
 4082 00f0 FFF7FEFF 		bl	app_leds_all_ind
1042:../app/app.c  **** 			display_led(HOT_WATER, LED_ON);
 4083              		.loc 1 1042 4
 4084 00f4 0121     		movs	r1, #1
 4085 00f6 1520     		movs	r0, #21
 4086 00f8 FFF7FEFF 		bl	display_led
1043:../app/app.c  **** 			display_led(WATER1_LED, LED_ON);
 4087              		.loc 1 1043 4
 4088 00fc 0121     		movs	r1, #1
 4089 00fe 0420     		movs	r0, #4
 4090 0100 FFF7FEFF 		bl	display_led
1044:../app/app.c  **** 			display_led(WATER2_LED, LED_ON);
 4091              		.loc 1 1044 4
 4092 0104 0121     		movs	r1, #1
 4093 0106 1920     		movs	r0, #25
 4094 0108 FFF7FEFF 		bl	display_led
1045:../app/app.c  **** 			display_led(WATER3_LED, LED_ON);
 4095              		.loc 1 1045 4
 4096 010c 0121     		movs	r1, #1
 4097 010e 1020     		movs	r0, #16
 4098 0110 FFF7FEFF 		bl	display_led
1046:../app/app.c  **** 			app_task_substep = NORMAL_HOTWATER_RUN_STATE;
 4099              		.loc 1 1046 21
 4100 0114 254B     		ldr	r3, .L379
 4101 0116 0622     		movs	r2, #6
 4102 0118 1A70     		strb	r2, [r3]
1047:../app/app.c  **** 			break;
 4103              		.loc 1 1047 4
 4104 011a 45E0     		b	.L377
 4105              	.L370:
1048:../app/app.c  **** 		case NORMAL_HOTWATER_RUN_STATE:
1049:../app/app.c  **** 			osal_lyh_delay_task(Ms_10);
 4106              		.loc 1 1049 4
 4107 011c 0A20     		movs	r0, #10
 4108 011e FFF7FEFF 		bl	osal_lyh_delay_task
1050:../app/app.c  **** 			break;
 4109              		.loc 1 1050 4
 4110 0122 41E0     		b	.L377
 4111              	.L369:
1051:../app/app.c  **** 		case NORMAL_STEAM_INIT_STATE:
1052:../app/app.c  **** 			memset((uint8_t *)&manual_setup, 0, sizeof(st_opDef));
 4112              		.loc 1 1052 4
 4113 0124 0322     		movs	r2, #3
 4114 0126 0021     		movs	r1, #0
 4115 0128 2148     		ldr	r0, .L379+4
 4116 012a FFF7FEFF 		bl	memset
1053:../app/app.c  **** 			app_led_start_init();
 4117              		.loc 1 1053 4
 4118 012e FFF7FEFF 		bl	app_led_start_init
1054:../app/app.c  **** 			app_leds_all_fun(LED_OFF);
 4119              		.loc 1 1054 4
 4120 0132 0020     		movs	r0, #0
 4121 0134 FFF7FEFF 		bl	app_leds_all_fun
1055:../app/app.c  **** 			app_leds_all_ind(LED_OFF);
 4122              		.loc 1 1055 4
 4123 0138 0020     		movs	r0, #0
 4124 013a FFF7FEFF 		bl	app_leds_all_ind
1056:../app/app.c  **** 			display_led(STEAM_LED, LED_ON);
 4125              		.loc 1 1056 4
 4126 013e 0121     		movs	r1, #1
 4127 0140 1220     		movs	r0, #18
 4128 0142 FFF7FEFF 		bl	display_led
1057:../app/app.c  **** 			app_task_substep = NORMAL_STEAM_RUN_STATE;
 4129              		.loc 1 1057 21
 4130 0146 194B     		ldr	r3, .L379
 4131 0148 0822     		movs	r2, #8
 4132 014a 1A70     		strb	r2, [r3]
1058:../app/app.c  **** 			break;
 4133              		.loc 1 1058 4
 4134 014c 2CE0     		b	.L377
 4135              	.L368:
1059:../app/app.c  **** 		case NORMAL_STEAM_RUN_STATE:
1060:../app/app.c  **** 			osal_lyh_delay_task(Ms_10);
 4136              		.loc 1 1060 4
 4137 014e 0A20     		movs	r0, #10
 4138 0150 FFF7FEFF 		bl	osal_lyh_delay_task
1061:../app/app.c  **** 			break;
 4139              		.loc 1 1061 4
 4140 0154 28E0     		b	.L377
 4141              	.L367:
1062:../app/app.c  **** 		case NORMAL_AQUA_INIT_STATE:
1063:../app/app.c  **** 			app_led_start_init();
 4142              		.loc 1 1063 4
 4143 0156 FFF7FEFF 		bl	app_led_start_init
1064:../app/app.c  **** 			app_leds_all_fun(LED_OFF);
 4144              		.loc 1 1064 4
 4145 015a 0020     		movs	r0, #0
 4146 015c FFF7FEFF 		bl	app_leds_all_fun
1065:../app/app.c  **** 			app_leds_all_ind(LED_OFF);
 4147              		.loc 1 1065 4
 4148 0160 0020     		movs	r0, #0
 4149 0162 FFF7FEFF 		bl	app_leds_all_ind
1066:../app/app.c  **** 			display_led(AQUA_CLEAN_LED, LED_ON);
 4150              		.loc 1 1066 4
 4151 0166 0121     		movs	r1, #1
 4152 0168 1120     		movs	r0, #17
 4153 016a FFF7FEFF 		bl	display_led
1067:../app/app.c  **** 			app_task_substep = NORMAL_AQUA_RUN_STATE;
 4154              		.loc 1 1067 21
 4155 016e 0F4B     		ldr	r3, .L379
 4156 0170 0A22     		movs	r2, #10
 4157 0172 1A70     		strb	r2, [r3]
1068:../app/app.c  **** 			break;
 4158              		.loc 1 1068 4
 4159 0174 18E0     		b	.L377
 4160              	.L366:
1069:../app/app.c  **** 		case NORMAL_AQUA_RUN_STATE:
1070:../app/app.c  **** 			osal_lyh_delay_task(Ms_10);
 4161              		.loc 1 1070 4
 4162 0176 0A20     		movs	r0, #10
 4163 0178 FFF7FEFF 		bl	osal_lyh_delay_task
1071:../app/app.c  **** 			break;
 4164              		.loc 1 1071 4
 4165 017c 14E0     		b	.L377
 4166              	.L365:
1072:../app/app.c  **** 		case NORMAL_CALC_INIT_STATE:
1073:../app/app.c  **** 			app_led_start_init();
 4167              		.loc 1 1073 4
 4168 017e FFF7FEFF 		bl	app_led_start_init
1074:../app/app.c  **** 			app_leds_all_fun(LED_OFF);
 4169              		.loc 1 1074 4
 4170 0182 0020     		movs	r0, #0
 4171 0184 FFF7FEFF 		bl	app_leds_all_fun
1075:../app/app.c  **** 			app_leds_all_ind(LED_OFF);
 4172              		.loc 1 1075 4
 4173 0188 0020     		movs	r0, #0
 4174 018a FFF7FEFF 		bl	app_leds_all_ind
1076:../app/app.c  **** 			display_led(CALC_CLEAN_LED, LED_ON);
 4175              		.loc 1 1076 4
 4176 018e 0121     		movs	r1, #1
 4177 0190 0220     		movs	r0, #2
 4178 0192 FFF7FEFF 		bl	display_led
1077:../app/app.c  **** 			app_task_substep = NORMAL_CALC_RUN_STATE;
 4179              		.loc 1 1077 21
 4180 0196 054B     		ldr	r3, .L379
 4181 0198 0C22     		movs	r2, #12
 4182 019a 1A70     		strb	r2, [r3]
1078:../app/app.c  **** 			break;
 4183              		.loc 1 1078 4
 4184 019c 04E0     		b	.L377
 4185              	.L363:
1079:../app/app.c  **** 		case NORMAL_CALC_RUN_STATE:
1080:../app/app.c  **** 			osal_lyh_delay_task(Ms_10);
 4186              		.loc 1 1080 4
 4187 019e 0A20     		movs	r0, #10
 4188 01a0 FFF7FEFF 		bl	osal_lyh_delay_task
1081:../app/app.c  **** 			break;
 4189              		.loc 1 1081 4
 4190 01a4 00E0     		b	.L377
 4191              	.L378:
1082:../app/app.c  **** 		default:
1083:../app/app.c  **** 			break;
 4192              		.loc 1 1083 4
 4193 01a6 00BF     		nop
 4194              	.L377:
1084:../app/app.c  **** 	}
1085:../app/app.c  **** }
 4195              		.loc 1 1085 1
 4196 01a8 00BF     		nop
 4197 01aa 80BD     		pop	{r7, pc}
 4198              	.L380:
 4199              		.align	2
 4200              	.L379:
 4201 01ac 00000000 		.word	app_task_substep
 4202 01b0 00000000 		.word	manual_setup
 4203              		.cfi_endproc
 4204              	.LFE168:
 4206              		.section	.text.app_espresso_handler,"ax",%progbits
 4207              		.align	1
 4208              		.global	app_espresso_handler
 4209              		.syntax unified
 4210              		.thumb
 4211              		.thumb_func
 4212              		.fpu softvfp
 4214              	app_espresso_handler:
 4215              	.LFB169:
1086:../app/app.c  **** 
1087:../app/app.c  **** /************************************************************************
1088:../app/app.c  **** * function name: app_espresso_handler
1089:../app/app.c  **** * input: non
1090:../app/app.c  **** * output: non
1091:../app/app.c  **** * description: object thread
1092:../app/app.c  **** *************************************************************************/
1093:../app/app.c  **** void app_espresso_handler(void)
1094:../app/app.c  **** {
 4216              		.loc 1 1094 1
 4217              		.cfi_startproc
 4218              		@ args = 0, pretend = 0, frame = 0
 4219              		@ frame_needed = 1, uses_anonymous_args = 0
 4220 0000 80B5     		push	{r7, lr}
 4221              		.cfi_def_cfa_offset 8
 4222              		.cfi_offset 7, -8
 4223              		.cfi_offset 14, -4
 4224 0002 00AF     		add	r7, sp, #0
 4225              		.cfi_def_cfa_register 7
1095:../app/app.c  **** 	switch(app_task_substep)
 4226              		.loc 1 1095 2
 4227 0004 BD4B     		ldr	r3, .L439
 4228 0006 1B78     		ldrb	r3, [r3]	@ zero_extendqisi2
 4229 0008 142B     		cmp	r3, #20
 4230 000a 00F20F82 		bhi	.L435
 4231 000e 01A2     		adr	r2, .L384
 4232 0010 52F823F0 		ldr	pc, [r2, r3, lsl #2]
 4233              		.p2align 2
 4234              	.L384:
 4235 0014 69000000 		.word	.L404+1
 4236 0018 A5000000 		.word	.L403+1
 4237 001c C3000000 		.word	.L402+1
 4238 0020 FF000000 		.word	.L401+1
 4239 0024 19010000 		.word	.L400+1
 4240 0028 4B010000 		.word	.L399+1
 4241 002c AF010000 		.word	.L398+1
 4242 0030 DF010000 		.word	.L397+1
 4243 0034 FF010000 		.word	.L396+1
 4244 0038 3B020000 		.word	.L395+1
 4245 003c 57020000 		.word	.L394+1
 4246 0040 6B020000 		.word	.L393+1
 4247 0044 CD020000 		.word	.L392+1
 4248 0048 E1020000 		.word	.L391+1
 4249 004c 11030000 		.word	.L390+1
 4250 0050 41030000 		.word	.L389+1
 4251 0054 61030000 		.word	.L388+1
 4252 0058 9D030000 		.word	.L387+1
 4253 005c B7030000 		.word	.L386+1
 4254 0060 E9030000 		.word	.L385+1
 4255 0064 0F040000 		.word	.L383+1
 4256              		.p2align 1
 4257              	.L404:
1096:../app/app.c  **** 	{
1097:../app/app.c  **** 		/* ๅๅงๅ็ถๆ */
1098:../app/app.c  **** 		case ESPRESSO_INIT_STATE:
1099:../app/app.c  **** 			CERRNT_STATE = INIT_AND_GRIND_STATE;	//่ฎฐๅฝ่ฟๅบฆ
 4258              		.loc 1 1099 17
 4259 0068 A54B     		ldr	r3, .L439+4
 4260 006a 0122     		movs	r2, #1
 4261 006c 1A70     		strb	r2, [r3]
1100:../app/app.c  **** 			app_leds_all_fun(LED_OFF);
 4262              		.loc 1 1100 4
 4263 006e 0020     		movs	r0, #0
 4264 0070 FFF7FEFF 		bl	app_leds_all_fun
1101:../app/app.c  **** 			app_leds_all_ind(LED_OFF);
 4265              		.loc 1 1101 4
 4266 0074 0020     		movs	r0, #0
 4267 0076 FFF7FEFF 		bl	app_leds_all_ind
1102:../app/app.c  **** 			display_led(START_LED, LED_ON);
 4268              		.loc 1 1102 4
 4269 007a 0121     		movs	r1, #1
 4270 007c 0520     		movs	r0, #5
 4271 007e FFF7FEFF 		bl	display_led
1103:../app/app.c  **** 			app_led_espresso_init();		//ๅๅงๅespressoๆ็คบ็ฏ้ช็
 4272              		.loc 1 1103 4
 4273 0082 FFF7FEFF 		bl	app_led_espresso_init
1104:../app/app.c  **** 			if(1 == manual_setup.cup){		//ๅคๆญๆฌๆฌกๅถไฝๆฏๆฐ
 4274              		.loc 1 1104 24
 4275 0086 9F4B     		ldr	r3, .L439+8
 4276 0088 1B78     		ldrb	r3, [r3]	@ zero_extendqisi2
 4277              		.loc 1 1104 6
 4278 008a 012B     		cmp	r3, #1
 4279 008c 03D1     		bne	.L405
1105:../app/app.c  **** 				cup_loop = 1;
 4280              		.loc 1 1105 14
 4281 008e 9E4B     		ldr	r3, .L439+12
 4282 0090 0122     		movs	r2, #1
 4283 0092 1A70     		strb	r2, [r3]
 4284 0094 02E0     		b	.L406
 4285              	.L405:
1106:../app/app.c  **** 			}
1107:../app/app.c  **** 			else{
1108:../app/app.c  **** 				cup_loop = 0;
 4286              		.loc 1 1108 14
 4287 0096 9C4B     		ldr	r3, .L439+12
 4288 0098 0022     		movs	r2, #0
 4289 009a 1A70     		strb	r2, [r3]
 4290              	.L406:
1109:../app/app.c  **** 			}
1110:../app/app.c  **** 			app_task_substep = ESPRESSO_MOTO_CHECK_STATE;
 4291              		.loc 1 1110 21
 4292 009c 974B     		ldr	r3, .L439
 4293 009e 0122     		movs	r2, #1
 4294 00a0 1A70     		strb	r2, [r3]
1111:../app/app.c  **** 			break;
 4295              		.loc 1 1111 4
 4296 00a2 C8E1     		b	.L407
 4297              	.L403:
1112:../app/app.c  **** 		/* ่ๅ็ตๆบไฝ็ฝฎๆฃๆต */
1113:../app/app.c  **** 		case ESPRESSO_MOTO_CHECK_STATE:
1114:../app/app.c  **** 			dc_motor_ClearFault();		
 4298              		.loc 1 1114 4
 4299 00a4 FFF7FEFF 		bl	dc_motor_ClearFault
1115:../app/app.c  **** 			dc_motor_Start(MOTOR_RIGHT);
 4300              		.loc 1 1115 4
 4301 00a8 0120     		movs	r0, #1
 4302 00aa FFF7FEFF 		bl	dc_motor_Start
1116:../app/app.c  **** 			osal_lyh_delay_task(Ms_100);
 4303              		.loc 1 1116 4
 4304 00ae 6420     		movs	r0, #100
 4305 00b0 FFF7FEFF 		bl	osal_lyh_delay_task
1117:../app/app.c  **** 			run_max_time = RIGHT_TIMER(Ms_3000, Ms_100);
 4306              		.loc 1 1117 17
 4307 00b4 954B     		ldr	r3, .L439+16
 4308 00b6 1E22     		movs	r2, #30
 4309 00b8 1A80     		strh	r2, [r3]	@ movhi
1118:../app/app.c  **** 			app_task_substep = ESPRESSO_MOTO_CHECK_JUDGE_STATE;
 4310              		.loc 1 1118 21
 4311 00ba 904B     		ldr	r3, .L439
 4312 00bc 0222     		movs	r2, #2
 4313 00be 1A70     		strb	r2, [r3]
1119:../app/app.c  **** 			break;
 4314              		.loc 1 1119 4
 4315 00c0 B9E1     		b	.L407
 4316              	.L402:
1120:../app/app.c  **** 		/* ๅคๆญ่ๅ็ตๆบๆฏๅฆ่งฆ็ขฐๅ็น่งฆ็น */
1121:../app/app.c  **** 		case ESPRESSO_MOTO_CHECK_JUDGE_STATE:
1122:../app/app.c  **** 			if ((MOTOR_STATE_STOPED ==dc_motor_GetState())
 4317              		.loc 1 1122 30
 4318 00c2 FFF7FEFF 		bl	dc_motor_GetState
 4319 00c6 0346     		mov	r3, r0
 4320              		.loc 1 1122 7
 4321 00c8 002B     		cmp	r3, #0
 4322 00ca 0ED0     		beq	.L408
1123:../app/app.c  **** 				|| (TRUE == app_motor_ready())
 4323              		.loc 1 1123 17
 4324 00cc FFF7FEFF 		bl	app_motor_ready
 4325 00d0 0346     		mov	r3, r0
 4326              		.loc 1 1123 5
 4327 00d2 012B     		cmp	r3, #1
 4328 00d4 09D0     		beq	.L408
1124:../app/app.c  **** 				|| (--run_max_time == 0)){
 4329              		.loc 1 1124 9
 4330 00d6 8D4B     		ldr	r3, .L439+16
 4331 00d8 1B88     		ldrh	r3, [r3]
 4332 00da 013B     		subs	r3, r3, #1
 4333 00dc 9AB2     		uxth	r2, r3
 4334              		.loc 1 1124 5
 4335 00de 8B4B     		ldr	r3, .L439+16
 4336 00e0 1A80     		strh	r2, [r3]	@ movhi
 4337              		.loc 1 1124 9
 4338 00e2 8A4B     		ldr	r3, .L439+16
 4339 00e4 1B88     		ldrh	r3, [r3]
 4340              		.loc 1 1124 5
 4341 00e6 002B     		cmp	r3, #0
 4342 00e8 05D1     		bne	.L409
 4343              	.L408:
1125:../app/app.c  **** 				dc_motor_Stop();
 4344              		.loc 1 1125 5
 4345 00ea FFF7FEFF 		bl	dc_motor_Stop
1126:../app/app.c  **** 				app_task_substep = ESPRESSO_MOTO_FIRST_RST_STATE;					
 4346              		.loc 1 1126 22
 4347 00ee 834B     		ldr	r3, .L439
 4348 00f0 0322     		movs	r2, #3
 4349 00f2 1A70     		strb	r2, [r3]
1127:../app/app.c  **** 			}
1128:../app/app.c  **** 			else {
1129:../app/app.c  **** 				osal_lyh_delay_task(Ms_100);
1130:../app/app.c  **** 			}
1131:../app/app.c  **** 			break;
 4350              		.loc 1 1131 4
 4351 00f4 9FE1     		b	.L407
 4352              	.L409:
1129:../app/app.c  **** 			}
 4353              		.loc 1 1129 5
 4354 00f6 6420     		movs	r0, #100
 4355 00f8 FFF7FEFF 		bl	osal_lyh_delay_task
 4356              		.loc 1 1131 4
 4357 00fc 9BE1     		b	.L407
 4358              	.L401:
1132:../app/app.c  **** 		/* ่ๅ็ตๆบๅๅ่ฝฌๅฐๅ็น */
1133:../app/app.c  **** 		case ESPRESSO_MOTO_FIRST_RST_STATE:
1134:../app/app.c  **** 			dc_motor_Start(MOTOR_LEFT);
 4359              		.loc 1 1134 4
 4360 00fe 0220     		movs	r0, #2
 4361 0100 FFF7FEFF 		bl	dc_motor_Start
1135:../app/app.c  **** 			osal_lyh_delay_task(Ms_100);
 4362              		.loc 1 1135 4
 4363 0104 6420     		movs	r0, #100
 4364 0106 FFF7FEFF 		bl	osal_lyh_delay_task
1136:../app/app.c  **** 			run_max_time = LEFT_TIMER(MOTOR_FIX_TIME, Ms_100);
 4365              		.loc 1 1136 17
 4366 010a 804B     		ldr	r3, .L439+16
 4367 010c 0322     		movs	r2, #3
 4368 010e 1A80     		strh	r2, [r3]	@ movhi
1137:../app/app.c  **** 			app_task_substep = ESPRESSO_MOTO_CHECK_COMPLETE_STATE;
 4369              		.loc 1 1137 21
 4370 0110 7A4B     		ldr	r3, .L439
 4371 0112 0422     		movs	r2, #4
 4372 0114 1A70     		strb	r2, [r3]
1138:../app/app.c  **** 			break;
 4373              		.loc 1 1138 4
 4374 0116 8EE1     		b	.L407
 4375              	.L400:
1139:../app/app.c  **** 		/* ๅคๆญ่ๅ็ตๆบๆฏๅฆๅฎๆๅ่ฝฌ */
1140:../app/app.c  **** 		case ESPRESSO_MOTO_CHECK_COMPLETE_STATE:
1141:../app/app.c  **** 			if (1/*(FAIL == app_motor_ready())*/	// deleting point,(temp to cancel)
1142:../app/app.c  **** 				&& ((MOTOR_STATE_STOPED ==dc_motor_GetState())
 4376              		.loc 1 1142 31
 4377 0118 FFF7FEFF 		bl	dc_motor_GetState
 4378 011c 0346     		mov	r3, r0
1141:../app/app.c  **** 				&& ((MOTOR_STATE_STOPED ==dc_motor_GetState())
 4379              		.loc 1 1141 7
 4380 011e 002B     		cmp	r3, #0
 4381 0120 09D0     		beq	.L411
1143:../app/app.c  **** 				|| (--run_max_time == 0))){
 4382              		.loc 1 1143 9
 4383 0122 7A4B     		ldr	r3, .L439+16
 4384 0124 1B88     		ldrh	r3, [r3]
 4385 0126 013B     		subs	r3, r3, #1
 4386 0128 9AB2     		uxth	r2, r3
1142:../app/app.c  **** 				|| (--run_max_time == 0))){
 4387              		.loc 1 1142 5
 4388 012a 784B     		ldr	r3, .L439+16
 4389 012c 1A80     		strh	r2, [r3]	@ movhi
 4390              		.loc 1 1143 9
 4391 012e 774B     		ldr	r3, .L439+16
 4392 0130 1B88     		ldrh	r3, [r3]
1142:../app/app.c  **** 				|| (--run_max_time == 0))){
 4393              		.loc 1 1142 5
 4394 0132 002B     		cmp	r3, #0
 4395 0134 05D1     		bne	.L412
 4396              	.L411:
1144:../app/app.c  **** 				dc_motor_Stop();
 4397              		.loc 1 1144 5
 4398 0136 FFF7FEFF 		bl	dc_motor_Stop
1145:../app/app.c  **** 				app_task_substep = ESPRESSO_GRIND_ING_STATE;					
 4399              		.loc 1 1145 22
 4400 013a 704B     		ldr	r3, .L439
 4401 013c 0522     		movs	r2, #5
 4402 013e 1A70     		strb	r2, [r3]
1146:../app/app.c  **** 			}
1147:../app/app.c  **** 			else {
1148:../app/app.c  **** 				osal_lyh_delay_task(Ms_100);
1149:../app/app.c  **** 			}
1150:../app/app.c  **** 			break;
 4403              		.loc 1 1150 4
 4404 0140 79E1     		b	.L407
 4405              	.L412:
1148:../app/app.c  **** 			}
 4406              		.loc 1 1148 5
 4407 0142 6420     		movs	r0, #100
 4408 0144 FFF7FEFF 		bl	osal_lyh_delay_task
 4409              		.loc 1 1150 4
 4410 0148 75E1     		b	.L407
 4411              	.L399:
1151:../app/app.c  **** 		/* ็ ็ฃจๅๅก่ฑ */
1152:../app/app.c  **** 		case ESPRESSO_GRIND_ING_STATE:
1153:../app/app.c  **** 			app_turn_heat_on(TARGET_TEMP_100D);
 4412              		.loc 1 1153 4
 4413 014a 40F63E00 		movw	r0, #2110
 4414 014e FFF7FEFF 		bl	app_turn_heat_on
1154:../app/app.c  **** 			if(0 == manual_setup.coffee)	//็ ็ฃจๆถ้ดๆ นๆฎcoffee็จๅบฆ่ฐๆด๏ผx1=8s,x2=9s,x3=10s
 4415              		.loc 1 1154 24
 4416 0152 6C4B     		ldr	r3, .L439+8
 4417 0154 5B78     		ldrb	r3, [r3, #1]	@ zero_extendqisi2
 4418              		.loc 1 1154 6
 4419 0156 002B     		cmp	r3, #0
 4420 0158 0AD1     		bne	.L414
1155:../app/app.c  **** 			{
1156:../app/app.c  **** 				ac_grind_start(1000);		//ๅฏๅจ็ ็ฃจ็ตๆบ
 4421              		.loc 1 1156 5
 4422 015a 4FF47A70 		mov	r0, #1000
 4423 015e FFF7FEFF 		bl	ac_grind_start
1157:../app/app.c  **** 				run_max_time = GRIND_TIMER(Ms_8000, Ms_100);
 4424              		.loc 1 1157 18
 4425 0162 6A4B     		ldr	r3, .L439+16
 4426 0164 5022     		movs	r2, #80
 4427 0166 1A80     		strh	r2, [r3]	@ movhi
1158:../app/app.c  **** 				app_task_substep = ESPRESSO_GRIND_END_STATE;
 4428              		.loc 1 1158 22
 4429 0168 644B     		ldr	r3, .L439
 4430 016a 0622     		movs	r2, #6
 4431 016c 1A70     		strb	r2, [r3]
1159:../app/app.c  **** 			}
1160:../app/app.c  **** 			else if (1 == manual_setup.coffee)
1161:../app/app.c  **** 			{
1162:../app/app.c  **** 				ac_grind_start(1000);		//ๅฏๅจ็ ็ฃจ็ตๆบ
1163:../app/app.c  **** 				run_max_time = GRIND_TIMER(Ms_9000, Ms_100);
1164:../app/app.c  **** 				app_task_substep = ESPRESSO_GRIND_END_STATE;	
1165:../app/app.c  **** 			}			
1166:../app/app.c  **** 			else if(2 == manual_setup.coffee)
1167:../app/app.c  **** 			{
1168:../app/app.c  **** 				ac_grind_start(1000);		//ๅฏๅจ็ ็ฃจ็ตๆบ
1169:../app/app.c  **** 				run_max_time = GRIND_TIMER(Ms_10000, Ms_100);
1170:../app/app.c  **** 				app_task_substep = ESPRESSO_GRIND_END_STATE;	
1171:../app/app.c  **** 			}
1172:../app/app.c  **** 			break;
 4432              		.loc 1 1172 4
 4433 016e 5FE1     		b	.L436
 4434              	.L414:
1160:../app/app.c  **** 			{
 4435              		.loc 1 1160 30
 4436 0170 644B     		ldr	r3, .L439+8
 4437 0172 5B78     		ldrb	r3, [r3, #1]	@ zero_extendqisi2
1160:../app/app.c  **** 			{
 4438              		.loc 1 1160 12
 4439 0174 012B     		cmp	r3, #1
 4440 0176 0AD1     		bne	.L416
1162:../app/app.c  **** 				run_max_time = GRIND_TIMER(Ms_9000, Ms_100);
 4441              		.loc 1 1162 5
 4442 0178 4FF47A70 		mov	r0, #1000
 4443 017c FFF7FEFF 		bl	ac_grind_start
1163:../app/app.c  **** 				app_task_substep = ESPRESSO_GRIND_END_STATE;	
 4444              		.loc 1 1163 18
 4445 0180 624B     		ldr	r3, .L439+16
 4446 0182 5A22     		movs	r2, #90
 4447 0184 1A80     		strh	r2, [r3]	@ movhi
1164:../app/app.c  **** 			}			
 4448              		.loc 1 1164 22
 4449 0186 5D4B     		ldr	r3, .L439
 4450 0188 0622     		movs	r2, #6
 4451 018a 1A70     		strb	r2, [r3]
 4452              		.loc 1 1172 4
 4453 018c 50E1     		b	.L436
 4454              	.L416:
1166:../app/app.c  **** 			{
 4455              		.loc 1 1166 29
 4456 018e 5D4B     		ldr	r3, .L439+8
 4457 0190 5B78     		ldrb	r3, [r3, #1]	@ zero_extendqisi2
1166:../app/app.c  **** 			{
 4458              		.loc 1 1166 11
 4459 0192 022B     		cmp	r3, #2
 4460 0194 40F04C81 		bne	.L436
1168:../app/app.c  **** 				run_max_time = GRIND_TIMER(Ms_10000, Ms_100);
 4461              		.loc 1 1168 5
 4462 0198 4FF47A70 		mov	r0, #1000
 4463 019c FFF7FEFF 		bl	ac_grind_start
1169:../app/app.c  **** 				app_task_substep = ESPRESSO_GRIND_END_STATE;	
 4464              		.loc 1 1169 18
 4465 01a0 5A4B     		ldr	r3, .L439+16
 4466 01a2 6422     		movs	r2, #100
 4467 01a4 1A80     		strh	r2, [r3]	@ movhi
1170:../app/app.c  **** 			}
 4468              		.loc 1 1170 22
 4469 01a6 554B     		ldr	r3, .L439
 4470 01a8 0622     		movs	r2, #6
 4471 01aa 1A70     		strb	r2, [r3]
 4472              		.loc 1 1172 4
 4473 01ac 40E1     		b	.L436
 4474              	.L398:
1173:../app/app.c  **** 		case ESPRESSO_GRIND_END_STATE:
1174:../app/app.c  **** 			if (--run_max_time == 0){	//ๅคๆญ็ ็ฃจๆถ้ดๆฏๅฆๅฐ่พพ
 4475              		.loc 1 1174 8
 4476 01ae 574B     		ldr	r3, .L439+16
 4477 01b0 1B88     		ldrh	r3, [r3]
 4478 01b2 013B     		subs	r3, r3, #1
 4479 01b4 9AB2     		uxth	r2, r3
 4480              		.loc 1 1174 7
 4481 01b6 554B     		ldr	r3, .L439+16
 4482 01b8 1A80     		strh	r2, [r3]	@ movhi
 4483              		.loc 1 1174 8
 4484 01ba 544B     		ldr	r3, .L439+16
 4485 01bc 1B88     		ldrh	r3, [r3]
 4486              		.loc 1 1174 7
 4487 01be 002B     		cmp	r3, #0
 4488 01c0 09D1     		bne	.L417
1175:../app/app.c  **** 				ac_grind_stop();
 4489              		.loc 1 1175 5
 4490 01c2 FFF7FEFF 		bl	ac_grind_stop
1176:../app/app.c  **** 				osal_lyh_delay_task(Ms_1000);
 4491              		.loc 1 1176 5
 4492 01c6 4FF47A70 		mov	r0, #1000
 4493 01ca FFF7FEFF 		bl	osal_lyh_delay_task
1177:../app/app.c  **** 				app_task_substep = ESPRESSO_MOTO_GO_BREW_STATE;	
 4494              		.loc 1 1177 22
 4495 01ce 4B4B     		ldr	r3, .L439
 4496 01d0 0722     		movs	r2, #7
 4497 01d2 1A70     		strb	r2, [r3]
1178:../app/app.c  **** 			}
1179:../app/app.c  **** 			else {
1180:../app/app.c  **** 				osal_lyh_delay_task(Ms_100);
1181:../app/app.c  **** 			}
1182:../app/app.c  **** 			break;
 4498              		.loc 1 1182 4
 4499 01d4 2FE1     		b	.L407
 4500              	.L417:
1180:../app/app.c  **** 			}
 4501              		.loc 1 1180 5
 4502 01d6 6420     		movs	r0, #100
 4503 01d8 FFF7FEFF 		bl	osal_lyh_delay_task
 4504              		.loc 1 1182 4
 4505 01dc 2BE1     		b	.L407
 4506              	.L397:
1183:../app/app.c  **** 		/* ่ๅ็ตๆบ่ฝฌๅฐ่ๅไฝ็ฝฎ */
1184:../app/app.c  **** 		case ESPRESSO_MOTO_GO_BREW_STATE:
1185:../app/app.c  **** 			CERRNT_STATE = GO_BREW_STATE;	//่ฎฐๅฝ่ฟๅบฆ
 4507              		.loc 1 1185 17
 4508 01de 484B     		ldr	r3, .L439+4
 4509 01e0 0222     		movs	r2, #2
 4510 01e2 1A70     		strb	r2, [r3]
1186:../app/app.c  **** 			dc_motor_Start(MOTOR_LEFT);		
 4511              		.loc 1 1186 4
 4512 01e4 0220     		movs	r0, #2
 4513 01e6 FFF7FEFF 		bl	dc_motor_Start
1187:../app/app.c  **** 			osal_lyh_delay_task(Ms_100);
 4514              		.loc 1 1187 4
 4515 01ea 6420     		movs	r0, #100
 4516 01ec FFF7FEFF 		bl	osal_lyh_delay_task
1188:../app/app.c  **** 			run_max_time = LEFT_TIMER(Ms_7000, Ms_100);
 4517              		.loc 1 1188 17
 4518 01f0 464B     		ldr	r3, .L439+16
 4519 01f2 4622     		movs	r2, #70
 4520 01f4 1A80     		strh	r2, [r3]	@ movhi
1189:../app/app.c  **** 			app_task_substep = ESPRESSO_MOTO_GO_BREW_JUDGE_STATE;
 4521              		.loc 1 1189 21
 4522 01f6 414B     		ldr	r3, .L439
 4523 01f8 0822     		movs	r2, #8
 4524 01fa 1A70     		strb	r2, [r3]
1190:../app/app.c  **** 			break;
 4525              		.loc 1 1190 4
 4526 01fc 1BE1     		b	.L407
 4527              	.L396:
1191:../app/app.c  **** 		/* ๅคๆญ่ๅ็ตๆบๆฏๅฆๅฐ่พพ่ๅไฝ็ฝฎ */
1192:../app/app.c  **** 		case ESPRESSO_MOTO_GO_BREW_JUDGE_STATE:
1193:../app/app.c  **** 			if ((MOTOR_STATE_STOPED ==dc_motor_GetState())
 4528              		.loc 1 1193 30
 4529 01fe FFF7FEFF 		bl	dc_motor_GetState
 4530 0202 0346     		mov	r3, r0
 4531              		.loc 1 1193 7
 4532 0204 002B     		cmp	r3, #0
 4533 0206 0ED0     		beq	.L419
1194:../app/app.c  **** 				|| (TRUE == app_motor_ready())
 4534              		.loc 1 1194 17
 4535 0208 FFF7FEFF 		bl	app_motor_ready
 4536 020c 0346     		mov	r3, r0
 4537              		.loc 1 1194 5
 4538 020e 012B     		cmp	r3, #1
 4539 0210 09D0     		beq	.L419
1195:../app/app.c  **** 				|| (--run_max_time == 0)){
 4540              		.loc 1 1195 9
 4541 0212 3E4B     		ldr	r3, .L439+16
 4542 0214 1B88     		ldrh	r3, [r3]
 4543 0216 013B     		subs	r3, r3, #1
 4544 0218 9AB2     		uxth	r2, r3
 4545              		.loc 1 1195 5
 4546 021a 3C4B     		ldr	r3, .L439+16
 4547 021c 1A80     		strh	r2, [r3]	@ movhi
 4548              		.loc 1 1195 9
 4549 021e 3B4B     		ldr	r3, .L439+16
 4550 0220 1B88     		ldrh	r3, [r3]
 4551              		.loc 1 1195 5
 4552 0222 002B     		cmp	r3, #0
 4553 0224 05D1     		bne	.L420
 4554              	.L419:
1196:../app/app.c  **** 				dc_motor_Stop();
 4555              		.loc 1 1196 5
 4556 0226 FFF7FEFF 		bl	dc_motor_Stop
1197:../app/app.c  **** 				app_task_substep = ESPRESSO_PRE_BREW_STATE;	
 4557              		.loc 1 1197 22
 4558 022a 344B     		ldr	r3, .L439
 4559 022c 0922     		movs	r2, #9
 4560 022e 1A70     		strb	r2, [r3]
1198:../app/app.c  **** 			}
1199:../app/app.c  **** 			else {
1200:../app/app.c  **** 				osal_lyh_delay_task(Ms_100);
1201:../app/app.c  **** 			}			
1202:../app/app.c  **** 			break;
 4561              		.loc 1 1202 4
 4562 0230 01E1     		b	.L407
 4563              	.L420:
1200:../app/app.c  **** 			}			
 4564              		.loc 1 1200 5
 4565 0232 6420     		movs	r0, #100
 4566 0234 FFF7FEFF 		bl	osal_lyh_delay_task
 4567              		.loc 1 1202 4
 4568 0238 FDE0     		b	.L407
 4569              	.L395:
1203:../app/app.c  **** 		/* ้ขๅฒ็ฎ็ถๆ */
1204:../app/app.c  **** 		case ESPRESSO_PRE_BREW_STATE:
1205:../app/app.c  **** 			CERRNT_STATE = PRE_BREW_STATE;	//่ฎฐๅฝ่ฟๅบฆ
 4570              		.loc 1 1205 17
 4571 023a 314B     		ldr	r3, .L439+4
 4572 023c 0322     		movs	r2, #3
 4573 023e 1A70     		strb	r2, [r3]
1206:../app/app.c  **** 			ac_pumb_start(CONTINUE_MODE);		//ๅฏๅจๆฐดๆณต
 4574              		.loc 1 1206 4
 4575 0240 0020     		movs	r0, #0
 4576 0242 FFF7FEFF 		bl	ac_pumb_start
1207:../app/app.c  **** 			osal_lyh_delay_task(Ms_2000 - Ms_100);
 4577              		.loc 1 1207 4
 4578 0246 40F26C70 		movw	r0, #1900
 4579 024a FFF7FEFF 		bl	osal_lyh_delay_task
1208:../app/app.c  **** 			app_task_substep = ESPRESSO_WAIT_BREW_STATE;	
 4580              		.loc 1 1208 21
 4581 024e 2B4B     		ldr	r3, .L439
 4582 0250 0A22     		movs	r2, #10
 4583 0252 1A70     		strb	r2, [r3]
1209:../app/app.c  **** 			break;
 4584              		.loc 1 1209 4
 4585 0254 EFE0     		b	.L407
 4586              	.L394:
1210:../app/app.c  **** 		case ESPRESSO_WAIT_BREW_STATE:
1211:../app/app.c  **** 			ac_pumb_stop();						//ๅๆญขๆฐดๆณต
 4587              		.loc 1 1211 4
 4588 0256 FFF7FEFF 		bl	ac_pumb_stop
1212:../app/app.c  **** 			osal_lyh_delay_task(Ms_4000);
 4589              		.loc 1 1212 4
 4590 025a 4FF47A60 		mov	r0, #4000
 4591 025e FFF7FEFF 		bl	osal_lyh_delay_task
1213:../app/app.c  **** 			app_task_substep = ESPRESSO_BREW_STATE;	
 4592              		.loc 1 1213 21
 4593 0262 264B     		ldr	r3, .L439
 4594 0264 0B22     		movs	r2, #11
 4595 0266 1A70     		strb	r2, [r3]
1214:../app/app.c  **** 			break;
 4596              		.loc 1 1214 4
 4597 0268 E5E0     		b	.L407
 4598              	.L393:
1215:../app/app.c  **** 		/* ๅฒ็ฎ็ถๆ */
1216:../app/app.c  **** 		case ESPRESSO_BREW_STATE:
1217:../app/app.c  **** 			CERRNT_STATE = BREW_STATE;	//่ฎฐๅฝ่ฟๅบฆ
 4599              		.loc 1 1217 17
 4600 026a 254B     		ldr	r3, .L439+4
 4601 026c 0422     		movs	r2, #4
 4602 026e 1A70     		strb	r2, [r3]
1218:../app/app.c  **** 			if(0 == manual_setup.water)		//ๆ นๆฎๆฏ้ๅณๅฎๆฝๆฐดๆถ้ด๏ผx1=5s,x2=10s,x3=20s
 4603              		.loc 1 1218 24
 4604 0270 244B     		ldr	r3, .L439+8
 4605 0272 9B78     		ldrb	r3, [r3, #2]	@ zero_extendqisi2
 4606              		.loc 1 1218 6
 4607 0274 002B     		cmp	r3, #0
 4608 0276 0AD1     		bne	.L422
1219:../app/app.c  **** 			{
1220:../app/app.c  **** 				ac_pumb_start(CONTINUE_MODE);
 4609              		.loc 1 1220 5
 4610 0278 0020     		movs	r0, #0
 4611 027a FFF7FEFF 		bl	ac_pumb_start
1221:../app/app.c  **** 				osal_lyh_delay_task(Ms_5000);
 4612              		.loc 1 1221 5
 4613 027e 41F28830 		movw	r0, #5000
 4614 0282 FFF7FEFF 		bl	osal_lyh_delay_task
1222:../app/app.c  **** 				app_task_substep = ESPRESSO_BREW_FINISH_STATE;	
 4615              		.loc 1 1222 22
 4616 0286 1D4B     		ldr	r3, .L439
 4617 0288 0C22     		movs	r2, #12
 4618 028a 1A70     		strb	r2, [r3]
1223:../app/app.c  **** 			}
1224:../app/app.c  **** 			else if(1 == manual_setup.water)
1225:../app/app.c  **** 			{
1226:../app/app.c  **** 				ac_pumb_start(CONTINUE_MODE);
1227:../app/app.c  **** 				osal_lyh_delay_task(Ms_10000);
1228:../app/app.c  **** 				app_task_substep = ESPRESSO_BREW_FINISH_STATE;	
1229:../app/app.c  **** 
1230:../app/app.c  **** 			}
1231:../app/app.c  **** 			else if(2 == manual_setup.water)
1232:../app/app.c  **** 			{
1233:../app/app.c  **** 				ac_pumb_start(CONTINUE_MODE);
1234:../app/app.c  **** 				osal_lyh_delay_task(Ms_10000 + Ms_10000);
1235:../app/app.c  **** 				app_task_substep = ESPRESSO_BREW_FINISH_STATE;	
1236:../app/app.c  **** 			}
1237:../app/app.c  **** 			break;
 4619              		.loc 1 1237 4
 4620 028c D2E0     		b	.L437
 4621              	.L422:
1224:../app/app.c  **** 			{
 4622              		.loc 1 1224 29
 4623 028e 1D4B     		ldr	r3, .L439+8
 4624 0290 9B78     		ldrb	r3, [r3, #2]	@ zero_extendqisi2
1224:../app/app.c  **** 			{
 4625              		.loc 1 1224 11
 4626 0292 012B     		cmp	r3, #1
 4627 0294 0AD1     		bne	.L424
1226:../app/app.c  **** 				osal_lyh_delay_task(Ms_10000);
 4628              		.loc 1 1226 5
 4629 0296 0020     		movs	r0, #0
 4630 0298 FFF7FEFF 		bl	ac_pumb_start
1227:../app/app.c  **** 				app_task_substep = ESPRESSO_BREW_FINISH_STATE;	
 4631              		.loc 1 1227 5
 4632 029c 42F21070 		movw	r0, #10000
 4633 02a0 FFF7FEFF 		bl	osal_lyh_delay_task
1228:../app/app.c  **** 
 4634              		.loc 1 1228 22
 4635 02a4 154B     		ldr	r3, .L439
 4636 02a6 0C22     		movs	r2, #12
 4637 02a8 1A70     		strb	r2, [r3]
 4638              		.loc 1 1237 4
 4639 02aa C3E0     		b	.L437
 4640              	.L424:
1231:../app/app.c  **** 			{
 4641              		.loc 1 1231 29
 4642 02ac 154B     		ldr	r3, .L439+8
 4643 02ae 9B78     		ldrb	r3, [r3, #2]	@ zero_extendqisi2
1231:../app/app.c  **** 			{
 4644              		.loc 1 1231 11
 4645 02b0 022B     		cmp	r3, #2
 4646 02b2 40F0BF80 		bne	.L437
1233:../app/app.c  **** 				osal_lyh_delay_task(Ms_10000 + Ms_10000);
 4647              		.loc 1 1233 5
 4648 02b6 0020     		movs	r0, #0
 4649 02b8 FFF7FEFF 		bl	ac_pumb_start
1234:../app/app.c  **** 				app_task_substep = ESPRESSO_BREW_FINISH_STATE;	
 4650              		.loc 1 1234 5
 4651 02bc 44F62060 		movw	r0, #20000
 4652 02c0 FFF7FEFF 		bl	osal_lyh_delay_task
1235:../app/app.c  **** 			}
 4653              		.loc 1 1235 22
 4654 02c4 0D4B     		ldr	r3, .L439
 4655 02c6 0C22     		movs	r2, #12
 4656 02c8 1A70     		strb	r2, [r3]
 4657              		.loc 1 1237 4
 4658 02ca B3E0     		b	.L437
 4659              	.L392:
1238:../app/app.c  **** 		case ESPRESSO_BREW_FINISH_STATE:	//ๅฒ็ฎๅฎๆ
1239:../app/app.c  **** 			ac_pumb_stop();		//ๅๆญขๆฐดๆณต	
 4660              		.loc 1 1239 4
 4661 02cc FFF7FEFF 		bl	ac_pumb_stop
1240:../app/app.c  **** 			osal_lyh_delay_task(Ms_6000);
 4662              		.loc 1 1240 4
 4663 02d0 41F27070 		movw	r0, #6000
 4664 02d4 FFF7FEFF 		bl	osal_lyh_delay_task
1241:../app/app.c  **** 			app_task_substep = ESPRESSO_GO_DROP_COFFEE_GROUNDS_STATE;	
 4665              		.loc 1 1241 21
 4666 02d8 084B     		ldr	r3, .L439
 4667 02da 0D22     		movs	r2, #13
 4668 02dc 1A70     		strb	r2, [r3]
1242:../app/app.c  **** 			break;
 4669              		.loc 1 1242 4
 4670 02de AAE0     		b	.L407
 4671              	.L391:
1243:../app/app.c  **** 		/* ไธขๅๅกๆธฃ็ถๆ */
1244:../app/app.c  **** 		case ESPRESSO_GO_DROP_COFFEE_GROUNDS_STATE:
1245:../app/app.c  **** 			CERRNT_STATE = DROP_BEANS_STATE;	//่ฎฐๅฝ่ฟๅบฆ
 4672              		.loc 1 1245 17
 4673 02e0 074B     		ldr	r3, .L439+4
 4674 02e2 0522     		movs	r2, #5
 4675 02e4 1A70     		strb	r2, [r3]
1246:../app/app.c  **** 			dc_motor_Start(MOTOR_RIGHT);	//็ตๆบๅ่ฝฌ2.9s๏ผ ๅฐไธขๅๅกๆธฃไฝ็ฝฎ
 4676              		.loc 1 1246 4
 4677 02e6 0120     		movs	r0, #1
 4678 02e8 FFF7FEFF 		bl	dc_motor_Start
1247:../app/app.c  **** 			run_max_time = RIGHT_TIMER(Ms_2900, Ms_100);
 4679              		.loc 1 1247 17
 4680 02ec 074B     		ldr	r3, .L439+16
 4681 02ee 1D22     		movs	r2, #29
 4682 02f0 1A80     		strh	r2, [r3]	@ movhi
1248:../app/app.c  **** 			app_task_substep = ESPRESSO_DROP_COFFEE_GROUNDS_STATE;	
 4683              		.loc 1 1248 21
 4684 02f2 024B     		ldr	r3, .L439
 4685 02f4 0E22     		movs	r2, #14
 4686 02f6 1A70     		strb	r2, [r3]
1249:../app/app.c  **** 			break;
 4687              		.loc 1 1249 4
 4688 02f8 9DE0     		b	.L407
 4689              	.L440:
 4690 02fa 00BF     		.align	2
 4691              	.L439:
 4692 02fc 00000000 		.word	app_task_substep
 4693 0300 00000000 		.word	CERRNT_STATE
 4694 0304 00000000 		.word	manual_setup
 4695 0308 00000000 		.word	cup_loop
 4696 030c 00000000 		.word	run_max_time
 4697              	.L390:
1250:../app/app.c  **** 		case ESPRESSO_DROP_COFFEE_GROUNDS_STATE:
1251:../app/app.c  **** 			if(--run_max_time == 0){
 4698              		.loc 1 1251 7
 4699 0310 4A4B     		ldr	r3, .L441
 4700 0312 1B88     		ldrh	r3, [r3]
 4701 0314 013B     		subs	r3, r3, #1
 4702 0316 9AB2     		uxth	r2, r3
 4703              		.loc 1 1251 6
 4704 0318 484B     		ldr	r3, .L441
 4705 031a 1A80     		strh	r2, [r3]	@ movhi
 4706              		.loc 1 1251 7
 4707 031c 474B     		ldr	r3, .L441
 4708 031e 1B88     		ldrh	r3, [r3]
 4709              		.loc 1 1251 6
 4710 0320 002B     		cmp	r3, #0
 4711 0322 09D1     		bne	.L425
1252:../app/app.c  **** 				dc_motor_Stop();
 4712              		.loc 1 1252 5
 4713 0324 FFF7FEFF 		bl	dc_motor_Stop
1253:../app/app.c  **** 				osal_lyh_delay_task(Ms_3000);
 4714              		.loc 1 1253 5
 4715 0328 40F6B830 		movw	r0, #3000
 4716 032c FFF7FEFF 		bl	osal_lyh_delay_task
1254:../app/app.c  **** 				app_task_substep = ESPRESSO_BACK_STATE;
 4717              		.loc 1 1254 22
 4718 0330 434B     		ldr	r3, .L441+4
 4719 0332 0F22     		movs	r2, #15
 4720 0334 1A70     		strb	r2, [r3]
1255:../app/app.c  **** 			}
1256:../app/app.c  **** 			else{
1257:../app/app.c  **** 				osal_lyh_delay_task(Ms_100);
1258:../app/app.c  **** 			}
1259:../app/app.c  **** 			break;
 4721              		.loc 1 1259 4
 4722 0336 7EE0     		b	.L407
 4723              	.L425:
1257:../app/app.c  **** 			}
 4724              		.loc 1 1257 5
 4725 0338 6420     		movs	r0, #100
 4726 033a FFF7FEFF 		bl	osal_lyh_delay_task
 4727              		.loc 1 1259 4
 4728 033e 7AE0     		b	.L407
 4729              	.L389:
1260:../app/app.c  **** 		/* ่ๅ็ตๆบ่ฟๅๅไฝ */
1261:../app/app.c  **** 		case ESPRESSO_BACK_STATE:		//็ตๆบๅๅไฝ่ฝฌๅจ
1262:../app/app.c  **** 			CERRNT_STATE = RST_STATE;	//่ฎฐๅฝ่ฟๅบฆ		
 4730              		.loc 1 1262 17
 4731 0340 404B     		ldr	r3, .L441+8
 4732 0342 0622     		movs	r2, #6
 4733 0344 1A70     		strb	r2, [r3]
1263:../app/app.c  **** 			dc_motor_Start(MOTOR_RIGHT);
 4734              		.loc 1 1263 4
 4735 0346 0120     		movs	r0, #1
 4736 0348 FFF7FEFF 		bl	dc_motor_Start
1264:../app/app.c  **** 			osal_lyh_delay_task(Ms_100);
 4737              		.loc 1 1264 4
 4738 034c 6420     		movs	r0, #100
 4739 034e FFF7FEFF 		bl	osal_lyh_delay_task
1265:../app/app.c  **** 			run_max_time = RIGHT_TIMER(Ms_5000, Ms_100);
 4740              		.loc 1 1265 17
 4741 0352 3A4B     		ldr	r3, .L441
 4742 0354 3222     		movs	r2, #50
 4743 0356 1A80     		strh	r2, [r3]	@ movhi
1266:../app/app.c  **** 			app_task_substep = ESPRESSO_INPLACE_JUDGE_STATE;
 4744              		.loc 1 1266 21
 4745 0358 394B     		ldr	r3, .L441+4
 4746 035a 1022     		movs	r2, #16
 4747 035c 1A70     		strb	r2, [r3]
1267:../app/app.c  **** 			break;	
 4748              		.loc 1 1267 4
 4749 035e 6AE0     		b	.L407
 4750              	.L388:
1268:../app/app.c  **** 		case ESPRESSO_INPLACE_JUDGE_STATE:			//ๅคๆญ็ตๆบๆฏๅฆๅฐๅ็น่งฆ็น
1269:../app/app.c  **** 			if ((MOTOR_STATE_STOPED ==dc_motor_GetState())
 4751              		.loc 1 1269 30
 4752 0360 FFF7FEFF 		bl	dc_motor_GetState
 4753 0364 0346     		mov	r3, r0
 4754              		.loc 1 1269 7
 4755 0366 002B     		cmp	r3, #0
 4756 0368 0ED0     		beq	.L427
1270:../app/app.c  **** 				|| (TRUE == app_motor_ready())
 4757              		.loc 1 1270 17
 4758 036a FFF7FEFF 		bl	app_motor_ready
 4759 036e 0346     		mov	r3, r0
 4760              		.loc 1 1270 5
 4761 0370 012B     		cmp	r3, #1
 4762 0372 09D0     		beq	.L427
1271:../app/app.c  **** 				|| (--run_max_time == 0)){
 4763              		.loc 1 1271 9
 4764 0374 314B     		ldr	r3, .L441
 4765 0376 1B88     		ldrh	r3, [r3]
 4766 0378 013B     		subs	r3, r3, #1
 4767 037a 9AB2     		uxth	r2, r3
 4768              		.loc 1 1271 5
 4769 037c 2F4B     		ldr	r3, .L441
 4770 037e 1A80     		strh	r2, [r3]	@ movhi
 4771              		.loc 1 1271 9
 4772 0380 2E4B     		ldr	r3, .L441
 4773 0382 1B88     		ldrh	r3, [r3]
 4774              		.loc 1 1271 5
 4775 0384 002B     		cmp	r3, #0
 4776 0386 05D1     		bne	.L428
 4777              	.L427:
1272:../app/app.c  **** 				dc_motor_Stop();
 4778              		.loc 1 1272 5
 4779 0388 FFF7FEFF 		bl	dc_motor_Stop
1273:../app/app.c  **** 				app_task_substep = ESPRESSO_INPLACE_STATE;					
 4780              		.loc 1 1273 22
 4781 038c 2C4B     		ldr	r3, .L441+4
 4782 038e 1122     		movs	r2, #17
 4783 0390 1A70     		strb	r2, [r3]
1274:../app/app.c  **** 			}
1275:../app/app.c  **** 			else {
1276:../app/app.c  **** 				osal_lyh_delay_task(Ms_100);
1277:../app/app.c  **** 			}
1278:../app/app.c  **** 			break;
 4784              		.loc 1 1278 4
 4785 0392 50E0     		b	.L407
 4786              	.L428:
1276:../app/app.c  **** 			}
 4787              		.loc 1 1276 5
 4788 0394 6420     		movs	r0, #100
 4789 0396 FFF7FEFF 		bl	osal_lyh_delay_task
 4790              		.loc 1 1278 4
 4791 039a 4CE0     		b	.L407
 4792              	.L387:
1279:../app/app.c  **** 		case ESPRESSO_INPLACE_STATE:			//็ตๆบๅ่ฝฌๅฐๅไฝ
1280:../app/app.c  **** 			dc_motor_Start(MOTOR_LEFT);
 4793              		.loc 1 1280 4
 4794 039c 0220     		movs	r0, #2
 4795 039e FFF7FEFF 		bl	dc_motor_Start
1281:../app/app.c  **** 			osal_lyh_delay_task(Ms_100);
 4796              		.loc 1 1281 4
 4797 03a2 6420     		movs	r0, #100
 4798 03a4 FFF7FEFF 		bl	osal_lyh_delay_task
1282:../app/app.c  **** 			run_max_time = LEFT_TIMER(MOTOR_FIX_TIME, Ms_100);
 4799              		.loc 1 1282 17
 4800 03a8 244B     		ldr	r3, .L441
 4801 03aa 0322     		movs	r2, #3
 4802 03ac 1A80     		strh	r2, [r3]	@ movhi
1283:../app/app.c  **** 			app_task_substep = ESPRESSO_MOTO_SECOND_RST_STATE;
 4803              		.loc 1 1283 21
 4804 03ae 244B     		ldr	r3, .L441+4
 4805 03b0 1222     		movs	r2, #18
 4806 03b2 1A70     		strb	r2, [r3]
1284:../app/app.c  **** 			break;	
 4807              		.loc 1 1284 4
 4808 03b4 3FE0     		b	.L407
 4809              	.L386:
1285:../app/app.c  **** 		case ESPRESSO_MOTO_SECOND_RST_STATE:	//ๅคๆญ็ตๆบๆฏๅฆๅ่ฝฌๅฐๅไฝ
1286:../app/app.c  **** 			if (1/*(FAIL == app_motor_ready())*/	// deleting point,(temp to cancel)
1287:../app/app.c  **** 				&& ((MOTOR_STATE_STOPED ==dc_motor_GetState())
 4810              		.loc 1 1287 31
 4811 03b6 FFF7FEFF 		bl	dc_motor_GetState
 4812 03ba 0346     		mov	r3, r0
1286:../app/app.c  **** 				&& ((MOTOR_STATE_STOPED ==dc_motor_GetState())
 4813              		.loc 1 1286 7
 4814 03bc 002B     		cmp	r3, #0
 4815 03be 09D0     		beq	.L430
1288:../app/app.c  **** 				|| (--run_max_time == 0))){
 4816              		.loc 1 1288 9
 4817 03c0 1E4B     		ldr	r3, .L441
 4818 03c2 1B88     		ldrh	r3, [r3]
 4819 03c4 013B     		subs	r3, r3, #1
 4820 03c6 9AB2     		uxth	r2, r3
1287:../app/app.c  **** 				|| (--run_max_time == 0))){
 4821              		.loc 1 1287 5
 4822 03c8 1C4B     		ldr	r3, .L441
 4823 03ca 1A80     		strh	r2, [r3]	@ movhi
 4824              		.loc 1 1288 9
 4825 03cc 1B4B     		ldr	r3, .L441
 4826 03ce 1B88     		ldrh	r3, [r3]
1287:../app/app.c  **** 				|| (--run_max_time == 0))){
 4827              		.loc 1 1287 5
 4828 03d0 002B     		cmp	r3, #0
 4829 03d2 05D1     		bne	.L431
 4830              	.L430:
1289:../app/app.c  **** 				dc_motor_Stop();
 4831              		.loc 1 1289 5
 4832 03d4 FFF7FEFF 		bl	dc_motor_Stop
1290:../app/app.c  **** 				app_task_substep = ESPRESSO_JUDGE_TWO_CUP_STATE;
 4833              		.loc 1 1290 22
 4834 03d8 194B     		ldr	r3, .L441+4
 4835 03da 1322     		movs	r2, #19
 4836 03dc 1A70     		strb	r2, [r3]
1291:../app/app.c  **** 			}
1292:../app/app.c  **** 			else {
1293:../app/app.c  **** 				osal_lyh_delay_task(Ms_100);
1294:../app/app.c  **** 			}
1295:../app/app.c  **** 			break;
 4837              		.loc 1 1295 4
 4838 03de 2AE0     		b	.L407
 4839              	.L431:
1293:../app/app.c  **** 			}
 4840              		.loc 1 1293 5
 4841 03e0 6420     		movs	r0, #100
 4842 03e2 FFF7FEFF 		bl	osal_lyh_delay_task
 4843              		.loc 1 1295 4
 4844 03e6 26E0     		b	.L407
 4845              	.L385:
1296:../app/app.c  **** 		/* ๅคๆญๆฏๅฆ็ปง็ปญๅถไฝ็ฌฌไบๆฏ */
1297:../app/app.c  **** 		case ESPRESSO_JUDGE_TWO_CUP_STATE:
1298:../app/app.c  **** 			if (1 == cup_loop){
 4846              		.loc 1 1298 10
 4847 03e8 174B     		ldr	r3, .L441+12
 4848 03ea 1B78     		ldrb	r3, [r3]	@ zero_extendqisi2
 4849              		.loc 1 1298 7
 4850 03ec 012B     		cmp	r3, #1
 4851 03ee 0AD1     		bne	.L433
1299:../app/app.c  **** 				app_task_substep = ESPRESSO_MOTO_CHECK_STATE;	//็ปง็ปญๅถไฝ็ฌฌไบๆฏ
 4852              		.loc 1 1299 22
 4853 03f0 134B     		ldr	r3, .L441+4
 4854 03f2 0122     		movs	r2, #1
 4855 03f4 1A70     		strb	r2, [r3]
1300:../app/app.c  **** 				cup_loop = 0;
 4856              		.loc 1 1300 14
 4857 03f6 144B     		ldr	r3, .L441+12
 4858 03f8 0022     		movs	r2, #0
 4859 03fa 1A70     		strb	r2, [r3]
1301:../app/app.c  **** 				osal_lyh_delay_task(Ms_500);
 4860              		.loc 1 1301 5
 4861 03fc 4FF4FA70 		mov	r0, #500
 4862 0400 FFF7FEFF 		bl	osal_lyh_delay_task
1302:../app/app.c  **** 			}
1303:../app/app.c  **** 			else {
1304:../app/app.c  **** 				app_task_substep = ESPRESSO_COMPLETE_STATE;		//ๅถไฝๅฎๆ
1305:../app/app.c  **** 			}
1306:../app/app.c  **** 			break;
 4863              		.loc 1 1306 4
 4864 0404 17E0     		b	.L407
 4865              	.L433:
1304:../app/app.c  **** 			}
 4866              		.loc 1 1304 22
 4867 0406 0E4B     		ldr	r3, .L441+4
 4868 0408 1422     		movs	r2, #20
 4869 040a 1A70     		strb	r2, [r3]
 4870              		.loc 1 1306 4
 4871 040c 13E0     		b	.L407
 4872              	.L383:
1307:../app/app.c  **** 		/* ๅถไฝๅฎๆ็ถๆ */
1308:../app/app.c  **** 		case ESPRESSO_COMPLETE_STATE:
1309:../app/app.c  **** 			CERRNT_STATE = NULL_STATE;	//่ฎฐๅฝ่ฟๅบฆ
 4873              		.loc 1 1309 17
 4874 040e 0D4B     		ldr	r3, .L441+8
 4875 0410 0022     		movs	r2, #0
 4876 0412 1A70     		strb	r2, [r3]
1310:../app/app.c  **** 			app_turn_heat_off();		//ๅณ้ญๅ ็ญ
 4877              		.loc 1 1310 4
 4878 0414 FFF7FEFF 		bl	app_turn_heat_off
1311:../app/app.c  **** 			flush_flag = 1;				//็ฝฎไฝๅฒๆด
 4879              		.loc 1 1311 15
 4880 0418 0C4B     		ldr	r3, .L441+16
 4881 041a 0122     		movs	r2, #1
 4882 041c 1A70     		strb	r2, [r3]
1312:../app/app.c  **** 			app_led_finish_step();		//ๆง่กๅฎๆๅ็ๆ็คบ็ฏๆพ็คบ
 4883              		.loc 1 1312 4
 4884 041e FFF7FEFF 		bl	app_led_finish_step
1313:../app/app.c  **** 			app_task_nextstep(APP_NORMAL_STATE, NORMAL_INIT_STATE);		//ๅๅฐnormal็ถๆ๏ผ็ญๅพไธไธๆฌกๆ
 4885              		.loc 1 1313 4
 4886 0422 0021     		movs	r1, #0
 4887 0424 0320     		movs	r0, #3
 4888 0426 FFF7FEFF 		bl	app_task_nextstep
1314:../app/app.c  **** 			break;
 4889              		.loc 1 1314 4
 4890 042a 04E0     		b	.L407
 4891              	.L435:
1315:../app/app.c  **** 		default:
1316:../app/app.c  **** 			break;
 4892              		.loc 1 1316 4
 4893 042c 00BF     		nop
 4894 042e 02E0     		b	.L438
 4895              	.L436:
1172:../app/app.c  **** 		case ESPRESSO_GRIND_END_STATE:
 4896              		.loc 1 1172 4
 4897 0430 00BF     		nop
 4898 0432 00E0     		b	.L438
 4899              	.L437:
1237:../app/app.c  **** 		case ESPRESSO_BREW_FINISH_STATE:	//ๅฒ็ฎๅฎๆ
 4900              		.loc 1 1237 4
 4901 0434 00BF     		nop
 4902              	.L407:
 4903              	.L438:
1317:../app/app.c  **** 	}
1318:../app/app.c  **** }
 4904              		.loc 1 1318 1
 4905 0436 00BF     		nop
 4906 0438 80BD     		pop	{r7, pc}
 4907              	.L442:
 4908 043a 00BF     		.align	2
 4909              	.L441:
 4910 043c 00000000 		.word	run_max_time
 4911 0440 00000000 		.word	app_task_substep
 4912 0444 00000000 		.word	CERRNT_STATE
 4913 0448 00000000 		.word	cup_loop
 4914 044c 00000000 		.word	flush_flag
 4915              		.cfi_endproc
 4916              	.LFE169:
 4918              		.section	.text.app_american_handler,"ax",%progbits
 4919              		.align	1
 4920              		.global	app_american_handler
 4921              		.syntax unified
 4922              		.thumb
 4923              		.thumb_func
 4924              		.fpu softvfp
 4926              	app_american_handler:
 4927              	.LFB170:
1319:../app/app.c  **** 
1320:../app/app.c  **** /************************************************************************
1321:../app/app.c  **** * function name: app_american_handler
1322:../app/app.c  **** * input: non
1323:../app/app.c  **** * output: non
1324:../app/app.c  **** * description: object thread
1325:../app/app.c  **** *************************************************************************/
1326:../app/app.c  **** void app_american_handler(void)
1327:../app/app.c  **** {
 4928              		.loc 1 1327 1
 4929              		.cfi_startproc
 4930              		@ args = 0, pretend = 0, frame = 0
 4931              		@ frame_needed = 1, uses_anonymous_args = 0
 4932 0000 80B5     		push	{r7, lr}
 4933              		.cfi_def_cfa_offset 8
 4934              		.cfi_offset 7, -8
 4935              		.cfi_offset 14, -4
 4936 0002 00AF     		add	r7, sp, #0
 4937              		.cfi_def_cfa_register 7
1328:../app/app.c  **** 	switch(app_task_substep)
 4938              		.loc 1 1328 2
 4939 0004 BD4B     		ldr	r3, .L533
 4940 0006 1B78     		ldrb	r3, [r3]	@ zero_extendqisi2
 4941 0008 212B     		cmp	r3, #33
 4942 000a 00F23E83 		bhi	.L529
 4943 000e 01A2     		adr	r2, .L446
 4944 0010 52F823F0 		ldr	pc, [r2, r3, lsl #2]
 4945              		.p2align 2
 4946              	.L446:
 4947 0014 9D000000 		.word	.L479+1
 4948 0018 D9000000 		.word	.L478+1
 4949 001c F3000000 		.word	.L477+1
 4950 0020 2F010000 		.word	.L476+1
 4951 0024 49010000 		.word	.L475+1
 4952 0028 7B010000 		.word	.L474+1
 4953 002c DF010000 		.word	.L473+1
 4954 0030 0F020000 		.word	.L472+1
 4955 0034 2F020000 		.word	.L471+1
 4956 0038 6B020000 		.word	.L470+1
 4957 003c 87020000 		.word	.L469+1
 4958 0040 9B020000 		.word	.L468+1
 4959 0044 B7020000 		.word	.L467+1
 4960 0048 CB020000 		.word	.L466+1
 4961 004c E7020000 		.word	.L465+1
 4962 0050 11030000 		.word	.L464+1
 4963 0054 31030000 		.word	.L463+1
 4964 0058 6D030000 		.word	.L462+1
 4965 005c 87030000 		.word	.L461+1
 4966 0060 B9030000 		.word	.L460+1
 4967 0064 ED030000 		.word	.L459+1
 4968 0068 07040000 		.word	.L458+1
 4969 006c 43040000 		.word	.L457+1
 4970 0070 5D040000 		.word	.L456+1
 4971 0074 8F040000 		.word	.L455+1
 4972 0078 9F040000 		.word	.L454+1
 4973 007c BF040000 		.word	.L453+1
 4974 0080 FB040000 		.word	.L452+1
 4975 0084 8F050000 		.word	.L451+1
 4976 0088 A3050000 		.word	.L450+1
 4977 008c E5050000 		.word	.L449+1
 4978 0090 21060000 		.word	.L448+1
 4979 0094 3B060000 		.word	.L447+1
 4980 0098 6D060000 		.word	.L445+1
 4981              		.p2align 1
 4982              	.L479:
1329:../app/app.c  **** 	{
1330:../app/app.c  **** 		/* ๅๅงๅ็ถๆ */
1331:../app/app.c  **** 		case AMERICANO_INIT_STATE:
1332:../app/app.c  **** 			CERRNT_STATE = INIT_AND_GRIND_STATE;	//่ฎฐๅฝ่ฟๅบฆ
 4983              		.loc 1 1332 17
 4984 009c 984B     		ldr	r3, .L533+4
 4985 009e 0122     		movs	r2, #1
 4986 00a0 1A70     		strb	r2, [r3]
1333:../app/app.c  **** 			app_leds_all_fun(LED_OFF);
 4987              		.loc 1 1333 4
 4988 00a2 0020     		movs	r0, #0
 4989 00a4 FFF7FEFF 		bl	app_leds_all_fun
1334:../app/app.c  **** 			app_leds_all_ind(LED_OFF);
 4990              		.loc 1 1334 4
 4991 00a8 0020     		movs	r0, #0
 4992 00aa FFF7FEFF 		bl	app_leds_all_ind
1335:../app/app.c  **** 			display_led(START_LED, LED_ON);
 4993              		.loc 1 1335 4
 4994 00ae 0121     		movs	r1, #1
 4995 00b0 0520     		movs	r0, #5
 4996 00b2 FFF7FEFF 		bl	display_led
1336:../app/app.c  **** 			app_led_americano_init();		//ๅๅงๅamericanoๆ็คบ็ฏ้ช็
 4997              		.loc 1 1336 4
 4998 00b6 FFF7FEFF 		bl	app_led_americano_init
1337:../app/app.c  **** 			if(1 == manual_setup.cup){		//ๅคๆญๆฌๆฌกๅถไฝๆฏๆฐ
 4999              		.loc 1 1337 24
 5000 00ba 924B     		ldr	r3, .L533+8
 5001 00bc 1B78     		ldrb	r3, [r3]	@ zero_extendqisi2
 5002              		.loc 1 1337 6
 5003 00be 012B     		cmp	r3, #1
 5004 00c0 03D1     		bne	.L480
1338:../app/app.c  **** 				cup_loop = 1;
 5005              		.loc 1 1338 14
 5006 00c2 914B     		ldr	r3, .L533+12
 5007 00c4 0122     		movs	r2, #1
 5008 00c6 1A70     		strb	r2, [r3]
 5009 00c8 02E0     		b	.L481
 5010              	.L480:
1339:../app/app.c  **** 			}
1340:../app/app.c  **** 			else{
1341:../app/app.c  **** 				cup_loop = 0;
 5011              		.loc 1 1341 14
 5012 00ca 8F4B     		ldr	r3, .L533+12
 5013 00cc 0022     		movs	r2, #0
 5014 00ce 1A70     		strb	r2, [r3]
 5015              	.L481:
1342:../app/app.c  **** 			}
1343:../app/app.c  **** 			app_task_substep = AMERICANO_MOTO_CHECK_STATE;
 5016              		.loc 1 1343 21
 5017 00d0 8A4B     		ldr	r3, .L533
 5018 00d2 0122     		movs	r2, #1
 5019 00d4 1A70     		strb	r2, [r3]
1344:../app/app.c  **** 			break;
 5020              		.loc 1 1344 4
 5021 00d6 DDE2     		b	.L482
 5022              	.L478:
1345:../app/app.c  **** 		/* ่ๅ็ตๆบไฝ็ฝฎๆฃๆต */
1346:../app/app.c  **** 		case AMERICANO_MOTO_CHECK_STATE:	
1347:../app/app.c  **** 			dc_motor_Start(MOTOR_RIGHT);
 5023              		.loc 1 1347 4
 5024 00d8 0120     		movs	r0, #1
 5025 00da FFF7FEFF 		bl	dc_motor_Start
1348:../app/app.c  **** 			osal_lyh_delay_task(Ms_100);
 5026              		.loc 1 1348 4
 5027 00de 6420     		movs	r0, #100
 5028 00e0 FFF7FEFF 		bl	osal_lyh_delay_task
1349:../app/app.c  **** 			run_max_time = RIGHT_TIMER(Ms_3000, Ms_100);
 5029              		.loc 1 1349 17
 5030 00e4 894B     		ldr	r3, .L533+16
 5031 00e6 1E22     		movs	r2, #30
 5032 00e8 1A80     		strh	r2, [r3]	@ movhi
1350:../app/app.c  **** 			app_task_substep = AMERICANO_MOTO_CHECK_JUDGE_STATE;
 5033              		.loc 1 1350 21
 5034 00ea 844B     		ldr	r3, .L533
 5035 00ec 0222     		movs	r2, #2
 5036 00ee 1A70     		strb	r2, [r3]
1351:../app/app.c  **** 			break;
 5037              		.loc 1 1351 4
 5038 00f0 D0E2     		b	.L482
 5039              	.L477:
1352:../app/app.c  **** 		/* ๅคๆญ่ๅ็ตๆบๆฏๅฆ่งฆ็ขฐๅ็น่งฆ็น */
1353:../app/app.c  **** 		case AMERICANO_MOTO_CHECK_JUDGE_STATE:
1354:../app/app.c  **** 			if ((MOTOR_STATE_STOPED ==dc_motor_GetState())
 5040              		.loc 1 1354 30
 5041 00f2 FFF7FEFF 		bl	dc_motor_GetState
 5042 00f6 0346     		mov	r3, r0
 5043              		.loc 1 1354 7
 5044 00f8 002B     		cmp	r3, #0
 5045 00fa 0ED0     		beq	.L483
1355:../app/app.c  **** 				|| (TRUE == app_motor_ready())
 5046              		.loc 1 1355 17
 5047 00fc FFF7FEFF 		bl	app_motor_ready
 5048 0100 0346     		mov	r3, r0
 5049              		.loc 1 1355 5
 5050 0102 012B     		cmp	r3, #1
 5051 0104 09D0     		beq	.L483
1356:../app/app.c  **** 				|| (--run_max_time == 0)){
 5052              		.loc 1 1356 9
 5053 0106 814B     		ldr	r3, .L533+16
 5054 0108 1B88     		ldrh	r3, [r3]
 5055 010a 013B     		subs	r3, r3, #1
 5056 010c 9AB2     		uxth	r2, r3
 5057              		.loc 1 1356 5
 5058 010e 7F4B     		ldr	r3, .L533+16
 5059 0110 1A80     		strh	r2, [r3]	@ movhi
 5060              		.loc 1 1356 9
 5061 0112 7E4B     		ldr	r3, .L533+16
 5062 0114 1B88     		ldrh	r3, [r3]
 5063              		.loc 1 1356 5
 5064 0116 002B     		cmp	r3, #0
 5065 0118 05D1     		bne	.L484
 5066              	.L483:
1357:../app/app.c  **** 				dc_motor_Stop();
 5067              		.loc 1 1357 5
 5068 011a FFF7FEFF 		bl	dc_motor_Stop
1358:../app/app.c  **** 				app_task_substep = AMERICANO_MOTO_FIRST_RST_STATE;					
 5069              		.loc 1 1358 22
 5070 011e 774B     		ldr	r3, .L533
 5071 0120 0322     		movs	r2, #3
 5072 0122 1A70     		strb	r2, [r3]
1359:../app/app.c  **** 			}
1360:../app/app.c  **** 			else {
1361:../app/app.c  **** 				osal_lyh_delay_task(Ms_100);
1362:../app/app.c  **** 			}
1363:../app/app.c  **** 			break;
 5073              		.loc 1 1363 4
 5074 0124 B6E2     		b	.L482
 5075              	.L484:
1361:../app/app.c  **** 			}
 5076              		.loc 1 1361 5
 5077 0126 6420     		movs	r0, #100
 5078 0128 FFF7FEFF 		bl	osal_lyh_delay_task
 5079              		.loc 1 1363 4
 5080 012c B2E2     		b	.L482
 5081              	.L476:
1364:../app/app.c  **** 		/* ่ๅ็ตๆบๅๅ่ฝฌๅฐๅ็น */
1365:../app/app.c  **** 		case AMERICANO_MOTO_FIRST_RST_STATE:
1366:../app/app.c  **** 			dc_motor_Start(MOTOR_LEFT);
 5082              		.loc 1 1366 4
 5083 012e 0220     		movs	r0, #2
 5084 0130 FFF7FEFF 		bl	dc_motor_Start
1367:../app/app.c  **** 			osal_lyh_delay_task(Ms_100);
 5085              		.loc 1 1367 4
 5086 0134 6420     		movs	r0, #100
 5087 0136 FFF7FEFF 		bl	osal_lyh_delay_task
1368:../app/app.c  **** 			run_max_time = LEFT_TIMER(MOTOR_FIX_TIME, Ms_100);
 5088              		.loc 1 1368 17
 5089 013a 744B     		ldr	r3, .L533+16
 5090 013c 0322     		movs	r2, #3
 5091 013e 1A80     		strh	r2, [r3]	@ movhi
1369:../app/app.c  **** 			app_task_substep = AMERICANO_MOTO_CHECK_COMPLETE_STATE;
 5092              		.loc 1 1369 21
 5093 0140 6E4B     		ldr	r3, .L533
 5094 0142 0422     		movs	r2, #4
 5095 0144 1A70     		strb	r2, [r3]
1370:../app/app.c  **** 			break;
 5096              		.loc 1 1370 4
 5097 0146 A5E2     		b	.L482
 5098              	.L475:
1371:../app/app.c  **** 		/* ๅคๆญ่ๅ็ตๆบๆฏๅฆๅฎๆๅ่ฝฌ */
1372:../app/app.c  **** 		case AMERICANO_MOTO_CHECK_COMPLETE_STATE:
1373:../app/app.c  **** 			if (1/*(FAIL == app_motor_ready())*/	// deleting point,(temp to cancel)
1374:../app/app.c  **** 				&& ((MOTOR_STATE_STOPED ==dc_motor_GetState())
 5099              		.loc 1 1374 31
 5100 0148 FFF7FEFF 		bl	dc_motor_GetState
 5101 014c 0346     		mov	r3, r0
1373:../app/app.c  **** 				&& ((MOTOR_STATE_STOPED ==dc_motor_GetState())
 5102              		.loc 1 1373 7
 5103 014e 002B     		cmp	r3, #0
 5104 0150 09D0     		beq	.L486
1375:../app/app.c  **** 				|| (--run_max_time == 0))){
 5105              		.loc 1 1375 9
 5106 0152 6E4B     		ldr	r3, .L533+16
 5107 0154 1B88     		ldrh	r3, [r3]
 5108 0156 013B     		subs	r3, r3, #1
 5109 0158 9AB2     		uxth	r2, r3
1374:../app/app.c  **** 				|| (--run_max_time == 0))){
 5110              		.loc 1 1374 5
 5111 015a 6C4B     		ldr	r3, .L533+16
 5112 015c 1A80     		strh	r2, [r3]	@ movhi
 5113              		.loc 1 1375 9
 5114 015e 6B4B     		ldr	r3, .L533+16
 5115 0160 1B88     		ldrh	r3, [r3]
1374:../app/app.c  **** 				|| (--run_max_time == 0))){
 5116              		.loc 1 1374 5
 5117 0162 002B     		cmp	r3, #0
 5118 0164 05D1     		bne	.L487
 5119              	.L486:
1376:../app/app.c  **** 				dc_motor_Stop();
 5120              		.loc 1 1376 5
 5121 0166 FFF7FEFF 		bl	dc_motor_Stop
1377:../app/app.c  **** 				app_task_substep = AMERICANO_GRIND_TIME_JUDGE_STATE;					
 5122              		.loc 1 1377 22
 5123 016a 644B     		ldr	r3, .L533
 5124 016c 0522     		movs	r2, #5
 5125 016e 1A70     		strb	r2, [r3]
1378:../app/app.c  **** 			}
1379:../app/app.c  **** 			else {
1380:../app/app.c  **** 				osal_lyh_delay_task(Ms_100);
1381:../app/app.c  **** 			}
1382:../app/app.c  **** 			break;
 5126              		.loc 1 1382 4
 5127 0170 90E2     		b	.L482
 5128              	.L487:
1380:../app/app.c  **** 			}
 5129              		.loc 1 1380 5
 5130 0172 6420     		movs	r0, #100
 5131 0174 FFF7FEFF 		bl	osal_lyh_delay_task
 5132              		.loc 1 1382 4
 5133 0178 8CE2     		b	.L482
 5134              	.L474:
1383:../app/app.c  **** 		/* ็ ็ฃจๅๅก่ฑ */
1384:../app/app.c  **** 		case AMERICANO_GRIND_TIME_JUDGE_STATE:
1385:../app/app.c  **** 			app_turn_heat_on(TARGET_TEMP_100D);		//ๅผๅฏๅ ็ญ
 5135              		.loc 1 1385 4
 5136 017a 40F63E00 		movw	r0, #2110
 5137 017e FFF7FEFF 		bl	app_turn_heat_on
1386:../app/app.c  **** 			if(0 == manual_setup.coffee)	//็ ็ฃจๆถ้ดๆ นๆฎcoffee็จๅบฆ่ฐๆด๏ผx1=8s,x2=9s,x3=10s
 5138              		.loc 1 1386 24
 5139 0182 604B     		ldr	r3, .L533+8
 5140 0184 5B78     		ldrb	r3, [r3, #1]	@ zero_extendqisi2
 5141              		.loc 1 1386 6
 5142 0186 002B     		cmp	r3, #0
 5143 0188 0AD1     		bne	.L489
1387:../app/app.c  **** 			{
1388:../app/app.c  **** 				ac_grind_start(1000);		//ๅฏๅจ็ ็ฃจ็ตๆบ
 5144              		.loc 1 1388 5
 5145 018a 4FF47A70 		mov	r0, #1000
 5146 018e FFF7FEFF 		bl	ac_grind_start
1389:../app/app.c  **** 				run_max_time = GRIND_TIMER(Ms_8000, Ms_100);
 5147              		.loc 1 1389 18
 5148 0192 5E4B     		ldr	r3, .L533+16
 5149 0194 5022     		movs	r2, #80
 5150 0196 1A80     		strh	r2, [r3]	@ movhi
1390:../app/app.c  **** 				app_task_substep = AMERICANO_GRIND_STATE;
 5151              		.loc 1 1390 22
 5152 0198 584B     		ldr	r3, .L533
 5153 019a 0622     		movs	r2, #6
 5154 019c 1A70     		strb	r2, [r3]
1391:../app/app.c  **** 			}
1392:../app/app.c  **** 			else if (1 == manual_setup.coffee)
1393:../app/app.c  **** 			{
1394:../app/app.c  **** 				ac_grind_start(1000);		//ๅฏๅจ็ ็ฃจ็ตๆบ
1395:../app/app.c  **** 				run_max_time = GRIND_TIMER(Ms_9000, Ms_100);
1396:../app/app.c  **** 				app_task_substep = AMERICANO_GRIND_STATE;	
1397:../app/app.c  **** 			}			
1398:../app/app.c  **** 			else if(2 == manual_setup.coffee)
1399:../app/app.c  **** 			{
1400:../app/app.c  **** 				ac_grind_start(1000);		//ๅฏๅจ็ ็ฃจ็ตๆบ
1401:../app/app.c  **** 				run_max_time = GRIND_TIMER(Ms_10000, Ms_100);
1402:../app/app.c  **** 				app_task_substep = AMERICANO_GRIND_STATE;	
1403:../app/app.c  **** 			}
1404:../app/app.c  **** 			break;
 5155              		.loc 1 1404 4
 5156 019e 76E2     		b	.L530
 5157              	.L489:
1392:../app/app.c  **** 			{
 5158              		.loc 1 1392 30
 5159 01a0 584B     		ldr	r3, .L533+8
 5160 01a2 5B78     		ldrb	r3, [r3, #1]	@ zero_extendqisi2
1392:../app/app.c  **** 			{
 5161              		.loc 1 1392 12
 5162 01a4 012B     		cmp	r3, #1
 5163 01a6 0AD1     		bne	.L491
1394:../app/app.c  **** 				run_max_time = GRIND_TIMER(Ms_9000, Ms_100);
 5164              		.loc 1 1394 5
 5165 01a8 4FF47A70 		mov	r0, #1000
 5166 01ac FFF7FEFF 		bl	ac_grind_start
1395:../app/app.c  **** 				app_task_substep = AMERICANO_GRIND_STATE;	
 5167              		.loc 1 1395 18
 5168 01b0 564B     		ldr	r3, .L533+16
 5169 01b2 5A22     		movs	r2, #90
 5170 01b4 1A80     		strh	r2, [r3]	@ movhi
1396:../app/app.c  **** 			}			
 5171              		.loc 1 1396 22
 5172 01b6 514B     		ldr	r3, .L533
 5173 01b8 0622     		movs	r2, #6
 5174 01ba 1A70     		strb	r2, [r3]
 5175              		.loc 1 1404 4
 5176 01bc 67E2     		b	.L530
 5177              	.L491:
1398:../app/app.c  **** 			{
 5178              		.loc 1 1398 29
 5179 01be 514B     		ldr	r3, .L533+8
 5180 01c0 5B78     		ldrb	r3, [r3, #1]	@ zero_extendqisi2
1398:../app/app.c  **** 			{
 5181              		.loc 1 1398 11
 5182 01c2 022B     		cmp	r3, #2
 5183 01c4 40F06382 		bne	.L530
1400:../app/app.c  **** 				run_max_time = GRIND_TIMER(Ms_10000, Ms_100);
 5184              		.loc 1 1400 5
 5185 01c8 4FF47A70 		mov	r0, #1000
 5186 01cc FFF7FEFF 		bl	ac_grind_start
1401:../app/app.c  **** 				app_task_substep = AMERICANO_GRIND_STATE;	
 5187              		.loc 1 1401 18
 5188 01d0 4E4B     		ldr	r3, .L533+16
 5189 01d2 6422     		movs	r2, #100
 5190 01d4 1A80     		strh	r2, [r3]	@ movhi
1402:../app/app.c  **** 			}
 5191              		.loc 1 1402 22
 5192 01d6 494B     		ldr	r3, .L533
 5193 01d8 0622     		movs	r2, #6
 5194 01da 1A70     		strb	r2, [r3]
 5195              		.loc 1 1404 4
 5196 01dc 57E2     		b	.L530
 5197              	.L473:
1405:../app/app.c  **** 		case AMERICANO_GRIND_STATE:
1406:../app/app.c  **** 			if (--run_max_time == 0){	//ๅคๆญ็ ็ฃจๆถ้ดๆฏๅฆๅฐ่พพ
 5198              		.loc 1 1406 8
 5199 01de 4B4B     		ldr	r3, .L533+16
 5200 01e0 1B88     		ldrh	r3, [r3]
 5201 01e2 013B     		subs	r3, r3, #1
 5202 01e4 9AB2     		uxth	r2, r3
 5203              		.loc 1 1406 7
 5204 01e6 494B     		ldr	r3, .L533+16
 5205 01e8 1A80     		strh	r2, [r3]	@ movhi
 5206              		.loc 1 1406 8
 5207 01ea 484B     		ldr	r3, .L533+16
 5208 01ec 1B88     		ldrh	r3, [r3]
 5209              		.loc 1 1406 7
 5210 01ee 002B     		cmp	r3, #0
 5211 01f0 09D1     		bne	.L492
1407:../app/app.c  **** 				ac_grind_stop();
 5212              		.loc 1 1407 5
 5213 01f2 FFF7FEFF 		bl	ac_grind_stop
1408:../app/app.c  **** 				osal_lyh_delay_task(Ms_1000);
 5214              		.loc 1 1408 5
 5215 01f6 4FF47A70 		mov	r0, #1000
 5216 01fa FFF7FEFF 		bl	osal_lyh_delay_task
1409:../app/app.c  **** 				app_task_substep = AMERICANO_MOTO_GO_BREW_STATE;	
 5217              		.loc 1 1409 22
 5218 01fe 3F4B     		ldr	r3, .L533
 5219 0200 0722     		movs	r2, #7
 5220 0202 1A70     		strb	r2, [r3]
1410:../app/app.c  **** 			}
1411:../app/app.c  **** 			else {
1412:../app/app.c  **** 				osal_lyh_delay_task(Ms_100);
1413:../app/app.c  **** 			}
1414:../app/app.c  **** 			break;
 5221              		.loc 1 1414 4
 5222 0204 46E2     		b	.L482
 5223              	.L492:
1412:../app/app.c  **** 			}
 5224              		.loc 1 1412 5
 5225 0206 6420     		movs	r0, #100
 5226 0208 FFF7FEFF 		bl	osal_lyh_delay_task
 5227              		.loc 1 1414 4
 5228 020c 42E2     		b	.L482
 5229              	.L472:
1415:../app/app.c  **** 		/* ่ๅ็ตๆบ่ฝฌๅฐ่ๅไฝ็ฝฎ */
1416:../app/app.c  **** 		case AMERICANO_MOTO_GO_BREW_STATE:
1417:../app/app.c  **** 			CERRNT_STATE = GO_BREW_STATE;	//่ฎฐๅฝ่ฟๅบฆ		
 5230              		.loc 1 1417 17
 5231 020e 3C4B     		ldr	r3, .L533+4
 5232 0210 0222     		movs	r2, #2
 5233 0212 1A70     		strb	r2, [r3]
1418:../app/app.c  **** 			dc_motor_Start(MOTOR_LEFT);		
 5234              		.loc 1 1418 4
 5235 0214 0220     		movs	r0, #2
 5236 0216 FFF7FEFF 		bl	dc_motor_Start
1419:../app/app.c  **** 			osal_lyh_delay_task(Ms_100);
 5237              		.loc 1 1419 4
 5238 021a 6420     		movs	r0, #100
 5239 021c FFF7FEFF 		bl	osal_lyh_delay_task
1420:../app/app.c  **** 			run_max_time = LEFT_TIMER(Ms_7000, Ms_100);
 5240              		.loc 1 1420 17
 5241 0220 3A4B     		ldr	r3, .L533+16
 5242 0222 4622     		movs	r2, #70
 5243 0224 1A80     		strh	r2, [r3]	@ movhi
1421:../app/app.c  **** 			app_task_substep = AMERICANO_MOTO_GO_BREW_JUDGE_STATE;
 5244              		.loc 1 1421 21
 5245 0226 354B     		ldr	r3, .L533
 5246 0228 0822     		movs	r2, #8
 5247 022a 1A70     		strb	r2, [r3]
1422:../app/app.c  **** 			break;
 5248              		.loc 1 1422 4
 5249 022c 32E2     		b	.L482
 5250              	.L471:
1423:../app/app.c  **** 		/* ๅคๆญ่ๅ็ตๆบๆฏๅฆๅฐ่พพ่ๅไฝ็ฝฎ */
1424:../app/app.c  **** 		case AMERICANO_MOTO_GO_BREW_JUDGE_STATE:
1425:../app/app.c  **** 			if ((MOTOR_STATE_STOPED ==dc_motor_GetState())
 5251              		.loc 1 1425 30
 5252 022e FFF7FEFF 		bl	dc_motor_GetState
 5253 0232 0346     		mov	r3, r0
 5254              		.loc 1 1425 7
 5255 0234 002B     		cmp	r3, #0
 5256 0236 0ED0     		beq	.L494
1426:../app/app.c  **** 				|| (TRUE == app_motor_ready())
 5257              		.loc 1 1426 17
 5258 0238 FFF7FEFF 		bl	app_motor_ready
 5259 023c 0346     		mov	r3, r0
 5260              		.loc 1 1426 5
 5261 023e 012B     		cmp	r3, #1
 5262 0240 09D0     		beq	.L494
1427:../app/app.c  **** 				|| (--run_max_time == 0)){
 5263              		.loc 1 1427 9
 5264 0242 324B     		ldr	r3, .L533+16
 5265 0244 1B88     		ldrh	r3, [r3]
 5266 0246 013B     		subs	r3, r3, #1
 5267 0248 9AB2     		uxth	r2, r3
 5268              		.loc 1 1427 5
 5269 024a 304B     		ldr	r3, .L533+16
 5270 024c 1A80     		strh	r2, [r3]	@ movhi
 5271              		.loc 1 1427 9
 5272 024e 2F4B     		ldr	r3, .L533+16
 5273 0250 1B88     		ldrh	r3, [r3]
 5274              		.loc 1 1427 5
 5275 0252 002B     		cmp	r3, #0
 5276 0254 05D1     		bne	.L495
 5277              	.L494:
1428:../app/app.c  **** 				dc_motor_Stop();
 5278              		.loc 1 1428 5
 5279 0256 FFF7FEFF 		bl	dc_motor_Stop
1429:../app/app.c  **** 				app_task_substep = AMERICANO_PRE_BREW_STATE;	
 5280              		.loc 1 1429 22
 5281 025a 284B     		ldr	r3, .L533
 5282 025c 0922     		movs	r2, #9
 5283 025e 1A70     		strb	r2, [r3]
1430:../app/app.c  **** 			}
1431:../app/app.c  **** 			else {
1432:../app/app.c  **** 				osal_lyh_delay_task(Ms_100);
1433:../app/app.c  **** 			}			
1434:../app/app.c  **** 			break;
 5284              		.loc 1 1434 4
 5285 0260 18E2     		b	.L482
 5286              	.L495:
1432:../app/app.c  **** 			}			
 5287              		.loc 1 1432 5
 5288 0262 6420     		movs	r0, #100
 5289 0264 FFF7FEFF 		bl	osal_lyh_delay_task
 5290              		.loc 1 1434 4
 5291 0268 14E2     		b	.L482
 5292              	.L470:
1435:../app/app.c  **** 		/* ้ขๅฒ็ฎ็ถๆ */
1436:../app/app.c  **** 		case AMERICANO_PRE_BREW_STATE:
1437:../app/app.c  **** 			CERRNT_STATE = PRE_BREW_STATE;	//่ฎฐๅฝ่ฟๅบฆ
 5293              		.loc 1 1437 17
 5294 026a 254B     		ldr	r3, .L533+4
 5295 026c 0322     		movs	r2, #3
 5296 026e 1A70     		strb	r2, [r3]
1438:../app/app.c  **** 			ac_pumb_start(CONTINUE_MODE);		//ๅฏๅจๆฐดๆณต
 5297              		.loc 1 1438 4
 5298 0270 0020     		movs	r0, #0
 5299 0272 FFF7FEFF 		bl	ac_pumb_start
1439:../app/app.c  **** 			osal_lyh_delay_task(Ms_2000 - Ms_200);
 5300              		.loc 1 1439 4
 5301 0276 4FF4E160 		mov	r0, #1800
 5302 027a FFF7FEFF 		bl	osal_lyh_delay_task
1440:../app/app.c  **** 			app_task_substep = AMERICANO_WAIT_BREW_STATE;	
 5303              		.loc 1 1440 21
 5304 027e 1F4B     		ldr	r3, .L533
 5305 0280 0A22     		movs	r2, #10
 5306 0282 1A70     		strb	r2, [r3]
1441:../app/app.c  **** 			break;
 5307              		.loc 1 1441 4
 5308 0284 06E2     		b	.L482
 5309              	.L469:
1442:../app/app.c  **** 		case AMERICANO_WAIT_BREW_STATE:
1443:../app/app.c  **** 			ac_pumb_stop();						//ๅๆญขๆฐดๆณต
 5310              		.loc 1 1443 4
 5311 0286 FFF7FEFF 		bl	ac_pumb_stop
1444:../app/app.c  **** 			osal_lyh_delay_task(Ms_4000);
 5312              		.loc 1 1444 4
 5313 028a 4FF47A60 		mov	r0, #4000
 5314 028e FFF7FEFF 		bl	osal_lyh_delay_task
1445:../app/app.c  **** 			app_task_substep = AMERICANO_BREW_STATE;	
 5315              		.loc 1 1445 21
 5316 0292 1A4B     		ldr	r3, .L533
 5317 0294 0B22     		movs	r2, #11
 5318 0296 1A70     		strb	r2, [r3]
1446:../app/app.c  **** 			break;
 5319              		.loc 1 1446 4
 5320 0298 FCE1     		b	.L482
 5321              	.L468:
1447:../app/app.c  **** 		/* ๅฒ็ฎ็ถๆ */
1448:../app/app.c  **** 		case AMERICANO_BREW_STATE:			
1449:../app/app.c  **** 			CERRNT_STATE = BREW_STATE;	//่ฎฐๅฝ่ฟๅบฆ
 5322              		.loc 1 1449 17
 5323 029a 194B     		ldr	r3, .L533+4
 5324 029c 0422     		movs	r2, #4
 5325 029e 1A70     		strb	r2, [r3]
1450:../app/app.c  **** 			ac_pumb_start(CONTINUE_MODE);
 5326              		.loc 1 1450 4
 5327 02a0 0020     		movs	r0, #0
 5328 02a2 FFF7FEFF 		bl	ac_pumb_start
1451:../app/app.c  **** 			osal_lyh_delay_task(Ms_12000 - Ms_100);
 5329              		.loc 1 1451 4
 5330 02a6 42F67C60 		movw	r0, #11900
 5331 02aa FFF7FEFF 		bl	osal_lyh_delay_task
1452:../app/app.c  **** 			app_task_substep = AMERICANO_BREW_FINISH_STATE;			
 5332              		.loc 1 1452 21
 5333 02ae 134B     		ldr	r3, .L533
 5334 02b0 0C22     		movs	r2, #12
 5335 02b2 1A70     		strb	r2, [r3]
1453:../app/app.c  **** 			break;
 5336              		.loc 1 1453 4
 5337 02b4 EEE1     		b	.L482
 5338              	.L467:
1454:../app/app.c  **** 		case AMERICANO_BREW_FINISH_STATE:	//ๅฒ็ฎๅฎๆ
1455:../app/app.c  **** 			ac_pumb_stop();		//ๅๆญขๆฐดๆณต	
 5339              		.loc 1 1455 4
 5340 02b6 FFF7FEFF 		bl	ac_pumb_stop
1456:../app/app.c  **** 			osal_lyh_delay_task(Ms_6000);
 5341              		.loc 1 1456 4
 5342 02ba 41F27070 		movw	r0, #6000
 5343 02be FFF7FEFF 		bl	osal_lyh_delay_task
1457:../app/app.c  **** 			app_task_substep = AMERICANO_GO_DROP_COFFEE_GROUNDS_STATE;	
 5344              		.loc 1 1457 21
 5345 02c2 0E4B     		ldr	r3, .L533
 5346 02c4 0D22     		movs	r2, #13
 5347 02c6 1A70     		strb	r2, [r3]
1458:../app/app.c  **** 			break;
 5348              		.loc 1 1458 4
 5349 02c8 E4E1     		b	.L482
 5350              	.L466:
1459:../app/app.c  **** 		/* ไธขๅๅกๆธฃ็ถๆ */
1460:../app/app.c  **** 		case AMERICANO_GO_DROP_COFFEE_GROUNDS_STATE:
1461:../app/app.c  **** 			CERRNT_STATE = DROP_BEANS_STATE;	//่ฎฐๅฝ่ฟๅบฆ
 5351              		.loc 1 1461 17
 5352 02ca 0D4B     		ldr	r3, .L533+4
 5353 02cc 0522     		movs	r2, #5
 5354 02ce 1A70     		strb	r2, [r3]
1462:../app/app.c  **** 			dc_motor_Start(MOTOR_RIGHT);	//็ตๆบๅ่ฝฌ2.9s๏ผ ๅฐไธขๅๅกๆธฃไฝ็ฝฎ
 5355              		.loc 1 1462 4
 5356 02d0 0120     		movs	r0, #1
 5357 02d2 FFF7FEFF 		bl	dc_motor_Start
1463:../app/app.c  **** 			osal_lyh_delay_task(Ms_3000 - Ms_100);
 5358              		.loc 1 1463 4
 5359 02d6 40F65430 		movw	r0, #2900
 5360 02da FFF7FEFF 		bl	osal_lyh_delay_task
1464:../app/app.c  **** 			app_task_substep = AMERICANO_DROP_COFFEE_GROUNDS_STATE;	
 5361              		.loc 1 1464 21
 5362 02de 074B     		ldr	r3, .L533
 5363 02e0 0E22     		movs	r2, #14
 5364 02e2 1A70     		strb	r2, [r3]
1465:../app/app.c  **** 			break;
 5365              		.loc 1 1465 4
 5366 02e4 D6E1     		b	.L482
 5367              	.L465:
1466:../app/app.c  **** 		case AMERICANO_DROP_COFFEE_GROUNDS_STATE:
1467:../app/app.c  **** 			dc_motor_Stop();
 5368              		.loc 1 1467 4
 5369 02e6 FFF7FEFF 		bl	dc_motor_Stop
1468:../app/app.c  **** 			osal_lyh_delay_task(Ms_3000);
 5370              		.loc 1 1468 4
 5371 02ea 40F6B830 		movw	r0, #3000
 5372 02ee FFF7FEFF 		bl	osal_lyh_delay_task
1469:../app/app.c  **** 			app_task_substep = AMERICANO_BACK_STATE;
 5373              		.loc 1 1469 21
 5374 02f2 024B     		ldr	r3, .L533
 5375 02f4 0F22     		movs	r2, #15
 5376 02f6 1A70     		strb	r2, [r3]
1470:../app/app.c  **** 			break;
 5377              		.loc 1 1470 4
 5378 02f8 CCE1     		b	.L482
 5379              	.L534:
 5380 02fa 00BF     		.align	2
 5381              	.L533:
 5382 02fc 00000000 		.word	app_task_substep
 5383 0300 00000000 		.word	CERRNT_STATE
 5384 0304 00000000 		.word	manual_setup
 5385 0308 00000000 		.word	cup_loop
 5386 030c 00000000 		.word	run_max_time
 5387              	.L464:
1471:../app/app.c  **** 		/* ่ๅ็ตๆบ่ฟๅๅไฝ */
1472:../app/app.c  **** 		case AMERICANO_BACK_STATE:		//็ตๆบๅๅไฝ่ฝฌๅจ
1473:../app/app.c  **** 			CERRNT_STATE = RST_STATE;	//่ฎฐๅฝ่ฟๅบฆ
 5388              		.loc 1 1473 17
 5389 0310 AC4B     		ldr	r3, .L535
 5390 0312 0622     		movs	r2, #6
 5391 0314 1A70     		strb	r2, [r3]
1474:../app/app.c  **** 			dc_motor_Start(MOTOR_RIGHT);
 5392              		.loc 1 1474 4
 5393 0316 0120     		movs	r0, #1
 5394 0318 FFF7FEFF 		bl	dc_motor_Start
1475:../app/app.c  **** 			osal_lyh_delay_task(Ms_100);
 5395              		.loc 1 1475 4
 5396 031c 6420     		movs	r0, #100
 5397 031e FFF7FEFF 		bl	osal_lyh_delay_task
1476:../app/app.c  **** 			run_max_time = RIGHT_TIMER(Ms_5000, Ms_100);
 5398              		.loc 1 1476 17
 5399 0322 A94B     		ldr	r3, .L535+4
 5400 0324 3222     		movs	r2, #50
 5401 0326 1A80     		strh	r2, [r3]	@ movhi
1477:../app/app.c  **** 			app_task_substep = AMERICANO_INPLACE_JUDGE_STATE;
 5402              		.loc 1 1477 21
 5403 0328 A84B     		ldr	r3, .L535+8
 5404 032a 1022     		movs	r2, #16
 5405 032c 1A70     		strb	r2, [r3]
1478:../app/app.c  **** 			break;	
 5406              		.loc 1 1478 4
 5407 032e B1E1     		b	.L482
 5408              	.L463:
1479:../app/app.c  **** 		case AMERICANO_INPLACE_JUDGE_STATE:			//ๅคๆญ็ตๆบๆฏๅฆๅฐๅ็น่งฆ็น
1480:../app/app.c  **** 			if ((MOTOR_STATE_STOPED ==dc_motor_GetState())
 5409              		.loc 1 1480 30
 5410 0330 FFF7FEFF 		bl	dc_motor_GetState
 5411 0334 0346     		mov	r3, r0
 5412              		.loc 1 1480 7
 5413 0336 002B     		cmp	r3, #0
 5414 0338 0ED0     		beq	.L497
1481:../app/app.c  **** 				|| (TRUE == app_motor_ready())
 5415              		.loc 1 1481 17
 5416 033a FFF7FEFF 		bl	app_motor_ready
 5417 033e 0346     		mov	r3, r0
 5418              		.loc 1 1481 5
 5419 0340 012B     		cmp	r3, #1
 5420 0342 09D0     		beq	.L497
1482:../app/app.c  **** 				|| (--run_max_time == 0)){
 5421              		.loc 1 1482 9
 5422 0344 A04B     		ldr	r3, .L535+4
 5423 0346 1B88     		ldrh	r3, [r3]
 5424 0348 013B     		subs	r3, r3, #1
 5425 034a 9AB2     		uxth	r2, r3
 5426              		.loc 1 1482 5
 5427 034c 9E4B     		ldr	r3, .L535+4
 5428 034e 1A80     		strh	r2, [r3]	@ movhi
 5429              		.loc 1 1482 9
 5430 0350 9D4B     		ldr	r3, .L535+4
 5431 0352 1B88     		ldrh	r3, [r3]
 5432              		.loc 1 1482 5
 5433 0354 002B     		cmp	r3, #0
 5434 0356 05D1     		bne	.L498
 5435              	.L497:
1483:../app/app.c  **** 				dc_motor_Stop();
 5436              		.loc 1 1483 5
 5437 0358 FFF7FEFF 		bl	dc_motor_Stop
1484:../app/app.c  **** 				app_task_substep = AMERICANO_INPLACE_STATE;					
 5438              		.loc 1 1484 22
 5439 035c 9B4B     		ldr	r3, .L535+8
 5440 035e 1122     		movs	r2, #17
 5441 0360 1A70     		strb	r2, [r3]
1485:../app/app.c  **** 			}
1486:../app/app.c  **** 			else {
1487:../app/app.c  **** 				osal_lyh_delay_task(Ms_100);
1488:../app/app.c  **** 			}
1489:../app/app.c  **** 			break;
 5442              		.loc 1 1489 4
 5443 0362 97E1     		b	.L482
 5444              	.L498:
1487:../app/app.c  **** 			}
 5445              		.loc 1 1487 5
 5446 0364 6420     		movs	r0, #100
 5447 0366 FFF7FEFF 		bl	osal_lyh_delay_task
 5448              		.loc 1 1489 4
 5449 036a 93E1     		b	.L482
 5450              	.L462:
1490:../app/app.c  **** 		case AMERICANO_INPLACE_STATE:			//็ตๆบๅ่ฝฌๅฐๅไฝ
1491:../app/app.c  **** 			dc_motor_Start(MOTOR_LEFT);
 5451              		.loc 1 1491 4
 5452 036c 0220     		movs	r0, #2
 5453 036e FFF7FEFF 		bl	dc_motor_Start
1492:../app/app.c  **** 			osal_lyh_delay_task(Ms_100);
 5454              		.loc 1 1492 4
 5455 0372 6420     		movs	r0, #100
 5456 0374 FFF7FEFF 		bl	osal_lyh_delay_task
1493:../app/app.c  **** 			run_max_time = LEFT_TIMER(MOTOR_FIX_TIME, Ms_100);
 5457              		.loc 1 1493 17
 5458 0378 934B     		ldr	r3, .L535+4
 5459 037a 0322     		movs	r2, #3
 5460 037c 1A80     		strh	r2, [r3]	@ movhi
1494:../app/app.c  **** 			app_task_substep = AMERICANO_MOTO_RST_STATE;
 5461              		.loc 1 1494 21
 5462 037e 934B     		ldr	r3, .L535+8
 5463 0380 1222     		movs	r2, #18
 5464 0382 1A70     		strb	r2, [r3]
1495:../app/app.c  **** 			break;	
 5465              		.loc 1 1495 4
 5466 0384 86E1     		b	.L482
 5467              	.L461:
1496:../app/app.c  **** 		case AMERICANO_MOTO_RST_STATE:	//ๅคๆญ็ตๆบๆฏๅฆๅ่ฝฌๅฐๅไฝ
1497:../app/app.c  **** 			if (1/*(FAIL == app_motor_ready())*/	// deleting point,(temp to cancel)
1498:../app/app.c  **** 				&& ((MOTOR_STATE_STOPED ==dc_motor_GetState())
 5468              		.loc 1 1498 31
 5469 0386 FFF7FEFF 		bl	dc_motor_GetState
 5470 038a 0346     		mov	r3, r0
1497:../app/app.c  **** 				&& ((MOTOR_STATE_STOPED ==dc_motor_GetState())
 5471              		.loc 1 1497 7
 5472 038c 002B     		cmp	r3, #0
 5473 038e 09D0     		beq	.L500
1499:../app/app.c  **** 				|| (--run_max_time == 0))){
 5474              		.loc 1 1499 9
 5475 0390 8D4B     		ldr	r3, .L535+4
 5476 0392 1B88     		ldrh	r3, [r3]
 5477 0394 013B     		subs	r3, r3, #1
 5478 0396 9AB2     		uxth	r2, r3
1498:../app/app.c  **** 				|| (--run_max_time == 0))){
 5479              		.loc 1 1498 5
 5480 0398 8B4B     		ldr	r3, .L535+4
 5481 039a 1A80     		strh	r2, [r3]	@ movhi
 5482              		.loc 1 1499 9
 5483 039c 8A4B     		ldr	r3, .L535+4
 5484 039e 1B88     		ldrh	r3, [r3]
1498:../app/app.c  **** 				|| (--run_max_time == 0))){
 5485              		.loc 1 1498 5
 5486 03a0 002B     		cmp	r3, #0
 5487 03a2 05D1     		bne	.L501
 5488              	.L500:
1500:../app/app.c  **** 				dc_motor_Stop();
 5489              		.loc 1 1500 5
 5490 03a4 FFF7FEFF 		bl	dc_motor_Stop
1501:../app/app.c  **** 				app_task_substep = AMERICANO_JUDGE_TWO_CUP_STATE;
 5491              		.loc 1 1501 22
 5492 03a8 884B     		ldr	r3, .L535+8
 5493 03aa 1322     		movs	r2, #19
 5494 03ac 1A70     		strb	r2, [r3]
1502:../app/app.c  **** 			}
1503:../app/app.c  **** 			else {
1504:../app/app.c  **** 				osal_lyh_delay_task(Ms_100);
1505:../app/app.c  **** 			}
1506:../app/app.c  **** 			break;
 5495              		.loc 1 1506 4
 5496 03ae 71E1     		b	.L482
 5497              	.L501:
1504:../app/app.c  **** 			}
 5498              		.loc 1 1504 5
 5499 03b0 6420     		movs	r0, #100
 5500 03b2 FFF7FEFF 		bl	osal_lyh_delay_task
 5501              		.loc 1 1506 4
 5502 03b6 6DE1     		b	.L482
 5503              	.L460:
1507:../app/app.c  **** 		/* ๅคๆญๆฏๅฆ็ปง็ปญๅถไฝ็ฌฌไบๆฏ */
1508:../app/app.c  **** 		case AMERICANO_JUDGE_TWO_CUP_STATE:
1509:../app/app.c  **** 			flush_flag = 1;				//็ฝฎไฝๆธๆดๆ ๅฟ
 5504              		.loc 1 1509 15
 5505 03b8 854B     		ldr	r3, .L535+12
 5506 03ba 0122     		movs	r2, #1
 5507 03bc 1A70     		strb	r2, [r3]
1510:../app/app.c  **** 			if(1 == cup_loop){											//้่ฆๅถไฝ็ฌฌไบๆฏ	
 5508              		.loc 1 1510 9
 5509 03be 854B     		ldr	r3, .L535+16
 5510 03c0 1B78     		ldrb	r3, [r3]	@ zero_extendqisi2
 5511              		.loc 1 1510 6
 5512 03c2 012B     		cmp	r3, #1
 5513 03c4 0AD1     		bne	.L503
1511:../app/app.c  **** 				cup_loop = 0;											//ๆถ่ๆฏๆฐๅพช็ฏๆ ๅฟ
 5514              		.loc 1 1511 14
 5515 03c6 834B     		ldr	r3, .L535+16
 5516 03c8 0022     		movs	r2, #0
 5517 03ca 1A70     		strb	r2, [r3]
1512:../app/app.c  **** 				osal_lyh_delay_task(Ms_500);
 5518              		.loc 1 1512 5
 5519 03cc 4FF4FA70 		mov	r0, #500
 5520 03d0 FFF7FEFF 		bl	osal_lyh_delay_task
1513:../app/app.c  **** 				app_task_substep = AMERICANO_GRIND_TIME_JUDGE_STATE;	//่ฟๅ็ ็ฃจๆญฅ้ชค๏ผ็ปง็ปญๅถไฝ็ฌฌไบๆ
 5521              		.loc 1 1513 22
 5522 03d4 7D4B     		ldr	r3, .L535+8
 5523 03d6 0522     		movs	r2, #5
 5524 03d8 1A70     		strb	r2, [r3]
1514:../app/app.c  **** 			}
1515:../app/app.c  **** 			else{														//ไธ้่ฆๅถไฝ็ฌฌไบๆฏ
1516:../app/app.c  **** 				osal_lyh_delay_task(Ms_360);
1517:../app/app.c  **** 				app_task_substep = AMERICANO_MOTO_CHECK2_STATE;			//่ฟ่ก็ฌฌไบๆฌก่ๅ็ตๆบไฝ็ฝฎๆฃๆฅ
1518:../app/app.c  **** 			}
1519:../app/app.c  **** 			break;
 5525              		.loc 1 1519 4
 5526 03da 5BE1     		b	.L482
 5527              	.L503:
1516:../app/app.c  **** 				app_task_substep = AMERICANO_MOTO_CHECK2_STATE;			//่ฟ่ก็ฌฌไบๆฌก่ๅ็ตๆบไฝ็ฝฎๆฃๆฅ
 5528              		.loc 1 1516 5
 5529 03dc 4FF4B470 		mov	r0, #360
 5530 03e0 FFF7FEFF 		bl	osal_lyh_delay_task
1517:../app/app.c  **** 			}
 5531              		.loc 1 1517 22
 5532 03e4 794B     		ldr	r3, .L535+8
 5533 03e6 1422     		movs	r2, #20
 5534 03e8 1A70     		strb	r2, [r3]
 5535              		.loc 1 1519 4
 5536 03ea 53E1     		b	.L482
 5537              	.L459:
1520:../app/app.c  **** 		/* ็ฌฌไบๆฌกๆฃๆต่ๅ็ตๆบไฝ็ฝฎ */
1521:../app/app.c  **** 		case AMERICANO_MOTO_CHECK2_STATE:
1522:../app/app.c  **** 			dc_motor_Start(MOTOR_RIGHT);
 5538              		.loc 1 1522 4
 5539 03ec 0120     		movs	r0, #1
 5540 03ee FFF7FEFF 		bl	dc_motor_Start
1523:../app/app.c  **** 			osal_lyh_delay_task(Ms_100);
 5541              		.loc 1 1523 4
 5542 03f2 6420     		movs	r0, #100
 5543 03f4 FFF7FEFF 		bl	osal_lyh_delay_task
1524:../app/app.c  **** 			run_max_time = RIGHT_TIMER(Ms_3000, Ms_100);
 5544              		.loc 1 1524 17
 5545 03f8 734B     		ldr	r3, .L535+4
 5546 03fa 1E22     		movs	r2, #30
 5547 03fc 1A80     		strh	r2, [r3]	@ movhi
1525:../app/app.c  **** 			app_task_substep = AMERICANO_MOTO_CHECK2_JUDGE_STATE;
 5548              		.loc 1 1525 21
 5549 03fe 734B     		ldr	r3, .L535+8
 5550 0400 1522     		movs	r2, #21
 5551 0402 1A70     		strb	r2, [r3]
1526:../app/app.c  **** 			break;
 5552              		.loc 1 1526 4
 5553 0404 46E1     		b	.L482
 5554              	.L458:
1527:../app/app.c  **** 		/* ๅคๆญ่ๅ็ตๆบๆฏๅฆ่งฆ็ขฐๅ็น่งฆ็น */
1528:../app/app.c  **** 		case AMERICANO_MOTO_CHECK2_JUDGE_STATE:
1529:../app/app.c  **** 			if ((MOTOR_STATE_STOPED ==dc_motor_GetState())
 5555              		.loc 1 1529 30
 5556 0406 FFF7FEFF 		bl	dc_motor_GetState
 5557 040a 0346     		mov	r3, r0
 5558              		.loc 1 1529 7
 5559 040c 002B     		cmp	r3, #0
 5560 040e 0ED0     		beq	.L505
1530:../app/app.c  **** 				|| (TRUE == app_motor_ready())
 5561              		.loc 1 1530 17
 5562 0410 FFF7FEFF 		bl	app_motor_ready
 5563 0414 0346     		mov	r3, r0
 5564              		.loc 1 1530 5
 5565 0416 012B     		cmp	r3, #1
 5566 0418 09D0     		beq	.L505
1531:../app/app.c  **** 				|| (--run_max_time == 0)){
 5567              		.loc 1 1531 9
 5568 041a 6B4B     		ldr	r3, .L535+4
 5569 041c 1B88     		ldrh	r3, [r3]
 5570 041e 013B     		subs	r3, r3, #1
 5571 0420 9AB2     		uxth	r2, r3
 5572              		.loc 1 1531 5
 5573 0422 694B     		ldr	r3, .L535+4
 5574 0424 1A80     		strh	r2, [r3]	@ movhi
 5575              		.loc 1 1531 9
 5576 0426 684B     		ldr	r3, .L535+4
 5577 0428 1B88     		ldrh	r3, [r3]
 5578              		.loc 1 1531 5
 5579 042a 002B     		cmp	r3, #0
 5580 042c 05D1     		bne	.L506
 5581              	.L505:
1532:../app/app.c  **** 				dc_motor_Stop();
 5582              		.loc 1 1532 5
 5583 042e FFF7FEFF 		bl	dc_motor_Stop
1533:../app/app.c  **** 				app_task_substep = AMERICANO_MOTO_SECOND_RST_STATE;					
 5584              		.loc 1 1533 22
 5585 0432 664B     		ldr	r3, .L535+8
 5586 0434 1622     		movs	r2, #22
 5587 0436 1A70     		strb	r2, [r3]
1534:../app/app.c  **** 			}
1535:../app/app.c  **** 			else {
1536:../app/app.c  **** 				osal_lyh_delay_task(Ms_100);
1537:../app/app.c  **** 			}
1538:../app/app.c  **** 			break;
 5588              		.loc 1 1538 4
 5589 0438 2CE1     		b	.L482
 5590              	.L506:
1536:../app/app.c  **** 			}
 5591              		.loc 1 1536 5
 5592 043a 6420     		movs	r0, #100
 5593 043c FFF7FEFF 		bl	osal_lyh_delay_task
 5594              		.loc 1 1538 4
 5595 0440 28E1     		b	.L482
 5596              	.L457:
1539:../app/app.c  **** 		/* ่ๅ็ตๆบๅๅ่ฝฌๅฐๅ็น */
1540:../app/app.c  **** 		case AMERICANO_MOTO_SECOND_RST_STATE:
1541:../app/app.c  **** 			dc_motor_Start(MOTOR_LEFT);
 5597              		.loc 1 1541 4
 5598 0442 0220     		movs	r0, #2
 5599 0444 FFF7FEFF 		bl	dc_motor_Start
1542:../app/app.c  **** 			osal_lyh_delay_task(Ms_100);
 5600              		.loc 1 1542 4
 5601 0448 6420     		movs	r0, #100
 5602 044a FFF7FEFF 		bl	osal_lyh_delay_task
1543:../app/app.c  **** 			run_max_time = LEFT_TIMER(MOTOR_FIX_TIME, Ms_100);
 5603              		.loc 1 1543 17
 5604 044e 5E4B     		ldr	r3, .L535+4
 5605 0450 0322     		movs	r2, #3
 5606 0452 1A80     		strh	r2, [r3]	@ movhi
1544:../app/app.c  **** 			app_task_substep = AMERICANO_MOTO_CHECK2_COMPLETE_STATE;
 5607              		.loc 1 1544 21
 5608 0454 5D4B     		ldr	r3, .L535+8
 5609 0456 1722     		movs	r2, #23
 5610 0458 1A70     		strb	r2, [r3]
1545:../app/app.c  **** 			break;
 5611              		.loc 1 1545 4
 5612 045a 1BE1     		b	.L482
 5613              	.L456:
1546:../app/app.c  **** 		/* ๅคๆญ่ๅ็ตๆบๆฏๅฆๅฎๆๅ่ฝฌ */
1547:../app/app.c  **** 		case AMERICANO_MOTO_CHECK2_COMPLETE_STATE:
1548:../app/app.c  **** 			if (1/*(FAIL == app_motor_ready())*/	// deleting point,(temp to cancel)
1549:../app/app.c  **** 				&& ((MOTOR_STATE_STOPED ==dc_motor_GetState())
 5614              		.loc 1 1549 31
 5615 045c FFF7FEFF 		bl	dc_motor_GetState
 5616 0460 0346     		mov	r3, r0
1548:../app/app.c  **** 				&& ((MOTOR_STATE_STOPED ==dc_motor_GetState())
 5617              		.loc 1 1548 7
 5618 0462 002B     		cmp	r3, #0
 5619 0464 09D0     		beq	.L508
1550:../app/app.c  **** 				|| (--run_max_time == 0))){
 5620              		.loc 1 1550 9
 5621 0466 584B     		ldr	r3, .L535+4
 5622 0468 1B88     		ldrh	r3, [r3]
 5623 046a 013B     		subs	r3, r3, #1
 5624 046c 9AB2     		uxth	r2, r3
1549:../app/app.c  **** 				|| (--run_max_time == 0))){
 5625              		.loc 1 1549 5
 5626 046e 564B     		ldr	r3, .L535+4
 5627 0470 1A80     		strh	r2, [r3]	@ movhi
 5628              		.loc 1 1550 9
 5629 0472 554B     		ldr	r3, .L535+4
 5630 0474 1B88     		ldrh	r3, [r3]
1549:../app/app.c  **** 				|| (--run_max_time == 0))){
 5631              		.loc 1 1549 5
 5632 0476 002B     		cmp	r3, #0
 5633 0478 05D1     		bne	.L509
 5634              	.L508:
1551:../app/app.c  **** 				dc_motor_Stop();
 5635              		.loc 1 1551 5
 5636 047a FFF7FEFF 		bl	dc_motor_Stop
1552:../app/app.c  **** 				app_task_substep = AMERICANO_WAIT_MOTO_GO_BREW2_STATE;					
 5637              		.loc 1 1552 22
 5638 047e 534B     		ldr	r3, .L535+8
 5639 0480 1822     		movs	r2, #24
 5640 0482 1A70     		strb	r2, [r3]
1553:../app/app.c  **** 			}
1554:../app/app.c  **** 			else {
1555:../app/app.c  **** 				osal_lyh_delay_task(Ms_100);
1556:../app/app.c  **** 			}
1557:../app/app.c  **** 			break;
 5641              		.loc 1 1557 4
 5642 0484 06E1     		b	.L482
 5643              	.L509:
1555:../app/app.c  **** 			}
 5644              		.loc 1 1555 5
 5645 0486 6420     		movs	r0, #100
 5646 0488 FFF7FEFF 		bl	osal_lyh_delay_task
 5647              		.loc 1 1557 4
 5648 048c 02E1     		b	.L482
 5649              	.L455:
1558:../app/app.c  **** 		/* ็ญๅพ็ฌฌไบๆฌก่ๅ๏ผๅ ๆฐด๏ผ */	
1559:../app/app.c  **** 		case AMERICANO_WAIT_MOTO_GO_BREW2_STATE:
1560:../app/app.c  **** 			osal_lyh_delay_task(Ms_4000);
 5650              		.loc 1 1560 4
 5651 048e 4FF47A60 		mov	r0, #4000
 5652 0492 FFF7FEFF 		bl	osal_lyh_delay_task
1561:../app/app.c  **** 			app_task_substep = AMERICANO_MOTO_GO_BREW2_STATE;
 5653              		.loc 1 1561 21
 5654 0496 4D4B     		ldr	r3, .L535+8
 5655 0498 1922     		movs	r2, #25
 5656 049a 1A70     		strb	r2, [r3]
1562:../app/app.c  **** 			break;
 5657              		.loc 1 1562 4
 5658 049c FAE0     		b	.L482
 5659              	.L454:
1563:../app/app.c  **** 		/* ็ฌฌไบๆฌกๅป่ๅ๏ผๅ ๆฐด๏ผ */	
1564:../app/app.c  **** 		case AMERICANO_MOTO_GO_BREW2_STATE:
1565:../app/app.c  **** 			CERRNT_STATE = GO_BREW_STATE;	//่ฎฐๅฝ่ฟๅบฆ
 5660              		.loc 1 1565 17
 5661 049e 494B     		ldr	r3, .L535
 5662 04a0 0222     		movs	r2, #2
 5663 04a2 1A70     		strb	r2, [r3]
1566:../app/app.c  **** 			dc_motor_Start(MOTOR_LEFT);		
 5664              		.loc 1 1566 4
 5665 04a4 0220     		movs	r0, #2
 5666 04a6 FFF7FEFF 		bl	dc_motor_Start
1567:../app/app.c  **** 			osal_lyh_delay_task(Ms_100);
 5667              		.loc 1 1567 4
 5668 04aa 6420     		movs	r0, #100
 5669 04ac FFF7FEFF 		bl	osal_lyh_delay_task
1568:../app/app.c  **** 			run_max_time = LEFT_TIMER(Ms_7000, Ms_100);
 5670              		.loc 1 1568 17
 5671 04b0 454B     		ldr	r3, .L535+4
 5672 04b2 4622     		movs	r2, #70
 5673 04b4 1A80     		strh	r2, [r3]	@ movhi
1569:../app/app.c  **** 			app_task_substep = AMERICANO_MOTO_GO_BREW2_JUDGE_STATE;
 5674              		.loc 1 1569 21
 5675 04b6 454B     		ldr	r3, .L535+8
 5676 04b8 1A22     		movs	r2, #26
 5677 04ba 1A70     		strb	r2, [r3]
1570:../app/app.c  **** 			break;
 5678              		.loc 1 1570 4
 5679 04bc EAE0     		b	.L482
 5680              	.L453:
1571:../app/app.c  **** 		/* ๅคๆญ่ๅ็ตๆบๆฏๅฆๅฐ่พพ่ๅไฝ็ฝฎ */
1572:../app/app.c  **** 		case AMERICANO_MOTO_GO_BREW2_JUDGE_STATE:
1573:../app/app.c  **** 			if ((MOTOR_STATE_STOPED ==dc_motor_GetState())
 5681              		.loc 1 1573 30
 5682 04be FFF7FEFF 		bl	dc_motor_GetState
 5683 04c2 0346     		mov	r3, r0
 5684              		.loc 1 1573 7
 5685 04c4 002B     		cmp	r3, #0
 5686 04c6 0ED0     		beq	.L511
1574:../app/app.c  **** 				|| (TRUE == app_motor_ready())
 5687              		.loc 1 1574 17
 5688 04c8 FFF7FEFF 		bl	app_motor_ready
 5689 04cc 0346     		mov	r3, r0
 5690              		.loc 1 1574 5
 5691 04ce 012B     		cmp	r3, #1
 5692 04d0 09D0     		beq	.L511
1575:../app/app.c  **** 				|| (--run_max_time == 0)){
 5693              		.loc 1 1575 9
 5694 04d2 3D4B     		ldr	r3, .L535+4
 5695 04d4 1B88     		ldrh	r3, [r3]
 5696 04d6 013B     		subs	r3, r3, #1
 5697 04d8 9AB2     		uxth	r2, r3
 5698              		.loc 1 1575 5
 5699 04da 3B4B     		ldr	r3, .L535+4
 5700 04dc 1A80     		strh	r2, [r3]	@ movhi
 5701              		.loc 1 1575 9
 5702 04de 3A4B     		ldr	r3, .L535+4
 5703 04e0 1B88     		ldrh	r3, [r3]
 5704              		.loc 1 1575 5
 5705 04e2 002B     		cmp	r3, #0
 5706 04e4 05D1     		bne	.L512
 5707              	.L511:
1576:../app/app.c  **** 				dc_motor_Stop();
 5708              		.loc 1 1576 5
 5709 04e6 FFF7FEFF 		bl	dc_motor_Stop
1577:../app/app.c  **** 				app_task_substep = AMERICANO_BREW2_STATE;	
 5710              		.loc 1 1577 22
 5711 04ea 384B     		ldr	r3, .L535+8
 5712 04ec 1B22     		movs	r2, #27
 5713 04ee 1A70     		strb	r2, [r3]
1578:../app/app.c  **** 			}
1579:../app/app.c  **** 			else {
1580:../app/app.c  **** 				osal_lyh_delay_task(Ms_100);
1581:../app/app.c  **** 			}			
1582:../app/app.c  **** 			break;
 5714              		.loc 1 1582 4
 5715 04f0 D0E0     		b	.L482
 5716              	.L512:
1580:../app/app.c  **** 			}			
 5717              		.loc 1 1580 5
 5718 04f2 6420     		movs	r0, #100
 5719 04f4 FFF7FEFF 		bl	osal_lyh_delay_task
 5720              		.loc 1 1582 4
 5721 04f8 CCE0     		b	.L482
 5722              	.L452:
1583:../app/app.c  **** 		/* ็ฌฌไบๆฌก่ๅ๏ผๅ ๆฐด๏ผ */	
1584:../app/app.c  **** 		case AMERICANO_BREW2_STATE:
1585:../app/app.c  **** 			CERRNT_STATE = BREW_STATE;	//่ฎฐๅฝ่ฟๅบฆ
 5723              		.loc 1 1585 17
 5724 04fa 324B     		ldr	r3, .L535
 5725 04fc 0422     		movs	r2, #4
 5726 04fe 1A70     		strb	r2, [r3]
1586:../app/app.c  **** 			if(0 == manual_setup.water){			//ๆ นๆฎๆฏ้ๅณๅฎๆฝๆฐดๆถ้ด๏ผx1=19s,x2=36s,x3=51s		
 5727              		.loc 1 1586 24
 5728 0500 354B     		ldr	r3, .L535+20
 5729 0502 9B78     		ldrb	r3, [r3, #2]	@ zero_extendqisi2
 5730              		.loc 1 1586 6
 5731 0504 002B     		cmp	r3, #0
 5732 0506 13D1     		bne	.L514
1587:../app/app.c  **** 				ac_pumb_start(CONTINUE_MODE);
 5733              		.loc 1 1587 5
 5734 0508 0020     		movs	r0, #0
 5735 050a FFF7FEFF 		bl	ac_pumb_start
1588:../app/app.c  **** 				if(0 == manual_setup.cup){
 5736              		.loc 1 1588 25
 5737 050e 324B     		ldr	r3, .L535+20
 5738 0510 1B78     		ldrb	r3, [r3]	@ zero_extendqisi2
 5739              		.loc 1 1588 7
 5740 0512 002B     		cmp	r3, #0
 5741 0514 04D1     		bne	.L515
1589:../app/app.c  **** 					osal_lyh_delay_task(Ms_19000);
 5742              		.loc 1 1589 6
 5743 0516 44F63820 		movw	r0, #19000
 5744 051a FFF7FEFF 		bl	osal_lyh_delay_task
 5745 051e 03E0     		b	.L516
 5746              	.L515:
1590:../app/app.c  **** 				}
1591:../app/app.c  **** 				else{
1592:../app/app.c  **** 					osal_lyh_delay_task(Ms_33000);
 5747              		.loc 1 1592 6
 5748 0520 48F2E800 		movw	r0, #33000
 5749 0524 FFF7FEFF 		bl	osal_lyh_delay_task
 5750              	.L516:
1593:../app/app.c  **** 				}
1594:../app/app.c  **** 				app_task_substep = AMERICANO_BREW2_FINISH_STATE;	
 5751              		.loc 1 1594 22
 5752 0528 284B     		ldr	r3, .L535+8
 5753 052a 1C22     		movs	r2, #28
 5754 052c 1A70     		strb	r2, [r3]
1595:../app/app.c  **** 			}
1596:../app/app.c  **** 			else if (1 == manual_setup.water){
1597:../app/app.c  **** 				ac_pumb_start(CONTINUE_MODE);
1598:../app/app.c  **** 				if(0 == manual_setup.cup){
1599:../app/app.c  **** 					osal_lyh_delay_task(Ms_36000);
1600:../app/app.c  **** 				}
1601:../app/app.c  **** 				else{
1602:../app/app.c  **** 					osal_lyh_delay_task(Ms_72000);
1603:../app/app.c  **** 				}
1604:../app/app.c  **** 				app_task_substep = AMERICANO_BREW2_FINISH_STATE;		
1605:../app/app.c  **** 			}
1606:../app/app.c  **** 			else if (2 == manual_setup.water){
1607:../app/app.c  **** 				ac_pumb_start(CONTINUE_MODE);
1608:../app/app.c  **** 				if(0 == manual_setup.cup){
1609:../app/app.c  **** 					osal_lyh_delay_task(Ms_51000);
1610:../app/app.c  **** 				}
1611:../app/app.c  **** 				else{
1612:../app/app.c  **** 					osal_lyh_delay_task(Ms_105000);
1613:../app/app.c  **** 				}
1614:../app/app.c  **** 				app_task_substep = AMERICANO_BREW2_FINISH_STATE;		
1615:../app/app.c  **** 			}
1616:../app/app.c  **** 			break;
 5755              		.loc 1 1616 4
 5756 052e B0E0     		b	.L531
 5757              	.L514:
1596:../app/app.c  **** 				ac_pumb_start(CONTINUE_MODE);
 5758              		.loc 1 1596 30
 5759 0530 294B     		ldr	r3, .L535+20
 5760 0532 9B78     		ldrb	r3, [r3, #2]	@ zero_extendqisi2
1596:../app/app.c  **** 				ac_pumb_start(CONTINUE_MODE);
 5761              		.loc 1 1596 12
 5762 0534 012B     		cmp	r3, #1
 5763 0536 12D1     		bne	.L518
1597:../app/app.c  **** 				if(0 == manual_setup.cup){
 5764              		.loc 1 1597 5
 5765 0538 0020     		movs	r0, #0
 5766 053a FFF7FEFF 		bl	ac_pumb_start
1598:../app/app.c  **** 					osal_lyh_delay_task(Ms_36000);
 5767              		.loc 1 1598 25
 5768 053e 264B     		ldr	r3, .L535+20
 5769 0540 1B78     		ldrb	r3, [r3]	@ zero_extendqisi2
1598:../app/app.c  **** 					osal_lyh_delay_task(Ms_36000);
 5770              		.loc 1 1598 7
 5771 0542 002B     		cmp	r3, #0
 5772 0544 04D1     		bne	.L519
1599:../app/app.c  **** 				}
 5773              		.loc 1 1599 6
 5774 0546 48F6A040 		movw	r0, #36000
 5775 054a FFF7FEFF 		bl	osal_lyh_delay_task
 5776 054e 02E0     		b	.L520
 5777              	.L519:
1602:../app/app.c  **** 				}
 5778              		.loc 1 1602 6
 5779 0550 2248     		ldr	r0, .L535+24
 5780 0552 FFF7FEFF 		bl	osal_lyh_delay_task
 5781              	.L520:
1604:../app/app.c  **** 			}
 5782              		.loc 1 1604 22
 5783 0556 1D4B     		ldr	r3, .L535+8
 5784 0558 1C22     		movs	r2, #28
 5785 055a 1A70     		strb	r2, [r3]
 5786              		.loc 1 1616 4
 5787 055c 99E0     		b	.L531
 5788              	.L518:
1606:../app/app.c  **** 				ac_pumb_start(CONTINUE_MODE);
 5789              		.loc 1 1606 30
 5790 055e 1E4B     		ldr	r3, .L535+20
 5791 0560 9B78     		ldrb	r3, [r3, #2]	@ zero_extendqisi2
1606:../app/app.c  **** 				ac_pumb_start(CONTINUE_MODE);
 5792              		.loc 1 1606 12
 5793 0562 022B     		cmp	r3, #2
 5794 0564 40F09580 		bne	.L531
1607:../app/app.c  **** 				if(0 == manual_setup.cup){
 5795              		.loc 1 1607 5
 5796 0568 0020     		movs	r0, #0
 5797 056a FFF7FEFF 		bl	ac_pumb_start
1608:../app/app.c  **** 					osal_lyh_delay_task(Ms_51000);
 5798              		.loc 1 1608 25
 5799 056e 1A4B     		ldr	r3, .L535+20
 5800 0570 1B78     		ldrb	r3, [r3]	@ zero_extendqisi2
1608:../app/app.c  **** 					osal_lyh_delay_task(Ms_51000);
 5801              		.loc 1 1608 7
 5802 0572 002B     		cmp	r3, #0
 5803 0574 04D1     		bne	.L521
1609:../app/app.c  **** 				}
 5804              		.loc 1 1609 6
 5805 0576 4CF23870 		movw	r0, #51000
 5806 057a FFF7FEFF 		bl	osal_lyh_delay_task
 5807 057e 02E0     		b	.L522
 5808              	.L521:
1612:../app/app.c  **** 				}
 5809              		.loc 1 1612 6
 5810 0580 1748     		ldr	r0, .L535+28
 5811 0582 FFF7FEFF 		bl	osal_lyh_delay_task
 5812              	.L522:
1614:../app/app.c  **** 			}
 5813              		.loc 1 1614 22
 5814 0586 114B     		ldr	r3, .L535+8
 5815 0588 1C22     		movs	r2, #28
 5816 058a 1A70     		strb	r2, [r3]
 5817              		.loc 1 1616 4
 5818 058c 81E0     		b	.L531
 5819              	.L451:
1617:../app/app.c  **** 		case AMERICANO_BREW2_FINISH_STATE:
1618:../app/app.c  **** 			ac_pumb_stop();		//ๅๆญขๆฐดๆณต
 5820              		.loc 1 1618 4
 5821 058e FFF7FEFF 		bl	ac_pumb_stop
1619:../app/app.c  **** 			osal_lyh_delay_task(Ms_6000);
 5822              		.loc 1 1619 4
 5823 0592 41F27070 		movw	r0, #6000
 5824 0596 FFF7FEFF 		bl	osal_lyh_delay_task
1620:../app/app.c  **** 			app_task_substep = AMERICANO_BACK2_STATE;
 5825              		.loc 1 1620 21
 5826 059a 0C4B     		ldr	r3, .L535+8
 5827 059c 1D22     		movs	r2, #29
 5828 059e 1A70     		strb	r2, [r3]
1621:../app/app.c  **** 			break;
 5829              		.loc 1 1621 4
 5830 05a0 78E0     		b	.L482
 5831              	.L450:
1622:../app/app.c  **** 		/* ่ฟๅๅไฝ */	
1623:../app/app.c  **** 		case AMERICANO_BACK2_STATE:
1624:../app/app.c  **** 			CERRNT_STATE = RST_STATE;	//่ฎฐๅฝ่ฟๅบฆ
 5832              		.loc 1 1624 17
 5833 05a2 084B     		ldr	r3, .L535
 5834 05a4 0622     		movs	r2, #6
 5835 05a6 1A70     		strb	r2, [r3]
1625:../app/app.c  **** 			dc_motor_Start(MOTOR_RIGHT);
 5836              		.loc 1 1625 4
 5837 05a8 0120     		movs	r0, #1
 5838 05aa FFF7FEFF 		bl	dc_motor_Start
1626:../app/app.c  **** 			osal_lyh_delay_task(Ms_1000);			//ๆญคๅคdelayๅบไฟๆ่พๅคง็ๆฐ๏ผ>500ms๏ผ๏ผๅฆๅ็ตๆบ่ฟ
 5839              		.loc 1 1626 4
 5840 05ae 4FF47A70 		mov	r0, #1000
 5841 05b2 FFF7FEFF 		bl	osal_lyh_delay_task
1627:../app/app.c  **** 													//ๅฎนๆ่ฏฏๅคไธบๅทฒ็ป่งฆ็ขฐๅฐๅ็นๅผๅณ๏ผๅฏผ่ด็ตๆบๆ ๆณๅ่ฝฌๅฐๅไฝ
1628:../app/app.c  **** 			run_max_time = RIGHT_TIMER(Ms_6000, Ms_100);		
 5842              		.loc 1 1628 17
 5843 05b6 044B     		ldr	r3, .L535+4
 5844 05b8 3C22     		movs	r2, #60
 5845 05ba 1A80     		strh	r2, [r3]	@ movhi
1629:../app/app.c  **** 			app_task_substep = AMERICANO_INPLACE2_JUDGE_STATE;
 5846              		.loc 1 1629 21
 5847 05bc 034B     		ldr	r3, .L535+8
 5848 05be 1E22     		movs	r2, #30
 5849 05c0 1A70     		strb	r2, [r3]
1630:../app/app.c  **** 			break;	
 5850              		.loc 1 1630 4
 5851 05c2 67E0     		b	.L482
 5852              	.L536:
 5853              		.align	2
 5854              	.L535:
 5855 05c4 00000000 		.word	CERRNT_STATE
 5856 05c8 00000000 		.word	run_max_time
 5857 05cc 00000000 		.word	app_task_substep
 5858 05d0 00000000 		.word	flush_flag
 5859 05d4 00000000 		.word	cup_loop
 5860 05d8 00000000 		.word	manual_setup
 5861 05dc 40190100 		.word	72000
 5862 05e0 289A0100 		.word	105000
 5863              	.L449:
1631:../app/app.c  **** 		 /* ๅคๆญ็ตๆบๆฏๅฆๅฐๅ็น่งฆ็น */	
1632:../app/app.c  **** 		case AMERICANO_INPLACE2_JUDGE_STATE:													
1633:../app/app.c  **** 			if ((MOTOR_STATE_STOPED ==dc_motor_GetState())
 5864              		.loc 1 1633 30
 5865 05e4 FFF7FEFF 		bl	dc_motor_GetState
 5866 05e8 0346     		mov	r3, r0
 5867              		.loc 1 1633 7
 5868 05ea 002B     		cmp	r3, #0
 5869 05ec 0ED0     		beq	.L523
1634:../app/app.c  **** 				|| (TRUE == app_motor_ready())
 5870              		.loc 1 1634 17
 5871 05ee FFF7FEFF 		bl	app_motor_ready
 5872 05f2 0346     		mov	r3, r0
 5873              		.loc 1 1634 5
 5874 05f4 012B     		cmp	r3, #1
 5875 05f6 09D0     		beq	.L523
1635:../app/app.c  **** 				|| (--run_max_time == 0)){
 5876              		.loc 1 1635 9
 5877 05f8 274B     		ldr	r3, .L537
 5878 05fa 1B88     		ldrh	r3, [r3]
 5879 05fc 013B     		subs	r3, r3, #1
 5880 05fe 9AB2     		uxth	r2, r3
 5881              		.loc 1 1635 5
 5882 0600 254B     		ldr	r3, .L537
 5883 0602 1A80     		strh	r2, [r3]	@ movhi
 5884              		.loc 1 1635 9
 5885 0604 244B     		ldr	r3, .L537
 5886 0606 1B88     		ldrh	r3, [r3]
 5887              		.loc 1 1635 5
 5888 0608 002B     		cmp	r3, #0
 5889 060a 05D1     		bne	.L524
 5890              	.L523:
1636:../app/app.c  **** 				dc_motor_Stop();
 5891              		.loc 1 1636 5
 5892 060c FFF7FEFF 		bl	dc_motor_Stop
1637:../app/app.c  **** 				app_task_substep = AMERICANO_INPLACE2_STATE;				
 5893              		.loc 1 1637 22
 5894 0610 224B     		ldr	r3, .L537+4
 5895 0612 1F22     		movs	r2, #31
 5896 0614 1A70     		strb	r2, [r3]
1638:../app/app.c  **** 			}
1639:../app/app.c  **** 			else {
1640:../app/app.c  **** 				osal_lyh_delay_task(Ms_100);
1641:../app/app.c  **** 			}
1642:../app/app.c  **** 			break;
 5897              		.loc 1 1642 4
 5898 0616 3DE0     		b	.L482
 5899              	.L524:
1640:../app/app.c  **** 			}
 5900              		.loc 1 1640 5
 5901 0618 6420     		movs	r0, #100
 5902 061a FFF7FEFF 		bl	osal_lyh_delay_task
 5903              		.loc 1 1642 4
 5904 061e 39E0     		b	.L482
 5905              	.L448:
1643:../app/app.c  **** 		/* ่ๅ็ตๆบๅ่ฝฌๅฐๅไฝ */
1644:../app/app.c  **** 		case AMERICANO_INPLACE2_STATE:													
1645:../app/app.c  **** 			dc_motor_Start(MOTOR_LEFT);
 5906              		.loc 1 1645 4
 5907 0620 0220     		movs	r0, #2
 5908 0622 FFF7FEFF 		bl	dc_motor_Start
1646:../app/app.c  **** 			osal_lyh_delay_task(Ms_100);
 5909              		.loc 1 1646 4
 5910 0626 6420     		movs	r0, #100
 5911 0628 FFF7FEFF 		bl	osal_lyh_delay_task
1647:../app/app.c  **** 			run_max_time = LEFT_TIMER(MOTOR_FIX_TIME, Ms_100);
 5912              		.loc 1 1647 17
 5913 062c 1A4B     		ldr	r3, .L537
 5914 062e 0322     		movs	r2, #3
 5915 0630 1A80     		strh	r2, [r3]	@ movhi
1648:../app/app.c  **** 			app_task_substep = AMERICANO_MOTO_RST2_STATE;
 5916              		.loc 1 1648 21
 5917 0632 1A4B     		ldr	r3, .L537+4
 5918 0634 2022     		movs	r2, #32
 5919 0636 1A70     		strb	r2, [r3]
1649:../app/app.c  **** 			break;
 5920              		.loc 1 1649 4
 5921 0638 2CE0     		b	.L482
 5922              	.L447:
1650:../app/app.c  **** 		/* ๅคๆญ่ๅ็ตๆบๆฏๅฆๅ่ฝฌๅฐๅไฝ */
1651:../app/app.c  **** 		case AMERICANO_MOTO_RST2_STATE:													
1652:../app/app.c  **** 			if (1/*(FAIL == app_motor_ready())*/	// deleting point,(temp to cancel)
1653:../app/app.c  **** 				&& ((MOTOR_STATE_STOPED ==dc_motor_GetState())
 5923              		.loc 1 1653 31
 5924 063a FFF7FEFF 		bl	dc_motor_GetState
 5925 063e 0346     		mov	r3, r0
1652:../app/app.c  **** 				&& ((MOTOR_STATE_STOPED ==dc_motor_GetState())
 5926              		.loc 1 1652 7
 5927 0640 002B     		cmp	r3, #0
 5928 0642 09D0     		beq	.L526
1654:../app/app.c  **** 				|| (--run_max_time == 0))){
 5929              		.loc 1 1654 9
 5930 0644 144B     		ldr	r3, .L537
 5931 0646 1B88     		ldrh	r3, [r3]
 5932 0648 013B     		subs	r3, r3, #1
 5933 064a 9AB2     		uxth	r2, r3
1653:../app/app.c  **** 				|| (--run_max_time == 0))){
 5934              		.loc 1 1653 5
 5935 064c 124B     		ldr	r3, .L537
 5936 064e 1A80     		strh	r2, [r3]	@ movhi
 5937              		.loc 1 1654 9
 5938 0650 114B     		ldr	r3, .L537
 5939 0652 1B88     		ldrh	r3, [r3]
1653:../app/app.c  **** 				|| (--run_max_time == 0))){
 5940              		.loc 1 1653 5
 5941 0654 002B     		cmp	r3, #0
 5942 0656 05D1     		bne	.L527
 5943              	.L526:
1655:../app/app.c  **** 				dc_motor_Stop();
 5944              		.loc 1 1655 5
 5945 0658 FFF7FEFF 		bl	dc_motor_Stop
1656:../app/app.c  **** 				app_task_substep = AMERICANO_COMPLETE_STATE;
 5946              		.loc 1 1656 22
 5947 065c 0F4B     		ldr	r3, .L537+4
 5948 065e 2122     		movs	r2, #33
 5949 0660 1A70     		strb	r2, [r3]
1657:../app/app.c  **** 			}
1658:../app/app.c  **** 			else {
1659:../app/app.c  **** 				osal_lyh_delay_task(Ms_100);
1660:../app/app.c  **** 			}
1661:../app/app.c  **** 			break;
 5950              		.loc 1 1661 4
 5951 0662 17E0     		b	.L482
 5952              	.L527:
1659:../app/app.c  **** 			}
 5953              		.loc 1 1659 5
 5954 0664 6420     		movs	r0, #100
 5955 0666 FFF7FEFF 		bl	osal_lyh_delay_task
 5956              		.loc 1 1661 4
 5957 066a 13E0     		b	.L482
 5958              	.L445:
1662:../app/app.c  **** 		case AMERICANO_COMPLETE_STATE:
1663:../app/app.c  **** 			CERRNT_STATE = NULL_STATE;	//่ฎฐๅฝ่ฟๅบฆ
 5959              		.loc 1 1663 17
 5960 066c 0C4B     		ldr	r3, .L537+8
 5961 066e 0022     		movs	r2, #0
 5962 0670 1A70     		strb	r2, [r3]
1664:../app/app.c  **** 			app_turn_heat_off();		//ๅณ้ญๅ ็ญ
 5963              		.loc 1 1664 4
 5964 0672 FFF7FEFF 		bl	app_turn_heat_off
1665:../app/app.c  **** 			flush_flag = 1;				//่ฎพ็ฝฎๅฒๆดๆ ๅฟ	
 5965              		.loc 1 1665 15
 5966 0676 0B4B     		ldr	r3, .L537+12
 5967 0678 0122     		movs	r2, #1
 5968 067a 1A70     		strb	r2, [r3]
1666:../app/app.c  **** 			app_led_finish_step();		//ๆง่กๅฎๆๅ็ๆ็คบ็ฏๆพ็คบ
 5969              		.loc 1 1666 4
 5970 067c FFF7FEFF 		bl	app_led_finish_step
1667:../app/app.c  **** 			app_task_nextstep(APP_NORMAL_STATE, NORMAL_INIT_STATE);		//ๅๅฐnormal็ถๆ๏ผ็ญๅพไธไธๆฌกๆ
 5971              		.loc 1 1667 4
 5972 0680 0021     		movs	r1, #0
 5973 0682 0320     		movs	r0, #3
 5974 0684 FFF7FEFF 		bl	app_task_nextstep
1668:../app/app.c  **** 			break;	
 5975              		.loc 1 1668 4
 5976 0688 04E0     		b	.L482
 5977              	.L529:
1669:../app/app.c  **** 
1670:../app/app.c  **** 		default:
1671:../app/app.c  **** 			break;
 5978              		.loc 1 1671 4
 5979 068a 00BF     		nop
 5980 068c 02E0     		b	.L532
 5981              	.L530:
1404:../app/app.c  **** 		case AMERICANO_GRIND_STATE:
 5982              		.loc 1 1404 4
 5983 068e 00BF     		nop
 5984 0690 00E0     		b	.L532
 5985              	.L531:
1616:../app/app.c  **** 		case AMERICANO_BREW2_FINISH_STATE:
 5986              		.loc 1 1616 4
 5987 0692 00BF     		nop
 5988              	.L482:
 5989              	.L532:
1672:../app/app.c  **** 	}
1673:../app/app.c  **** }
 5990              		.loc 1 1673 1
 5991 0694 00BF     		nop
 5992 0696 80BD     		pop	{r7, pc}
 5993              	.L538:
 5994              		.align	2
 5995              	.L537:
 5996 0698 00000000 		.word	run_max_time
 5997 069c 00000000 		.word	app_task_substep
 5998 06a0 00000000 		.word	CERRNT_STATE
 5999 06a4 00000000 		.word	flush_flag
 6000              		.cfi_endproc
 6001              	.LFE170:
 6003              		.section	.text.app_hotwater_handler,"ax",%progbits
 6004              		.align	1
 6005              		.global	app_hotwater_handler
 6006              		.syntax unified
 6007              		.thumb
 6008              		.thumb_func
 6009              		.fpu softvfp
 6011              	app_hotwater_handler:
 6012              	.LFB171:
1674:../app/app.c  **** 
1675:../app/app.c  **** /************************************************************************
1676:../app/app.c  **** * function name: app_hotwater_handler
1677:../app/app.c  **** * input: non
1678:../app/app.c  **** * output: non
1679:../app/app.c  **** * description: object thread
1680:../app/app.c  **** *************************************************************************/
1681:../app/app.c  **** void app_hotwater_handler(void)
1682:../app/app.c  **** {
 6013              		.loc 1 1682 1
 6014              		.cfi_startproc
 6015              		@ args = 0, pretend = 0, frame = 0
 6016              		@ frame_needed = 1, uses_anonymous_args = 0
 6017 0000 80B5     		push	{r7, lr}
 6018              		.cfi_def_cfa_offset 8
 6019              		.cfi_offset 7, -8
 6020              		.cfi_offset 14, -4
 6021 0002 00AF     		add	r7, sp, #0
 6022              		.cfi_def_cfa_register 7
1683:../app/app.c  **** 	switch(app_task_substep)
 6023              		.loc 1 1683 2
 6024 0004 464B     		ldr	r3, .L558
 6025 0006 1B78     		ldrb	r3, [r3]	@ zero_extendqisi2
 6026 0008 052B     		cmp	r3, #5
 6027 000a 00F28480 		bhi	.L555
 6028 000e 01A2     		adr	r2, .L542
 6029 0010 52F823F0 		ldr	pc, [r2, r3, lsl #2]
 6030              		.p2align 2
 6031              	.L542:
 6032 0014 2D000000 		.word	.L547+1
 6033 0018 5B000000 		.word	.L546+1
 6034 001c 8D000000 		.word	.L545+1
 6035 0020 9B000000 		.word	.L544+1
 6036 0024 F3000000 		.word	.L543+1
 6037 0028 05010000 		.word	.L541+1
 6038              		.p2align 1
 6039              	.L547:
1684:../app/app.c  **** 	{
1685:../app/app.c  **** 		/* ็ญๆฐดๆต็จๅๅงๅ */
1686:../app/app.c  **** 		case HOTWATER_INIT_STATE:
1687:../app/app.c  **** 			app_leds_all_fun(LED_OFF);
 6040              		.loc 1 1687 4
 6041 002c 0020     		movs	r0, #0
 6042 002e FFF7FEFF 		bl	app_leds_all_fun
1688:../app/app.c  **** 			app_leds_all_ind(LED_OFF);		
 6043              		.loc 1 1688 4
 6044 0032 0020     		movs	r0, #0
 6045 0034 FFF7FEFF 		bl	app_leds_all_ind
1689:../app/app.c  **** 			display_led(START_LED, LED_ON);
 6046              		.loc 1 1689 4
 6047 0038 0121     		movs	r1, #1
 6048 003a 0520     		movs	r0, #5
 6049 003c FFF7FEFF 		bl	display_led
1690:../app/app.c  **** 			app_led_hotwater_init();
 6050              		.loc 1 1690 4
 6051 0040 FFF7FEFF 		bl	app_led_hotwater_init
1691:../app/app.c  **** 			app_turn_heat_on(TARGET_TEMP_HOTWATER);
 6052              		.loc 1 1691 4
 6053 0044 40F61520 		movw	r0, #2581
 6054 0048 FFF7FEFF 		bl	app_turn_heat_on
1692:../app/app.c  **** 			run_max_time = 100;		//ไป่ฐ่ฏ็จ๏ผ่ฎพ็ฝฎๅ ็ญๆถ้ดไธบ10s
 6055              		.loc 1 1692 17
 6056 004c 354B     		ldr	r3, .L558+4
 6057 004e 6422     		movs	r2, #100
 6058 0050 1A80     		strh	r2, [r3]	@ movhi
1693:../app/app.c  **** 			app_task_substep = HOTWATER_WAIT_TEMP_STATE;
 6059              		.loc 1 1693 21
 6060 0052 334B     		ldr	r3, .L558
 6061 0054 0122     		movs	r2, #1
 6062 0056 1A70     		strb	r2, [r3]
1694:../app/app.c  **** 			break;
 6063              		.loc 1 1694 4
 6064 0058 60E0     		b	.L548
 6065              	.L546:
1695:../app/app.c  **** 		/* ็ญๅพๅ ็ญๅฎๆ */	
1696:../app/app.c  **** 		case HOTWATER_WAIT_TEMP_STATE:
1697:../app/app.c  **** 			if((TRUE == app_temperature_state(TARGET_TEMP_HOTWATER))
 6066              		.loc 1 1697 16
 6067 005a 40F61520 		movw	r0, #2581
 6068 005e FFF7FEFF 		bl	app_temperature_state
 6069 0062 0346     		mov	r3, r0
 6070              		.loc 1 1697 6
 6071 0064 012B     		cmp	r3, #1
 6072 0066 09D0     		beq	.L549
1698:../app/app.c  **** 				|| --run_max_time == 0){
 6073              		.loc 1 1698 8
 6074 0068 2E4B     		ldr	r3, .L558+4
 6075 006a 1B88     		ldrh	r3, [r3]
 6076 006c 013B     		subs	r3, r3, #1
 6077 006e 9AB2     		uxth	r2, r3
 6078              		.loc 1 1698 5
 6079 0070 2C4B     		ldr	r3, .L558+4
 6080 0072 1A80     		strh	r2, [r3]	@ movhi
 6081              		.loc 1 1698 8
 6082 0074 2B4B     		ldr	r3, .L558+4
 6083 0076 1B88     		ldrh	r3, [r3]
 6084              		.loc 1 1698 5
 6085 0078 002B     		cmp	r3, #0
 6086 007a 03D1     		bne	.L550
 6087              	.L549:
1699:../app/app.c  **** 				app_task_substep = HOTWATER_CHANGE_PIPE_STATE;
 6088              		.loc 1 1699 22
 6089 007c 284B     		ldr	r3, .L558
 6090 007e 0222     		movs	r2, #2
 6091 0080 1A70     		strb	r2, [r3]
1700:../app/app.c  **** 			}
1701:../app/app.c  **** 			else{
1702:../app/app.c  **** 				osal_lyh_delay_task(Ms_100);
1703:../app/app.c  **** 			}
1704:../app/app.c  **** 			break;
 6092              		.loc 1 1704 4
 6093 0082 4BE0     		b	.L548
 6094              	.L550:
1702:../app/app.c  **** 			}
 6095              		.loc 1 1702 5
 6096 0084 6420     		movs	r0, #100
 6097 0086 FFF7FEFF 		bl	osal_lyh_delay_task
 6098              		.loc 1 1704 4
 6099 008a 47E0     		b	.L548
 6100              	.L545:
1705:../app/app.c  **** 		/* ๅๆขๅบๆฐดๅฃ */	
1706:../app/app.c  **** 		case HOTWATER_CHANGE_PIPE_STATE:
1707:../app/app.c  **** 			app_relay_set(WATER_MODE);
 6101              		.loc 1 1707 4
 6102 008c 0120     		movs	r0, #1
 6103 008e FFF7FEFF 		bl	app_relay_set
1708:../app/app.c  **** 			app_task_substep = HOTWATER_JUDGE_WATER_STATE;
 6104              		.loc 1 1708 21
 6105 0092 234B     		ldr	r3, .L558
 6106 0094 0322     		movs	r2, #3
 6107 0096 1A70     		strb	r2, [r3]
1709:../app/app.c  **** 			break;
 6108              		.loc 1 1709 4
 6109 0098 40E0     		b	.L548
 6110              	.L544:
1710:../app/app.c  **** 		/* ๅคๆญๆฐด้ */	
1711:../app/app.c  **** 		case HOTWATER_JUDGE_WATER_STATE:
1712:../app/app.c  **** 			if(0 == manual_setup.water){
 6111              		.loc 1 1712 24
 6112 009a 234B     		ldr	r3, .L558+8
 6113 009c 9B78     		ldrb	r3, [r3, #2]	@ zero_extendqisi2
 6114              		.loc 1 1712 6
 6115 009e 002B     		cmp	r3, #0
 6116 00a0 0AD1     		bne	.L552
1713:../app/app.c  **** 				ac_pumb_start(CONTINUE_MODE);
 6117              		.loc 1 1713 5
 6118 00a2 0020     		movs	r0, #0
 6119 00a4 FFF7FEFF 		bl	ac_pumb_start
1714:../app/app.c  **** 				osal_lyh_delay_task(Ms_14000);
 6120              		.loc 1 1714 5
 6121 00a8 43F2B060 		movw	r0, #14000
 6122 00ac FFF7FEFF 		bl	osal_lyh_delay_task
1715:../app/app.c  **** 				app_task_substep = HOTWATER_WAIT_WATER_END_STATE;
 6123              		.loc 1 1715 22
 6124 00b0 1B4B     		ldr	r3, .L558
 6125 00b2 0422     		movs	r2, #4
 6126 00b4 1A70     		strb	r2, [r3]
1716:../app/app.c  **** 			}
1717:../app/app.c  **** 			else if(1 == manual_setup.water){
1718:../app/app.c  **** 				ac_pumb_start(CONTINUE_MODE);
1719:../app/app.c  **** 				osal_lyh_delay_task(Ms_39000);
1720:../app/app.c  **** 				app_task_substep = HOTWATER_WAIT_WATER_END_STATE;
1721:../app/app.c  **** 			}
1722:../app/app.c  **** 			else if(2 == manual_setup.water){
1723:../app/app.c  **** 				ac_pumb_start(CONTINUE_MODE);
1724:../app/app.c  **** 				osal_lyh_delay_task(Ms_97000);
1725:../app/app.c  **** 				app_task_substep = HOTWATER_WAIT_WATER_END_STATE;				
1726:../app/app.c  **** 			}
1727:../app/app.c  **** 			break;
 6127              		.loc 1 1727 4
 6128 00b6 30E0     		b	.L556
 6129              	.L552:
1717:../app/app.c  **** 				ac_pumb_start(CONTINUE_MODE);
 6130              		.loc 1 1717 29
 6131 00b8 1B4B     		ldr	r3, .L558+8
 6132 00ba 9B78     		ldrb	r3, [r3, #2]	@ zero_extendqisi2
1717:../app/app.c  **** 				ac_pumb_start(CONTINUE_MODE);
 6133              		.loc 1 1717 11
 6134 00bc 012B     		cmp	r3, #1
 6135 00be 0AD1     		bne	.L554
1718:../app/app.c  **** 				osal_lyh_delay_task(Ms_39000);
 6136              		.loc 1 1718 5
 6137 00c0 0020     		movs	r0, #0
 6138 00c2 FFF7FEFF 		bl	ac_pumb_start
1719:../app/app.c  **** 				app_task_substep = HOTWATER_WAIT_WATER_END_STATE;
 6139              		.loc 1 1719 5
 6140 00c6 49F65800 		movw	r0, #39000
 6141 00ca FFF7FEFF 		bl	osal_lyh_delay_task
1720:../app/app.c  **** 			}
 6142              		.loc 1 1720 22
 6143 00ce 144B     		ldr	r3, .L558
 6144 00d0 0422     		movs	r2, #4
 6145 00d2 1A70     		strb	r2, [r3]
 6146              		.loc 1 1727 4
 6147 00d4 21E0     		b	.L556
 6148              	.L554:
1722:../app/app.c  **** 				ac_pumb_start(CONTINUE_MODE);
 6149              		.loc 1 1722 29
 6150 00d6 144B     		ldr	r3, .L558+8
 6151 00d8 9B78     		ldrb	r3, [r3, #2]	@ zero_extendqisi2
1722:../app/app.c  **** 				ac_pumb_start(CONTINUE_MODE);
 6152              		.loc 1 1722 11
 6153 00da 022B     		cmp	r3, #2
 6154 00dc 1DD1     		bne	.L556
1723:../app/app.c  **** 				osal_lyh_delay_task(Ms_97000);
 6155              		.loc 1 1723 5
 6156 00de 0020     		movs	r0, #0
 6157 00e0 FFF7FEFF 		bl	ac_pumb_start
1724:../app/app.c  **** 				app_task_substep = HOTWATER_WAIT_WATER_END_STATE;				
 6158              		.loc 1 1724 5
 6159 00e4 1148     		ldr	r0, .L558+12
 6160 00e6 FFF7FEFF 		bl	osal_lyh_delay_task
1725:../app/app.c  **** 			}
 6161              		.loc 1 1725 22
 6162 00ea 0D4B     		ldr	r3, .L558
 6163 00ec 0422     		movs	r2, #4
 6164 00ee 1A70     		strb	r2, [r3]
 6165              		.loc 1 1727 4
 6166 00f0 13E0     		b	.L556
 6167              	.L543:
1728:../app/app.c  **** 		/* ็ญๅพๆถ้ด็ปๆ */	
1729:../app/app.c  **** 		case HOTWATER_WAIT_WATER_END_STATE:
1730:../app/app.c  **** 			ac_pumb_stop();
 6168              		.loc 1 1730 4
 6169 00f2 FFF7FEFF 		bl	ac_pumb_stop
1731:../app/app.c  **** 			app_relay_set(COFFEE_MODE);
 6170              		.loc 1 1731 4
 6171 00f6 0020     		movs	r0, #0
 6172 00f8 FFF7FEFF 		bl	app_relay_set
1732:../app/app.c  **** 			app_task_substep = HOTWATER_COMPLETE_STATE;	
 6173              		.loc 1 1732 21
 6174 00fc 084B     		ldr	r3, .L558
 6175 00fe 0522     		movs	r2, #5
 6176 0100 1A70     		strb	r2, [r3]
1733:../app/app.c  **** 			break;
 6177              		.loc 1 1733 4
 6178 0102 0BE0     		b	.L548
 6179              	.L541:
1734:../app/app.c  **** 		case HOTWATER_COMPLETE_STATE:
1735:../app/app.c  **** 			app_turn_heat_off();
 6180              		.loc 1 1735 4
 6181 0104 FFF7FEFF 		bl	app_turn_heat_off
1736:../app/app.c  **** 			app_led_finish_step();
 6182              		.loc 1 1736 4
 6183 0108 FFF7FEFF 		bl	app_led_finish_step
1737:../app/app.c  **** 			app_task_nextstep(APP_NORMAL_STATE, NORMAL_INIT_STATE);		//ๅๅฐnormal็ถๆ๏ผ็ญๅพไธไธๆฌกๆ
 6184              		.loc 1 1737 4
 6185 010c 0021     		movs	r1, #0
 6186 010e 0320     		movs	r0, #3
 6187 0110 FFF7FEFF 		bl	app_task_nextstep
1738:../app/app.c  **** 			break;
 6188              		.loc 1 1738 4
 6189 0114 02E0     		b	.L548
 6190              	.L555:
1739:../app/app.c  **** 		default:
1740:../app/app.c  **** 			break;
 6191              		.loc 1 1740 4
 6192 0116 00BF     		nop
 6193 0118 00E0     		b	.L557
 6194              	.L556:
1727:../app/app.c  **** 		/* ็ญๅพๆถ้ด็ปๆ */	
 6195              		.loc 1 1727 4
 6196 011a 00BF     		nop
 6197              	.L548:
 6198              	.L557:
1741:../app/app.c  **** 	}
1742:../app/app.c  **** }
 6199              		.loc 1 1742 1
 6200 011c 00BF     		nop
 6201 011e 80BD     		pop	{r7, pc}
 6202              	.L559:
 6203              		.align	2
 6204              	.L558:
 6205 0120 00000000 		.word	app_task_substep
 6206 0124 00000000 		.word	run_max_time
 6207 0128 00000000 		.word	manual_setup
 6208 012c E87A0100 		.word	97000
 6209              		.cfi_endproc
 6210              	.LFE171:
 6212              		.section	.text.app_steam_handler,"ax",%progbits
 6213              		.align	1
 6214              		.global	app_steam_handler
 6215              		.syntax unified
 6216              		.thumb
 6217              		.thumb_func
 6218              		.fpu softvfp
 6220              	app_steam_handler:
 6221              	.LFB172:
1743:../app/app.c  **** 
1744:../app/app.c  **** /************************************************************************
1745:../app/app.c  **** * function name: app_steam_handler
1746:../app/app.c  **** * input: non
1747:../app/app.c  **** * output: non
1748:../app/app.c  **** * description: object thread
1749:../app/app.c  **** *************************************************************************/
1750:../app/app.c  **** void app_steam_handler(void)
1751:../app/app.c  **** {
 6222              		.loc 1 1751 1
 6223              		.cfi_startproc
 6224              		@ args = 0, pretend = 0, frame = 0
 6225              		@ frame_needed = 1, uses_anonymous_args = 0
 6226 0000 80B5     		push	{r7, lr}
 6227              		.cfi_def_cfa_offset 8
 6228              		.cfi_offset 7, -8
 6229              		.cfi_offset 14, -4
 6230 0002 00AF     		add	r7, sp, #0
 6231              		.cfi_def_cfa_register 7
1752:../app/app.c  **** 	switch(app_task_substep)
 6232              		.loc 1 1752 2
 6233 0004 0B4B     		ldr	r3, .L565
 6234 0006 1B78     		ldrb	r3, [r3]	@ zero_extendqisi2
 6235 0008 002B     		cmp	r3, #0
 6236 000a 02D0     		beq	.L561
 6237 000c 012B     		cmp	r3, #1
 6238 000e 0AD0     		beq	.L562
1753:../app/app.c  **** 	{
1754:../app/app.c  **** 		case STEAM_INIT_STATE:
1755:../app/app.c  **** 			display_led(START_LED, LED_ON);
1756:../app/app.c  **** 			app_led_steam_init();
1757:../app/app.c  **** 			app_task_substep = STEAM_RUN_STATE;
1758:../app/app.c  **** 			break;
1759:../app/app.c  **** 		case STEAM_RUN_STATE:
1760:../app/app.c  **** 			osal_lyh_delay_task(Ms_500);
1761:../app/app.c  **** 			break;
1762:../app/app.c  **** 		default:
1763:../app/app.c  **** 			break;
 6239              		.loc 1 1763 4
 6240 0010 0EE0     		b	.L564
 6241              	.L561:
1755:../app/app.c  **** 			app_led_steam_init();
 6242              		.loc 1 1755 4
 6243 0012 0121     		movs	r1, #1
 6244 0014 0520     		movs	r0, #5
 6245 0016 FFF7FEFF 		bl	display_led
1756:../app/app.c  **** 			app_task_substep = STEAM_RUN_STATE;
 6246              		.loc 1 1756 4
 6247 001a FFF7FEFF 		bl	app_led_steam_init
1757:../app/app.c  **** 			break;
 6248              		.loc 1 1757 21
 6249 001e 054B     		ldr	r3, .L565
 6250 0020 0122     		movs	r2, #1
 6251 0022 1A70     		strb	r2, [r3]
1758:../app/app.c  **** 		case STEAM_RUN_STATE:
 6252              		.loc 1 1758 4
 6253 0024 04E0     		b	.L564
 6254              	.L562:
1760:../app/app.c  **** 			break;
 6255              		.loc 1 1760 4
 6256 0026 4FF4FA70 		mov	r0, #500
 6257 002a FFF7FEFF 		bl	osal_lyh_delay_task
1761:../app/app.c  **** 		default:
 6258              		.loc 1 1761 4
 6259 002e 00BF     		nop
 6260              	.L564:
1764:../app/app.c  **** 	}
1765:../app/app.c  **** }
 6261              		.loc 1 1765 1
 6262 0030 00BF     		nop
 6263 0032 80BD     		pop	{r7, pc}
 6264              	.L566:
 6265              		.align	2
 6266              	.L565:
 6267 0034 00000000 		.word	app_task_substep
 6268              		.cfi_endproc
 6269              	.LFE172:
 6271              		.section	.text.app_aqua_handler,"ax",%progbits
 6272              		.align	1
 6273              		.global	app_aqua_handler
 6274              		.syntax unified
 6275              		.thumb
 6276              		.thumb_func
 6277              		.fpu softvfp
 6279              	app_aqua_handler:
 6280              	.LFB173:
1766:../app/app.c  **** 
1767:../app/app.c  **** /************************************************************************
1768:../app/app.c  **** * function name: app_aqua_handler
1769:../app/app.c  **** * input: non
1770:../app/app.c  **** * output: non
1771:../app/app.c  **** * description: object thread
1772:../app/app.c  **** *************************************************************************/
1773:../app/app.c  **** void app_aqua_handler(void)
1774:../app/app.c  **** {
 6281              		.loc 1 1774 1
 6282              		.cfi_startproc
 6283              		@ args = 0, pretend = 0, frame = 0
 6284              		@ frame_needed = 1, uses_anonymous_args = 0
 6285 0000 80B5     		push	{r7, lr}
 6286              		.cfi_def_cfa_offset 8
 6287              		.cfi_offset 7, -8
 6288              		.cfi_offset 14, -4
 6289 0002 00AF     		add	r7, sp, #0
 6290              		.cfi_def_cfa_register 7
1775:../app/app.c  **** 	switch(app_task_substep)
 6291              		.loc 1 1775 2
 6292 0004 0B4B     		ldr	r3, .L572
 6293 0006 1B78     		ldrb	r3, [r3]	@ zero_extendqisi2
 6294 0008 002B     		cmp	r3, #0
 6295 000a 02D0     		beq	.L568
 6296 000c 012B     		cmp	r3, #1
 6297 000e 0AD0     		beq	.L569
1776:../app/app.c  **** 	{
1777:../app/app.c  **** 		case AQUA_INIT_STATE:
1778:../app/app.c  **** 			display_led(START_LED, LED_ON);
1779:../app/app.c  **** 			app_led_aqua_init();
1780:../app/app.c  **** 			app_task_substep = AQUA_RUN_STATE;
1781:../app/app.c  **** 			break;
1782:../app/app.c  **** 		case AQUA_RUN_STATE:
1783:../app/app.c  **** 			osal_lyh_delay_task(Ms_500);
1784:../app/app.c  **** 			break;
1785:../app/app.c  **** 		default:
1786:../app/app.c  **** 			break;
 6298              		.loc 1 1786 4
 6299 0010 0EE0     		b	.L571
 6300              	.L568:
1778:../app/app.c  **** 			app_led_aqua_init();
 6301              		.loc 1 1778 4
 6302 0012 0121     		movs	r1, #1
 6303 0014 0520     		movs	r0, #5
 6304 0016 FFF7FEFF 		bl	display_led
1779:../app/app.c  **** 			app_task_substep = AQUA_RUN_STATE;
 6305              		.loc 1 1779 4
 6306 001a FFF7FEFF 		bl	app_led_aqua_init
1780:../app/app.c  **** 			break;
 6307              		.loc 1 1780 21
 6308 001e 054B     		ldr	r3, .L572
 6309 0020 0122     		movs	r2, #1
 6310 0022 1A70     		strb	r2, [r3]
1781:../app/app.c  **** 		case AQUA_RUN_STATE:
 6311              		.loc 1 1781 4
 6312 0024 04E0     		b	.L571
 6313              	.L569:
1783:../app/app.c  **** 			break;
 6314              		.loc 1 1783 4
 6315 0026 4FF4FA70 		mov	r0, #500
 6316 002a FFF7FEFF 		bl	osal_lyh_delay_task
1784:../app/app.c  **** 		default:
 6317              		.loc 1 1784 4
 6318 002e 00BF     		nop
 6319              	.L571:
1787:../app/app.c  **** 	}
1788:../app/app.c  **** }
 6320              		.loc 1 1788 1
 6321 0030 00BF     		nop
 6322 0032 80BD     		pop	{r7, pc}
 6323              	.L573:
 6324              		.align	2
 6325              	.L572:
 6326 0034 00000000 		.word	app_task_substep
 6327              		.cfi_endproc
 6328              	.LFE173:
 6330              		.section	.text.app_calc_handler,"ax",%progbits
 6331              		.align	1
 6332              		.global	app_calc_handler
 6333              		.syntax unified
 6334              		.thumb
 6335              		.thumb_func
 6336              		.fpu softvfp
 6338              	app_calc_handler:
 6339              	.LFB174:
1789:../app/app.c  **** 
1790:../app/app.c  **** /************************************************************************
1791:../app/app.c  **** * function name: app_calc_handler
1792:../app/app.c  **** * input: non
1793:../app/app.c  **** * output: non
1794:../app/app.c  **** * description: object thread
1795:../app/app.c  **** *************************************************************************/
1796:../app/app.c  **** void app_calc_handler(void)
1797:../app/app.c  **** {
 6340              		.loc 1 1797 1
 6341              		.cfi_startproc
 6342              		@ args = 0, pretend = 0, frame = 0
 6343              		@ frame_needed = 1, uses_anonymous_args = 0
 6344 0000 80B5     		push	{r7, lr}
 6345              		.cfi_def_cfa_offset 8
 6346              		.cfi_offset 7, -8
 6347              		.cfi_offset 14, -4
 6348 0002 00AF     		add	r7, sp, #0
 6349              		.cfi_def_cfa_register 7
1798:../app/app.c  **** 	switch(app_task_substep)
 6350              		.loc 1 1798 2
 6351 0004 0B4B     		ldr	r3, .L579
 6352 0006 1B78     		ldrb	r3, [r3]	@ zero_extendqisi2
 6353 0008 002B     		cmp	r3, #0
 6354 000a 02D0     		beq	.L575
 6355 000c 012B     		cmp	r3, #1
 6356 000e 0AD0     		beq	.L576
1799:../app/app.c  **** 	{
1800:../app/app.c  **** 		case CALC_INIT_STATE:
1801:../app/app.c  **** 			display_led(START_LED, LED_ON);
1802:../app/app.c  **** 			app_led_calc_init();
1803:../app/app.c  **** 			app_task_substep = CALC_RUN_STATE;
1804:../app/app.c  **** 			break;
1805:../app/app.c  **** 		case CALC_RUN_STATE:
1806:../app/app.c  **** 			osal_lyh_delay_task(Ms_500);
1807:../app/app.c  **** 			break;
1808:../app/app.c  **** 		default:
1809:../app/app.c  **** 			break;
 6357              		.loc 1 1809 4
 6358 0010 0EE0     		b	.L578
 6359              	.L575:
1801:../app/app.c  **** 			app_led_calc_init();
 6360              		.loc 1 1801 4
 6361 0012 0121     		movs	r1, #1
 6362 0014 0520     		movs	r0, #5
 6363 0016 FFF7FEFF 		bl	display_led
1802:../app/app.c  **** 			app_task_substep = CALC_RUN_STATE;
 6364              		.loc 1 1802 4
 6365 001a FFF7FEFF 		bl	app_led_calc_init
1803:../app/app.c  **** 			break;
 6366              		.loc 1 1803 21
 6367 001e 054B     		ldr	r3, .L579
 6368 0020 0122     		movs	r2, #1
 6369 0022 1A70     		strb	r2, [r3]
1804:../app/app.c  **** 		case CALC_RUN_STATE:
 6370              		.loc 1 1804 4
 6371 0024 04E0     		b	.L578
 6372              	.L576:
1806:../app/app.c  **** 			break;
 6373              		.loc 1 1806 4
 6374 0026 4FF4FA70 		mov	r0, #500
 6375 002a FFF7FEFF 		bl	osal_lyh_delay_task
1807:../app/app.c  **** 		default:
 6376              		.loc 1 1807 4
 6377 002e 00BF     		nop
 6378              	.L578:
1810:../app/app.c  **** 	}
1811:../app/app.c  **** }
 6379              		.loc 1 1811 1
 6380 0030 00BF     		nop
 6381 0032 80BD     		pop	{r7, pc}
 6382              	.L580:
 6383              		.align	2
 6384              	.L579:
 6385 0034 00000000 		.word	app_task_substep
 6386              		.cfi_endproc
 6387              	.LFE174:
 6389              		.section	.text.app_setup_handler,"ax",%progbits
 6390              		.align	1
 6391              		.global	app_setup_handler
 6392              		.syntax unified
 6393              		.thumb
 6394              		.thumb_func
 6395              		.fpu softvfp
 6397              	app_setup_handler:
 6398              	.LFB175:
1812:../app/app.c  **** 
1813:../app/app.c  **** /************************************************************************
1814:../app/app.c  **** * function name: app_setup_handler
1815:../app/app.c  **** * input: non
1816:../app/app.c  **** * output: non
1817:../app/app.c  **** * description: object thread
1818:../app/app.c  **** *************************************************************************/
1819:../app/app.c  **** void app_setup_handler(void)
1820:../app/app.c  **** {
 6399              		.loc 1 1820 1
 6400              		.cfi_startproc
 6401              		@ args = 0, pretend = 0, frame = 0
 6402              		@ frame_needed = 1, uses_anonymous_args = 0
 6403 0000 80B5     		push	{r7, lr}
 6404              		.cfi_def_cfa_offset 8
 6405              		.cfi_offset 7, -8
 6406              		.cfi_offset 14, -4
 6407 0002 00AF     		add	r7, sp, #0
 6408              		.cfi_def_cfa_register 7
1821:../app/app.c  **** 	switch(app_task_substep)
 6409              		.loc 1 1821 2
 6410 0004 5C4B     		ldr	r3, .L604
 6411 0006 1B78     		ldrb	r3, [r3]	@ zero_extendqisi2
 6412 0008 072B     		cmp	r3, #7
 6413 000a 00F2B280 		bhi	.L603
 6414 000e 01A2     		adr	r2, .L584
 6415 0010 52F823F0 		ldr	pc, [r2, r3, lsl #2]
 6416              		.p2align 2
 6417              	.L584:
 6418 0014 35000000 		.word	.L591+1
 6419 0018 65000000 		.word	.L590+1
 6420 001c 7F000000 		.word	.L589+1
 6421 0020 BB000000 		.word	.L588+1
 6422 0024 D5000000 		.word	.L587+1
 6423 0028 17010000 		.word	.L586+1
 6424 002c 31010000 		.word	.L585+1
 6425 0030 61010000 		.word	.L583+1
 6426              		.p2align 1
 6427              	.L591:
1822:../app/app.c  **** 	{
1823:../app/app.c  **** 		case SETUP_INIT_STATE:
1824:../app/app.c  **** 			if (MOTOR_STATE_STOPED == dc_motor_GetState()){
 6428              		.loc 1 1824 30
 6429 0034 FFF7FEFF 		bl	dc_motor_GetState
 6430 0038 0346     		mov	r3, r0
 6431              		.loc 1 1824 7
 6432 003a 002B     		cmp	r3, #0
 6433 003c 0ED1     		bne	.L592
1825:../app/app.c  **** 				key_prohibit_setup(KEY_ONOFF_MASK, TRUE);
 6434              		.loc 1 1825 5
 6435 003e 0121     		movs	r1, #1
 6436 0040 0120     		movs	r0, #1
 6437 0042 FFF7FEFF 		bl	key_prohibit_setup
1826:../app/app.c  **** 				app_task_substep = SETUP_ENTER_STATE;
 6438              		.loc 1 1826 22
 6439 0046 4C4B     		ldr	r3, .L604
 6440 0048 0122     		movs	r2, #1
 6441 004a 1A70     		strb	r2, [r3]
1827:../app/app.c  **** 				if (FAIL == app_motor_ready()){
 6442              		.loc 1 1827 17
 6443 004c FFF7FEFF 		bl	app_motor_ready
 6444 0050 0346     		mov	r3, r0
 6445              		.loc 1 1827 8
 6446 0052 002B     		cmp	r3, #0
 6447 0054 02D1     		bne	.L592
1828:../app/app.c  **** 					app_task_substep = SETUP_RIGHT_READY_STATE;
 6448              		.loc 1 1828 23
 6449 0056 484B     		ldr	r3, .L604
 6450 0058 0322     		movs	r2, #3
 6451 005a 1A70     		strb	r2, [r3]
 6452              	.L592:
1829:../app/app.c  **** 				}
1830:../app/app.c  **** 			}
1831:../app/app.c  **** 			osal_lyh_delay_task(Ms_100);
 6453              		.loc 1 1831 4
 6454 005c 6420     		movs	r0, #100
 6455 005e FFF7FEFF 		bl	osal_lyh_delay_task
1832:../app/app.c  **** 			break;
 6456              		.loc 1 1832 4
 6457 0062 87E0     		b	.L593
 6458              	.L590:
1833:../app/app.c  **** 		case SETUP_ENTER_STATE:
1834:../app/app.c  **** 			dc_motor_Start(MOTOR_RIGHT);
 6459              		.loc 1 1834 4
 6460 0064 0120     		movs	r0, #1
 6461 0066 FFF7FEFF 		bl	dc_motor_Start
1835:../app/app.c  **** 			osal_lyh_delay_task(Ms_100);
 6462              		.loc 1 1835 4
 6463 006a 6420     		movs	r0, #100
 6464 006c FFF7FEFF 		bl	osal_lyh_delay_task
1836:../app/app.c  **** 			run_max_time = RIGHT_TIMER(Ms_1000, Ms_100);
 6465              		.loc 1 1836 17
 6466 0070 424B     		ldr	r3, .L604+4
 6467 0072 0A22     		movs	r2, #10
 6468 0074 1A80     		strh	r2, [r3]	@ movhi
1837:../app/app.c  **** 			app_task_substep = SETUP_ENTER_ING_STATE;
 6469              		.loc 1 1837 21
 6470 0076 404B     		ldr	r3, .L604
 6471 0078 0222     		movs	r2, #2
 6472 007a 1A70     		strb	r2, [r3]
1838:../app/app.c  **** 			break;
 6473              		.loc 1 1838 4
 6474 007c 7AE0     		b	.L593
 6475              	.L589:
1839:../app/app.c  **** 		case SETUP_ENTER_ING_STATE:
1840:../app/app.c  **** 			if ((FAIL == app_motor_ready())
 6476              		.loc 1 1840 17
 6477 007e FFF7FEFF 		bl	app_motor_ready
 6478 0082 0346     		mov	r3, r0
 6479              		.loc 1 1840 7
 6480 0084 002B     		cmp	r3, #0
 6481 0086 09D0     		beq	.L594
1841:../app/app.c  **** 				|| (--run_max_time == 0)){
 6482              		.loc 1 1841 9
 6483 0088 3C4B     		ldr	r3, .L604+4
 6484 008a 1B88     		ldrh	r3, [r3]
 6485 008c 013B     		subs	r3, r3, #1
 6486 008e 9AB2     		uxth	r2, r3
 6487              		.loc 1 1841 5
 6488 0090 3A4B     		ldr	r3, .L604+4
 6489 0092 1A80     		strh	r2, [r3]	@ movhi
 6490              		.loc 1 1841 9
 6491 0094 394B     		ldr	r3, .L604+4
 6492 0096 1B88     		ldrh	r3, [r3]
 6493              		.loc 1 1841 5
 6494 0098 002B     		cmp	r3, #0
 6495 009a 0AD1     		bne	.L595
 6496              	.L594:
1842:../app/app.c  **** 				dc_motor_Stop();
 6497              		.loc 1 1842 5
 6498 009c FFF7FEFF 		bl	dc_motor_Stop
1843:../app/app.c  **** 				app_task_substep = run_max_time? SETUP_RIGHT_READY_STATE:SETUP_LEFT_READY_STATE;
 6499              		.loc 1 1843 36
 6500 00a0 364B     		ldr	r3, .L604+4
 6501 00a2 1B88     		ldrh	r3, [r3]
 6502              		.loc 1 1843 22
 6503 00a4 002B     		cmp	r3, #0
 6504 00a6 01D0     		beq	.L596
 6505              		.loc 1 1843 22 is_stmt 0 discriminator 1
 6506 00a8 0322     		movs	r2, #3
 6507 00aa 00E0     		b	.L597
 6508              	.L596:
 6509              		.loc 1 1843 22 discriminator 2
 6510 00ac 0522     		movs	r2, #5
 6511              	.L597:
 6512              		.loc 1 1843 22 discriminator 4
 6513 00ae 324B     		ldr	r3, .L604
 6514 00b0 1A70     		strb	r2, [r3]
 6515              	.L595:
1844:../app/app.c  **** 			}
1845:../app/app.c  **** 			osal_lyh_delay_task(Ms_100);
 6516              		.loc 1 1845 4 is_stmt 1
 6517 00b2 6420     		movs	r0, #100
 6518 00b4 FFF7FEFF 		bl	osal_lyh_delay_task
1846:../app/app.c  **** 			break;
 6519              		.loc 1 1846 4
 6520 00b8 5CE0     		b	.L593
 6521              	.L588:
1847:../app/app.c  **** 		case SETUP_RIGHT_READY_STATE:
1848:../app/app.c  **** 			dc_motor_Start(MOTOR_RIGHT);
 6522              		.loc 1 1848 4
 6523 00ba 0120     		movs	r0, #1
 6524 00bc FFF7FEFF 		bl	dc_motor_Start
1849:../app/app.c  **** 			osal_lyh_delay_task(Ms_100);
 6525              		.loc 1 1849 4
 6526 00c0 6420     		movs	r0, #100
 6527 00c2 FFF7FEFF 		bl	osal_lyh_delay_task
1850:../app/app.c  **** 			app_task_substep = SETUP_RIGHT_ING_STATE;
 6528              		.loc 1 1850 21
 6529 00c6 2C4B     		ldr	r3, .L604
 6530 00c8 0422     		movs	r2, #4
 6531 00ca 1A70     		strb	r2, [r3]
1851:../app/app.c  **** 			run_max_time = RIGHT_TIMER(Ms_6000, Ms_100);
 6532              		.loc 1 1851 17
 6533 00cc 2B4B     		ldr	r3, .L604+4
 6534 00ce 3C22     		movs	r2, #60
 6535 00d0 1A80     		strh	r2, [r3]	@ movhi
1852:../app/app.c  **** 			break;
 6536              		.loc 1 1852 4
 6537 00d2 4FE0     		b	.L593
 6538              	.L587:
1853:../app/app.c  **** 		case SETUP_RIGHT_ING_STATE:
1854:../app/app.c  **** 			if ((MOTOR_STATE_STOPED == dc_motor_GetState())
 6539              		.loc 1 1854 31
 6540 00d4 FFF7FEFF 		bl	dc_motor_GetState
 6541 00d8 0346     		mov	r3, r0
 6542              		.loc 1 1854 7
 6543 00da 002B     		cmp	r3, #0
 6544 00dc 0ED0     		beq	.L598
1855:../app/app.c  **** 				|| (TRUE == app_motor_ready())
 6545              		.loc 1 1855 17
 6546 00de FFF7FEFF 		bl	app_motor_ready
 6547 00e2 0346     		mov	r3, r0
 6548              		.loc 1 1855 5
 6549 00e4 012B     		cmp	r3, #1
 6550 00e6 09D0     		beq	.L598
1856:../app/app.c  **** 				|| (--run_max_time == 0)){
 6551              		.loc 1 1856 9
 6552 00e8 244B     		ldr	r3, .L604+4
 6553 00ea 1B88     		ldrh	r3, [r3]
 6554 00ec 013B     		subs	r3, r3, #1
 6555 00ee 9AB2     		uxth	r2, r3
 6556              		.loc 1 1856 5
 6557 00f0 224B     		ldr	r3, .L604+4
 6558 00f2 1A80     		strh	r2, [r3]	@ movhi
 6559              		.loc 1 1856 9
 6560 00f4 214B     		ldr	r3, .L604+4
 6561 00f6 1B88     		ldrh	r3, [r3]
 6562              		.loc 1 1856 5
 6563 00f8 002B     		cmp	r3, #0
 6564 00fa 08D1     		bne	.L599
 6565              	.L598:
1857:../app/app.c  **** 				dc_motor_Stop();
 6566              		.loc 1 1857 5
 6567 00fc FFF7FEFF 		bl	dc_motor_Stop
1858:../app/app.c  **** 				osal_lyh_delay_task(Ms_200);
 6568              		.loc 1 1858 5
 6569 0100 C820     		movs	r0, #200
 6570 0102 FFF7FEFF 		bl	osal_lyh_delay_task
1859:../app/app.c  **** 				app_task_substep = SETUP_LEFT_READY_STATE;
 6571              		.loc 1 1859 22
 6572 0106 1C4B     		ldr	r3, .L604
 6573 0108 0522     		movs	r2, #5
 6574 010a 1A70     		strb	r2, [r3]
1860:../app/app.c  **** 			}
1861:../app/app.c  **** 			else {
1862:../app/app.c  **** 				osal_lyh_delay_task(Ms_100);
1863:../app/app.c  **** 			}
1864:../app/app.c  **** 			break;
 6575              		.loc 1 1864 4
 6576 010c 32E0     		b	.L593
 6577              	.L599:
1862:../app/app.c  **** 			}
 6578              		.loc 1 1862 5
 6579 010e 6420     		movs	r0, #100
 6580 0110 FFF7FEFF 		bl	osal_lyh_delay_task
 6581              		.loc 1 1864 4
 6582 0114 2EE0     		b	.L593
 6583              	.L586:
1865:../app/app.c  **** 		case SETUP_LEFT_READY_STATE:
1866:../app/app.c  **** 			dc_motor_Start(MOTOR_LEFT);
 6584              		.loc 1 1866 4
 6585 0116 0220     		movs	r0, #2
 6586 0118 FFF7FEFF 		bl	dc_motor_Start
1867:../app/app.c  **** 			osal_lyh_delay_task(Ms_100);
 6587              		.loc 1 1867 4
 6588 011c 6420     		movs	r0, #100
 6589 011e FFF7FEFF 		bl	osal_lyh_delay_task
1868:../app/app.c  **** 			run_max_time = LEFT_TIMER(MOTOR_FIX_TIME, Ms_100);
 6590              		.loc 1 1868 17
 6591 0122 164B     		ldr	r3, .L604+4
 6592 0124 0322     		movs	r2, #3
 6593 0126 1A80     		strh	r2, [r3]	@ movhi
1869:../app/app.c  **** 			app_task_substep = SETUP_LEFT_ING_STATE;
 6594              		.loc 1 1869 21
 6595 0128 134B     		ldr	r3, .L604
 6596 012a 0622     		movs	r2, #6
 6597 012c 1A70     		strb	r2, [r3]
1870:../app/app.c  **** 			break;
 6598              		.loc 1 1870 4
 6599 012e 21E0     		b	.L593
 6600              	.L585:
1871:../app/app.c  **** 		case SETUP_LEFT_ING_STATE:
1872:../app/app.c  **** 			if (1/*(FAIL == app_motor_ready())*/	// deleting point,(temp to cancel) 
1873:../app/app.c  **** 				&& ((MOTOR_STATE_STOPED == dc_motor_GetState())
 6601              		.loc 1 1873 32
 6602 0130 FFF7FEFF 		bl	dc_motor_GetState
 6603 0134 0346     		mov	r3, r0
1872:../app/app.c  **** 				&& ((MOTOR_STATE_STOPED == dc_motor_GetState())
 6604              		.loc 1 1872 7
 6605 0136 002B     		cmp	r3, #0
 6606 0138 09D0     		beq	.L601
1874:../app/app.c  **** 				|| (--run_max_time == 0))){
 6607              		.loc 1 1874 9
 6608 013a 104B     		ldr	r3, .L604+4
 6609 013c 1B88     		ldrh	r3, [r3]
 6610 013e 013B     		subs	r3, r3, #1
 6611 0140 9AB2     		uxth	r2, r3
1873:../app/app.c  **** 				|| (--run_max_time == 0))){
 6612              		.loc 1 1873 5
 6613 0142 0E4B     		ldr	r3, .L604+4
 6614 0144 1A80     		strh	r2, [r3]	@ movhi
 6615              		.loc 1 1874 9
 6616 0146 0D4B     		ldr	r3, .L604+4
 6617 0148 1B88     		ldrh	r3, [r3]
1873:../app/app.c  **** 				|| (--run_max_time == 0))){
 6618              		.loc 1 1873 5
 6619 014a 002B     		cmp	r3, #0
 6620 014c 04D1     		bne	.L602
 6621              	.L601:
1875:../app/app.c  **** 				dc_motor_Stop();
 6622              		.loc 1 1875 5
 6623 014e FFF7FEFF 		bl	dc_motor_Stop
1876:../app/app.c  **** 				app_task_substep = SETUP_COMPLETE_STATE;
 6624              		.loc 1 1876 22
 6625 0152 094B     		ldr	r3, .L604
 6626 0154 0722     		movs	r2, #7
 6627 0156 1A70     		strb	r2, [r3]
 6628              	.L602:
1877:../app/app.c  **** 			}
1878:../app/app.c  **** 			osal_lyh_delay_task(Ms_100);
 6629              		.loc 1 1878 4
 6630 0158 6420     		movs	r0, #100
 6631 015a FFF7FEFF 		bl	osal_lyh_delay_task
1879:../app/app.c  **** 			break;
 6632              		.loc 1 1879 4
 6633 015e 09E0     		b	.L593
 6634              	.L583:
1880:../app/app.c  **** 		case SETUP_COMPLETE_STATE:
1881:../app/app.c  **** 			key_prohibit_setup(KEY_ONOFF_MASK, FAIL);
 6635              		.loc 1 1881 4
 6636 0160 0021     		movs	r1, #0
 6637 0162 0120     		movs	r0, #1
 6638 0164 FFF7FEFF 		bl	key_prohibit_setup
1882:../app/app.c  **** 			app_task_nextstep(APP_IDLE_STATE, IDLE_INIT_STATE);
 6639              		.loc 1 1882 4
 6640 0168 0021     		movs	r1, #0
 6641 016a 0120     		movs	r0, #1
 6642 016c FFF7FEFF 		bl	app_task_nextstep
1883:../app/app.c  **** 			break;
 6643              		.loc 1 1883 4
 6644 0170 00E0     		b	.L593
 6645              	.L603:
1884:../app/app.c  **** 		default:
1885:../app/app.c  **** 			break;
 6646              		.loc 1 1885 4
 6647 0172 00BF     		nop
 6648              	.L593:
1886:../app/app.c  **** 	}
1887:../app/app.c  **** }
 6649              		.loc 1 1887 1
 6650 0174 00BF     		nop
 6651 0176 80BD     		pop	{r7, pc}
 6652              	.L605:
 6653              		.align	2
 6654              	.L604:
 6655 0178 00000000 		.word	app_task_substep
 6656 017c 00000000 		.word	run_max_time
 6657              		.cfi_endproc
 6658              	.LFE175:
 6660              		.section	.text.app_running_onoff_grind_handler,"ax",%progbits
 6661              		.align	1
 6662              		.global	app_running_onoff_grind_handler
 6663              		.syntax unified
 6664              		.thumb
 6665              		.thumb_func
 6666              		.fpu softvfp
 6668              	app_running_onoff_grind_handler:
 6669              	.LFB176:
1888:../app/app.c  **** 
1889:../app/app.c  **** 
1890:../app/app.c  **** /**************************************************************************
1891:../app/app.c  ****  * @brief ๅจ็ ็ฃจ็ถๆไธๆไธON/OFF้ฎ็ๅค็ๅฝๆฐ
1892:../app/app.c  ****  * @return TRUE๏ผๆต็จ็ปๆ๏ผ่ๅ็ตๆบๅคไบๅไฝ๏ผ FAIL๏ผๆต็จๆง่กไธญ
1893:../app/app.c  ****  * @note ่ฏฅๅฝๆฐๅจespresso, americano็็ ็ฃจ็ถๆไธๆไธON/OFF้ฎๆถ่ขซ่ฐ็จ
1894:../app/app.c  ****  *************************************************************************/
1895:../app/app.c  **** uint8_t app_running_onoff_grind_handler(void)
1896:../app/app.c  **** {
 6670              		.loc 1 1896 1
 6671              		.cfi_startproc
 6672              		@ args = 0, pretend = 0, frame = 0
 6673              		@ frame_needed = 1, uses_anonymous_args = 0
 6674 0000 80B5     		push	{r7, lr}
 6675              		.cfi_def_cfa_offset 8
 6676              		.cfi_offset 7, -8
 6677              		.cfi_offset 14, -4
 6678 0002 00AF     		add	r7, sp, #0
 6679              		.cfi_def_cfa_register 7
1897:../app/app.c  **** 	static uint8_t sta = 0;
1898:../app/app.c  **** 	switch (sta)
 6680              		.loc 1 1898 2
 6681 0004 694B     		ldr	r3, .L631
 6682 0006 1B78     		ldrb	r3, [r3]	@ zero_extendqisi2
 6683 0008 0A2B     		cmp	r3, #10
 6684 000a 00F2CB80 		bhi	.L630
 6685 000e 01A2     		adr	r2, .L609
 6686 0010 52F823F0 		ldr	pc, [r2, r3, lsl #2]
 6687              		.p2align 2
 6688              	.L609:
 6689 0014 41000000 		.word	.L619+1
 6690 0018 57000000 		.word	.L618+1
 6691 001c 71000000 		.word	.L617+1
 6692 0020 AD000000 		.word	.L616+1
 6693 0024 C3000000 		.word	.L615+1
 6694 0028 D7000000 		.word	.L614+1
 6695 002c ED000000 		.word	.L613+1
 6696 0030 01010000 		.word	.L612+1
 6697 0034 1B010000 		.word	.L611+1
 6698 0038 57010000 		.word	.L610+1
 6699 003c 71010000 		.word	.L608+1
 6700              		.p2align 1
 6701              	.L619:
1899:../app/app.c  **** 	{
1900:../app/app.c  **** 		/* ๅๆญข็ ็ฃจใ่ๅ็ตๆบ */
1901:../app/app.c  **** 		case 0:									
1902:../app/app.c  **** 			ac_grind_stop();
 6702              		.loc 1 1902 4
 6703 0040 FFF7FEFF 		bl	ac_grind_stop
1903:../app/app.c  **** 			dc_motor_Stop();
 6704              		.loc 1 1903 4
 6705 0044 FFF7FEFF 		bl	dc_motor_Stop
1904:../app/app.c  **** 			osal_lyh_delay_task(Ms_100);
 6706              		.loc 1 1904 4
 6707 0048 6420     		movs	r0, #100
 6708 004a FFF7FEFF 		bl	osal_lyh_delay_task
1905:../app/app.c  **** 			sta = 1;
 6709              		.loc 1 1905 8
 6710 004e 574B     		ldr	r3, .L631
 6711 0050 0122     		movs	r2, #1
 6712 0052 1A70     		strb	r2, [r3]
1906:../app/app.c  **** 			break;
 6713              		.loc 1 1906 4
 6714 0054 A7E0     		b	.L620
 6715              	.L618:
1907:../app/app.c  **** 		/* ่ๅ็ตๆบ่ฝฌๅฐๆฅๆฐดไฝ็ฝฎ */
1908:../app/app.c  **** 		case 1:										
1909:../app/app.c  **** 			dc_motor_Start(MOTOR_LEFT);		
 6716              		.loc 1 1909 4
 6717 0056 0220     		movs	r0, #2
 6718 0058 FFF7FEFF 		bl	dc_motor_Start
1910:../app/app.c  **** 			osal_lyh_delay_task(Ms_100);
 6719              		.loc 1 1910 4
 6720 005c 6420     		movs	r0, #100
 6721 005e FFF7FEFF 		bl	osal_lyh_delay_task
1911:../app/app.c  **** 			run_max_time = LEFT_TIMER(Ms_7000, Ms_100);
 6722              		.loc 1 1911 17
 6723 0062 534B     		ldr	r3, .L631+4
 6724 0064 4622     		movs	r2, #70
 6725 0066 1A80     		strh	r2, [r3]	@ movhi
1912:../app/app.c  **** 			sta = 2;
 6726              		.loc 1 1912 8
 6727 0068 504B     		ldr	r3, .L631
 6728 006a 0222     		movs	r2, #2
 6729 006c 1A70     		strb	r2, [r3]
1913:../app/app.c  **** 			break;
 6730              		.loc 1 1913 4
 6731 006e 9AE0     		b	.L620
 6732              	.L617:
1914:../app/app.c  **** 		/* ๅคๆญ่ๅ็ตๆบๆฏๅฆๅฐๆฅๆฐดไฝ็ฝฎ */
1915:../app/app.c  **** 		case 2:										
1916:../app/app.c  **** 			if ((MOTOR_STATE_STOPED ==dc_motor_GetState())
 6733              		.loc 1 1916 30
 6734 0070 FFF7FEFF 		bl	dc_motor_GetState
 6735 0074 0346     		mov	r3, r0
 6736              		.loc 1 1916 7
 6737 0076 002B     		cmp	r3, #0
 6738 0078 0ED0     		beq	.L621
1917:../app/app.c  **** 				|| (TRUE == app_motor_ready())
 6739              		.loc 1 1917 17
 6740 007a FFF7FEFF 		bl	app_motor_ready
 6741 007e 0346     		mov	r3, r0
 6742              		.loc 1 1917 5
 6743 0080 012B     		cmp	r3, #1
 6744 0082 09D0     		beq	.L621
1918:../app/app.c  **** 				|| (--run_max_time == 0)){
 6745              		.loc 1 1918 9
 6746 0084 4A4B     		ldr	r3, .L631+4
 6747 0086 1B88     		ldrh	r3, [r3]
 6748 0088 013B     		subs	r3, r3, #1
 6749 008a 9AB2     		uxth	r2, r3
 6750              		.loc 1 1918 5
 6751 008c 484B     		ldr	r3, .L631+4
 6752 008e 1A80     		strh	r2, [r3]	@ movhi
 6753              		.loc 1 1918 9
 6754 0090 474B     		ldr	r3, .L631+4
 6755 0092 1B88     		ldrh	r3, [r3]
 6756              		.loc 1 1918 5
 6757 0094 002B     		cmp	r3, #0
 6758 0096 05D1     		bne	.L622
 6759              	.L621:
1919:../app/app.c  **** 				dc_motor_Stop();
 6760              		.loc 1 1919 5
 6761 0098 FFF7FEFF 		bl	dc_motor_Stop
1920:../app/app.c  **** 				sta = 3;
 6762              		.loc 1 1920 9
 6763 009c 434B     		ldr	r3, .L631
 6764 009e 0322     		movs	r2, #3
 6765 00a0 1A70     		strb	r2, [r3]
1921:../app/app.c  **** 			}
1922:../app/app.c  **** 			else {
1923:../app/app.c  **** 				osal_lyh_delay_task(Ms_100);
1924:../app/app.c  **** 			}			
1925:../app/app.c  **** 			break;
 6766              		.loc 1 1925 4
 6767 00a2 80E0     		b	.L620
 6768              	.L622:
1923:../app/app.c  **** 			}			
 6769              		.loc 1 1923 5
 6770 00a4 6420     		movs	r0, #100
 6771 00a6 FFF7FEFF 		bl	osal_lyh_delay_task
 6772              		.loc 1 1925 4
 6773 00aa 7CE0     		b	.L620
 6774              	.L616:
1926:../app/app.c  **** 		/* ๅผๅงๆฝๆฐด๏ผ็ญๆถ้ด๏ผ */
1927:../app/app.c  **** 		case 3:										
1928:../app/app.c  **** 			ac_pumb_start(CONTINUE_MODE);
 6775              		.loc 1 1928 4
 6776 00ac 0020     		movs	r0, #0
 6777 00ae FFF7FEFF 		bl	ac_pumb_start
1929:../app/app.c  **** 			osal_lyh_delay_task(Ms_2000 - Ms_100);	//ๆญคๅคๆถ้ด้่ฆๆ นๆฎๅฎ้ๆๅตๆดๆน
 6778              		.loc 1 1929 4
 6779 00b2 40F26C70 		movw	r0, #1900
 6780 00b6 FFF7FEFF 		bl	osal_lyh_delay_task
1930:../app/app.c  **** 			sta = 4;
 6781              		.loc 1 1930 8
 6782 00ba 3C4B     		ldr	r3, .L631
 6783 00bc 0422     		movs	r2, #4
 6784 00be 1A70     		strb	r2, [r3]
1931:../app/app.c  **** 			break;
 6785              		.loc 1 1931 4
 6786 00c0 71E0     		b	.L620
 6787              	.L615:
1932:../app/app.c  **** 		/* ๅๆญขๆฝๆฐด */
1933:../app/app.c  **** 		case 4:										
1934:../app/app.c  **** 			ac_pumb_stop();
 6788              		.loc 1 1934 4
 6789 00c2 FFF7FEFF 		bl	ac_pumb_stop
1935:../app/app.c  **** 			osal_lyh_delay_task(Ms_4000);	//ๆญคๅคๆถ้ด้่ฆๆ นๆฎๅฎ้ๆๅตๆดๆน
 6790              		.loc 1 1935 4
 6791 00c6 4FF47A60 		mov	r0, #4000
 6792 00ca FFF7FEFF 		bl	osal_lyh_delay_task
1936:../app/app.c  **** 			sta = 5;
 6793              		.loc 1 1936 8
 6794 00ce 374B     		ldr	r3, .L631
 6795 00d0 0522     		movs	r2, #5
 6796 00d2 1A70     		strb	r2, [r3]
1937:../app/app.c  **** 			break;
 6797              		.loc 1 1937 4
 6798 00d4 67E0     		b	.L620
 6799              	.L614:
1938:../app/app.c  **** 		/* ่ๅ็ตๆบ่ฝฌๅฐๅ็ฒไฝ็ฝฎ */
1939:../app/app.c  **** 		case 5:										
1940:../app/app.c  **** 			dc_motor_Start(MOTOR_RIGHT);
 6800              		.loc 1 1940 4
 6801 00d6 0120     		movs	r0, #1
 6802 00d8 FFF7FEFF 		bl	dc_motor_Start
1941:../app/app.c  **** 			osal_lyh_delay_task(Ms_3000 - Ms_100);
 6803              		.loc 1 1941 4
 6804 00dc 40F65430 		movw	r0, #2900
 6805 00e0 FFF7FEFF 		bl	osal_lyh_delay_task
1942:../app/app.c  **** 			sta = 6;
 6806              		.loc 1 1942 8
 6807 00e4 314B     		ldr	r3, .L631
 6808 00e6 0622     		movs	r2, #6
 6809 00e8 1A70     		strb	r2, [r3]
1943:../app/app.c  **** 			break;
 6810              		.loc 1 1943 4
 6811 00ea 5CE0     		b	.L620
 6812              	.L613:
1944:../app/app.c  **** 		/* ่ๅ็ตๆบๅๆญข๏ผๅๅบๅๅก็ฒ */
1945:../app/app.c  **** 		case 6:									
1946:../app/app.c  **** 			dc_motor_Stop();
 6813              		.loc 1 1946 4
 6814 00ec FFF7FEFF 		bl	dc_motor_Stop
1947:../app/app.c  **** 			osal_lyh_delay_task(Ms_3000);
 6815              		.loc 1 1947 4
 6816 00f0 40F6B830 		movw	r0, #3000
 6817 00f4 FFF7FEFF 		bl	osal_lyh_delay_task
1948:../app/app.c  **** 			sta = 7;
 6818              		.loc 1 1948 8
 6819 00f8 2C4B     		ldr	r3, .L631
 6820 00fa 0722     		movs	r2, #7
 6821 00fc 1A70     		strb	r2, [r3]
1949:../app/app.c  **** 			break;
 6822              		.loc 1 1949 4
 6823 00fe 52E0     		b	.L620
 6824              	.L612:
1950:../app/app.c  **** 		/* ่ๅ็ตๆบๅๅฐๅไฝ */
1951:../app/app.c  **** 		case 7:										
1952:../app/app.c  **** 			dc_motor_Start(MOTOR_RIGHT);
 6825              		.loc 1 1952 4
 6826 0100 0120     		movs	r0, #1
 6827 0102 FFF7FEFF 		bl	dc_motor_Start
1953:../app/app.c  **** 			osal_lyh_delay_task(Ms_100);
 6828              		.loc 1 1953 4
 6829 0106 6420     		movs	r0, #100
 6830 0108 FFF7FEFF 		bl	osal_lyh_delay_task
1954:../app/app.c  **** 			run_max_time = RIGHT_TIMER(Ms_5000, Ms_100);
 6831              		.loc 1 1954 17
 6832 010c 284B     		ldr	r3, .L631+4
 6833 010e 3222     		movs	r2, #50
 6834 0110 1A80     		strh	r2, [r3]	@ movhi
1955:../app/app.c  **** 			sta = 8;
 6835              		.loc 1 1955 8
 6836 0112 264B     		ldr	r3, .L631
 6837 0114 0822     		movs	r2, #8
 6838 0116 1A70     		strb	r2, [r3]
1956:../app/app.c  **** 			break;
 6839              		.loc 1 1956 4
 6840 0118 45E0     		b	.L620
 6841              	.L611:
1957:../app/app.c  **** 		/* ๅคๆญ่ๅ็ตๆบๆฏๅฆๅฐๅไฝๅผๅณ */
1958:../app/app.c  **** 		case 8:									
1959:../app/app.c  **** 			if ((MOTOR_STATE_STOPED ==dc_motor_GetState())	
 6842              		.loc 1 1959 30
 6843 011a FFF7FEFF 		bl	dc_motor_GetState
 6844 011e 0346     		mov	r3, r0
 6845              		.loc 1 1959 7
 6846 0120 002B     		cmp	r3, #0
 6847 0122 0ED0     		beq	.L624
1960:../app/app.c  **** 				|| (TRUE == app_motor_ready())
 6848              		.loc 1 1960 17
 6849 0124 FFF7FEFF 		bl	app_motor_ready
 6850 0128 0346     		mov	r3, r0
 6851              		.loc 1 1960 5
 6852 012a 012B     		cmp	r3, #1
 6853 012c 09D0     		beq	.L624
1961:../app/app.c  **** 				|| (--run_max_time == 0)){
 6854              		.loc 1 1961 9
 6855 012e 204B     		ldr	r3, .L631+4
 6856 0130 1B88     		ldrh	r3, [r3]
 6857 0132 013B     		subs	r3, r3, #1
 6858 0134 9AB2     		uxth	r2, r3
 6859              		.loc 1 1961 5
 6860 0136 1E4B     		ldr	r3, .L631+4
 6861 0138 1A80     		strh	r2, [r3]	@ movhi
 6862              		.loc 1 1961 9
 6863 013a 1D4B     		ldr	r3, .L631+4
 6864 013c 1B88     		ldrh	r3, [r3]
 6865              		.loc 1 1961 5
 6866 013e 002B     		cmp	r3, #0
 6867 0140 05D1     		bne	.L625
 6868              	.L624:
1962:../app/app.c  **** 				dc_motor_Stop();
 6869              		.loc 1 1962 5
 6870 0142 FFF7FEFF 		bl	dc_motor_Stop
1963:../app/app.c  **** 				sta = 9;
 6871              		.loc 1 1963 9
 6872 0146 194B     		ldr	r3, .L631
 6873 0148 0922     		movs	r2, #9
 6874 014a 1A70     		strb	r2, [r3]
1964:../app/app.c  **** 			}
1965:../app/app.c  **** 			else {
1966:../app/app.c  **** 				osal_lyh_delay_task(Ms_100);
1967:../app/app.c  **** 			}
1968:../app/app.c  **** 			break;
 6875              		.loc 1 1968 4
 6876 014c 2BE0     		b	.L620
 6877              	.L625:
1966:../app/app.c  **** 			}
 6878              		.loc 1 1966 5
 6879 014e 6420     		movs	r0, #100
 6880 0150 FFF7FEFF 		bl	osal_lyh_delay_task
 6881              		.loc 1 1968 4
 6882 0154 27E0     		b	.L620
 6883              	.L610:
1969:../app/app.c  **** 		/* ่ๅ็ตๆบๅ่ฝฌๅฐๅไฝ */
1970:../app/app.c  **** 		case 9:									
1971:../app/app.c  **** 			dc_motor_Start(MOTOR_LEFT);
 6884              		.loc 1 1971 4
 6885 0156 0220     		movs	r0, #2
 6886 0158 FFF7FEFF 		bl	dc_motor_Start
1972:../app/app.c  **** 			osal_lyh_delay_task(Ms_100);
 6887              		.loc 1 1972 4
 6888 015c 6420     		movs	r0, #100
 6889 015e FFF7FEFF 		bl	osal_lyh_delay_task
1973:../app/app.c  **** 			run_max_time = LEFT_TIMER(MOTOR_FIX_TIME, Ms_100);
 6890              		.loc 1 1973 17
 6891 0162 134B     		ldr	r3, .L631+4
 6892 0164 0322     		movs	r2, #3
 6893 0166 1A80     		strh	r2, [r3]	@ movhi
1974:../app/app.c  **** 			sta = 10;
 6894              		.loc 1 1974 8
 6895 0168 104B     		ldr	r3, .L631
 6896 016a 0A22     		movs	r2, #10
 6897 016c 1A70     		strb	r2, [r3]
1975:../app/app.c  **** 			break;
 6898              		.loc 1 1975 4
 6899 016e 1AE0     		b	.L620
 6900              	.L608:
1976:../app/app.c  **** 		/* ๅคๆญ่ๅ็ตๆบๅ่ฝฌๆฏๅฆๅฎๆ */
1977:../app/app.c  **** 		case 10:									
1978:../app/app.c  **** 			if (1/*(FAIL == app_motor_ready())*/	// deleting point,(temp to cancel) 
1979:../app/app.c  **** 				&& ((MOTOR_STATE_STOPED ==dc_motor_GetState())
 6901              		.loc 1 1979 31
 6902 0170 FFF7FEFF 		bl	dc_motor_GetState
 6903 0174 0346     		mov	r3, r0
1978:../app/app.c  **** 				&& ((MOTOR_STATE_STOPED ==dc_motor_GetState())
 6904              		.loc 1 1978 7
 6905 0176 002B     		cmp	r3, #0
 6906 0178 09D0     		beq	.L627
1980:../app/app.c  **** 				|| (--run_max_time == 0))){
 6907              		.loc 1 1980 9
 6908 017a 0D4B     		ldr	r3, .L631+4
 6909 017c 1B88     		ldrh	r3, [r3]
 6910 017e 013B     		subs	r3, r3, #1
 6911 0180 9AB2     		uxth	r2, r3
1979:../app/app.c  **** 				|| (--run_max_time == 0))){
 6912              		.loc 1 1979 5
 6913 0182 0B4B     		ldr	r3, .L631+4
 6914 0184 1A80     		strh	r2, [r3]	@ movhi
 6915              		.loc 1 1980 9
 6916 0186 0A4B     		ldr	r3, .L631+4
 6917 0188 1B88     		ldrh	r3, [r3]
1979:../app/app.c  **** 				|| (--run_max_time == 0))){
 6918              		.loc 1 1979 5
 6919 018a 002B     		cmp	r3, #0
 6920 018c 06D1     		bne	.L628
 6921              	.L627:
1981:../app/app.c  **** 				dc_motor_Stop();												
 6922              		.loc 1 1981 5
 6923 018e FFF7FEFF 		bl	dc_motor_Stop
1982:../app/app.c  **** 				sta = 0;
 6924              		.loc 1 1982 9
 6925 0192 064B     		ldr	r3, .L631
 6926 0194 0022     		movs	r2, #0
 6927 0196 1A70     		strb	r2, [r3]
1983:../app/app.c  **** 				return TRUE;
 6928              		.loc 1 1983 12
 6929 0198 0123     		movs	r3, #1
 6930 019a 05E0     		b	.L629
 6931              	.L628:
1984:../app/app.c  **** 			}
1985:../app/app.c  **** 			else {
1986:../app/app.c  **** 				osal_lyh_delay_task(Ms_100);
 6932              		.loc 1 1986 5
 6933 019c 6420     		movs	r0, #100
 6934 019e FFF7FEFF 		bl	osal_lyh_delay_task
1987:../app/app.c  **** 			}
1988:../app/app.c  **** 			break;
 6935              		.loc 1 1988 4
 6936 01a2 00E0     		b	.L620
 6937              	.L630:
1989:../app/app.c  **** 		default:
1990:../app/app.c  **** 			break;
 6938              		.loc 1 1990 4
 6939 01a4 00BF     		nop
 6940              	.L620:
1991:../app/app.c  **** 	}
1992:../app/app.c  **** 	return FAIL;
 6941              		.loc 1 1992 9
 6942 01a6 0023     		movs	r3, #0
 6943              	.L629:
1993:../app/app.c  **** }
 6944              		.loc 1 1993 1
 6945 01a8 1846     		mov	r0, r3
 6946 01aa 80BD     		pop	{r7, pc}
 6947              	.L632:
 6948              		.align	2
 6949              	.L631:
 6950 01ac 00000000 		.word	sta.8839
 6951 01b0 00000000 		.word	run_max_time
 6952              		.cfi_endproc
 6953              	.LFE176:
 6955              		.section	.text.app_running_onoff_go_water_handler,"ax",%progbits
 6956              		.align	1
 6957              		.global	app_running_onoff_go_water_handler
 6958              		.syntax unified
 6959              		.thumb
 6960              		.thumb_func
 6961              		.fpu softvfp
 6963              	app_running_onoff_go_water_handler:
 6964              	.LFB177:
1994:../app/app.c  **** 
1995:../app/app.c  **** /**************************************************************************
1996:../app/app.c  ****  * @brief ๅจ่ๅ็ตๆบๅปๆฅๆฐด็ถๆไธๆไธON/OFF้ฎ็ๅค็ๅฝๆฐ
1997:../app/app.c  ****  * @return TRUE๏ผๆต็จ็ปๆ๏ผ่ๅ็ตๆบๅคไบๅไฝ๏ผ FAIL๏ผๆต็จๆง่กไธญ
1998:../app/app.c  ****  * @note ่ฏฅๅฝๆฐๅจespresso, americano็ๅปๆฅๆฐด็ถๆไธๆไธON/OFF้ฎๆถ่ขซ่ฐ็จ
1999:../app/app.c  ****  *************************************************************************/
2000:../app/app.c  **** uint8_t app_running_onoff_go_water_handler(void)
2001:../app/app.c  **** {
 6965              		.loc 1 2001 1
 6966              		.cfi_startproc
 6967              		@ args = 0, pretend = 0, frame = 0
 6968              		@ frame_needed = 1, uses_anonymous_args = 0
 6969 0000 80B5     		push	{r7, lr}
 6970              		.cfi_def_cfa_offset 8
 6971              		.cfi_offset 7, -8
 6972              		.cfi_offset 14, -4
 6973 0002 00AF     		add	r7, sp, #0
 6974              		.cfi_def_cfa_register 7
2002:../app/app.c  **** 	static uint8_t sta = 0;
2003:../app/app.c  **** 	switch (sta)
 6975              		.loc 1 2003 2
 6976 0004 694B     		ldr	r3, .L658
 6977 0006 1B78     		ldrb	r3, [r3]	@ zero_extendqisi2
 6978 0008 0A2B     		cmp	r3, #10
 6979 000a 00F2CA80 		bhi	.L657
 6980 000e 01A2     		adr	r2, .L636
 6981 0010 52F823F0 		ldr	pc, [r2, r3, lsl #2]
 6982              		.p2align 2
 6983              	.L636:
 6984 0014 41000000 		.word	.L646+1
 6985 0018 55000000 		.word	.L645+1
 6986 001c 6F000000 		.word	.L644+1
 6987 0020 AB000000 		.word	.L643+1
 6988 0024 C1000000 		.word	.L642+1
 6989 0028 D5000000 		.word	.L641+1
 6990 002c EB000000 		.word	.L640+1
 6991 0030 FF000000 		.word	.L639+1
 6992 0034 19010000 		.word	.L638+1
 6993 0038 55010000 		.word	.L637+1
 6994 003c 6F010000 		.word	.L635+1
 6995              		.p2align 1
 6996              	.L646:
2004:../app/app.c  **** 	{
2005:../app/app.c  **** 		/* ๅๆญข่ๅ็ตๆบ */
2006:../app/app.c  **** 		case 0:					
2007:../app/app.c  **** 			dc_motor_Stop();
 6997              		.loc 1 2007 4
 6998 0040 FFF7FEFF 		bl	dc_motor_Stop
2008:../app/app.c  **** 			osal_lyh_delay_task(Ms_300);
 6999              		.loc 1 2008 4
 7000 0044 4FF49670 		mov	r0, #300
 7001 0048 FFF7FEFF 		bl	osal_lyh_delay_task
2009:../app/app.c  **** 			sta = 1;
 7002              		.loc 1 2009 8
 7003 004c 574B     		ldr	r3, .L658
 7004 004e 0122     		movs	r2, #1
 7005 0050 1A70     		strb	r2, [r3]
2010:../app/app.c  **** 			break;
 7006              		.loc 1 2010 4
 7007 0052 A7E0     		b	.L647
 7008              	.L645:
2011:../app/app.c  **** 		/* ่ๅ็ตๆบ่ฝฌๅฐๆฅๆฐดไฝ็ฝฎ */
2012:../app/app.c  **** 		case 1:										
2013:../app/app.c  **** 			dc_motor_Start(MOTOR_LEFT);		
 7009              		.loc 1 2013 4
 7010 0054 0220     		movs	r0, #2
 7011 0056 FFF7FEFF 		bl	dc_motor_Start
2014:../app/app.c  **** 			osal_lyh_delay_task(Ms_100);
 7012              		.loc 1 2014 4
 7013 005a 6420     		movs	r0, #100
 7014 005c FFF7FEFF 		bl	osal_lyh_delay_task
2015:../app/app.c  **** 			run_max_time = LEFT_TIMER(Ms_7000, Ms_100);
 7015              		.loc 1 2015 17
 7016 0060 534B     		ldr	r3, .L658+4
 7017 0062 4622     		movs	r2, #70
 7018 0064 1A80     		strh	r2, [r3]	@ movhi
2016:../app/app.c  **** 			sta = 2;
 7019              		.loc 1 2016 8
 7020 0066 514B     		ldr	r3, .L658
 7021 0068 0222     		movs	r2, #2
 7022 006a 1A70     		strb	r2, [r3]
2017:../app/app.c  **** 			break;
 7023              		.loc 1 2017 4
 7024 006c 9AE0     		b	.L647
 7025              	.L644:
2018:../app/app.c  **** 		/* ๅคๆญ่ๅ็ตๆบๆฏๅฆๅฐๆฅๆฐดไฝ็ฝฎ */
2019:../app/app.c  **** 		case 2:										
2020:../app/app.c  **** 			if ((MOTOR_STATE_STOPED ==dc_motor_GetState())
 7026              		.loc 1 2020 30
 7027 006e FFF7FEFF 		bl	dc_motor_GetState
 7028 0072 0346     		mov	r3, r0
 7029              		.loc 1 2020 7
 7030 0074 002B     		cmp	r3, #0
 7031 0076 0ED0     		beq	.L648
2021:../app/app.c  **** 				|| (TRUE == app_motor_ready())
 7032              		.loc 1 2021 17
 7033 0078 FFF7FEFF 		bl	app_motor_ready
 7034 007c 0346     		mov	r3, r0
 7035              		.loc 1 2021 5
 7036 007e 012B     		cmp	r3, #1
 7037 0080 09D0     		beq	.L648
2022:../app/app.c  **** 				|| (--run_max_time == 0)){
 7038              		.loc 1 2022 9
 7039 0082 4B4B     		ldr	r3, .L658+4
 7040 0084 1B88     		ldrh	r3, [r3]
 7041 0086 013B     		subs	r3, r3, #1
 7042 0088 9AB2     		uxth	r2, r3
 7043              		.loc 1 2022 5
 7044 008a 494B     		ldr	r3, .L658+4
 7045 008c 1A80     		strh	r2, [r3]	@ movhi
 7046              		.loc 1 2022 9
 7047 008e 484B     		ldr	r3, .L658+4
 7048 0090 1B88     		ldrh	r3, [r3]
 7049              		.loc 1 2022 5
 7050 0092 002B     		cmp	r3, #0
 7051 0094 05D1     		bne	.L649
 7052              	.L648:
2023:../app/app.c  **** 				dc_motor_Stop();
 7053              		.loc 1 2023 5
 7054 0096 FFF7FEFF 		bl	dc_motor_Stop
2024:../app/app.c  **** 				sta = 3;
 7055              		.loc 1 2024 9
 7056 009a 444B     		ldr	r3, .L658
 7057 009c 0322     		movs	r2, #3
 7058 009e 1A70     		strb	r2, [r3]
2025:../app/app.c  **** 			}
2026:../app/app.c  **** 			else {
2027:../app/app.c  **** 				osal_lyh_delay_task(Ms_100);
2028:../app/app.c  **** 			}			
2029:../app/app.c  **** 			break;
 7059              		.loc 1 2029 4
 7060 00a0 80E0     		b	.L647
 7061              	.L649:
2027:../app/app.c  **** 			}			
 7062              		.loc 1 2027 5
 7063 00a2 6420     		movs	r0, #100
 7064 00a4 FFF7FEFF 		bl	osal_lyh_delay_task
 7065              		.loc 1 2029 4
 7066 00a8 7CE0     		b	.L647
 7067              	.L643:
2030:../app/app.c  **** 		/* ๅผๅฏๆฐดๆณต๏ผ็ญๆถ้ด๏ผ */
2031:../app/app.c  **** 		case 3:										
2032:../app/app.c  **** 			ac_pumb_start(CONTINUE_MODE);
 7068              		.loc 1 2032 4
 7069 00aa 0020     		movs	r0, #0
 7070 00ac FFF7FEFF 		bl	ac_pumb_start
2033:../app/app.c  **** 			osal_lyh_delay_task(Ms_2000 - Ms_100);		//ๆญคๅคๆถ้ด้่ฆๆ นๆฎๅฎ้ๆๅตๆดๆน
 7071              		.loc 1 2033 4
 7072 00b0 40F26C70 		movw	r0, #1900
 7073 00b4 FFF7FEFF 		bl	osal_lyh_delay_task
2034:../app/app.c  **** 			sta = 4;
 7074              		.loc 1 2034 8
 7075 00b8 3C4B     		ldr	r3, .L658
 7076 00ba 0422     		movs	r2, #4
 7077 00bc 1A70     		strb	r2, [r3]
2035:../app/app.c  **** 			break;
 7078              		.loc 1 2035 4
 7079 00be 71E0     		b	.L647
 7080              	.L642:
2036:../app/app.c  **** 		 /* ๅๆญขๆฐดๆณต */
2037:../app/app.c  **** 		case 4:									
2038:../app/app.c  **** 			ac_pumb_stop();
 7081              		.loc 1 2038 4
 7082 00c0 FFF7FEFF 		bl	ac_pumb_stop
2039:../app/app.c  **** 			osal_lyh_delay_task(Ms_4000);	//ๆญคๅคๆถ้ด้่ฆๆ นๆฎๅฎ้ๆๅตๆดๆน
 7083              		.loc 1 2039 4
 7084 00c4 4FF47A60 		mov	r0, #4000
 7085 00c8 FFF7FEFF 		bl	osal_lyh_delay_task
2040:../app/app.c  **** 			sta = 5;
 7086              		.loc 1 2040 8
 7087 00cc 374B     		ldr	r3, .L658
 7088 00ce 0522     		movs	r2, #5
 7089 00d0 1A70     		strb	r2, [r3]
2041:../app/app.c  **** 			break;
 7090              		.loc 1 2041 4
 7091 00d2 67E0     		b	.L647
 7092              	.L641:
2042:../app/app.c  **** 		/* ่ๅ็ตๆบ่ฝฌๅฐๅ็ฒไฝ็ฝฎ */
2043:../app/app.c  **** 		case 5:										
2044:../app/app.c  **** 			dc_motor_Start(MOTOR_RIGHT);
 7093              		.loc 1 2044 4
 7094 00d4 0120     		movs	r0, #1
 7095 00d6 FFF7FEFF 		bl	dc_motor_Start
2045:../app/app.c  **** 			osal_lyh_delay_task(Ms_3000 - Ms_100);
 7096              		.loc 1 2045 4
 7097 00da 40F65430 		movw	r0, #2900
 7098 00de FFF7FEFF 		bl	osal_lyh_delay_task
2046:../app/app.c  **** 			sta = 6;
 7099              		.loc 1 2046 8
 7100 00e2 324B     		ldr	r3, .L658
 7101 00e4 0622     		movs	r2, #6
 7102 00e6 1A70     		strb	r2, [r3]
2047:../app/app.c  **** 			break;
 7103              		.loc 1 2047 4
 7104 00e8 5CE0     		b	.L647
 7105              	.L640:
2048:../app/app.c  **** 		 /* ่ๅ็ตๆบๅๆญข๏ผๅๅบๅๅก็ฒ */
2049:../app/app.c  **** 		case 6:									
2050:../app/app.c  **** 			dc_motor_Stop();
 7106              		.loc 1 2050 4
 7107 00ea FFF7FEFF 		bl	dc_motor_Stop
2051:../app/app.c  **** 			osal_lyh_delay_task(Ms_3000);
 7108              		.loc 1 2051 4
 7109 00ee 40F6B830 		movw	r0, #3000
 7110 00f2 FFF7FEFF 		bl	osal_lyh_delay_task
2052:../app/app.c  **** 			sta = 7;
 7111              		.loc 1 2052 8
 7112 00f6 2D4B     		ldr	r3, .L658
 7113 00f8 0722     		movs	r2, #7
 7114 00fa 1A70     		strb	r2, [r3]
2053:../app/app.c  **** 			break;
 7115              		.loc 1 2053 4
 7116 00fc 52E0     		b	.L647
 7117              	.L639:
2054:../app/app.c  **** 		 /* ่ๅ็ตๆบๅ่ฝฌๅฐๅไฝ */
2055:../app/app.c  **** 		case 7:										
2056:../app/app.c  **** 			dc_motor_Start(MOTOR_RIGHT);
 7118              		.loc 1 2056 4
 7119 00fe 0120     		movs	r0, #1
 7120 0100 FFF7FEFF 		bl	dc_motor_Start
2057:../app/app.c  **** 			osal_lyh_delay_task(Ms_100);
 7121              		.loc 1 2057 4
 7122 0104 6420     		movs	r0, #100
 7123 0106 FFF7FEFF 		bl	osal_lyh_delay_task
2058:../app/app.c  **** 			run_max_time = RIGHT_TIMER(Ms_5000, Ms_100);
 7124              		.loc 1 2058 17
 7125 010a 294B     		ldr	r3, .L658+4
 7126 010c 3222     		movs	r2, #50
 7127 010e 1A80     		strh	r2, [r3]	@ movhi
2059:../app/app.c  **** 			sta = 8;
 7128              		.loc 1 2059 8
 7129 0110 264B     		ldr	r3, .L658
 7130 0112 0822     		movs	r2, #8
 7131 0114 1A70     		strb	r2, [r3]
2060:../app/app.c  **** 			break;
 7132              		.loc 1 2060 4
 7133 0116 45E0     		b	.L647
 7134              	.L638:
2061:../app/app.c  **** 		 /* ๅคๆญ่ๅ็ตๆบๅ่ฝฌๆฏๅฆ่งฆ็ขฐๅไฝๅผๅณ */
2062:../app/app.c  **** 		case 8:										
2063:../app/app.c  **** 			if ((MOTOR_STATE_STOPED ==dc_motor_GetState())
 7135              		.loc 1 2063 30
 7136 0118 FFF7FEFF 		bl	dc_motor_GetState
 7137 011c 0346     		mov	r3, r0
 7138              		.loc 1 2063 7
 7139 011e 002B     		cmp	r3, #0
 7140 0120 0ED0     		beq	.L651
2064:../app/app.c  **** 				|| (TRUE == app_motor_ready())
 7141              		.loc 1 2064 17
 7142 0122 FFF7FEFF 		bl	app_motor_ready
 7143 0126 0346     		mov	r3, r0
 7144              		.loc 1 2064 5
 7145 0128 012B     		cmp	r3, #1
 7146 012a 09D0     		beq	.L651
2065:../app/app.c  **** 				|| (--run_max_time == 0)){
 7147              		.loc 1 2065 9
 7148 012c 204B     		ldr	r3, .L658+4
 7149 012e 1B88     		ldrh	r3, [r3]
 7150 0130 013B     		subs	r3, r3, #1
 7151 0132 9AB2     		uxth	r2, r3
 7152              		.loc 1 2065 5
 7153 0134 1E4B     		ldr	r3, .L658+4
 7154 0136 1A80     		strh	r2, [r3]	@ movhi
 7155              		.loc 1 2065 9
 7156 0138 1D4B     		ldr	r3, .L658+4
 7157 013a 1B88     		ldrh	r3, [r3]
 7158              		.loc 1 2065 5
 7159 013c 002B     		cmp	r3, #0
 7160 013e 05D1     		bne	.L652
 7161              	.L651:
2066:../app/app.c  **** 				dc_motor_Stop();
 7162              		.loc 1 2066 5
 7163 0140 FFF7FEFF 		bl	dc_motor_Stop
2067:../app/app.c  **** 				sta = 9;
 7164              		.loc 1 2067 9
 7165 0144 194B     		ldr	r3, .L658
 7166 0146 0922     		movs	r2, #9
 7167 0148 1A70     		strb	r2, [r3]
2068:../app/app.c  **** 			}
2069:../app/app.c  **** 			else {
2070:../app/app.c  **** 				osal_lyh_delay_task(Ms_100);
2071:../app/app.c  **** 			}
2072:../app/app.c  **** 			break;
 7168              		.loc 1 2072 4
 7169 014a 2BE0     		b	.L647
 7170              	.L652:
2070:../app/app.c  **** 			}
 7171              		.loc 1 2070 5
 7172 014c 6420     		movs	r0, #100
 7173 014e FFF7FEFF 		bl	osal_lyh_delay_task
 7174              		.loc 1 2072 4
 7175 0152 27E0     		b	.L647
 7176              	.L637:
2073:../app/app.c  **** 		/* ่ๅ็ตๆบๅ่ฝฌๅฐๅไฝ */	
2074:../app/app.c  **** 		case 9:										
2075:../app/app.c  **** 			dc_motor_Start(MOTOR_LEFT);
 7177              		.loc 1 2075 4
 7178 0154 0220     		movs	r0, #2
 7179 0156 FFF7FEFF 		bl	dc_motor_Start
2076:../app/app.c  **** 			osal_lyh_delay_task(Ms_100);
 7180              		.loc 1 2076 4
 7181 015a 6420     		movs	r0, #100
 7182 015c FFF7FEFF 		bl	osal_lyh_delay_task
2077:../app/app.c  **** 			run_max_time = LEFT_TIMER(MOTOR_FIX_TIME, Ms_100);
 7183              		.loc 1 2077 17
 7184 0160 134B     		ldr	r3, .L658+4
 7185 0162 0322     		movs	r2, #3
 7186 0164 1A80     		strh	r2, [r3]	@ movhi
2078:../app/app.c  **** 			sta = 10;
 7187              		.loc 1 2078 8
 7188 0166 114B     		ldr	r3, .L658
 7189 0168 0A22     		movs	r2, #10
 7190 016a 1A70     		strb	r2, [r3]
2079:../app/app.c  **** 			break;
 7191              		.loc 1 2079 4
 7192 016c 1AE0     		b	.L647
 7193              	.L635:
2080:../app/app.c  **** 		 /* ๅคๆญ่ๅ็ตๆบๅ่ฝฌๆฏๅฆๅฎๆ */
2081:../app/app.c  **** 		case 10:									
2082:../app/app.c  **** 			if (1/*(FAIL == app_motor_ready())*/	// deleting point,(temp to cancel) 
2083:../app/app.c  **** 				&& ((MOTOR_STATE_STOPED ==dc_motor_GetState())
 7194              		.loc 1 2083 31
 7195 016e FFF7FEFF 		bl	dc_motor_GetState
 7196 0172 0346     		mov	r3, r0
2082:../app/app.c  **** 				&& ((MOTOR_STATE_STOPED ==dc_motor_GetState())
 7197              		.loc 1 2082 7
 7198 0174 002B     		cmp	r3, #0
 7199 0176 09D0     		beq	.L654
2084:../app/app.c  **** 				|| (--run_max_time == 0))){
 7200              		.loc 1 2084 9
 7201 0178 0D4B     		ldr	r3, .L658+4
 7202 017a 1B88     		ldrh	r3, [r3]
 7203 017c 013B     		subs	r3, r3, #1
 7204 017e 9AB2     		uxth	r2, r3
2083:../app/app.c  **** 				|| (--run_max_time == 0))){
 7205              		.loc 1 2083 5
 7206 0180 0B4B     		ldr	r3, .L658+4
 7207 0182 1A80     		strh	r2, [r3]	@ movhi
 7208              		.loc 1 2084 9
 7209 0184 0A4B     		ldr	r3, .L658+4
 7210 0186 1B88     		ldrh	r3, [r3]
2083:../app/app.c  **** 				|| (--run_max_time == 0))){
 7211              		.loc 1 2083 5
 7212 0188 002B     		cmp	r3, #0
 7213 018a 06D1     		bne	.L655
 7214              	.L654:
2085:../app/app.c  **** 				dc_motor_Stop();
 7215              		.loc 1 2085 5
 7216 018c FFF7FEFF 		bl	dc_motor_Stop
2086:../app/app.c  **** 				sta = 0;
 7217              		.loc 1 2086 9
 7218 0190 064B     		ldr	r3, .L658
 7219 0192 0022     		movs	r2, #0
 7220 0194 1A70     		strb	r2, [r3]
2087:../app/app.c  **** 				return TRUE;
 7221              		.loc 1 2087 12
 7222 0196 0123     		movs	r3, #1
 7223 0198 05E0     		b	.L656
 7224              	.L655:
2088:../app/app.c  **** 			}
2089:../app/app.c  **** 			else {
2090:../app/app.c  **** 				osal_lyh_delay_task(Ms_100);
 7225              		.loc 1 2090 5
 7226 019a 6420     		movs	r0, #100
 7227 019c FFF7FEFF 		bl	osal_lyh_delay_task
2091:../app/app.c  **** 			}
2092:../app/app.c  **** 			break;
 7228              		.loc 1 2092 4
 7229 01a0 00E0     		b	.L647
 7230              	.L657:
2093:../app/app.c  **** 		default:
2094:../app/app.c  **** 			break;
 7231              		.loc 1 2094 4
 7232 01a2 00BF     		nop
 7233              	.L647:
2095:../app/app.c  **** 	}
2096:../app/app.c  **** 	return FAIL;
 7234              		.loc 1 2096 9
 7235 01a4 0023     		movs	r3, #0
 7236              	.L656:
2097:../app/app.c  **** }
 7237              		.loc 1 2097 1
 7238 01a6 1846     		mov	r0, r3
 7239 01a8 80BD     		pop	{r7, pc}
 7240              	.L659:
 7241 01aa 00BF     		.align	2
 7242              	.L658:
 7243 01ac 00000000 		.word	sta.8856
 7244 01b0 00000000 		.word	run_max_time
 7245              		.cfi_endproc
 7246              	.LFE177:
 7248              		.section	.text.app_running_onoff_pre_brew_handler,"ax",%progbits
 7249              		.align	1
 7250              		.global	app_running_onoff_pre_brew_handler
 7251              		.syntax unified
 7252              		.thumb
 7253              		.thumb_func
 7254              		.fpu softvfp
 7256              	app_running_onoff_pre_brew_handler:
 7257              	.LFB178:
2098:../app/app.c  **** 
2099:../app/app.c  **** /**************************************************************************
2100:../app/app.c  ****  * @brief ๅจ่ๅ็ตๆบ้ขๅฒ็ฎ็ถๆไธๆไธON/OFF้ฎ็ๅค็ๅฝๆฐ
2101:../app/app.c  ****  * @return TRUE๏ผๆต็จ็ปๆ๏ผ่ๅ็ตๆบๅคไบๅไฝ๏ผ FAIL๏ผๆต็จๆง่กไธญ
2102:../app/app.c  ****  * @note ่ฏฅๅฝๆฐๅจespresso, americano็้ขๅฒ็ฎ็ถๆไธๆไธON/OFF้ฎๆถ่ขซ่ฐ็จ
2103:../app/app.c  ****  *************************************************************************/
2104:../app/app.c  **** uint8_t app_running_onoff_pre_brew_handler(void)
2105:../app/app.c  **** {
 7258              		.loc 1 2105 1
 7259              		.cfi_startproc
 7260              		@ args = 0, pretend = 0, frame = 0
 7261              		@ frame_needed = 1, uses_anonymous_args = 0
 7262 0000 80B5     		push	{r7, lr}
 7263              		.cfi_def_cfa_offset 8
 7264              		.cfi_offset 7, -8
 7265              		.cfi_offset 14, -4
 7266 0002 00AF     		add	r7, sp, #0
 7267              		.cfi_def_cfa_register 7
2106:../app/app.c  **** 	static uint8_t sta = 0;
2107:../app/app.c  **** 	switch (sta)
 7268              		.loc 1 2107 2
 7269 0004 514B     		ldr	r3, .L680
 7270 0006 1B78     		ldrb	r3, [r3]	@ zero_extendqisi2
 7271 0008 082B     		cmp	r3, #8
 7272 000a 00F29B80 		bhi	.L679
 7273 000e 01A2     		adr	r2, .L663
 7274 0010 52F823F0 		ldr	pc, [r2, r3, lsl #2]
 7275              		.p2align 2
 7276              	.L663:
 7277 0014 39000000 		.word	.L671+1
 7278 0018 4D000000 		.word	.L670+1
 7279 001c 63000000 		.word	.L669+1
 7280 0020 77000000 		.word	.L668+1
 7281 0024 8D000000 		.word	.L667+1
 7282 0028 A1000000 		.word	.L666+1
 7283 002c BB000000 		.word	.L665+1
 7284 0030 F7000000 		.word	.L664+1
 7285 0034 11010000 		.word	.L662+1
 7286              		.p2align 1
 7287              	.L671:
2108:../app/app.c  **** 	{
2109:../app/app.c  **** 		/* ๅๆญขๆฐดๆณต */
2110:../app/app.c  **** 		case 0:		
2111:../app/app.c  **** 			ac_pumb_stop();
 7288              		.loc 1 2111 4
 7289 0038 FFF7FEFF 		bl	ac_pumb_stop
2112:../app/app.c  **** 			osal_lyh_delay_task(Ms_1000);
 7290              		.loc 1 2112 4
 7291 003c 4FF47A70 		mov	r0, #1000
 7292 0040 FFF7FEFF 		bl	osal_lyh_delay_task
2113:../app/app.c  **** 			sta = 1;
 7293              		.loc 1 2113 8
 7294 0044 414B     		ldr	r3, .L680
 7295 0046 0122     		movs	r2, #1
 7296 0048 1A70     		strb	r2, [r3]
2114:../app/app.c  **** 			break;
 7297              		.loc 1 2114 4
 7298 004a 7CE0     		b	.L672
 7299              	.L670:
2115:../app/app.c  **** 		/* ๅฏๅจๆฐดๆณต๏ผ็ญๆถ้ด๏ผ */			
2116:../app/app.c  **** 		case 1:										
2117:../app/app.c  **** 			ac_pumb_start(CONTINUE_MODE);
 7300              		.loc 1 2117 4
 7301 004c 0020     		movs	r0, #0
 7302 004e FFF7FEFF 		bl	ac_pumb_start
2118:../app/app.c  **** 			osal_lyh_delay_task(Ms_2000 - Ms_100);		//ๆญคๅคๆถ้ด้่ฆๆ นๆฎๅฎ้ๆๅตๆดๆน
 7303              		.loc 1 2118 4
 7304 0052 40F26C70 		movw	r0, #1900
 7305 0056 FFF7FEFF 		bl	osal_lyh_delay_task
2119:../app/app.c  **** 			sta = 2;
 7306              		.loc 1 2119 8
 7307 005a 3C4B     		ldr	r3, .L680
 7308 005c 0222     		movs	r2, #2
 7309 005e 1A70     		strb	r2, [r3]
2120:../app/app.c  **** 			break;
 7310              		.loc 1 2120 4
 7311 0060 71E0     		b	.L672
 7312              	.L669:
2121:../app/app.c  **** 		/* ๅๆญขๆฐดๆณต */
2122:../app/app.c  **** 		case 2:										
2123:../app/app.c  **** 			ac_pumb_stop();
 7313              		.loc 1 2123 4
 7314 0062 FFF7FEFF 		bl	ac_pumb_stop
2124:../app/app.c  **** 			osal_lyh_delay_task(Ms_4000);	//ๆญคๅคๆถ้ด้่ฆๆ นๆฎๅฎ้ๆๅตๆดๆน
 7315              		.loc 1 2124 4
 7316 0066 4FF47A60 		mov	r0, #4000
 7317 006a FFF7FEFF 		bl	osal_lyh_delay_task
2125:../app/app.c  **** 			sta = 3;
 7318              		.loc 1 2125 8
 7319 006e 374B     		ldr	r3, .L680
 7320 0070 0322     		movs	r2, #3
 7321 0072 1A70     		strb	r2, [r3]
2126:../app/app.c  **** 			break;
 7322              		.loc 1 2126 4
 7323 0074 67E0     		b	.L672
 7324              	.L668:
2127:../app/app.c  **** 		 /* ่ๅ็ตๆบ่ฝฌๅฐๅ็ฒไฝ็ฝฎ */
2128:../app/app.c  **** 		case 3:										
2129:../app/app.c  **** 			dc_motor_Start(MOTOR_RIGHT);
 7325              		.loc 1 2129 4
 7326 0076 0120     		movs	r0, #1
 7327 0078 FFF7FEFF 		bl	dc_motor_Start
2130:../app/app.c  **** 			osal_lyh_delay_task(Ms_3000 - Ms_100);
 7328              		.loc 1 2130 4
 7329 007c 40F65430 		movw	r0, #2900
 7330 0080 FFF7FEFF 		bl	osal_lyh_delay_task
2131:../app/app.c  **** 			sta = 4;
 7331              		.loc 1 2131 8
 7332 0084 314B     		ldr	r3, .L680
 7333 0086 0422     		movs	r2, #4
 7334 0088 1A70     		strb	r2, [r3]
2132:../app/app.c  **** 			break;
 7335              		.loc 1 2132 4
 7336 008a 5CE0     		b	.L672
 7337              	.L667:
2133:../app/app.c  **** 		 /* ่ๅ็ตๆบๅๆญข๏ผๅๅบๅๅก็ฒ */
2134:../app/app.c  **** 		case 4:										
2135:../app/app.c  **** 			dc_motor_Stop();
 7338              		.loc 1 2135 4
 7339 008c FFF7FEFF 		bl	dc_motor_Stop
2136:../app/app.c  **** 			osal_lyh_delay_task(Ms_3000);
 7340              		.loc 1 2136 4
 7341 0090 40F6B830 		movw	r0, #3000
 7342 0094 FFF7FEFF 		bl	osal_lyh_delay_task
2137:../app/app.c  **** 			sta = 5;
 7343              		.loc 1 2137 8
 7344 0098 2C4B     		ldr	r3, .L680
 7345 009a 0522     		movs	r2, #5
 7346 009c 1A70     		strb	r2, [r3]
2138:../app/app.c  **** 			break;
 7347              		.loc 1 2138 4
 7348 009e 52E0     		b	.L672
 7349              	.L666:
2139:../app/app.c  **** 		 /* ่ๅ็ตๆบๅๅไฝ่ฝฌๅจ */
2140:../app/app.c  **** 		case 5:										
2141:../app/app.c  **** 			dc_motor_Start(MOTOR_RIGHT);
 7350              		.loc 1 2141 4
 7351 00a0 0120     		movs	r0, #1
 7352 00a2 FFF7FEFF 		bl	dc_motor_Start
2142:../app/app.c  **** 			osal_lyh_delay_task(Ms_100);
 7353              		.loc 1 2142 4
 7354 00a6 6420     		movs	r0, #100
 7355 00a8 FFF7FEFF 		bl	osal_lyh_delay_task
2143:../app/app.c  **** 			run_max_time = RIGHT_TIMER(Ms_5000, Ms_100);
 7356              		.loc 1 2143 17
 7357 00ac 284B     		ldr	r3, .L680+4
 7358 00ae 3222     		movs	r2, #50
 7359 00b0 1A80     		strh	r2, [r3]	@ movhi
2144:../app/app.c  **** 			sta = 6;
 7360              		.loc 1 2144 8
 7361 00b2 264B     		ldr	r3, .L680
 7362 00b4 0622     		movs	r2, #6
 7363 00b6 1A70     		strb	r2, [r3]
2145:../app/app.c  **** 			break;
 7364              		.loc 1 2145 4
 7365 00b8 45E0     		b	.L672
 7366              	.L665:
2146:../app/app.c  **** 		 /* ๅคๆญ่ๅ็ตๆบๆฏๅฆ่งฆ็ขฐๅไฝ่งฆ็นๅผๅณ */
2147:../app/app.c  **** 		case 6:										
2148:../app/app.c  **** 			if ((MOTOR_STATE_STOPED ==dc_motor_GetState())
 7367              		.loc 1 2148 30
 7368 00ba FFF7FEFF 		bl	dc_motor_GetState
 7369 00be 0346     		mov	r3, r0
 7370              		.loc 1 2148 7
 7371 00c0 002B     		cmp	r3, #0
 7372 00c2 0ED0     		beq	.L673
2149:../app/app.c  **** 				|| (TRUE == app_motor_ready())
 7373              		.loc 1 2149 17
 7374 00c4 FFF7FEFF 		bl	app_motor_ready
 7375 00c8 0346     		mov	r3, r0
 7376              		.loc 1 2149 5
 7377 00ca 012B     		cmp	r3, #1
 7378 00cc 09D0     		beq	.L673
2150:../app/app.c  **** 				|| (--run_max_time == 0)){
 7379              		.loc 1 2150 9
 7380 00ce 204B     		ldr	r3, .L680+4
 7381 00d0 1B88     		ldrh	r3, [r3]
 7382 00d2 013B     		subs	r3, r3, #1
 7383 00d4 9AB2     		uxth	r2, r3
 7384              		.loc 1 2150 5
 7385 00d6 1E4B     		ldr	r3, .L680+4
 7386 00d8 1A80     		strh	r2, [r3]	@ movhi
 7387              		.loc 1 2150 9
 7388 00da 1D4B     		ldr	r3, .L680+4
 7389 00dc 1B88     		ldrh	r3, [r3]
 7390              		.loc 1 2150 5
 7391 00de 002B     		cmp	r3, #0
 7392 00e0 05D1     		bne	.L674
 7393              	.L673:
2151:../app/app.c  **** 				dc_motor_Stop();
 7394              		.loc 1 2151 5
 7395 00e2 FFF7FEFF 		bl	dc_motor_Stop
2152:../app/app.c  **** 				sta = 7;
 7396              		.loc 1 2152 9
 7397 00e6 194B     		ldr	r3, .L680
 7398 00e8 0722     		movs	r2, #7
 7399 00ea 1A70     		strb	r2, [r3]
2153:../app/app.c  **** 			}
2154:../app/app.c  **** 			else {
2155:../app/app.c  **** 				osal_lyh_delay_task(Ms_100);
2156:../app/app.c  **** 			}
2157:../app/app.c  **** 			break;
 7400              		.loc 1 2157 4
 7401 00ec 2BE0     		b	.L672
 7402              	.L674:
2155:../app/app.c  **** 			}
 7403              		.loc 1 2155 5
 7404 00ee 6420     		movs	r0, #100
 7405 00f0 FFF7FEFF 		bl	osal_lyh_delay_task
 7406              		.loc 1 2157 4
 7407 00f4 27E0     		b	.L672
 7408              	.L664:
2158:../app/app.c  **** 		 /* ่ๅ็ตๆบๅ่ฝฌๅฐๅไฝ */
2159:../app/app.c  **** 		case 7:										
2160:../app/app.c  **** 			dc_motor_Start(MOTOR_LEFT);
 7409              		.loc 1 2160 4
 7410 00f6 0220     		movs	r0, #2
 7411 00f8 FFF7FEFF 		bl	dc_motor_Start
2161:../app/app.c  **** 			osal_lyh_delay_task(Ms_100);
 7412              		.loc 1 2161 4
 7413 00fc 6420     		movs	r0, #100
 7414 00fe FFF7FEFF 		bl	osal_lyh_delay_task
2162:../app/app.c  **** 			run_max_time = LEFT_TIMER(MOTOR_FIX_TIME, Ms_100);
 7415              		.loc 1 2162 17
 7416 0102 134B     		ldr	r3, .L680+4
 7417 0104 0322     		movs	r2, #3
 7418 0106 1A80     		strh	r2, [r3]	@ movhi
2163:../app/app.c  **** 			sta = 8;
 7419              		.loc 1 2163 8
 7420 0108 104B     		ldr	r3, .L680
 7421 010a 0822     		movs	r2, #8
 7422 010c 1A70     		strb	r2, [r3]
2164:../app/app.c  **** 			break;
 7423              		.loc 1 2164 4
 7424 010e 1AE0     		b	.L672
 7425              	.L662:
2165:../app/app.c  **** 		 /* ๅคๆญ่ๅ็ตๆบๅ่ฝฌๆฏๅฆๅฎๆ */
2166:../app/app.c  **** 		case 8:									
2167:../app/app.c  **** 			if (1/*(FAIL == app_motor_ready())*/	// deleting point,(temp to cancel) 
2168:../app/app.c  **** 				&& ((MOTOR_STATE_STOPED ==dc_motor_GetState())
 7426              		.loc 1 2168 31
 7427 0110 FFF7FEFF 		bl	dc_motor_GetState
 7428 0114 0346     		mov	r3, r0
2167:../app/app.c  **** 				&& ((MOTOR_STATE_STOPED ==dc_motor_GetState())
 7429              		.loc 1 2167 7
 7430 0116 002B     		cmp	r3, #0
 7431 0118 09D0     		beq	.L676
2169:../app/app.c  **** 				|| (--run_max_time == 0))){
 7432              		.loc 1 2169 9
 7433 011a 0D4B     		ldr	r3, .L680+4
 7434 011c 1B88     		ldrh	r3, [r3]
 7435 011e 013B     		subs	r3, r3, #1
 7436 0120 9AB2     		uxth	r2, r3
2168:../app/app.c  **** 				|| (--run_max_time == 0))){
 7437              		.loc 1 2168 5
 7438 0122 0B4B     		ldr	r3, .L680+4
 7439 0124 1A80     		strh	r2, [r3]	@ movhi
 7440              		.loc 1 2169 9
 7441 0126 0A4B     		ldr	r3, .L680+4
 7442 0128 1B88     		ldrh	r3, [r3]
2168:../app/app.c  **** 				|| (--run_max_time == 0))){
 7443              		.loc 1 2168 5
 7444 012a 002B     		cmp	r3, #0
 7445 012c 06D1     		bne	.L677
 7446              	.L676:
2170:../app/app.c  **** 				dc_motor_Stop();
 7447              		.loc 1 2170 5
 7448 012e FFF7FEFF 		bl	dc_motor_Stop
2171:../app/app.c  **** 				sta = 0;
 7449              		.loc 1 2171 9
 7450 0132 064B     		ldr	r3, .L680
 7451 0134 0022     		movs	r2, #0
 7452 0136 1A70     		strb	r2, [r3]
2172:../app/app.c  **** 				return TRUE;
 7453              		.loc 1 2172 12
 7454 0138 0123     		movs	r3, #1
 7455 013a 05E0     		b	.L678
 7456              	.L677:
2173:../app/app.c  **** 			}
2174:../app/app.c  **** 			else {
2175:../app/app.c  **** 				osal_lyh_delay_task(Ms_100);
 7457              		.loc 1 2175 5
 7458 013c 6420     		movs	r0, #100
 7459 013e FFF7FEFF 		bl	osal_lyh_delay_task
2176:../app/app.c  **** 			}
2177:../app/app.c  **** 			break;
 7460              		.loc 1 2177 4
 7461 0142 00E0     		b	.L672
 7462              	.L679:
2178:../app/app.c  **** 		default:
2179:../app/app.c  **** 			break;
 7463              		.loc 1 2179 4
 7464 0144 00BF     		nop
 7465              	.L672:
2180:../app/app.c  **** 	}
2181:../app/app.c  **** 	return FAIL;
 7466              		.loc 1 2181 9
 7467 0146 0023     		movs	r3, #0
 7468              	.L678:
2182:../app/app.c  **** }
 7469              		.loc 1 2182 1
 7470 0148 1846     		mov	r0, r3
 7471 014a 80BD     		pop	{r7, pc}
 7472              	.L681:
 7473              		.align	2
 7474              	.L680:
 7475 014c 00000000 		.word	sta.8873
 7476 0150 00000000 		.word	run_max_time
 7477              		.cfi_endproc
 7478              	.LFE178:
 7480              		.section	.text.app_running_onoff_brew_handler,"ax",%progbits
 7481              		.align	1
 7482              		.global	app_running_onoff_brew_handler
 7483              		.syntax unified
 7484              		.thumb
 7485              		.thumb_func
 7486              		.fpu softvfp
 7488              	app_running_onoff_brew_handler:
 7489              	.LFB179:
2183:../app/app.c  **** 
2184:../app/app.c  **** /**************************************************************************
2185:../app/app.c  ****  * @brief ๅจๅฒ็ฎ็ถๆไธๆไธON/OFF้ฎ็ๅค็ๅฝๆฐ
2186:../app/app.c  ****  * @return TRUE๏ผๆต็จ็ปๆ๏ผ่ๅ็ตๆบๅคไบๅไฝ๏ผ FAIL๏ผๆต็จๆง่กไธญ
2187:../app/app.c  ****  * @note ่ฏฅๅฝๆฐๅจespresso, americano็ๅฒ็ฎ็ถๆไธๆไธON/OFF้ฎๆถ่ขซ่ฐ็จ
2188:../app/app.c  ****  *************************************************************************/
2189:../app/app.c  **** uint8_t app_running_onoff_brew_handler(void)
2190:../app/app.c  **** {
 7490              		.loc 1 2190 1
 7491              		.cfi_startproc
 7492              		@ args = 0, pretend = 0, frame = 0
 7493              		@ frame_needed = 1, uses_anonymous_args = 0
 7494 0000 80B5     		push	{r7, lr}
 7495              		.cfi_def_cfa_offset 8
 7496              		.cfi_offset 7, -8
 7497              		.cfi_offset 14, -4
 7498 0002 00AF     		add	r7, sp, #0
 7499              		.cfi_def_cfa_register 7
2191:../app/app.c  **** 	static uint8_t sta = 0;
2192:../app/app.c  **** 	switch (sta)
 7500              		.loc 1 2192 2
 7501 0004 454B     		ldr	r3, .L700
 7502 0006 1B78     		ldrb	r3, [r3]	@ zero_extendqisi2
 7503 0008 062B     		cmp	r3, #6
 7504 000a 00F28280 		bhi	.L699
 7505 000e 01A2     		adr	r2, .L685
 7506 0010 52F823F0 		ldr	pc, [r2, r3, lsl #2]
 7507              		.p2align 2
 7508              	.L685:
 7509 0014 31000000 		.word	.L691+1
 7510 0018 45000000 		.word	.L690+1
 7511 001c 5B000000 		.word	.L689+1
 7512 0020 6F000000 		.word	.L688+1
 7513 0024 89000000 		.word	.L687+1
 7514 0028 C5000000 		.word	.L686+1
 7515 002c DF000000 		.word	.L684+1
 7516              		.p2align 1
 7517              	.L691:
2193:../app/app.c  **** 	{
2194:../app/app.c  **** 		 /* ๅๆญขๆฐดๆณต */
2195:../app/app.c  **** 		case 0:			
2196:../app/app.c  **** 			ac_pumb_stop();
 7518              		.loc 1 2196 4
 7519 0030 FFF7FEFF 		bl	ac_pumb_stop
2197:../app/app.c  **** 			osal_lyh_delay_task(Ms_4000);
 7520              		.loc 1 2197 4
 7521 0034 4FF47A60 		mov	r0, #4000
 7522 0038 FFF7FEFF 		bl	osal_lyh_delay_task
2198:../app/app.c  **** 			sta = 1;
 7523              		.loc 1 2198 8
 7524 003c 374B     		ldr	r3, .L700
 7525 003e 0122     		movs	r2, #1
 7526 0040 1A70     		strb	r2, [r3]
2199:../app/app.c  **** 			break;
 7527              		.loc 1 2199 4
 7528 0042 67E0     		b	.L692
 7529              	.L690:
2200:../app/app.c  **** 		 /* ่ๅ็ตๆบ่ฝฌๅฐๅ็ฒไฝ็ฝฎ */
2201:../app/app.c  **** 		case 1:										
2202:../app/app.c  **** 			dc_motor_Start(MOTOR_RIGHT);
 7530              		.loc 1 2202 4
 7531 0044 0120     		movs	r0, #1
 7532 0046 FFF7FEFF 		bl	dc_motor_Start
2203:../app/app.c  **** 			osal_lyh_delay_task(Ms_3000 - Ms_100);
 7533              		.loc 1 2203 4
 7534 004a 40F65430 		movw	r0, #2900
 7535 004e FFF7FEFF 		bl	osal_lyh_delay_task
2204:../app/app.c  **** 			sta = 2;
 7536              		.loc 1 2204 8
 7537 0052 324B     		ldr	r3, .L700
 7538 0054 0222     		movs	r2, #2
 7539 0056 1A70     		strb	r2, [r3]
2205:../app/app.c  **** 			break;
 7540              		.loc 1 2205 4
 7541 0058 5CE0     		b	.L692
 7542              	.L689:
2206:../app/app.c  **** 		 /* ่ๅ็ตๆบๅๆญข๏ผๅๅบๅๅก็ฒ */
2207:../app/app.c  **** 		case 2:										
2208:../app/app.c  **** 			dc_motor_Stop();
 7543              		.loc 1 2208 4
 7544 005a FFF7FEFF 		bl	dc_motor_Stop
2209:../app/app.c  **** 			osal_lyh_delay_task(Ms_3000);
 7545              		.loc 1 2209 4
 7546 005e 40F6B830 		movw	r0, #3000
 7547 0062 FFF7FEFF 		bl	osal_lyh_delay_task
2210:../app/app.c  **** 			sta = 3;
 7548              		.loc 1 2210 8
 7549 0066 2D4B     		ldr	r3, .L700
 7550 0068 0322     		movs	r2, #3
 7551 006a 1A70     		strb	r2, [r3]
2211:../app/app.c  **** 			break;
 7552              		.loc 1 2211 4
 7553 006c 52E0     		b	.L692
 7554              	.L688:
2212:../app/app.c  **** 		/* ่ๅ็ตๆบๅๅ็น่ฝฌๅจ */
2213:../app/app.c  **** 		case 3:										
2214:../app/app.c  **** 			dc_motor_Start(MOTOR_RIGHT);
 7555              		.loc 1 2214 4
 7556 006e 0120     		movs	r0, #1
 7557 0070 FFF7FEFF 		bl	dc_motor_Start
2215:../app/app.c  **** 			osal_lyh_delay_task(Ms_100);
 7558              		.loc 1 2215 4
 7559 0074 6420     		movs	r0, #100
 7560 0076 FFF7FEFF 		bl	osal_lyh_delay_task
2216:../app/app.c  **** 			run_max_time = RIGHT_TIMER(Ms_5000, Ms_100);
 7561              		.loc 1 2216 17
 7562 007a 294B     		ldr	r3, .L700+4
 7563 007c 3222     		movs	r2, #50
 7564 007e 1A80     		strh	r2, [r3]	@ movhi
2217:../app/app.c  **** 			sta = 4;
 7565              		.loc 1 2217 8
 7566 0080 264B     		ldr	r3, .L700
 7567 0082 0422     		movs	r2, #4
 7568 0084 1A70     		strb	r2, [r3]
2218:../app/app.c  **** 			break;
 7569              		.loc 1 2218 4
 7570 0086 45E0     		b	.L692
 7571              	.L687:
2219:../app/app.c  **** 		 /* ๅคๆญ่ๅ็ตๆบๆฏๅฆๅฐๅ็น่งฆ็นๅผๅณ */
2220:../app/app.c  **** 		case 4:										
2221:../app/app.c  **** 			if ((MOTOR_STATE_STOPED ==dc_motor_GetState())
 7572              		.loc 1 2221 30
 7573 0088 FFF7FEFF 		bl	dc_motor_GetState
 7574 008c 0346     		mov	r3, r0
 7575              		.loc 1 2221 7
 7576 008e 002B     		cmp	r3, #0
 7577 0090 0ED0     		beq	.L693
2222:../app/app.c  **** 				|| (TRUE == app_motor_ready())
 7578              		.loc 1 2222 17
 7579 0092 FFF7FEFF 		bl	app_motor_ready
 7580 0096 0346     		mov	r3, r0
 7581              		.loc 1 2222 5
 7582 0098 012B     		cmp	r3, #1
 7583 009a 09D0     		beq	.L693
2223:../app/app.c  **** 				|| (--run_max_time == 0)){
 7584              		.loc 1 2223 9
 7585 009c 204B     		ldr	r3, .L700+4
 7586 009e 1B88     		ldrh	r3, [r3]
 7587 00a0 013B     		subs	r3, r3, #1
 7588 00a2 9AB2     		uxth	r2, r3
 7589              		.loc 1 2223 5
 7590 00a4 1E4B     		ldr	r3, .L700+4
 7591 00a6 1A80     		strh	r2, [r3]	@ movhi
 7592              		.loc 1 2223 9
 7593 00a8 1D4B     		ldr	r3, .L700+4
 7594 00aa 1B88     		ldrh	r3, [r3]
 7595              		.loc 1 2223 5
 7596 00ac 002B     		cmp	r3, #0
 7597 00ae 05D1     		bne	.L694
 7598              	.L693:
2224:../app/app.c  **** 				dc_motor_Stop();
 7599              		.loc 1 2224 5
 7600 00b0 FFF7FEFF 		bl	dc_motor_Stop
2225:../app/app.c  **** 				sta = 5;
 7601              		.loc 1 2225 9
 7602 00b4 194B     		ldr	r3, .L700
 7603 00b6 0522     		movs	r2, #5
 7604 00b8 1A70     		strb	r2, [r3]
2226:../app/app.c  **** 			}
2227:../app/app.c  **** 			else {
2228:../app/app.c  **** 				osal_lyh_delay_task(Ms_100);
2229:../app/app.c  **** 			}
2230:../app/app.c  **** 			break;
 7605              		.loc 1 2230 4
 7606 00ba 2BE0     		b	.L692
 7607              	.L694:
2228:../app/app.c  **** 			}
 7608              		.loc 1 2228 5
 7609 00bc 6420     		movs	r0, #100
 7610 00be FFF7FEFF 		bl	osal_lyh_delay_task
 7611              		.loc 1 2230 4
 7612 00c2 27E0     		b	.L692
 7613              	.L686:
2231:../app/app.c  **** 		 /* ่ๅ็ตๆบๅ่ฝฌๅฐๅไฝ */
2232:../app/app.c  **** 		case 5:										
2233:../app/app.c  **** 			dc_motor_Start(MOTOR_LEFT);
 7614              		.loc 1 2233 4
 7615 00c4 0220     		movs	r0, #2
 7616 00c6 FFF7FEFF 		bl	dc_motor_Start
2234:../app/app.c  **** 			osal_lyh_delay_task(Ms_100);
 7617              		.loc 1 2234 4
 7618 00ca 6420     		movs	r0, #100
 7619 00cc FFF7FEFF 		bl	osal_lyh_delay_task
2235:../app/app.c  **** 			run_max_time = LEFT_TIMER(MOTOR_FIX_TIME, Ms_100);
 7620              		.loc 1 2235 17
 7621 00d0 134B     		ldr	r3, .L700+4
 7622 00d2 0322     		movs	r2, #3
 7623 00d4 1A80     		strh	r2, [r3]	@ movhi
2236:../app/app.c  **** 			sta = 6;
 7624              		.loc 1 2236 8
 7625 00d6 114B     		ldr	r3, .L700
 7626 00d8 0622     		movs	r2, #6
 7627 00da 1A70     		strb	r2, [r3]
2237:../app/app.c  **** 			break;
 7628              		.loc 1 2237 4
 7629 00dc 1AE0     		b	.L692
 7630              	.L684:
2238:../app/app.c  **** 		 /* ๅคๆญ่ๅ็ตๆบๆฏๅฆๅ่ฝฌๅฐๅไฝ */
2239:../app/app.c  **** 		case 6:									
2240:../app/app.c  **** 			if (1/*(FAIL == app_motor_ready())*/	// deleting point,(temp to cancel) 
2241:../app/app.c  **** 				&& ((MOTOR_STATE_STOPED ==dc_motor_GetState())
 7631              		.loc 1 2241 31
 7632 00de FFF7FEFF 		bl	dc_motor_GetState
 7633 00e2 0346     		mov	r3, r0
2240:../app/app.c  **** 				&& ((MOTOR_STATE_STOPED ==dc_motor_GetState())
 7634              		.loc 1 2240 7
 7635 00e4 002B     		cmp	r3, #0
 7636 00e6 09D0     		beq	.L696
2242:../app/app.c  **** 				|| (--run_max_time == 0))){
 7637              		.loc 1 2242 9
 7638 00e8 0D4B     		ldr	r3, .L700+4
 7639 00ea 1B88     		ldrh	r3, [r3]
 7640 00ec 013B     		subs	r3, r3, #1
 7641 00ee 9AB2     		uxth	r2, r3
2241:../app/app.c  **** 				|| (--run_max_time == 0))){
 7642              		.loc 1 2241 5
 7643 00f0 0B4B     		ldr	r3, .L700+4
 7644 00f2 1A80     		strh	r2, [r3]	@ movhi
 7645              		.loc 1 2242 9
 7646 00f4 0A4B     		ldr	r3, .L700+4
 7647 00f6 1B88     		ldrh	r3, [r3]
2241:../app/app.c  **** 				|| (--run_max_time == 0))){
 7648              		.loc 1 2241 5
 7649 00f8 002B     		cmp	r3, #0
 7650 00fa 06D1     		bne	.L697
 7651              	.L696:
2243:../app/app.c  **** 				dc_motor_Stop();
 7652              		.loc 1 2243 5
 7653 00fc FFF7FEFF 		bl	dc_motor_Stop
2244:../app/app.c  **** 				sta = 0;
 7654              		.loc 1 2244 9
 7655 0100 064B     		ldr	r3, .L700
 7656 0102 0022     		movs	r2, #0
 7657 0104 1A70     		strb	r2, [r3]
2245:../app/app.c  **** 				return TRUE;
 7658              		.loc 1 2245 12
 7659 0106 0123     		movs	r3, #1
 7660 0108 05E0     		b	.L698
 7661              	.L697:
2246:../app/app.c  **** 			}
2247:../app/app.c  **** 			else {
2248:../app/app.c  **** 				osal_lyh_delay_task(Ms_100);
 7662              		.loc 1 2248 5
 7663 010a 6420     		movs	r0, #100
 7664 010c FFF7FEFF 		bl	osal_lyh_delay_task
2249:../app/app.c  **** 			}
2250:../app/app.c  **** 			break;
 7665              		.loc 1 2250 4
 7666 0110 00E0     		b	.L692
 7667              	.L699:
2251:../app/app.c  **** 		default:
2252:../app/app.c  **** 			break;
 7668              		.loc 1 2252 4
 7669 0112 00BF     		nop
 7670              	.L692:
2253:../app/app.c  **** 	}
2254:../app/app.c  **** 	return FAIL;
 7671              		.loc 1 2254 9
 7672 0114 0023     		movs	r3, #0
 7673              	.L698:
2255:../app/app.c  **** }
 7674              		.loc 1 2255 1
 7675 0116 1846     		mov	r0, r3
 7676 0118 80BD     		pop	{r7, pc}
 7677              	.L701:
 7678 011a 00BF     		.align	2
 7679              	.L700:
 7680 011c 00000000 		.word	sta.8888
 7681 0120 00000000 		.word	run_max_time
 7682              		.cfi_endproc
 7683              	.LFE179:
 7685              		.section	.text.app_running_onoff_drop_beans_handler,"ax",%progbits
 7686              		.align	1
 7687              		.global	app_running_onoff_drop_beans_handler
 7688              		.syntax unified
 7689              		.thumb
 7690              		.thumb_func
 7691              		.fpu softvfp
 7693              	app_running_onoff_drop_beans_handler:
 7694              	.LFB180:
2256:../app/app.c  **** 
2257:../app/app.c  **** /**************************************************************************
2258:../app/app.c  ****  * @brief ๅจไธขๅๅกๆธฃ็ถๆไธๆไธON/OFF้ฎ็ๅค็ๅฝๆฐ
2259:../app/app.c  ****  * @return TRUE๏ผๆต็จ็ปๆ๏ผ่ๅ็ตๆบๅคไบๅไฝ๏ผ FAIL๏ผๆต็จๆง่กไธญ
2260:../app/app.c  ****  * @note ่ฏฅๅฝๆฐๅจespresso, americano็ไธขๅๅกๆธฃ็ถๆไธๆไธON/OFF้ฎๆถ่ขซ่ฐ็จ
2261:../app/app.c  ****  *************************************************************************/
2262:../app/app.c  **** uint8_t app_running_onoff_drop_beans_handler(void)
2263:../app/app.c  **** {
 7695              		.loc 1 2263 1
 7696              		.cfi_startproc
 7697              		@ args = 0, pretend = 0, frame = 0
 7698              		@ frame_needed = 1, uses_anonymous_args = 0
 7699 0000 80B5     		push	{r7, lr}
 7700              		.cfi_def_cfa_offset 8
 7701              		.cfi_offset 7, -8
 7702              		.cfi_offset 14, -4
 7703 0002 00AF     		add	r7, sp, #0
 7704              		.cfi_def_cfa_register 7
2264:../app/app.c  **** 	static uint8_t sta = 0;
2265:../app/app.c  **** 	switch (sta)
 7705              		.loc 1 2265 2
 7706 0004 4F4B     		ldr	r3, .L725
 7707 0006 1B78     		ldrb	r3, [r3]	@ zero_extendqisi2
 7708 0008 072B     		cmp	r3, #7
 7709 000a 00F29680 		bhi	.L724
 7710 000e 01A2     		adr	r2, .L705
 7711 0010 52F823F0 		ldr	pc, [r2, r3, lsl #2]
 7712              		.p2align 2
 7713              	.L705:
 7714 0014 35000000 		.word	.L712+1
 7715 0018 41000000 		.word	.L711+1
 7716 001c 5F000000 		.word	.L710+1
 7717 0020 87000000 		.word	.L709+1
 7718 0024 97000000 		.word	.L708+1
 7719 0028 B1000000 		.word	.L707+1
 7720 002c ED000000 		.word	.L706+1
 7721 0030 07010000 		.word	.L704+1
 7722              		.p2align 1
 7723              	.L712:
2266:../app/app.c  **** 	{
2267:../app/app.c  **** 		/* ่ฟๅฅๅ็ฒๅๅงๅ */
2268:../app/app.c  **** 		case 0:
2269:../app/app.c  **** 			dc_motor_Stop();
 7724              		.loc 1 2269 4
 7725 0034 FFF7FEFF 		bl	dc_motor_Stop
2270:../app/app.c  **** 			sta = 1;
 7726              		.loc 1 2270 8
 7727 0038 424B     		ldr	r3, .L725
 7728 003a 0122     		movs	r2, #1
 7729 003c 1A70     		strb	r2, [r3]
2271:../app/app.c  **** 			break;
 7730              		.loc 1 2271 4
 7731 003e 7DE0     		b	.L713
 7732              	.L711:
2272:../app/app.c  **** 		/* ่ฝฌๅจ็ตๆบ็ปง็ปญๅๅพๅ็ฒ */	
2273:../app/app.c  **** 		case 1:
2274:../app/app.c  **** 			if(drop_beans_time){
 7733              		.loc 1 2274 7
 7734 0040 414B     		ldr	r3, .L725+4
 7735 0042 1B88     		ldrh	r3, [r3]
 7736              		.loc 1 2274 6
 7737 0044 002B     		cmp	r3, #0
 7738 0046 06D0     		beq	.L714
2275:../app/app.c  **** 				dc_motor_Start(MOTOR_RIGHT);
 7739              		.loc 1 2275 5
 7740 0048 0120     		movs	r0, #1
 7741 004a FFF7FEFF 		bl	dc_motor_Start
2276:../app/app.c  **** 				sta = 2;
 7742              		.loc 1 2276 9
 7743 004e 3D4B     		ldr	r3, .L725
 7744 0050 0222     		movs	r2, #2
 7745 0052 1A70     		strb	r2, [r3]
2277:../app/app.c  **** 			}
2278:../app/app.c  **** 			else{
2279:../app/app.c  **** 				sta = 3;
2280:../app/app.c  **** 			}
2281:../app/app.c  **** 			break;
 7746              		.loc 1 2281 4
 7747 0054 72E0     		b	.L713
 7748              	.L714:
2279:../app/app.c  **** 			}
 7749              		.loc 1 2279 9
 7750 0056 3B4B     		ldr	r3, .L725
 7751 0058 0322     		movs	r2, #3
 7752 005a 1A70     		strb	r2, [r3]
 7753              		.loc 1 2281 4
 7754 005c 6EE0     		b	.L713
 7755              	.L710:
2282:../app/app.c  **** 		/* ๅคๆญๅฉไฝ่ฝฌๅจๆถ้ด */	
2283:../app/app.c  **** 		case 2:
2284:../app/app.c  **** 			if(--drop_beans_time == 0){
 7756              		.loc 1 2284 7
 7757 005e 3A4B     		ldr	r3, .L725+4
 7758 0060 1B88     		ldrh	r3, [r3]
 7759 0062 013B     		subs	r3, r3, #1
 7760 0064 9AB2     		uxth	r2, r3
 7761              		.loc 1 2284 6
 7762 0066 384B     		ldr	r3, .L725+4
 7763 0068 1A80     		strh	r2, [r3]	@ movhi
 7764              		.loc 1 2284 7
 7765 006a 374B     		ldr	r3, .L725+4
 7766 006c 1B88     		ldrh	r3, [r3]
 7767              		.loc 1 2284 6
 7768 006e 002B     		cmp	r3, #0
 7769 0070 05D1     		bne	.L716
2285:../app/app.c  **** 				dc_motor_Stop();
 7770              		.loc 1 2285 5
 7771 0072 FFF7FEFF 		bl	dc_motor_Stop
2286:../app/app.c  **** 				sta = 3;
 7772              		.loc 1 2286 9
 7773 0076 334B     		ldr	r3, .L725
 7774 0078 0322     		movs	r2, #3
 7775 007a 1A70     		strb	r2, [r3]
2287:../app/app.c  **** 			}
2288:../app/app.c  **** 			else{
2289:../app/app.c  **** 				osal_lyh_delay_task(Ms_100);
2290:../app/app.c  **** 			}
2291:../app/app.c  **** 			break;
 7776              		.loc 1 2291 4
 7777 007c 5EE0     		b	.L713
 7778              	.L716:
2289:../app/app.c  **** 			}
 7779              		.loc 1 2289 5
 7780 007e 6420     		movs	r0, #100
 7781 0080 FFF7FEFF 		bl	osal_lyh_delay_task
 7782              		.loc 1 2291 4
 7783 0084 5AE0     		b	.L713
 7784              	.L709:
2292:../app/app.c  **** 		/* ๅ็ฒING */	
2293:../app/app.c  **** 		case 3:
2294:../app/app.c  **** 			osal_lyh_delay_task(Ms_3000);
 7785              		.loc 1 2294 4
 7786 0086 40F6B830 		movw	r0, #3000
 7787 008a FFF7FEFF 		bl	osal_lyh_delay_task
2295:../app/app.c  **** 			sta = 4;
 7788              		.loc 1 2295 8
 7789 008e 2D4B     		ldr	r3, .L725
 7790 0090 0422     		movs	r2, #4
 7791 0092 1A70     		strb	r2, [r3]
2296:../app/app.c  **** 			break;
 7792              		.loc 1 2296 4
 7793 0094 52E0     		b	.L713
 7794              	.L708:
2297:../app/app.c  **** 		/* ็ตๆบๅๅ็น่ฝฌๅจ */	
2298:../app/app.c  **** 		case 4:		
2299:../app/app.c  **** 			dc_motor_Start(MOTOR_RIGHT);
 7795              		.loc 1 2299 4
 7796 0096 0120     		movs	r0, #1
 7797 0098 FFF7FEFF 		bl	dc_motor_Start
2300:../app/app.c  **** 			osal_lyh_delay_task(Ms_100);
 7798              		.loc 1 2300 4
 7799 009c 6420     		movs	r0, #100
 7800 009e FFF7FEFF 		bl	osal_lyh_delay_task
2301:../app/app.c  **** 			run_max_time = RIGHT_TIMER(Ms_5000, Ms_100);
 7801              		.loc 1 2301 17
 7802 00a2 2A4B     		ldr	r3, .L725+8
 7803 00a4 3222     		movs	r2, #50
 7804 00a6 1A80     		strh	r2, [r3]	@ movhi
2302:../app/app.c  **** 			sta = 5;
 7805              		.loc 1 2302 8
 7806 00a8 264B     		ldr	r3, .L725
 7807 00aa 0522     		movs	r2, #5
 7808 00ac 1A70     		strb	r2, [r3]
2303:../app/app.c  **** 			break;
 7809              		.loc 1 2303 4
 7810 00ae 45E0     		b	.L713
 7811              	.L707:
2304:../app/app.c  **** 		/* ๅคๆญ็ตๆบๆฏๅฆๅฐๅ็น่งฆ็น */		
2305:../app/app.c  **** 		case 5:			
2306:../app/app.c  **** 			if ((MOTOR_STATE_STOPED ==dc_motor_GetState())
 7812              		.loc 1 2306 30
 7813 00b0 FFF7FEFF 		bl	dc_motor_GetState
 7814 00b4 0346     		mov	r3, r0
 7815              		.loc 1 2306 7
 7816 00b6 002B     		cmp	r3, #0
 7817 00b8 0ED0     		beq	.L718
2307:../app/app.c  **** 				|| (TRUE == app_motor_ready())
 7818              		.loc 1 2307 17
 7819 00ba FFF7FEFF 		bl	app_motor_ready
 7820 00be 0346     		mov	r3, r0
 7821              		.loc 1 2307 5
 7822 00c0 012B     		cmp	r3, #1
 7823 00c2 09D0     		beq	.L718
2308:../app/app.c  **** 				|| (--run_max_time == 0)){
 7824              		.loc 1 2308 9
 7825 00c4 214B     		ldr	r3, .L725+8
 7826 00c6 1B88     		ldrh	r3, [r3]
 7827 00c8 013B     		subs	r3, r3, #1
 7828 00ca 9AB2     		uxth	r2, r3
 7829              		.loc 1 2308 5
 7830 00cc 1F4B     		ldr	r3, .L725+8
 7831 00ce 1A80     		strh	r2, [r3]	@ movhi
 7832              		.loc 1 2308 9
 7833 00d0 1E4B     		ldr	r3, .L725+8
 7834 00d2 1B88     		ldrh	r3, [r3]
 7835              		.loc 1 2308 5
 7836 00d4 002B     		cmp	r3, #0
 7837 00d6 05D1     		bne	.L719
 7838              	.L718:
2309:../app/app.c  **** 				dc_motor_Stop();
 7839              		.loc 1 2309 5
 7840 00d8 FFF7FEFF 		bl	dc_motor_Stop
2310:../app/app.c  **** 				sta = 6;					
 7841              		.loc 1 2310 9
 7842 00dc 194B     		ldr	r3, .L725
 7843 00de 0622     		movs	r2, #6
 7844 00e0 1A70     		strb	r2, [r3]
2311:../app/app.c  **** 			}
2312:../app/app.c  **** 			else {
2313:../app/app.c  **** 				osal_lyh_delay_task(Ms_100);
2314:../app/app.c  **** 			}
2315:../app/app.c  **** 			break;
 7845              		.loc 1 2315 4
 7846 00e2 2BE0     		b	.L713
 7847              	.L719:
2313:../app/app.c  **** 			}
 7848              		.loc 1 2313 5
 7849 00e4 6420     		movs	r0, #100
 7850 00e6 FFF7FEFF 		bl	osal_lyh_delay_task
 7851              		.loc 1 2315 4
 7852 00ea 27E0     		b	.L713
 7853              	.L706:
2316:../app/app.c  **** 		/* ็ตๆบๅ่ฝฌๅฐๅไฝ */	
2317:../app/app.c  **** 		case 6:			
2318:../app/app.c  **** 			dc_motor_Start(MOTOR_LEFT);
 7854              		.loc 1 2318 4
 7855 00ec 0220     		movs	r0, #2
 7856 00ee FFF7FEFF 		bl	dc_motor_Start
2319:../app/app.c  **** 			osal_lyh_delay_task(Ms_100);
 7857              		.loc 1 2319 4
 7858 00f2 6420     		movs	r0, #100
 7859 00f4 FFF7FEFF 		bl	osal_lyh_delay_task
2320:../app/app.c  **** 			run_max_time = LEFT_TIMER(MOTOR_FIX_TIME, Ms_100);
 7860              		.loc 1 2320 17
 7861 00f8 144B     		ldr	r3, .L725+8
 7862 00fa 0322     		movs	r2, #3
 7863 00fc 1A80     		strh	r2, [r3]	@ movhi
2321:../app/app.c  **** 			sta = 7;
 7864              		.loc 1 2321 8
 7865 00fe 114B     		ldr	r3, .L725
 7866 0100 0722     		movs	r2, #7
 7867 0102 1A70     		strb	r2, [r3]
2322:../app/app.c  **** 			break;	
 7868              		.loc 1 2322 4
 7869 0104 1AE0     		b	.L713
 7870              	.L704:
2323:../app/app.c  **** 		case 7:	//ๅคๆญ็ตๆบๆฏๅฆๅ่ฝฌๅฐๅไฝ
2324:../app/app.c  **** 			if (1/*(FAIL == app_motor_ready())*/	// deleting point,(temp to cancel)
2325:../app/app.c  **** 				&& ((MOTOR_STATE_STOPED ==dc_motor_GetState())
 7871              		.loc 1 2325 31
 7872 0106 FFF7FEFF 		bl	dc_motor_GetState
 7873 010a 0346     		mov	r3, r0
2324:../app/app.c  **** 				&& ((MOTOR_STATE_STOPED ==dc_motor_GetState())
 7874              		.loc 1 2324 7
 7875 010c 002B     		cmp	r3, #0
 7876 010e 09D0     		beq	.L721
2326:../app/app.c  **** 				|| (--run_max_time == 0))){
 7877              		.loc 1 2326 9
 7878 0110 0E4B     		ldr	r3, .L725+8
 7879 0112 1B88     		ldrh	r3, [r3]
 7880 0114 013B     		subs	r3, r3, #1
 7881 0116 9AB2     		uxth	r2, r3
2325:../app/app.c  **** 				|| (--run_max_time == 0))){
 7882              		.loc 1 2325 5
 7883 0118 0C4B     		ldr	r3, .L725+8
 7884 011a 1A80     		strh	r2, [r3]	@ movhi
 7885              		.loc 1 2326 9
 7886 011c 0B4B     		ldr	r3, .L725+8
 7887 011e 1B88     		ldrh	r3, [r3]
2325:../app/app.c  **** 				|| (--run_max_time == 0))){
 7888              		.loc 1 2325 5
 7889 0120 002B     		cmp	r3, #0
 7890 0122 06D1     		bne	.L722
 7891              	.L721:
2327:../app/app.c  **** 				dc_motor_Stop();
 7892              		.loc 1 2327 5
 7893 0124 FFF7FEFF 		bl	dc_motor_Stop
2328:../app/app.c  **** 				sta = 0;
 7894              		.loc 1 2328 9
 7895 0128 064B     		ldr	r3, .L725
 7896 012a 0022     		movs	r2, #0
 7897 012c 1A70     		strb	r2, [r3]
2329:../app/app.c  **** 				return TRUE;
 7898              		.loc 1 2329 12
 7899 012e 0123     		movs	r3, #1
 7900 0130 05E0     		b	.L723
 7901              	.L722:
2330:../app/app.c  **** 			}
2331:../app/app.c  **** 			else {
2332:../app/app.c  **** 				osal_lyh_delay_task(Ms_100);
 7902              		.loc 1 2332 5
 7903 0132 6420     		movs	r0, #100
 7904 0134 FFF7FEFF 		bl	osal_lyh_delay_task
2333:../app/app.c  **** 			}
2334:../app/app.c  **** 			break;			
 7905              		.loc 1 2334 4
 7906 0138 00E0     		b	.L713
 7907              	.L724:
2335:../app/app.c  **** 		default:
2336:../app/app.c  **** 			break;
 7908              		.loc 1 2336 4
 7909 013a 00BF     		nop
 7910              	.L713:
2337:../app/app.c  **** 	}	
2338:../app/app.c  **** 	return FAIL;
 7911              		.loc 1 2338 9
 7912 013c 0023     		movs	r3, #0
 7913              	.L723:
2339:../app/app.c  **** }
 7914              		.loc 1 2339 1
 7915 013e 1846     		mov	r0, r3
 7916 0140 80BD     		pop	{r7, pc}
 7917              	.L726:
 7918 0142 00BF     		.align	2
 7919              	.L725:
 7920 0144 00000000 		.word	sta.8901
 7921 0148 00000000 		.word	drop_beans_time
 7922 014c 00000000 		.word	run_max_time
 7923              		.cfi_endproc
 7924              	.LFE180:
 7926              		.section	.text.app_running_onoff_rst_handler,"ax",%progbits
 7927              		.align	1
 7928              		.global	app_running_onoff_rst_handler
 7929              		.syntax unified
 7930              		.thumb
 7931              		.thumb_func
 7932              		.fpu softvfp
 7934              	app_running_onoff_rst_handler:
 7935              	.LFB181:
2340:../app/app.c  **** 
2341:../app/app.c  **** /**************************************************************************
2342:../app/app.c  ****  * @brief ๅจ่ๅ็ตๆบๅๅไฝ็ถๆไธๆไธON/OFF้ฎ็ๅค็ๅฝๆฐ
2343:../app/app.c  ****  * @return TRUE๏ผๆต็จ็ปๆ๏ผ่ๅ็ตๆบๅคไบๅไฝ๏ผ FAIL๏ผๆต็จๆง่กไธญ
2344:../app/app.c  ****  * @note ่ฏฅๅฝๆฐๅจespresso, americano็่ๅ็ตๆบๅๅไฝ็ถๆไธๆไธON/OFF้ฎๆถ่ขซ่ฐ็
2345:../app/app.c  ****  *************************************************************************/
2346:../app/app.c  **** uint8_t app_running_onoff_rst_handler(void)
2347:../app/app.c  **** {
 7936              		.loc 1 2347 1
 7937              		.cfi_startproc
 7938              		@ args = 0, pretend = 0, frame = 0
 7939              		@ frame_needed = 1, uses_anonymous_args = 0
 7940 0000 80B5     		push	{r7, lr}
 7941              		.cfi_def_cfa_offset 8
 7942              		.cfi_offset 7, -8
 7943              		.cfi_offset 14, -4
 7944 0002 00AF     		add	r7, sp, #0
 7945              		.cfi_def_cfa_register 7
2348:../app/app.c  **** 	static uint8_t sta = 0;
2349:../app/app.c  **** 	switch (sta)
 7946              		.loc 1 2349 2
 7947 0004 364B     		ldr	r3, .L743
 7948 0006 1B78     		ldrb	r3, [r3]	@ zero_extendqisi2
 7949 0008 042B     		cmp	r3, #4
 7950 000a 65D8     		bhi	.L742
 7951 000c 01A2     		adr	r2, .L730
 7952 000e 52F823F0 		ldr	pc, [r2, r3, lsl #2]
 7953 0012 00BF     		.p2align 2
 7954              	.L730:
 7955 0014 29000000 		.word	.L734+1
 7956 0018 35000000 		.word	.L733+1
 7957 001c 4F000000 		.word	.L732+1
 7958 0020 8B000000 		.word	.L731+1
 7959 0024 A5000000 		.word	.L729+1
 7960              		.p2align 1
 7961              	.L734:
2350:../app/app.c  **** 	{
2351:../app/app.c  **** 		/* ๅคไฝๅๅงๅ */
2352:../app/app.c  **** 		case 0:
2353:../app/app.c  **** 			dc_motor_Stop();
 7962              		.loc 1 2353 4
 7963 0028 FFF7FEFF 		bl	dc_motor_Stop
2354:../app/app.c  **** 			sta = 1;
 7964              		.loc 1 2354 8
 7965 002c 2C4B     		ldr	r3, .L743
 7966 002e 0122     		movs	r2, #1
 7967 0030 1A70     		strb	r2, [r3]
2355:../app/app.c  **** 			break;
 7968              		.loc 1 2355 4
 7969 0032 52E0     		b	.L735
 7970              	.L733:
2356:../app/app.c  **** 		/* ๅๅ่ฝฌๅฐๅไฝๅจไฝ */	
2357:../app/app.c  **** 		case 1:
2358:../app/app.c  **** 			dc_motor_Start(MOTOR_RIGHT);
 7971              		.loc 1 2358 4
 7972 0034 0120     		movs	r0, #1
 7973 0036 FFF7FEFF 		bl	dc_motor_Start
2359:../app/app.c  **** 			osal_lyh_delay_task(Ms_100);
 7974              		.loc 1 2359 4
 7975 003a 6420     		movs	r0, #100
 7976 003c FFF7FEFF 		bl	osal_lyh_delay_task
2360:../app/app.c  **** 			run_max_time = RIGHT_TIMER(Ms_5000, Ms_100);
 7977              		.loc 1 2360 17
 7978 0040 284B     		ldr	r3, .L743+4
 7979 0042 3222     		movs	r2, #50
 7980 0044 1A80     		strh	r2, [r3]	@ movhi
2361:../app/app.c  **** 			sta = 2;
 7981              		.loc 1 2361 8
 7982 0046 264B     		ldr	r3, .L743
 7983 0048 0222     		movs	r2, #2
 7984 004a 1A70     		strb	r2, [r3]
2362:../app/app.c  **** 			break;
 7985              		.loc 1 2362 4
 7986 004c 45E0     		b	.L735
 7987              	.L732:
2363:../app/app.c  **** 		/* ๅคๆญ็ตๆบๆฏๅฆๅฐๅ็น่งฆ็น */		
2364:../app/app.c  **** 		case 2:			
2365:../app/app.c  **** 			if ((MOTOR_STATE_STOPED ==dc_motor_GetState())
 7988              		.loc 1 2365 30
 7989 004e FFF7FEFF 		bl	dc_motor_GetState
 7990 0052 0346     		mov	r3, r0
 7991              		.loc 1 2365 7
 7992 0054 002B     		cmp	r3, #0
 7993 0056 0ED0     		beq	.L736
2366:../app/app.c  **** 				|| (TRUE == app_motor_ready())
 7994              		.loc 1 2366 17
 7995 0058 FFF7FEFF 		bl	app_motor_ready
 7996 005c 0346     		mov	r3, r0
 7997              		.loc 1 2366 5
 7998 005e 012B     		cmp	r3, #1
 7999 0060 09D0     		beq	.L736
2367:../app/app.c  **** 				|| (--run_max_time == 0)){
 8000              		.loc 1 2367 9
 8001 0062 204B     		ldr	r3, .L743+4
 8002 0064 1B88     		ldrh	r3, [r3]
 8003 0066 013B     		subs	r3, r3, #1
 8004 0068 9AB2     		uxth	r2, r3
 8005              		.loc 1 2367 5
 8006 006a 1E4B     		ldr	r3, .L743+4
 8007 006c 1A80     		strh	r2, [r3]	@ movhi
 8008              		.loc 1 2367 9
 8009 006e 1D4B     		ldr	r3, .L743+4
 8010 0070 1B88     		ldrh	r3, [r3]
 8011              		.loc 1 2367 5
 8012 0072 002B     		cmp	r3, #0
 8013 0074 05D1     		bne	.L737
 8014              	.L736:
2368:../app/app.c  **** 				dc_motor_Stop();
 8015              		.loc 1 2368 5
 8016 0076 FFF7FEFF 		bl	dc_motor_Stop
2369:../app/app.c  **** 				sta = 3;					
 8017              		.loc 1 2369 9
 8018 007a 194B     		ldr	r3, .L743
 8019 007c 0322     		movs	r2, #3
 8020 007e 1A70     		strb	r2, [r3]
2370:../app/app.c  **** 			}
2371:../app/app.c  **** 			else {
2372:../app/app.c  **** 				osal_lyh_delay_task(Ms_100);
2373:../app/app.c  **** 			}
2374:../app/app.c  **** 			break;
 8021              		.loc 1 2374 4
 8022 0080 2BE0     		b	.L735
 8023              	.L737:
2372:../app/app.c  **** 			}
 8024              		.loc 1 2372 5
 8025 0082 6420     		movs	r0, #100
 8026 0084 FFF7FEFF 		bl	osal_lyh_delay_task
 8027              		.loc 1 2374 4
 8028 0088 27E0     		b	.L735
 8029              	.L731:
2375:../app/app.c  **** 		/* ็ตๆบๅ่ฝฌๅฐๅไฝ */	
2376:../app/app.c  **** 		case 3:			
2377:../app/app.c  **** 			dc_motor_Start(MOTOR_LEFT);
 8030              		.loc 1 2377 4
 8031 008a 0220     		movs	r0, #2
 8032 008c FFF7FEFF 		bl	dc_motor_Start
2378:../app/app.c  **** 			osal_lyh_delay_task(Ms_100);
 8033              		.loc 1 2378 4
 8034 0090 6420     		movs	r0, #100
 8035 0092 FFF7FEFF 		bl	osal_lyh_delay_task
2379:../app/app.c  **** 			run_max_time = LEFT_TIMER(MOTOR_FIX_TIME, Ms_100);
 8036              		.loc 1 2379 17
 8037 0096 134B     		ldr	r3, .L743+4
 8038 0098 0322     		movs	r2, #3
 8039 009a 1A80     		strh	r2, [r3]	@ movhi
2380:../app/app.c  **** 			sta = 4;
 8040              		.loc 1 2380 8
 8041 009c 104B     		ldr	r3, .L743
 8042 009e 0422     		movs	r2, #4
 8043 00a0 1A70     		strb	r2, [r3]
2381:../app/app.c  **** 			break;	
 8044              		.loc 1 2381 4
 8045 00a2 1AE0     		b	.L735
 8046              	.L729:
2382:../app/app.c  **** 		case 4:	//ๅคๆญ็ตๆบๆฏๅฆๅ่ฝฌๅฐๅไฝ
2383:../app/app.c  **** 			if (1/*(FAIL == app_motor_ready())*/	// deleting point,(temp to cancel)
2384:../app/app.c  **** 				&& ((MOTOR_STATE_STOPED ==dc_motor_GetState())
 8047              		.loc 1 2384 31
 8048 00a4 FFF7FEFF 		bl	dc_motor_GetState
 8049 00a8 0346     		mov	r3, r0
2383:../app/app.c  **** 				&& ((MOTOR_STATE_STOPED ==dc_motor_GetState())
 8050              		.loc 1 2383 7
 8051 00aa 002B     		cmp	r3, #0
 8052 00ac 09D0     		beq	.L739
2385:../app/app.c  **** 				|| (--run_max_time == 0))){
 8053              		.loc 1 2385 9
 8054 00ae 0D4B     		ldr	r3, .L743+4
 8055 00b0 1B88     		ldrh	r3, [r3]
 8056 00b2 013B     		subs	r3, r3, #1
 8057 00b4 9AB2     		uxth	r2, r3
2384:../app/app.c  **** 				|| (--run_max_time == 0))){
 8058              		.loc 1 2384 5
 8059 00b6 0B4B     		ldr	r3, .L743+4
 8060 00b8 1A80     		strh	r2, [r3]	@ movhi
 8061              		.loc 1 2385 9
 8062 00ba 0A4B     		ldr	r3, .L743+4
 8063 00bc 1B88     		ldrh	r3, [r3]
2384:../app/app.c  **** 				|| (--run_max_time == 0))){
 8064              		.loc 1 2384 5
 8065 00be 002B     		cmp	r3, #0
 8066 00c0 06D1     		bne	.L740
 8067              	.L739:
2386:../app/app.c  **** 				dc_motor_Stop();
 8068              		.loc 1 2386 5
 8069 00c2 FFF7FEFF 		bl	dc_motor_Stop
2387:../app/app.c  **** 				sta = 0;
 8070              		.loc 1 2387 9
 8071 00c6 064B     		ldr	r3, .L743
 8072 00c8 0022     		movs	r2, #0
 8073 00ca 1A70     		strb	r2, [r3]
2388:../app/app.c  **** 				return TRUE;
 8074              		.loc 1 2388 12
 8075 00cc 0123     		movs	r3, #1
 8076 00ce 05E0     		b	.L741
 8077              	.L740:
2389:../app/app.c  **** 			}
2390:../app/app.c  **** 			else {
2391:../app/app.c  **** 				osal_lyh_delay_task(Ms_100);
 8078              		.loc 1 2391 5
 8079 00d0 6420     		movs	r0, #100
 8080 00d2 FFF7FEFF 		bl	osal_lyh_delay_task
2392:../app/app.c  **** 			}
2393:../app/app.c  **** 			break;			
 8081              		.loc 1 2393 4
 8082 00d6 00E0     		b	.L735
 8083              	.L742:
2394:../app/app.c  **** 		default:
2395:../app/app.c  **** 			break;
 8084              		.loc 1 2395 4
 8085 00d8 00BF     		nop
 8086              	.L735:
2396:../app/app.c  **** 	}
2397:../app/app.c  **** 	return FAIL;
 8087              		.loc 1 2397 9
 8088 00da 0023     		movs	r3, #0
 8089              	.L741:
2398:../app/app.c  **** }
 8090              		.loc 1 2398 1
 8091 00dc 1846     		mov	r0, r3
 8092 00de 80BD     		pop	{r7, pc}
 8093              	.L744:
 8094              		.align	2
 8095              	.L743:
 8096 00e0 00000000 		.word	sta.8915
 8097 00e4 00000000 		.word	run_max_time
 8098              		.cfi_endproc
 8099              	.LFE181:
 8101              		.section	.text.app_running_onoff_flush_handler,"ax",%progbits
 8102              		.align	1
 8103              		.global	app_running_onoff_flush_handler
 8104              		.syntax unified
 8105              		.thumb
 8106              		.thumb_func
 8107              		.fpu softvfp
 8109              	app_running_onoff_flush_handler:
 8110              	.LFB182:
2399:../app/app.c  **** 
2400:../app/app.c  **** /**************************************************************************
2401:../app/app.c  ****  * @brief ๅฒๆด็ฎก่ทฏๅฝๆฐๅค็ๆต็จ
2402:../app/app.c  ****  * @return TRUE๏ผๆต็จ็ปๆ๏ผ่ๅ็ตๆบๅคไบๅไฝ๏ผ FAIL๏ผๆต็จๆง่กไธญ
2403:../app/app.c  ****  * @note ่ฟๅฅๆญคๅฝๆฐๅไผๆฃๆต่ๅ็ตๆบ็ไฝ็ฝฎ๏ผๅๅปๆฅๆฐดๅฒๆด
2404:../app/app.c  ****  *************************************************************************/
2405:../app/app.c  **** uint8_t app_running_onoff_flush_handler(void)
2406:../app/app.c  **** {
 8111              		.loc 1 2406 1
 8112              		.cfi_startproc
 8113              		@ args = 0, pretend = 0, frame = 0
 8114              		@ frame_needed = 1, uses_anonymous_args = 0
 8115 0000 80B5     		push	{r7, lr}
 8116              		.cfi_def_cfa_offset 8
 8117              		.cfi_offset 7, -8
 8118              		.cfi_offset 14, -4
 8119 0002 00AF     		add	r7, sp, #0
 8120              		.cfi_def_cfa_register 7
2407:../app/app.c  **** 	static uint8_t sta = 0;
2408:../app/app.c  **** 	switch (sta)
 8121              		.loc 1 2408 2
 8122 0004 8E4B     		ldr	r3, .L778
 8123 0006 1B78     		ldrb	r3, [r3]	@ zero_extendqisi2
 8124 0008 0C2B     		cmp	r3, #12
 8125 000a 00F21481 		bhi	.L777
 8126 000e 01A2     		adr	r2, .L748
 8127 0010 52F823F0 		ldr	pc, [r2, r3, lsl #2]
 8128              		.p2align 2
 8129              	.L748:
 8130 0014 49000000 		.word	.L760+1
 8131 0018 63000000 		.word	.L759+1
 8132 001c 7D000000 		.word	.L758+1
 8133 0020 B9000000 		.word	.L757+1
 8134 0024 D3000000 		.word	.L756+1
 8135 0028 0D010000 		.word	.L755+1
 8136 002c 27010000 		.word	.L754+1
 8137 0030 63010000 		.word	.L753+1
 8138 0034 79010000 		.word	.L752+1
 8139 0038 8D010000 		.word	.L751+1
 8140 003c A9010000 		.word	.L750+1
 8141 0040 E5010000 		.word	.L749+1
 8142 0044 FF010000 		.word	.L747+1
 8143              		.p2align 1
 8144              	.L760:
2409:../app/app.c  **** 	{	
2410:../app/app.c  **** 		/* ่ฟๅฅๆธๆดๅๅงๅ */
2411:../app/app.c  **** 		case 0:
2412:../app/app.c  **** 			dc_motor_Stop();
 8145              		.loc 1 2412 4
 8146 0048 FFF7FEFF 		bl	dc_motor_Stop
2413:../app/app.c  **** 			app_turn_heat_on(TARGET_TEMP_90D);
 8147              		.loc 1 2413 4
 8148 004c 4FF4D660 		mov	r0, #1712
 8149 0050 FFF7FEFF 		bl	app_turn_heat_on
2414:../app/app.c  **** 			osal_lyh_delay_task(Ms_100);
 8150              		.loc 1 2414 4
 8151 0054 6420     		movs	r0, #100
 8152 0056 FFF7FEFF 		bl	osal_lyh_delay_task
2415:../app/app.c  **** 			sta = 1;
 8153              		.loc 1 2415 8
 8154 005a 794B     		ldr	r3, .L778
 8155 005c 0122     		movs	r2, #1
 8156 005e 1A70     		strb	r2, [r3]
2416:../app/app.c  **** 			break;
 8157              		.loc 1 2416 4
 8158 0060 EAE0     		b	.L761
 8159              	.L759:
2417:../app/app.c  **** 		/* ๆฃๆฅ่ๅ็ตๆบไฝ็ฝฎ */
2418:../app/app.c  **** 		case 1:
2419:../app/app.c  **** 			dc_motor_Start(MOTOR_RIGHT);
 8160              		.loc 1 2419 4
 8161 0062 0120     		movs	r0, #1
 8162 0064 FFF7FEFF 		bl	dc_motor_Start
2420:../app/app.c  **** 			osal_lyh_delay_task(Ms_100);
 8163              		.loc 1 2420 4
 8164 0068 6420     		movs	r0, #100
 8165 006a FFF7FEFF 		bl	osal_lyh_delay_task
2421:../app/app.c  **** 			run_max_time = RIGHT_TIMER(Ms_3000, Ms_100);
 8166              		.loc 1 2421 17
 8167 006e 754B     		ldr	r3, .L778+4
 8168 0070 1E22     		movs	r2, #30
 8169 0072 1A80     		strh	r2, [r3]	@ movhi
2422:../app/app.c  **** 			sta = 2;
 8170              		.loc 1 2422 8
 8171 0074 724B     		ldr	r3, .L778
 8172 0076 0222     		movs	r2, #2
 8173 0078 1A70     		strb	r2, [r3]
2423:../app/app.c  **** 			break;
 8174              		.loc 1 2423 4
 8175 007a DDE0     		b	.L761
 8176              	.L758:
2424:../app/app.c  **** 		/* ๅคๆญ่ๅ็ตๆบๆฏๅฆ่งฆ็ขฐๅ็น่งฆ็น */
2425:../app/app.c  **** 		case 2:
2426:../app/app.c  **** 			if ((MOTOR_STATE_STOPED ==dc_motor_GetState())
 8177              		.loc 1 2426 30
 8178 007c FFF7FEFF 		bl	dc_motor_GetState
 8179 0080 0346     		mov	r3, r0
 8180              		.loc 1 2426 7
 8181 0082 002B     		cmp	r3, #0
 8182 0084 0ED0     		beq	.L762
2427:../app/app.c  **** 				|| (TRUE == app_motor_ready())
 8183              		.loc 1 2427 17
 8184 0086 FFF7FEFF 		bl	app_motor_ready
 8185 008a 0346     		mov	r3, r0
 8186              		.loc 1 2427 5
 8187 008c 012B     		cmp	r3, #1
 8188 008e 09D0     		beq	.L762
2428:../app/app.c  **** 				|| (--run_max_time == 0)){
 8189              		.loc 1 2428 9
 8190 0090 6C4B     		ldr	r3, .L778+4
 8191 0092 1B88     		ldrh	r3, [r3]
 8192 0094 013B     		subs	r3, r3, #1
 8193 0096 9AB2     		uxth	r2, r3
 8194              		.loc 1 2428 5
 8195 0098 6A4B     		ldr	r3, .L778+4
 8196 009a 1A80     		strh	r2, [r3]	@ movhi
 8197              		.loc 1 2428 9
 8198 009c 694B     		ldr	r3, .L778+4
 8199 009e 1B88     		ldrh	r3, [r3]
 8200              		.loc 1 2428 5
 8201 00a0 002B     		cmp	r3, #0
 8202 00a2 05D1     		bne	.L763
 8203              	.L762:
2429:../app/app.c  **** 				dc_motor_Stop();
 8204              		.loc 1 2429 5
 8205 00a4 FFF7FEFF 		bl	dc_motor_Stop
2430:../app/app.c  **** 				sta = 3;					
 8206              		.loc 1 2430 9
 8207 00a8 654B     		ldr	r3, .L778
 8208 00aa 0322     		movs	r2, #3
 8209 00ac 1A70     		strb	r2, [r3]
2431:../app/app.c  **** 			}
2432:../app/app.c  **** 			else {
2433:../app/app.c  **** 				osal_lyh_delay_task(Ms_100);
2434:../app/app.c  **** 			}
2435:../app/app.c  **** 			break;
 8210              		.loc 1 2435 4
 8211 00ae C3E0     		b	.L761
 8212              	.L763:
2433:../app/app.c  **** 			}
 8213              		.loc 1 2433 5
 8214 00b0 6420     		movs	r0, #100
 8215 00b2 FFF7FEFF 		bl	osal_lyh_delay_task
 8216              		.loc 1 2435 4
 8217 00b6 BFE0     		b	.L761
 8218              	.L757:
2436:../app/app.c  **** 		/* ่ๅ็ตๆบๅๅ่ฝฌๅฐๅ็น */
2437:../app/app.c  **** 		case 3:
2438:../app/app.c  **** 			dc_motor_Start(MOTOR_LEFT);
 8219              		.loc 1 2438 4
 8220 00b8 0220     		movs	r0, #2
 8221 00ba FFF7FEFF 		bl	dc_motor_Start
2439:../app/app.c  **** 			osal_lyh_delay_task(Ms_100);
 8222              		.loc 1 2439 4
 8223 00be 6420     		movs	r0, #100
 8224 00c0 FFF7FEFF 		bl	osal_lyh_delay_task
2440:../app/app.c  **** 			run_max_time = LEFT_TIMER(MOTOR_FIX_TIME, Ms_100);
 8225              		.loc 1 2440 17
 8226 00c4 5F4B     		ldr	r3, .L778+4
 8227 00c6 0322     		movs	r2, #3
 8228 00c8 1A80     		strh	r2, [r3]	@ movhi
2441:../app/app.c  **** 			sta = 4;
 8229              		.loc 1 2441 8
 8230 00ca 5D4B     		ldr	r3, .L778
 8231 00cc 0422     		movs	r2, #4
 8232 00ce 1A70     		strb	r2, [r3]
2442:../app/app.c  **** 			break;
 8233              		.loc 1 2442 4
 8234 00d0 B2E0     		b	.L761
 8235              	.L756:
2443:../app/app.c  **** 		/* ๅคๆญ่ๅ็ตๆบๆฏๅฆๅฎๆๅ่ฝฌ */
2444:../app/app.c  **** 		case 4:
2445:../app/app.c  **** 			if (1/*(FAIL == app_motor_ready())*/	// deleting point,(temp to cancel)
2446:../app/app.c  **** 				&& ((MOTOR_STATE_STOPED ==dc_motor_GetState())
 8236              		.loc 1 2446 31
 8237 00d2 FFF7FEFF 		bl	dc_motor_GetState
 8238 00d6 0346     		mov	r3, r0
2445:../app/app.c  **** 				&& ((MOTOR_STATE_STOPED ==dc_motor_GetState())
 8239              		.loc 1 2445 7
 8240 00d8 002B     		cmp	r3, #0
 8241 00da 09D0     		beq	.L765
2447:../app/app.c  **** 				|| (--run_max_time == 0))){
 8242              		.loc 1 2447 9
 8243 00dc 594B     		ldr	r3, .L778+4
 8244 00de 1B88     		ldrh	r3, [r3]
 8245 00e0 013B     		subs	r3, r3, #1
 8246 00e2 9AB2     		uxth	r2, r3
2446:../app/app.c  **** 				|| (--run_max_time == 0))){
 8247              		.loc 1 2446 5
 8248 00e4 574B     		ldr	r3, .L778+4
 8249 00e6 1A80     		strh	r2, [r3]	@ movhi
 8250              		.loc 1 2447 9
 8251 00e8 564B     		ldr	r3, .L778+4
 8252 00ea 1B88     		ldrh	r3, [r3]
2446:../app/app.c  **** 				|| (--run_max_time == 0))){
 8253              		.loc 1 2446 5
 8254 00ec 002B     		cmp	r3, #0
 8255 00ee 09D1     		bne	.L766
 8256              	.L765:
2448:../app/app.c  **** 				dc_motor_Stop();
 8257              		.loc 1 2448 5
 8258 00f0 FFF7FEFF 		bl	dc_motor_Stop
2449:../app/app.c  **** 				osal_lyh_delay_task(Ms_1500);
 8259              		.loc 1 2449 5
 8260 00f4 40F2DC50 		movw	r0, #1500
 8261 00f8 FFF7FEFF 		bl	osal_lyh_delay_task
2450:../app/app.c  **** 				sta = 5;				
 8262              		.loc 1 2450 9
 8263 00fc 504B     		ldr	r3, .L778
 8264 00fe 0522     		movs	r2, #5
 8265 0100 1A70     		strb	r2, [r3]
2451:../app/app.c  **** 			}
2452:../app/app.c  **** 			else {
2453:../app/app.c  **** 				osal_lyh_delay_task(Ms_100);
2454:../app/app.c  **** 			}
2455:../app/app.c  **** 			break;				
 8266              		.loc 1 2455 4
 8267 0102 99E0     		b	.L761
 8268              	.L766:
2453:../app/app.c  **** 			}
 8269              		.loc 1 2453 5
 8270 0104 6420     		movs	r0, #100
 8271 0106 FFF7FEFF 		bl	osal_lyh_delay_task
 8272              		.loc 1 2455 4
 8273 010a 95E0     		b	.L761
 8274              	.L755:
2456:../app/app.c  **** 		/* ่ๅ็ตๆบๅๅพ่ๅไฝ็ฝฎ */
2457:../app/app.c  **** 		case 5:
2458:../app/app.c  **** 			dc_motor_Start(MOTOR_LEFT);		
 8275              		.loc 1 2458 4
 8276 010c 0220     		movs	r0, #2
 8277 010e FFF7FEFF 		bl	dc_motor_Start
2459:../app/app.c  **** 			osal_lyh_delay_task(Ms_100);
 8278              		.loc 1 2459 4
 8279 0112 6420     		movs	r0, #100
 8280 0114 FFF7FEFF 		bl	osal_lyh_delay_task
2460:../app/app.c  **** 			run_max_time = LEFT_TIMER(Ms_7000, Ms_100);		//ๆญคๅคๆถ้ด้่ฆๆ นๆฎๅฎ้ๆๅตๆดๆน
 8281              		.loc 1 2460 17
 8282 0118 4A4B     		ldr	r3, .L778+4
 8283 011a 4622     		movs	r2, #70
 8284 011c 1A80     		strh	r2, [r3]	@ movhi
2461:../app/app.c  **** 			sta = 6;
 8285              		.loc 1 2461 8
 8286 011e 484B     		ldr	r3, .L778
 8287 0120 0622     		movs	r2, #6
 8288 0122 1A70     		strb	r2, [r3]
2462:../app/app.c  **** 			break;
 8289              		.loc 1 2462 4
 8290 0124 88E0     		b	.L761
 8291              	.L754:
2463:../app/app.c  **** 		/* ๅคๆญ่ๅ็ตๆบๆฏๅฆๅฐ่พพ่ๅไฝ็ฝฎ */
2464:../app/app.c  **** 		case 6:
2465:../app/app.c  **** 			if ((MOTOR_STATE_STOPED ==dc_motor_GetState())
 8292              		.loc 1 2465 30
 8293 0126 FFF7FEFF 		bl	dc_motor_GetState
 8294 012a 0346     		mov	r3, r0
 8295              		.loc 1 2465 7
 8296 012c 002B     		cmp	r3, #0
 8297 012e 0ED0     		beq	.L768
2466:../app/app.c  **** 				|| (TRUE == app_motor_ready())
 8298              		.loc 1 2466 17
 8299 0130 FFF7FEFF 		bl	app_motor_ready
 8300 0134 0346     		mov	r3, r0
 8301              		.loc 1 2466 5
 8302 0136 012B     		cmp	r3, #1
 8303 0138 09D0     		beq	.L768
2467:../app/app.c  **** 				|| (--run_max_time == 0)){
 8304              		.loc 1 2467 9
 8305 013a 424B     		ldr	r3, .L778+4
 8306 013c 1B88     		ldrh	r3, [r3]
 8307 013e 013B     		subs	r3, r3, #1
 8308 0140 9AB2     		uxth	r2, r3
 8309              		.loc 1 2467 5
 8310 0142 404B     		ldr	r3, .L778+4
 8311 0144 1A80     		strh	r2, [r3]	@ movhi
 8312              		.loc 1 2467 9
 8313 0146 3F4B     		ldr	r3, .L778+4
 8314 0148 1B88     		ldrh	r3, [r3]
 8315              		.loc 1 2467 5
 8316 014a 002B     		cmp	r3, #0
 8317 014c 05D1     		bne	.L769
 8318              	.L768:
2468:../app/app.c  **** 				dc_motor_Stop();
 8319              		.loc 1 2468 5
 8320 014e FFF7FEFF 		bl	dc_motor_Stop
2469:../app/app.c  **** 				sta = 7;	
 8321              		.loc 1 2469 9
 8322 0152 3B4B     		ldr	r3, .L778
 8323 0154 0722     		movs	r2, #7
 8324 0156 1A70     		strb	r2, [r3]
2470:../app/app.c  **** 			}
2471:../app/app.c  **** 			else {
2472:../app/app.c  **** 				osal_lyh_delay_task(Ms_100);
2473:../app/app.c  **** 			}			
2474:../app/app.c  **** 			break;
 8325              		.loc 1 2474 4
 8326 0158 6EE0     		b	.L761
 8327              	.L769:
2472:../app/app.c  **** 			}			
 8328              		.loc 1 2472 5
 8329 015a 6420     		movs	r0, #100
 8330 015c FFF7FEFF 		bl	osal_lyh_delay_task
 8331              		.loc 1 2474 4
 8332 0160 6AE0     		b	.L761
 8333              	.L753:
2475:../app/app.c  **** 		/* ๅฏๅจๆฐดๆณตๅฒๆด็ฎก่ทฏ */
2476:../app/app.c  **** 		case 7:
2477:../app/app.c  **** 			ac_pumb_start(CONTINUE_MODE);		//ๅฏๅจๆฐดๆณต
 8334              		.loc 1 2477 4
 8335 0162 0020     		movs	r0, #0
 8336 0164 FFF7FEFF 		bl	ac_pumb_start
2478:../app/app.c  **** 			osal_lyh_delay_task(Ms_10000);		
 8337              		.loc 1 2478 4
 8338 0168 42F21070 		movw	r0, #10000
 8339 016c FFF7FEFF 		bl	osal_lyh_delay_task
2479:../app/app.c  **** 			sta = 8;
 8340              		.loc 1 2479 8
 8341 0170 334B     		ldr	r3, .L778
 8342 0172 0822     		movs	r2, #8
 8343 0174 1A70     		strb	r2, [r3]
2480:../app/app.c  **** 			break;
 8344              		.loc 1 2480 4
 8345 0176 5FE0     		b	.L761
 8346              	.L752:
2481:../app/app.c  **** 		case 8:
2482:../app/app.c  **** 			ac_pumb_stop();						//ๅณ้ญๆฐดๆณต
 8347              		.loc 1 2482 4
 8348 0178 FFF7FEFF 		bl	ac_pumb_stop
2483:../app/app.c  **** 			osal_lyh_delay_task(Ms_6000);		
 8349              		.loc 1 2483 4
 8350 017c 41F27070 		movw	r0, #6000
 8351 0180 FFF7FEFF 		bl	osal_lyh_delay_task
2484:../app/app.c  **** 			sta = 9;
 8352              		.loc 1 2484 8
 8353 0184 2E4B     		ldr	r3, .L778
 8354 0186 0922     		movs	r2, #9
 8355 0188 1A70     		strb	r2, [r3]
2485:../app/app.c  **** 			break;
 8356              		.loc 1 2485 4
 8357 018a 55E0     		b	.L761
 8358              	.L751:
2486:../app/app.c  **** 		/* ่ๅ็ตๆบๅๅ็น่ฝฌๅจ */
2487:../app/app.c  **** 		case 9:
2488:../app/app.c  **** 			dc_motor_Start(MOTOR_RIGHT);
 8359              		.loc 1 2488 4
 8360 018c 0120     		movs	r0, #1
 8361 018e FFF7FEFF 		bl	dc_motor_Start
2489:../app/app.c  **** 			osal_lyh_delay_task(Ms_1000);			//ๆญคๅคdelayๅบไฟๆ่พๅคง็ๆฐ๏ผ>500ms๏ผ๏ผๅฆๅ็ตๆบ่ฟ
 8362              		.loc 1 2489 4
 8363 0192 4FF47A70 		mov	r0, #1000
 8364 0196 FFF7FEFF 		bl	osal_lyh_delay_task
2490:../app/app.c  **** 													//ๅฎนๆ่ฏฏๅคไธบๅทฒ็ป่งฆ็ขฐๅฐๅ็นๅผๅณ๏ผๅฏผ่ด็ตๆบๆ ๆณๅ่ฝฌๅฐๅไฝ
2491:../app/app.c  **** 			run_max_time = RIGHT_TIMER(Ms_6000, Ms_100);		
 8365              		.loc 1 2491 17
 8366 019a 2A4B     		ldr	r3, .L778+4
 8367 019c 3C22     		movs	r2, #60
 8368 019e 1A80     		strh	r2, [r3]	@ movhi
2492:../app/app.c  **** 			sta = 10;
 8369              		.loc 1 2492 8
 8370 01a0 274B     		ldr	r3, .L778
 8371 01a2 0A22     		movs	r2, #10
 8372 01a4 1A70     		strb	r2, [r3]
2493:../app/app.c  **** 			break;	
 8373              		.loc 1 2493 4
 8374 01a6 47E0     		b	.L761
 8375              	.L750:
2494:../app/app.c  **** 		/* ๅคๆญ็ตๆบๆฏๅฆๅฐๅ็น่งฆ็น */	
2495:../app/app.c  **** 		case 10:													
2496:../app/app.c  **** 			if ((MOTOR_STATE_STOPED ==dc_motor_GetState())
 8376              		.loc 1 2496 30
 8377 01a8 FFF7FEFF 		bl	dc_motor_GetState
 8378 01ac 0346     		mov	r3, r0
 8379              		.loc 1 2496 7
 8380 01ae 002B     		cmp	r3, #0
 8381 01b0 0ED0     		beq	.L771
2497:../app/app.c  **** 				|| (TRUE == app_motor_ready())
 8382              		.loc 1 2497 17
 8383 01b2 FFF7FEFF 		bl	app_motor_ready
 8384 01b6 0346     		mov	r3, r0
 8385              		.loc 1 2497 5
 8386 01b8 012B     		cmp	r3, #1
 8387 01ba 09D0     		beq	.L771
2498:../app/app.c  **** 				|| (--run_max_time == 0)){
 8388              		.loc 1 2498 9
 8389 01bc 214B     		ldr	r3, .L778+4
 8390 01be 1B88     		ldrh	r3, [r3]
 8391 01c0 013B     		subs	r3, r3, #1
 8392 01c2 9AB2     		uxth	r2, r3
 8393              		.loc 1 2498 5
 8394 01c4 1F4B     		ldr	r3, .L778+4
 8395 01c6 1A80     		strh	r2, [r3]	@ movhi
 8396              		.loc 1 2498 9
 8397 01c8 1E4B     		ldr	r3, .L778+4
 8398 01ca 1B88     		ldrh	r3, [r3]
 8399              		.loc 1 2498 5
 8400 01cc 002B     		cmp	r3, #0
 8401 01ce 05D1     		bne	.L772
 8402              	.L771:
2499:../app/app.c  **** 				dc_motor_Stop();
 8403              		.loc 1 2499 5
 8404 01d0 FFF7FEFF 		bl	dc_motor_Stop
2500:../app/app.c  **** 				sta = 11;				
 8405              		.loc 1 2500 9
 8406 01d4 1A4B     		ldr	r3, .L778
 8407 01d6 0B22     		movs	r2, #11
 8408 01d8 1A70     		strb	r2, [r3]
2501:../app/app.c  **** 			}
2502:../app/app.c  **** 			else {
2503:../app/app.c  **** 				osal_lyh_delay_task(Ms_100);
2504:../app/app.c  **** 			}
2505:../app/app.c  **** 			break;
 8409              		.loc 1 2505 4
 8410 01da 2DE0     		b	.L761
 8411              	.L772:
2503:../app/app.c  **** 			}
 8412              		.loc 1 2503 5
 8413 01dc 6420     		movs	r0, #100
 8414 01de FFF7FEFF 		bl	osal_lyh_delay_task
 8415              		.loc 1 2505 4
 8416 01e2 29E0     		b	.L761
 8417              	.L749:
2506:../app/app.c  **** 		/* ็ตๆบๅ่ฝฌๅฐๅไฝ */
2507:../app/app.c  **** 		case 11:												
2508:../app/app.c  **** 			dc_motor_Start(MOTOR_LEFT);
 8418              		.loc 1 2508 4
 8419 01e4 0220     		movs	r0, #2
 8420 01e6 FFF7FEFF 		bl	dc_motor_Start
2509:../app/app.c  **** 			osal_lyh_delay_task(Ms_100);
 8421              		.loc 1 2509 4
 8422 01ea 6420     		movs	r0, #100
 8423 01ec FFF7FEFF 		bl	osal_lyh_delay_task
2510:../app/app.c  **** 			run_max_time = LEFT_TIMER(MOTOR_FIX_TIME, Ms_100);
 8424              		.loc 1 2510 17
 8425 01f0 144B     		ldr	r3, .L778+4
 8426 01f2 0322     		movs	r2, #3
 8427 01f4 1A80     		strh	r2, [r3]	@ movhi
2511:../app/app.c  **** 			sta = 12;
 8428              		.loc 1 2511 8
 8429 01f6 124B     		ldr	r3, .L778
 8430 01f8 0C22     		movs	r2, #12
 8431 01fa 1A70     		strb	r2, [r3]
2512:../app/app.c  **** 			break;	
 8432              		.loc 1 2512 4
 8433 01fc 1CE0     		b	.L761
 8434              	.L747:
2513:../app/app.c  **** 		/* ๅคๆญ็ตๆบๆฏๅฆๅ่ฝฌๅฐๅไฝ */	
2514:../app/app.c  **** 		case 12:													
2515:../app/app.c  **** 			if (1/*(FAIL == app_motor_ready())*/	// deleting point,(temp to cancel)
2516:../app/app.c  **** 				&& ((MOTOR_STATE_STOPED ==dc_motor_GetState())
 8435              		.loc 1 2516 31
 8436 01fe FFF7FEFF 		bl	dc_motor_GetState
 8437 0202 0346     		mov	r3, r0
2515:../app/app.c  **** 				&& ((MOTOR_STATE_STOPED ==dc_motor_GetState())
 8438              		.loc 1 2515 7
 8439 0204 002B     		cmp	r3, #0
 8440 0206 09D0     		beq	.L774
2517:../app/app.c  **** 				|| (--run_max_time == 0))){
 8441              		.loc 1 2517 9
 8442 0208 0E4B     		ldr	r3, .L778+4
 8443 020a 1B88     		ldrh	r3, [r3]
 8444 020c 013B     		subs	r3, r3, #1
 8445 020e 9AB2     		uxth	r2, r3
2516:../app/app.c  **** 				|| (--run_max_time == 0))){
 8446              		.loc 1 2516 5
 8447 0210 0C4B     		ldr	r3, .L778+4
 8448 0212 1A80     		strh	r2, [r3]	@ movhi
 8449              		.loc 1 2517 9
 8450 0214 0B4B     		ldr	r3, .L778+4
 8451 0216 1B88     		ldrh	r3, [r3]
2516:../app/app.c  **** 				|| (--run_max_time == 0))){
 8452              		.loc 1 2516 5
 8453 0218 002B     		cmp	r3, #0
 8454 021a 08D1     		bne	.L775
 8455              	.L774:
2518:../app/app.c  **** 				dc_motor_Stop();
 8456              		.loc 1 2518 5
 8457 021c FFF7FEFF 		bl	dc_motor_Stop
2519:../app/app.c  **** 				app_turn_heat_off();
 8458              		.loc 1 2519 5
 8459 0220 FFF7FEFF 		bl	app_turn_heat_off
2520:../app/app.c  **** 				sta = 0;
 8460              		.loc 1 2520 9
 8461 0224 064B     		ldr	r3, .L778
 8462 0226 0022     		movs	r2, #0
 8463 0228 1A70     		strb	r2, [r3]
2521:../app/app.c  **** 				return TRUE;
 8464              		.loc 1 2521 12
 8465 022a 0123     		movs	r3, #1
 8466 022c 05E0     		b	.L776
 8467              	.L775:
2522:../app/app.c  **** 			}
2523:../app/app.c  **** 			else {
2524:../app/app.c  **** 				osal_lyh_delay_task(Ms_100);
 8468              		.loc 1 2524 5
 8469 022e 6420     		movs	r0, #100
 8470 0230 FFF7FEFF 		bl	osal_lyh_delay_task
2525:../app/app.c  **** 			}
2526:../app/app.c  **** 			break;
 8471              		.loc 1 2526 4
 8472 0234 00E0     		b	.L761
 8473              	.L777:
2527:../app/app.c  **** 		default:
2528:../app/app.c  **** 			break;
 8474              		.loc 1 2528 4
 8475 0236 00BF     		nop
 8476              	.L761:
2529:../app/app.c  **** 	}
2530:../app/app.c  **** 	return FAIL;
 8477              		.loc 1 2530 9
 8478 0238 0023     		movs	r3, #0
 8479              	.L776:
2531:../app/app.c  **** }
 8480              		.loc 1 2531 1
 8481 023a 1846     		mov	r0, r3
 8482 023c 80BD     		pop	{r7, pc}
 8483              	.L779:
 8484 023e 00BF     		.align	2
 8485              	.L778:
 8486 0240 00000000 		.word	sta.8926
 8487 0244 00000000 		.word	run_max_time
 8488              		.cfi_endproc
 8489              	.LFE182:
 8491              		.section	.text.app_running_onoff_handler,"ax",%progbits
 8492              		.align	1
 8493              		.global	app_running_onoff_handler
 8494              		.syntax unified
 8495              		.thumb
 8496              		.thumb_func
 8497              		.fpu softvfp
 8499              	app_running_onoff_handler:
 8500              	.LFB183:
2532:../app/app.c  **** 
2533:../app/app.c  **** /**************************************************************************
2534:../app/app.c  ****  * @brief ๅจespresso, americano็่ฟ่ก็ถๆไธ๏ผๆไธON/OFF้ฎ็ๅค็ๅฝๆฐ
2535:../app/app.c  ****  * @return none
2536:../app/app.c  ****  * @note 1.ๆ นๆฎapp_onoff_key_dealyๅฝๆฐไธญ็็ถๆ๏ผๅณๅฎ่ฟๅฅๆญคๅฝๆฐ็app_task_substep๏ผ
2537:../app/app.c  ****  * 		 2.americano็็ ็ฃจ็ถๆๅespresso็็ ็ฃจ็ถๆ่ฐ็จๅไธไธชๅฝๆฐๅค็๏ผๅถไป็ถๆ
2538:../app/app.c  ****  * 		  ๅจAmericano็ฌฌไธๆฌก่ๅๅ๏ผๅฉไฝ็็ถๆไธespresso็ๅค็ๆนๅผไธ่ด๏ผ้ฝๆฏๅ
2539:../app/app.c  ****  *************************************************************************/
2540:../app/app.c  **** void app_running_onoff_handler(void)
2541:../app/app.c  **** {
 8501              		.loc 1 2541 1
 8502              		.cfi_startproc
 8503              		@ args = 0, pretend = 0, frame = 0
 8504              		@ frame_needed = 1, uses_anonymous_args = 0
 8505 0000 80B5     		push	{r7, lr}
 8506              		.cfi_def_cfa_offset 8
 8507              		.cfi_offset 7, -8
 8508              		.cfi_offset 14, -4
 8509 0002 00AF     		add	r7, sp, #0
 8510              		.cfi_def_cfa_register 7
2542:../app/app.c  **** 	switch(app_task_substep)
 8511              		.loc 1 2542 2
 8512 0004 5F4B     		ldr	r3, .L822
 8513 0006 1B78     		ldrb	r3, [r3]	@ zero_extendqisi2
 8514 0008 082B     		cmp	r3, #8
 8515 000a 00F2A980 		bhi	.L812
 8516 000e 01A2     		adr	r2, .L783
 8517 0010 52F823F0 		ldr	pc, [r2, r3, lsl #2]
 8518              		.p2align 2
 8519              	.L783:
 8520 0014 39000000 		.word	.L791+1
 8521 0018 CB000000 		.word	.L790+1
 8522 001c DD000000 		.word	.L789+1
 8523 0020 EF000000 		.word	.L788+1
 8524 0024 01010000 		.word	.L787+1
 8525 0028 13010000 		.word	.L786+1
 8526 002c 25010000 		.word	.L785+1
 8527 0030 37010000 		.word	.L784+1
 8528 0034 49010000 		.word	.L782+1
 8529              		.p2align 1
 8530              	.L791:
2543:../app/app.c  **** 	{
2544:../app/app.c  **** 		/* ่ฟๅฅON/OFFๅค็ๅฝๆฐๅๅงๅ */
2545:../app/app.c  **** 		case RUNNING_ONOFF_INIT_STATE:			
2546:../app/app.c  **** 			key_prohibit_setup(KEY_ONOFF_MASK, TRUE);	//ๅฑ่ฝON/OFFๆ้ฎ			
 8531              		.loc 1 2546 4
 8532 0038 0121     		movs	r1, #1
 8533 003a 0120     		movs	r0, #1
 8534 003c FFF7FEFF 		bl	key_prohibit_setup
2547:../app/app.c  **** 			app_led_show_init();	//ๅๅงๅๆตๆฐด็ฏ		
 8535              		.loc 1 2547 4
 8536 0040 FFF7FEFF 		bl	app_led_show_init
2548:../app/app.c  **** 			switch(CERRNT_STATE)	//ๅคๆญๅฝๅ่ฟ่ก็็ถๆ๏ผๅนถ่ฟๅฅๅฏนๅบ็ๅค็ๆต็จ
 8537              		.loc 1 2548 4
 8538 0044 504B     		ldr	r3, .L822+4
 8539 0046 1B78     		ldrb	r3, [r3]	@ zero_extendqisi2
 8540 0048 062B     		cmp	r3, #6
 8541 004a 3CD8     		bhi	.L813
 8542 004c 01A2     		adr	r2, .L794
 8543 004e 52F823F0 		ldr	pc, [r2, r3, lsl #2]
 8544 0052 00BF     		.p2align 2
 8545              	.L794:
 8546 0054 71000000 		.word	.L800+1
 8547 0058 8F000000 		.word	.L799+1
 8548 005c 97000000 		.word	.L798+1
 8549 0060 9F000000 		.word	.L797+1
 8550 0064 A7000000 		.word	.L796+1
 8551 0068 AF000000 		.word	.L795+1
 8552 006c BF000000 		.word	.L793+1
 8553              		.p2align 1
 8554              	.L800:
2549:../app/app.c  **** 			{
2550:../app/app.c  **** 				/* ็ฉบ่ฟ่ก็ถๆ */	
2551:../app/app.c  **** 				case NULL_STATE:
2552:../app/app.c  **** 					if(1 == flush_flag){
 8555              		.loc 1 2552 11
 8556 0070 464B     		ldr	r3, .L822+8
 8557 0072 1B78     		ldrb	r3, [r3]	@ zero_extendqisi2
 8558              		.loc 1 2552 8
 8559 0074 012B     		cmp	r3, #1
 8560 0076 06D1     		bne	.L801
2553:../app/app.c  **** 						flush_flag = 0;
 8561              		.loc 1 2553 18
 8562 0078 444B     		ldr	r3, .L822+8
 8563 007a 0022     		movs	r2, #0
 8564 007c 1A70     		strb	r2, [r3]
2554:../app/app.c  **** 						app_task_substep = RUNNING_ONOFF_FLUSH;
 8565              		.loc 1 2554 24
 8566 007e 414B     		ldr	r3, .L822
 8567 0080 0722     		movs	r2, #7
 8568 0082 1A70     		strb	r2, [r3]
2555:../app/app.c  **** 					}
2556:../app/app.c  **** 					else{
2557:../app/app.c  **** 						app_task_substep = RUNNING_ONOFF_COMPLETE;
2558:../app/app.c  **** 					}
2559:../app/app.c  **** 					break;			
 8569              		.loc 1 2559 6
 8570 0084 20E0     		b	.L803
 8571              	.L801:
2557:../app/app.c  **** 					}
 8572              		.loc 1 2557 24
 8573 0086 3F4B     		ldr	r3, .L822
 8574 0088 0822     		movs	r2, #8
 8575 008a 1A70     		strb	r2, [r3]
 8576              		.loc 1 2559 6
 8577 008c 1CE0     		b	.L803
 8578              	.L799:
2560:../app/app.c  **** 				/* ๅๅงๅๅ็ ็ฃจ */
2561:../app/app.c  **** 				case INIT_AND_GRIND_STATE:
2562:../app/app.c  **** 					app_task_substep = RUNNING_ONOFF_GRIND_STATE;
 8579              		.loc 1 2562 23
 8580 008e 3D4B     		ldr	r3, .L822
 8581 0090 0122     		movs	r2, #1
 8582 0092 1A70     		strb	r2, [r3]
2563:../app/app.c  **** 					break;
 8583              		.loc 1 2563 6
 8584 0094 18E0     		b	.L803
 8585              	.L798:
2564:../app/app.c  **** 				/* ๅๅพ่ๅไธญ */	
2565:../app/app.c  **** 				case GO_BREW_STATE:
2566:../app/app.c  **** 					app_task_substep = RUNNING_ONOFF_GO_BREW_STATE;				
 8586              		.loc 1 2566 23
 8587 0096 3B4B     		ldr	r3, .L822
 8588 0098 0222     		movs	r2, #2
 8589 009a 1A70     		strb	r2, [r3]
2567:../app/app.c  **** 					break;
 8590              		.loc 1 2567 6
 8591 009c 14E0     		b	.L803
 8592              	.L797:
2568:../app/app.c  **** 				/* ้ขๅฒ็ฎ */	
2569:../app/app.c  **** 				case PRE_BREW_STATE:
2570:../app/app.c  **** 					app_task_substep = RUNNING_ONOFF_PRE_BREW_STATE;				
 8593              		.loc 1 2570 23
 8594 009e 394B     		ldr	r3, .L822
 8595 00a0 0322     		movs	r2, #3
 8596 00a2 1A70     		strb	r2, [r3]
2571:../app/app.c  **** 					break;
 8597              		.loc 1 2571 6
 8598 00a4 10E0     		b	.L803
 8599              	.L796:
2572:../app/app.c  **** 				/* ๅฒ็ฎ */	
2573:../app/app.c  **** 				case BREW_STATE:
2574:../app/app.c  **** 					app_task_substep = RUNNING_ONOFF_BREW_STATE;				
 8600              		.loc 1 2574 23
 8601 00a6 374B     		ldr	r3, .L822
 8602 00a8 0422     		movs	r2, #4
 8603 00aa 1A70     		strb	r2, [r3]
2575:../app/app.c  **** 					break;
 8604              		.loc 1 2575 6
 8605 00ac 0CE0     		b	.L803
 8606              	.L795:
2576:../app/app.c  **** 				/* ไธขๅๅกๆธฃ */		
2577:../app/app.c  **** 				case DROP_BEANS_STATE:
2578:../app/app.c  **** 					drop_beans_time = run_max_time;
 8607              		.loc 1 2578 22
 8608 00ae 384B     		ldr	r3, .L822+12
 8609 00b0 1A88     		ldrh	r2, [r3]
 8610 00b2 384B     		ldr	r3, .L822+16
 8611 00b4 1A80     		strh	r2, [r3]	@ movhi
2579:../app/app.c  **** 					app_task_substep = RUNNING_ONOFF_DROP_BEANS_STATE;				
 8612              		.loc 1 2579 23
 8613 00b6 334B     		ldr	r3, .L822
 8614 00b8 0522     		movs	r2, #5
 8615 00ba 1A70     		strb	r2, [r3]
2580:../app/app.c  **** 					break;
 8616              		.loc 1 2580 6
 8617 00bc 04E0     		b	.L803
 8618              	.L793:
2581:../app/app.c  **** 				case RST_STATE:
2582:../app/app.c  **** 					app_task_substep = RUNNING_ONOFF_RST_STATE;
 8619              		.loc 1 2582 23
 8620 00be 314B     		ldr	r3, .L822
 8621 00c0 0622     		movs	r2, #6
 8622 00c2 1A70     		strb	r2, [r3]
2583:../app/app.c  **** 					break;
 8623              		.loc 1 2583 6
 8624 00c4 00E0     		b	.L803
 8625              	.L813:
2584:../app/app.c  **** 				default:
2585:../app/app.c  **** 					break;
 8626              		.loc 1 2585 6
 8627 00c6 00BF     		nop
 8628              	.L803:
2586:../app/app.c  **** 			}			
2587:../app/app.c  **** 			break;
 8629              		.loc 1 2587 4
 8630 00c8 59E0     		b	.L804
 8631              	.L790:
2588:../app/app.c  **** 		/* ็ ็ฃจๆถๅค็ */	
2589:../app/app.c  **** 		case RUNNING_ONOFF_GRIND_STATE:		
2590:../app/app.c  **** 			if(TRUE == app_running_onoff_grind_handler()){
 8632              		.loc 1 2590 15
 8633 00ca FFF7FEFF 		bl	app_running_onoff_grind_handler
 8634 00ce 0346     		mov	r3, r0
 8635              		.loc 1 2590 6
 8636 00d0 012B     		cmp	r3, #1
 8637 00d2 47D1     		bne	.L814
2591:../app/app.c  **** 				app_task_substep = RUNNING_ONOFF_FLUSH;
 8638              		.loc 1 2591 22
 8639 00d4 2B4B     		ldr	r3, .L822
 8640 00d6 0722     		movs	r2, #7
 8641 00d8 1A70     		strb	r2, [r3]
2592:../app/app.c  **** 			}
2593:../app/app.c  **** 			break;
 8642              		.loc 1 2593 4
 8643 00da 43E0     		b	.L814
 8644              	.L789:
2594:../app/app.c  **** 		/* ๅป่ๅๆถๅค็ */	
2595:../app/app.c  **** 		case RUNNING_ONOFF_GO_BREW_STATE:		
2596:../app/app.c  **** 			if(TRUE == app_running_onoff_go_water_handler()){
 8645              		.loc 1 2596 15
 8646 00dc FFF7FEFF 		bl	app_running_onoff_go_water_handler
 8647 00e0 0346     		mov	r3, r0
 8648              		.loc 1 2596 6
 8649 00e2 012B     		cmp	r3, #1
 8650 00e4 40D1     		bne	.L815
2597:../app/app.c  **** 				app_task_substep = RUNNING_ONOFF_FLUSH;
 8651              		.loc 1 2597 22
 8652 00e6 274B     		ldr	r3, .L822
 8653 00e8 0722     		movs	r2, #7
 8654 00ea 1A70     		strb	r2, [r3]
2598:../app/app.c  **** 			}
2599:../app/app.c  **** 			break;
 8655              		.loc 1 2599 4
 8656 00ec 3CE0     		b	.L815
 8657              	.L788:
2600:../app/app.c  **** 		/* ้ขๅฒ็ฎๆถๅค็ */
2601:../app/app.c  **** 		case RUNNING_ONOFF_PRE_BREW_STATE:		
2602:../app/app.c  **** 			if(TRUE == app_running_onoff_pre_brew_handler()){	
 8658              		.loc 1 2602 15
 8659 00ee FFF7FEFF 		bl	app_running_onoff_pre_brew_handler
 8660 00f2 0346     		mov	r3, r0
 8661              		.loc 1 2602 6
 8662 00f4 012B     		cmp	r3, #1
 8663 00f6 39D1     		bne	.L816
2603:../app/app.c  **** 				app_task_substep = RUNNING_ONOFF_FLUSH;
 8664              		.loc 1 2603 22
 8665 00f8 224B     		ldr	r3, .L822
 8666 00fa 0722     		movs	r2, #7
 8667 00fc 1A70     		strb	r2, [r3]
2604:../app/app.c  **** 			}		
2605:../app/app.c  **** 			break;
 8668              		.loc 1 2605 4
 8669 00fe 35E0     		b	.L816
 8670              	.L787:
2606:../app/app.c  **** 		/* ๅฒ็ฎๆถๅค็ */
2607:../app/app.c  **** 		case RUNNING_ONOFF_BREW_STATE:		
2608:../app/app.c  **** 			if(TRUE == app_running_onoff_brew_handler()){
 8671              		.loc 1 2608 15
 8672 0100 FFF7FEFF 		bl	app_running_onoff_brew_handler
 8673 0104 0346     		mov	r3, r0
 8674              		.loc 1 2608 6
 8675 0106 012B     		cmp	r3, #1
 8676 0108 32D1     		bne	.L817
2609:../app/app.c  **** 				app_task_substep = RUNNING_ONOFF_FLUSH;
 8677              		.loc 1 2609 22
 8678 010a 1E4B     		ldr	r3, .L822
 8679 010c 0722     		movs	r2, #7
 8680 010e 1A70     		strb	r2, [r3]
2610:../app/app.c  **** 			}
2611:../app/app.c  **** 			break;
 8681              		.loc 1 2611 4
 8682 0110 2EE0     		b	.L817
 8683              	.L786:
2612:../app/app.c  **** 		/* ไธขๅๅกๆธฃๆถๅค็ */	
2613:../app/app.c  **** 		case RUNNING_ONOFF_DROP_BEANS_STATE:
2614:../app/app.c  **** 			if(TRUE == app_running_onoff_drop_beans_handler()){
 8684              		.loc 1 2614 15
 8685 0112 FFF7FEFF 		bl	app_running_onoff_drop_beans_handler
 8686 0116 0346     		mov	r3, r0
 8687              		.loc 1 2614 6
 8688 0118 012B     		cmp	r3, #1
 8689 011a 2BD1     		bne	.L818
2615:../app/app.c  **** 				app_task_substep = RUNNING_ONOFF_FLUSH;
 8690              		.loc 1 2615 22
 8691 011c 194B     		ldr	r3, .L822
 8692 011e 0722     		movs	r2, #7
 8693 0120 1A70     		strb	r2, [r3]
2616:../app/app.c  **** 			}
2617:../app/app.c  **** 			break;
 8694              		.loc 1 2617 4
 8695 0122 27E0     		b	.L818
 8696              	.L785:
2618:../app/app.c  **** 		/* ๅคไฝๆถๅค็ */
2619:../app/app.c  **** 		case RUNNING_ONOFF_RST_STATE:
2620:../app/app.c  **** 			if(TRUE == app_running_onoff_rst_handler()){
 8697              		.loc 1 2620 15
 8698 0124 FFF7FEFF 		bl	app_running_onoff_rst_handler
 8699 0128 0346     		mov	r3, r0
 8700              		.loc 1 2620 6
 8701 012a 012B     		cmp	r3, #1
 8702 012c 24D1     		bne	.L819
2621:../app/app.c  **** 				app_task_substep = RUNNING_ONOFF_FLUSH;
 8703              		.loc 1 2621 22
 8704 012e 154B     		ldr	r3, .L822
 8705 0130 0722     		movs	r2, #7
 8706 0132 1A70     		strb	r2, [r3]
2622:../app/app.c  **** 			}
2623:../app/app.c  **** 			break;
 8707              		.loc 1 2623 4
 8708 0134 20E0     		b	.L819
 8709              	.L784:
2624:../app/app.c  **** 		/* ๅฒๆดๆต็จ */	
2625:../app/app.c  **** 		case RUNNING_ONOFF_FLUSH:
2626:../app/app.c  **** 			if(TRUE == app_running_onoff_flush_handler()){
 8710              		.loc 1 2626 15
 8711 0136 FFF7FEFF 		bl	app_running_onoff_flush_handler
 8712 013a 0346     		mov	r3, r0
 8713              		.loc 1 2626 6
 8714 013c 012B     		cmp	r3, #1
 8715 013e 1DD1     		bne	.L820
2627:../app/app.c  **** 				app_task_substep = RUNNING_ONOFF_COMPLETE;
 8716              		.loc 1 2627 22
 8717 0140 104B     		ldr	r3, .L822
 8718 0142 0822     		movs	r2, #8
 8719 0144 1A70     		strb	r2, [r3]
2628:../app/app.c  **** 			}												
2629:../app/app.c  **** 			break;
 8720              		.loc 1 2629 4
 8721 0146 19E0     		b	.L820
 8722              	.L782:
2630:../app/app.c  **** 		/* ๅฎๆON/OFFๆต็จ๏ผ่ฟๅฅIDLE็ถๆ */	
2631:../app/app.c  **** 		case RUNNING_ONOFF_COMPLETE:
2632:../app/app.c  **** 			key_prohibit_setup(KEY_ONOFF_MASK, FAIL);
 8723              		.loc 1 2632 4
 8724 0148 0021     		movs	r1, #0
 8725 014a 0120     		movs	r0, #1
 8726 014c FFF7FEFF 		bl	key_prohibit_setup
2633:../app/app.c  **** 			osal_lyh_kill_over_timer(OS_LED_TIME);
 8727              		.loc 1 2633 4
 8728 0150 0220     		movs	r0, #2
 8729 0152 FFF7FEFF 		bl	osal_lyh_kill_over_timer
2634:../app/app.c  **** 			app_task_nextstep(APP_IDLE_STATE, IDLE_INIT_STATE);
 8730              		.loc 1 2634 4
 8731 0156 0021     		movs	r1, #0
 8732 0158 0120     		movs	r0, #1
 8733 015a FFF7FEFF 		bl	app_task_nextstep
2635:../app/app.c  **** 			break;
 8734              		.loc 1 2635 4
 8735 015e 0EE0     		b	.L804
 8736              	.L812:
2636:../app/app.c  **** 		default:
2637:../app/app.c  **** 			break;
 8737              		.loc 1 2637 4
 8738 0160 00BF     		nop
 8739 0162 0CE0     		b	.L821
 8740              	.L814:
2593:../app/app.c  **** 		/* ๅป่ๅๆถๅค็ */	
 8741              		.loc 1 2593 4
 8742 0164 00BF     		nop
 8743 0166 0AE0     		b	.L821
 8744              	.L815:
2599:../app/app.c  **** 		/* ้ขๅฒ็ฎๆถๅค็ */
 8745              		.loc 1 2599 4
 8746 0168 00BF     		nop
 8747 016a 08E0     		b	.L821
 8748              	.L816:
2605:../app/app.c  **** 		/* ๅฒ็ฎๆถๅค็ */
 8749              		.loc 1 2605 4
 8750 016c 00BF     		nop
 8751 016e 06E0     		b	.L821
 8752              	.L817:
2611:../app/app.c  **** 		/* ไธขๅๅกๆธฃๆถๅค็ */	
 8753              		.loc 1 2611 4
 8754 0170 00BF     		nop
 8755 0172 04E0     		b	.L821
 8756              	.L818:
2617:../app/app.c  **** 		/* ๅคไฝๆถๅค็ */
 8757              		.loc 1 2617 4
 8758 0174 00BF     		nop
 8759 0176 02E0     		b	.L821
 8760              	.L819:
2623:../app/app.c  **** 		/* ๅฒๆดๆต็จ */	
 8761              		.loc 1 2623 4
 8762 0178 00BF     		nop
 8763 017a 00E0     		b	.L821
 8764              	.L820:
2629:../app/app.c  **** 		/* ๅฎๆON/OFFๆต็จ๏ผ่ฟๅฅIDLE็ถๆ */	
 8765              		.loc 1 2629 4
 8766 017c 00BF     		nop
 8767              	.L804:
 8768              	.L821:
2638:../app/app.c  **** 	}
2639:../app/app.c  **** }
 8769              		.loc 1 2639 1
 8770 017e 00BF     		nop
 8771 0180 80BD     		pop	{r7, pc}
 8772              	.L823:
 8773 0182 00BF     		.align	2
 8774              	.L822:
 8775 0184 00000000 		.word	app_task_substep
 8776 0188 00000000 		.word	CERRNT_STATE
 8777 018c 00000000 		.word	flush_flag
 8778 0190 00000000 		.word	run_max_time
 8779 0194 00000000 		.word	drop_beans_time
 8780              		.cfi_endproc
 8781              	.LFE183:
 8783              		.section	.text.init_app_task,"ax",%progbits
 8784              		.align	1
 8785              		.global	init_app_task
 8786              		.syntax unified
 8787              		.thumb
 8788              		.thumb_func
 8789              		.fpu softvfp
 8791              	init_app_task:
 8792              	.LFB184:
2640:../app/app.c  **** 
2641:../app/app.c  **** /************************************************************************
2642:../app/app.c  **** * function name: init_app
2643:../app/app.c  **** * input: non
2644:../app/app.c  **** * output: non
2645:../app/app.c  **** * description: object thread
2646:../app/app.c  **** *************************************************************************/
2647:../app/app.c  **** void init_app_task(uint8_t id)
2648:../app/app.c  **** {
 8793              		.loc 1 2648 1
 8794              		.cfi_startproc
 8795              		@ args = 0, pretend = 0, frame = 8
 8796              		@ frame_needed = 1, uses_anonymous_args = 0
 8797              		@ link register save eliminated.
 8798 0000 80B4     		push	{r7}
 8799              		.cfi_def_cfa_offset 4
 8800              		.cfi_offset 7, -4
 8801 0002 83B0     		sub	sp, sp, #12
 8802              		.cfi_def_cfa_offset 16
 8803 0004 00AF     		add	r7, sp, #0
 8804              		.cfi_def_cfa_register 7
 8805 0006 0346     		mov	r3, r0
 8806 0008 FB71     		strb	r3, [r7, #7]
2649:../app/app.c  **** 	app_id = id;
 8807              		.loc 1 2649 9
 8808 000a 074A     		ldr	r2, .L825
 8809 000c FB79     		ldrb	r3, [r7, #7]
 8810 000e 1370     		strb	r3, [r2]
2650:../app/app.c  **** 	app_task_step = APP_INIT_STATE;
 8811              		.loc 1 2650 16
 8812 0010 064B     		ldr	r3, .L825+4
 8813 0012 0022     		movs	r2, #0
 8814 0014 1A70     		strb	r2, [r3]
2651:../app/app.c  **** 	app_task_substep = INIT_STATE;
 8815              		.loc 1 2651 19
 8816 0016 064B     		ldr	r3, .L825+8
 8817 0018 0022     		movs	r2, #0
 8818 001a 1A70     		strb	r2, [r3]
2652:../app/app.c  **** }
 8819              		.loc 1 2652 1
 8820 001c 00BF     		nop
 8821 001e 0C37     		adds	r7, r7, #12
 8822              		.cfi_def_cfa_offset 4
 8823 0020 BD46     		mov	sp, r7
 8824              		.cfi_def_cfa_register 13
 8825              		@ sp needed
 8826 0022 80BC     		pop	{r7}
 8827              		.cfi_restore 7
 8828              		.cfi_def_cfa_offset 0
 8829 0024 7047     		bx	lr
 8830              	.L826:
 8831 0026 00BF     		.align	2
 8832              	.L825:
 8833 0028 00000000 		.word	app_id
 8834 002c 00000000 		.word	app_task_step
 8835 0030 00000000 		.word	app_task_substep
 8836              		.cfi_endproc
 8837              	.LFE184:
 8839              		.section	.text.app_task_handler,"ax",%progbits
 8840              		.align	1
 8841              		.global	app_task_handler
 8842              		.syntax unified
 8843              		.thumb
 8844              		.thumb_func
 8845              		.fpu softvfp
 8847              	app_task_handler:
 8848              	.LFB185:
2653:../app/app.c  **** 
2654:../app/app.c  **** /************************************************************************
2655:../app/app.c  **** * function name: app_task_handler
2656:../app/app.c  **** * input: non
2657:../app/app.c  **** * output: non
2658:../app/app.c  **** * description: object thread
2659:../app/app.c  **** *************************************************************************/
2660:../app/app.c  **** void app_task_handler(void)
2661:../app/app.c  **** {
 8849              		.loc 1 2661 1
 8850              		.cfi_startproc
 8851              		@ args = 0, pretend = 0, frame = 0
 8852              		@ frame_needed = 1, uses_anonymous_args = 0
 8853 0000 80B5     		push	{r7, lr}
 8854              		.cfi_def_cfa_offset 8
 8855              		.cfi_offset 7, -8
 8856              		.cfi_offset 14, -4
 8857 0002 00AF     		add	r7, sp, #0
 8858              		.cfi_def_cfa_register 7
2662:../app/app.c  **** 	switch(app_task_step){
 8859              		.loc 1 2662 2
 8860 0004 234B     		ldr	r3, .L844
 8861 0006 1B78     		ldrb	r3, [r3]	@ zero_extendqisi2
 8862 0008 0B2B     		cmp	r3, #11
 8863 000a 3FD8     		bhi	.L843
 8864 000c 01A2     		adr	r2, .L830
 8865 000e 52F823F0 		ldr	pc, [r2, r3, lsl #2]
 8866 0012 00BF     		.p2align 2
 8867              	.L830:
 8868 0014 45000000 		.word	.L841+1
 8869 0018 4B000000 		.word	.L840+1
 8870 001c 51000000 		.word	.L839+1
 8871 0020 57000000 		.word	.L838+1
 8872 0024 5D000000 		.word	.L837+1
 8873 0028 63000000 		.word	.L836+1
 8874 002c 69000000 		.word	.L835+1
 8875 0030 6F000000 		.word	.L834+1
 8876 0034 75000000 		.word	.L833+1
 8877 0038 7B000000 		.word	.L832+1
 8878 003c 81000000 		.word	.L831+1
 8879 0040 87000000 		.word	.L829+1
 8880              		.p2align 1
 8881              	.L841:
2663:../app/app.c  **** 	case APP_INIT_STATE:
2664:../app/app.c  **** 		app_init_handler();
 8882              		.loc 1 2664 3
 8883 0044 FFF7FEFF 		bl	app_init_handler
2665:../app/app.c  **** 		break;
 8884              		.loc 1 2665 3
 8885 0048 21E0     		b	.L842
 8886              	.L840:
2666:../app/app.c  **** 	case APP_IDLE_STATE:
2667:../app/app.c  **** 		app_idle_handler();
 8887              		.loc 1 2667 3
 8888 004a FFF7FEFF 		bl	app_idle_handler
2668:../app/app.c  **** 			break;
 8889              		.loc 1 2668 4
 8890 004e 1EE0     		b	.L842
 8891              	.L839:
2669:../app/app.c  **** 	case APP_STARTUP_STATE:
2670:../app/app.c  **** 		app_startup_handler();
 8892              		.loc 1 2670 3
 8893 0050 FFF7FEFF 		bl	app_startup_handler
2671:../app/app.c  **** 			break;
 8894              		.loc 1 2671 4
 8895 0054 1BE0     		b	.L842
 8896              	.L838:
2672:../app/app.c  **** 	case APP_NORMAL_STATE:
2673:../app/app.c  **** 		app_normal_handler();
 8897              		.loc 1 2673 3
 8898 0056 FFF7FEFF 		bl	app_normal_handler
2674:../app/app.c  **** 			break;
 8899              		.loc 1 2674 4
 8900 005a 18E0     		b	.L842
 8901              	.L837:
2675:../app/app.c  **** 	case APP_ESPRESSO_STATE:
2676:../app/app.c  **** 		app_espresso_handler();
 8902              		.loc 1 2676 3
 8903 005c FFF7FEFF 		bl	app_espresso_handler
2677:../app/app.c  **** 			break;
 8904              		.loc 1 2677 4
 8905 0060 15E0     		b	.L842
 8906              	.L836:
2678:../app/app.c  **** 	case APP_AMERICAN_STATE:
2679:../app/app.c  **** 		app_american_handler();
 8907              		.loc 1 2679 3
 8908 0062 FFF7FEFF 		bl	app_american_handler
2680:../app/app.c  **** 			break;
 8909              		.loc 1 2680 4
 8910 0066 12E0     		b	.L842
 8911              	.L835:
2681:../app/app.c  **** 	case APP_HOTWATER_STATE:
2682:../app/app.c  **** 		app_hotwater_handler();
 8912              		.loc 1 2682 3
 8913 0068 FFF7FEFF 		bl	app_hotwater_handler
2683:../app/app.c  **** 			break;
 8914              		.loc 1 2683 4
 8915 006c 0FE0     		b	.L842
 8916              	.L834:
2684:../app/app.c  **** 	case APP_STEAM_STATE:
2685:../app/app.c  **** 		app_steam_handler();
 8917              		.loc 1 2685 3
 8918 006e FFF7FEFF 		bl	app_steam_handler
2686:../app/app.c  **** 			break;
 8919              		.loc 1 2686 4
 8920 0072 0CE0     		b	.L842
 8921              	.L833:
2687:../app/app.c  **** 	case APP_AQUA_STATE:
2688:../app/app.c  **** 		app_aqua_handler();
 8922              		.loc 1 2688 3
 8923 0074 FFF7FEFF 		bl	app_aqua_handler
2689:../app/app.c  **** 			break;
 8924              		.loc 1 2689 4
 8925 0078 09E0     		b	.L842
 8926              	.L832:
2690:../app/app.c  **** 	case APP_CALC_STATE:
2691:../app/app.c  **** 		app_calc_handler();
 8927              		.loc 1 2691 3
 8928 007a FFF7FEFF 		bl	app_calc_handler
2692:../app/app.c  **** 			break;
 8929              		.loc 1 2692 4
 8930 007e 06E0     		b	.L842
 8931              	.L831:
2693:../app/app.c  **** 	case APP_SETUP_STATE:
2694:../app/app.c  **** 		app_setup_handler();
 8932              		.loc 1 2694 3
 8933 0080 FFF7FEFF 		bl	app_setup_handler
2695:../app/app.c  **** 			break;
 8934              		.loc 1 2695 4
 8935 0084 03E0     		b	.L842
 8936              	.L829:
2696:../app/app.c  **** 	case APP_RUNNING_ONOFF_STATE:
2697:../app/app.c  **** 		app_running_onoff_handler();
 8937              		.loc 1 2697 3
 8938 0086 FFF7FEFF 		bl	app_running_onoff_handler
2698:../app/app.c  **** 			break;
 8939              		.loc 1 2698 4
 8940 008a 00E0     		b	.L842
 8941              	.L843:
2699:../app/app.c  **** 	default:
2700:../app/app.c  **** 		break;
 8942              		.loc 1 2700 3
 8943 008c 00BF     		nop
 8944              	.L842:
2701:../app/app.c  **** 	}
2702:../app/app.c  **** }
 8945              		.loc 1 2702 1
 8946 008e 00BF     		nop
 8947 0090 80BD     		pop	{r7, pc}
 8948              	.L845:
 8949 0092 00BF     		.align	2
 8950              	.L844:
 8951 0094 00000000 		.word	app_task_step
 8952              		.cfi_endproc
 8953              	.LFE185:
 8955              		.section	.text.app_event_handler,"ax",%progbits
 8956              		.align	1
 8957              		.global	app_event_handler
 8958              		.syntax unified
 8959              		.thumb
 8960              		.thumb_func
 8961              		.fpu softvfp
 8963              	app_event_handler:
 8964              	.LFB186:
2703:../app/app.c  **** 
2704:../app/app.c  **** /************************************************************************
2705:../app/app.c  **** * function name: app_processEvent
2706:../app/app.c  **** * input: non
2707:../app/app.c  **** * output: non
2708:../app/app.c  **** * description: this object's message loop
2709:../app/app.c  **** *************************************************************************/
2710:../app/app.c  **** uint32_t app_event_handler( uint8_t task_id, uint32_t events)
2711:../app/app.c  **** {
 8965              		.loc 1 2711 1
 8966              		.cfi_startproc
 8967              		@ args = 0, pretend = 0, frame = 8
 8968              		@ frame_needed = 1, uses_anonymous_args = 0
 8969 0000 80B5     		push	{r7, lr}
 8970              		.cfi_def_cfa_offset 8
 8971              		.cfi_offset 7, -8
 8972              		.cfi_offset 14, -4
 8973 0002 82B0     		sub	sp, sp, #8
 8974              		.cfi_def_cfa_offset 16
 8975 0004 00AF     		add	r7, sp, #0
 8976              		.cfi_def_cfa_register 7
 8977 0006 0346     		mov	r3, r0
 8978 0008 3960     		str	r1, [r7]
 8979 000a FB71     		strb	r3, [r7, #7]
2712:../app/app.c  **** 	if (app_id != task_id){
 8980              		.loc 1 2712 13
 8981 000c 094B     		ldr	r3, .L850
 8982 000e 1B78     		ldrb	r3, [r3]	@ zero_extendqisi2
 8983              		.loc 1 2712 5
 8984 0010 FA79     		ldrb	r2, [r7, #7]	@ zero_extendqisi2
 8985 0012 9A42     		cmp	r2, r3
 8986 0014 01D0     		beq	.L847
2713:../app/app.c  **** 		return events;
 8987              		.loc 1 2713 10
 8988 0016 3B68     		ldr	r3, [r7]
 8989 0018 08E0     		b	.L848
 8990              	.L847:
2714:../app/app.c  **** 	}
2715:../app/app.c  **** 	if (APP_KEY_CHANGE_EVENT & events)
 8991              		.loc 1 2715 27
 8992 001a 3B68     		ldr	r3, [r7]
 8993 001c 03F00103 		and	r3, r3, #1
 8994              		.loc 1 2715 5
 8995 0020 002B     		cmp	r3, #0
 8996 0022 02D0     		beq	.L849
2716:../app/app.c  **** 	{
2717:../app/app.c  **** 		app_key_handler(&keyinfo);
 8997              		.loc 1 2717 3
 8998 0024 0448     		ldr	r0, .L850+4
 8999 0026 FFF7FEFF 		bl	app_key_handler
 9000              	.L849:
2718:../app/app.c  **** 	}
2719:../app/app.c  **** 
2720:../app/app.c  **** 	return events;
 9001              		.loc 1 2720 9
 9002 002a 3B68     		ldr	r3, [r7]
 9003              	.L848:
2721:../app/app.c  **** }
 9004              		.loc 1 2721 1
 9005 002c 1846     		mov	r0, r3
 9006 002e 0837     		adds	r7, r7, #8
 9007              		.cfi_def_cfa_offset 8
 9008 0030 BD46     		mov	sp, r7
 9009              		.cfi_def_cfa_register 13
 9010              		@ sp needed
 9011 0032 80BD     		pop	{r7, pc}
 9012              	.L851:
 9013              		.align	2
 9014              	.L850:
 9015 0034 00000000 		.word	app_id
 9016 0038 00000000 		.word	keyinfo
 9017              		.cfi_endproc
 9018              	.LFE186:
 9020              		.section	.bss.sta.8839,"aw",%nobits
 9023              	sta.8839:
 9024 0000 00       		.space	1
 9025              		.section	.bss.sta.8856,"aw",%nobits
 9028              	sta.8856:
 9029 0000 00       		.space	1
 9030              		.section	.bss.sta.8873,"aw",%nobits
 9033              	sta.8873:
 9034 0000 00       		.space	1
 9035              		.section	.bss.sta.8888,"aw",%nobits
 9038              	sta.8888:
 9039 0000 00       		.space	1
 9040              		.section	.bss.sta.8901,"aw",%nobits
 9043              	sta.8901:
 9044 0000 00       		.space	1
 9045              		.section	.bss.sta.8915,"aw",%nobits
 9048              	sta.8915:
 9049 0000 00       		.space	1
 9050              		.section	.bss.sta.8926,"aw",%nobits
 9053              	sta.8926:
 9054 0000 00       		.space	1
 9055              		.text
 9056              	.Letext0:
 9057              		.file 2 "d:\\project\\coffee\\ide\\tools\\gnu tools arm embedded\\xpack-arm-none-eabi-gcc\\9.2.1-1
 9058              		.file 3 "d:\\project\\coffee\\ide\\tools\\gnu tools arm embedded\\xpack-arm-none-eabi-gcc\\9.2.1-1
 9059              		.file 4 "d:\\project\\coffee\\ide\\tools\\gnu tools arm embedded\\xpack-arm-none-eabi-gcc\\9.2.1-1
 9060              		.file 5 "d:\\project\\coffee\\ide\\tools\\gnu tools arm embedded\\xpack-arm-none-eabi-gcc\\9.2.1-1
 9061              		.file 6 "d:\\project\\coffee\\ide\\tools\\gnu tools arm embedded\\xpack-arm-none-eabi-gcc\\9.2.1-1
 9062              		.file 7 "d:\\project\\coffee\\ide\\tools\\gnu tools arm embedded\\xpack-arm-none-eabi-gcc\\9.2.1-1
 9063              		.file 8 "../Firmware/CMSIS/core_cm4.h"
 9064              		.file 9 "../Firmware/CMSIS/GD/GD32F30x/Include/system_gd32f30x.h"
 9065              		.file 10 "../Firmware/CMSIS/GD/GD32F30x/Include/gd32f30x.h"
 9066              		.file 11 "../Firmware/GD32F30x_standard_peripheral/Include/gd32f30x_gpio.h"
 9067              		.file 12 "../osal/os_lyh_core.h"
 9068              		.file 13 "../app/keyboard.h"
 9069              		.file 14 "../app/acmotor.h"
 9070              		.file 15 "../app/dcmotor.h"
 9071              		.file 16 "../app/display.h"
 9072              		.file 17 "../app/usart.h"
 9073              		.file 18 "../app/heat.h"
 9074              		.file 19 "../app/adc.h"
 9075              		.file 20 "../Firmware/GD32F30x_standard_peripheral/Include/gd32f30x_dbg.h"
 9076              		.file 21 "../app/app.h"
 9077              		.file 22 "../app/bus.h"
 9078              		.file 23 "../app/relay.h"
DEFINED SYMBOLS
                            *ABS*:00000000 app.c
                            *COM*:00000001 app_id
                            *COM*:00000001 app_task_step
                            *COM*:00000001 app_task_substep
                            *COM*:00000003 manual_setup
                            *COM*:00000002 run_max_time
                            *COM*:00000001 Buzzer_times
                            *COM*:00000001 Leds_loop_run
                            *COM*:00000001 cup_loop
                            *COM*:00000001 turn_off_flag
                            *COM*:00000001 flush_flag
                            *COM*:00000001 CERRNT_STATE
                            *COM*:00000002 drop_beans_time
C:\Users\user001\AppData\Local\Temp\ccs5R0uy.s:28     .text.app_virtual_croszero_cbfunc:00000000 $t
C:\Users\user001\AppData\Local\Temp\ccs5R0uy.s:36     .text.app_virtual_croszero_cbfunc:00000000 app_virtual_croszero_cbfunc
C:\Users\user001\AppData\Local\Temp\ccs5R0uy.s:71     .text.app_virtual_croszero_cbfunc:00000034 $d
C:\Users\user001\AppData\Local\Temp\ccs5R0uy.s:77     .text.app_buzon_cbfunc:00000000 $t
C:\Users\user001\AppData\Local\Temp\ccs5R0uy.s:84     .text.app_buzon_cbfunc:00000000 app_buzon_cbfunc
C:\Users\user001\AppData\Local\Temp\ccs5R0uy.s:125    .text.app_buzon_cbfunc:0000002c $d
C:\Users\user001\AppData\Local\Temp\ccs5R0uy.s:138    .text.app_buzoff_cbfunc:00000000 app_buzoff_cbfunc
C:\Users\user001\AppData\Local\Temp\ccs5R0uy.s:131    .text.app_buzoff_cbfunc:00000000 $t
C:\Users\user001\AppData\Local\Temp\ccs5R0uy.s:164    .text.app_buzoff_cbfunc:00000018 $d
C:\Users\user001\AppData\Local\Temp\ccs5R0uy.s:169    .text.app_buzzer_on:00000000 $t
C:\Users\user001\AppData\Local\Temp\ccs5R0uy.s:176    .text.app_buzzer_on:00000000 app_buzzer_on
C:\Users\user001\AppData\Local\Temp\ccs5R0uy.s:229    .text.app_buzzer_on:0000003c $d
C:\Users\user001\AppData\Local\Temp\ccs5R0uy.s:235    .text.app_resource_init:00000000 $t
C:\Users\user001\AppData\Local\Temp\ccs5R0uy.s:242    .text.app_resource_init:00000000 app_resource_init
C:\Users\user001\AppData\Local\Temp\ccs5R0uy.s:267    .text.app_resource_init:00000018 $d
C:\Users\user001\AppData\Local\Temp\ccs5R0uy.s:278    .text.app_resource_init:00000044 $t
C:\Users\user001\AppData\Local\Temp\ccs5R0uy.s:297    .text.app_resource_free:00000000 $t
C:\Users\user001\AppData\Local\Temp\ccs5R0uy.s:304    .text.app_resource_free:00000000 app_resource_free
C:\Users\user001\AppData\Local\Temp\ccs5R0uy.s:329    .text.app_resource_free:00000018 $d
C:\Users\user001\AppData\Local\Temp\ccs5R0uy.s:340    .text.app_resource_free:00000044 $t
C:\Users\user001\AppData\Local\Temp\ccs5R0uy.s:363    .text.app_task_nextstep:00000000 $t
C:\Users\user001\AppData\Local\Temp\ccs5R0uy.s:370    .text.app_task_nextstep:00000000 app_task_nextstep
C:\Users\user001\AppData\Local\Temp\ccs5R0uy.s:422    .text.app_task_nextstep:00000040 $d
C:\Users\user001\AppData\Local\Temp\ccs5R0uy.s:429    .text.app_task_nextsubstep:00000000 $t
C:\Users\user001\AppData\Local\Temp\ccs5R0uy.s:436    .text.app_task_nextsubstep:00000000 app_task_nextsubstep
C:\Users\user001\AppData\Local\Temp\ccs5R0uy.s:472    .text.app_task_nextsubstep:00000024 $d
C:\Users\user001\AppData\Local\Temp\ccs5R0uy.s:478    .text.app_water_ready:00000000 $t
C:\Users\user001\AppData\Local\Temp\ccs5R0uy.s:485    .text.app_water_ready:00000000 app_water_ready
C:\Users\user001\AppData\Local\Temp\ccs5R0uy.s:517    .text.app_water_ready:0000001c $d
C:\Users\user001\AppData\Local\Temp\ccs5R0uy.s:522    .text.app_pallet_ready:00000000 $t
C:\Users\user001\AppData\Local\Temp\ccs5R0uy.s:529    .text.app_pallet_ready:00000000 app_pallet_ready
C:\Users\user001\AppData\Local\Temp\ccs5R0uy.s:561    .text.app_pallet_ready:0000001c $d
C:\Users\user001\AppData\Local\Temp\ccs5R0uy.s:566    .text.app_meter_ready:00000000 $t
C:\Users\user001\AppData\Local\Temp\ccs5R0uy.s:573    .text.app_meter_ready:00000000 app_meter_ready
C:\Users\user001\AppData\Local\Temp\ccs5R0uy.s:605    .text.app_meter_ready:0000001c $d
C:\Users\user001\AppData\Local\Temp\ccs5R0uy.s:610    .text.app_motor_ready:00000000 $t
C:\Users\user001\AppData\Local\Temp\ccs5R0uy.s:617    .text.app_motor_ready:00000000 app_motor_ready
C:\Users\user001\AppData\Local\Temp\ccs5R0uy.s:652    .text.app_motor_ready:00000020 $d
C:\Users\user001\AppData\Local\Temp\ccs5R0uy.s:657    .text.app_turn_heat_off:00000000 $t
C:\Users\user001\AppData\Local\Temp\ccs5R0uy.s:664    .text.app_turn_heat_off:00000000 app_turn_heat_off
C:\Users\user001\AppData\Local\Temp\ccs5R0uy.s:700    .text.app_turn_heat_off:00000028 $d
C:\Users\user001\AppData\Local\Temp\ccs5R0uy.s:706    .text.app_turn_heat_on:00000000 $t
C:\Users\user001\AppData\Local\Temp\ccs5R0uy.s:713    .text.app_turn_heat_on:00000000 app_turn_heat_on
C:\Users\user001\AppData\Local\Temp\ccs5R0uy.s:759    .text.app_turn_heat_on:00000038 $d
C:\Users\user001\AppData\Local\Temp\ccs5R0uy.s:766    .text.app_temperature_state:00000000 $t
C:\Users\user001\AppData\Local\Temp\ccs5R0uy.s:773    .text.app_temperature_state:00000000 app_temperature_state
C:\Users\user001\AppData\Local\Temp\ccs5R0uy.s:806    .text.app_relay_set:00000000 $t
C:\Users\user001\AppData\Local\Temp\ccs5R0uy.s:813    .text.app_relay_set:00000000 app_relay_set
C:\Users\user001\AppData\Local\Temp\ccs5R0uy.s:857    .text.app_step_state:00000000 $t
C:\Users\user001\AppData\Local\Temp\ccs5R0uy.s:864    .text.app_step_state:00000000 app_step_state
C:\Users\user001\AppData\Local\Temp\ccs5R0uy.s:903    .text.app_step_state:00000024 $d
C:\Users\user001\AppData\Local\Temp\ccs5R0uy.s:908    .text.app_led_heat_cbfunc:00000000 $t
C:\Users\user001\AppData\Local\Temp\ccs5R0uy.s:915    .text.app_led_heat_cbfunc:00000000 app_led_heat_cbfunc
C:\Users\user001\AppData\Local\Temp\ccs5R0uy.s:1007   .text.app_led_heat_cbfunc:00000084 $d
C:\Users\user001\AppData\Local\Temp\ccs5R0uy.s:1014   .text.app_led_show_init:00000000 $t
C:\Users\user001\AppData\Local\Temp\ccs5R0uy.s:1021   .text.app_led_show_init:00000000 app_led_show_init
C:\Users\user001\AppData\Local\Temp\ccs5R0uy.s:1694   .text.app_leds_all_fun:00000000 app_leds_all_fun
C:\Users\user001\AppData\Local\Temp\ccs5R0uy.s:1055   .text.app_led_show_init:00000028 $d
C:\Users\user001\AppData\Local\Temp\ccs5R0uy.s:1061   .text.app_led_start_cbfunc:00000000 $t
C:\Users\user001\AppData\Local\Temp\ccs5R0uy.s:1068   .text.app_led_start_cbfunc:00000000 app_led_start_cbfunc
C:\Users\user001\AppData\Local\Temp\ccs5R0uy.s:1095   .text.app_led_start_cbfunc:0000001c $d
C:\Users\user001\AppData\Local\Temp\ccs5R0uy.s:1100   .text.app_led_start_init:00000000 $t
C:\Users\user001\AppData\Local\Temp\ccs5R0uy.s:1107   .text.app_led_start_init:00000000 app_led_start_init
C:\Users\user001\AppData\Local\Temp\ccs5R0uy.s:1134   .text.app_led_start_init:0000001c $d
C:\Users\user001\AppData\Local\Temp\ccs5R0uy.s:1139   .text.app_led_espresso_cbfunc:00000000 $t
C:\Users\user001\AppData\Local\Temp\ccs5R0uy.s:1146   .text.app_led_espresso_cbfunc:00000000 app_led_espresso_cbfunc
C:\Users\user001\AppData\Local\Temp\ccs5R0uy.s:1192   .text.app_led_espresso_cbfunc:00000038 $d
C:\Users\user001\AppData\Local\Temp\ccs5R0uy.s:1198   .text.app_led_espresso_init:00000000 $t
C:\Users\user001\AppData\Local\Temp\ccs5R0uy.s:1205   .text.app_led_espresso_init:00000000 app_led_espresso_init
C:\Users\user001\AppData\Local\Temp\ccs5R0uy.s:1251   .text.app_led_espresso_init:00000038 $d
C:\Users\user001\AppData\Local\Temp\ccs5R0uy.s:1257   .text.app_led_americano_cbfunc:00000000 $t
C:\Users\user001\AppData\Local\Temp\ccs5R0uy.s:1264   .text.app_led_americano_cbfunc:00000000 app_led_americano_cbfunc
C:\Users\user001\AppData\Local\Temp\ccs5R0uy.s:1310   .text.app_led_americano_cbfunc:00000038 $d
C:\Users\user001\AppData\Local\Temp\ccs5R0uy.s:1316   .text.app_led_americano_init:00000000 $t
C:\Users\user001\AppData\Local\Temp\ccs5R0uy.s:1323   .text.app_led_americano_init:00000000 app_led_americano_init
C:\Users\user001\AppData\Local\Temp\ccs5R0uy.s:1369   .text.app_led_americano_init:00000038 $d
C:\Users\user001\AppData\Local\Temp\ccs5R0uy.s:1375   .text.app_led_hotwater_cbfunc:00000000 $t
C:\Users\user001\AppData\Local\Temp\ccs5R0uy.s:1382   .text.app_led_hotwater_cbfunc:00000000 app_led_hotwater_cbfunc
C:\Users\user001\AppData\Local\Temp\ccs5R0uy.s:1409   .text.app_led_hotwater_cbfunc:0000001c $d
C:\Users\user001\AppData\Local\Temp\ccs5R0uy.s:1414   .text.app_led_hotwater_init:00000000 $t
C:\Users\user001\AppData\Local\Temp\ccs5R0uy.s:1421   .text.app_led_hotwater_init:00000000 app_led_hotwater_init
C:\Users\user001\AppData\Local\Temp\ccs5R0uy.s:1448   .text.app_led_hotwater_init:0000001c $d
C:\Users\user001\AppData\Local\Temp\ccs5R0uy.s:1453   .text.app_led_steam_cbfunc:00000000 $t
C:\Users\user001\AppData\Local\Temp\ccs5R0uy.s:1460   .text.app_led_steam_cbfunc:00000000 app_led_steam_cbfunc
C:\Users\user001\AppData\Local\Temp\ccs5R0uy.s:1487   .text.app_led_steam_cbfunc:0000001c $d
C:\Users\user001\AppData\Local\Temp\ccs5R0uy.s:1492   .text.app_led_steam_init:00000000 $t
C:\Users\user001\AppData\Local\Temp\ccs5R0uy.s:1499   .text.app_led_steam_init:00000000 app_led_steam_init
C:\Users\user001\AppData\Local\Temp\ccs5R0uy.s:1526   .text.app_led_steam_init:0000001c $d
C:\Users\user001\AppData\Local\Temp\ccs5R0uy.s:1531   .text.app_led_aqua_cbfunc:00000000 $t
C:\Users\user001\AppData\Local\Temp\ccs5R0uy.s:1538   .text.app_led_aqua_cbfunc:00000000 app_led_aqua_cbfunc
C:\Users\user001\AppData\Local\Temp\ccs5R0uy.s:1565   .text.app_led_aqua_cbfunc:0000001c $d
C:\Users\user001\AppData\Local\Temp\ccs5R0uy.s:1570   .text.app_led_aqua_init:00000000 $t
C:\Users\user001\AppData\Local\Temp\ccs5R0uy.s:1577   .text.app_led_aqua_init:00000000 app_led_aqua_init
C:\Users\user001\AppData\Local\Temp\ccs5R0uy.s:1604   .text.app_led_aqua_init:0000001c $d
C:\Users\user001\AppData\Local\Temp\ccs5R0uy.s:1609   .text.app_led_calc_cbfunc:00000000 $t
C:\Users\user001\AppData\Local\Temp\ccs5R0uy.s:1616   .text.app_led_calc_cbfunc:00000000 app_led_calc_cbfunc
C:\Users\user001\AppData\Local\Temp\ccs5R0uy.s:1643   .text.app_led_calc_cbfunc:0000001c $d
C:\Users\user001\AppData\Local\Temp\ccs5R0uy.s:1648   .text.app_led_calc_init:00000000 $t
C:\Users\user001\AppData\Local\Temp\ccs5R0uy.s:1655   .text.app_led_calc_init:00000000 app_led_calc_init
C:\Users\user001\AppData\Local\Temp\ccs5R0uy.s:1682   .text.app_led_calc_init:0000001c $d
C:\Users\user001\AppData\Local\Temp\ccs5R0uy.s:1687   .text.app_leds_all_fun:00000000 $t
C:\Users\user001\AppData\Local\Temp\ccs5R0uy.s:1772   .text.app_leds_all_ind:00000000 $t
C:\Users\user001\AppData\Local\Temp\ccs5R0uy.s:1779   .text.app_leds_all_ind:00000000 app_leds_all_ind
C:\Users\user001\AppData\Local\Temp\ccs5R0uy.s:1842   .text.app_led_oneloop:00000000 $t
C:\Users\user001\AppData\Local\Temp\ccs5R0uy.s:1849   .text.app_led_oneloop:00000000 app_led_oneloop
C:\Users\user001\AppData\Local\Temp\ccs5R0uy.s:1889   .text.app_led_finish_step:00000000 $t
C:\Users\user001\AppData\Local\Temp\ccs5R0uy.s:1896   .text.app_led_finish_step:00000000 app_led_finish_step
C:\Users\user001\AppData\Local\Temp\ccs5R0uy.s:1928   .text.app_onoff_key_deal:00000000 $t
C:\Users\user001\AppData\Local\Temp\ccs5R0uy.s:1935   .text.app_onoff_key_deal:00000000 app_onoff_key_deal
C:\Users\user001\AppData\Local\Temp\ccs5R0uy.s:1995   .text.app_onoff_key_deal:00000040 $d
C:\Users\user001\AppData\Local\Temp\ccs5R0uy.s:2000   .text.app_start_key_deal:00000000 $t
C:\Users\user001\AppData\Local\Temp\ccs5R0uy.s:2007   .text.app_start_key_deal:00000000 app_start_key_deal
C:\Users\user001\AppData\Local\Temp\ccs5R0uy.s:2044   .text.app_start_key_deal:00000028 $d
C:\Users\user001\AppData\Local\Temp\ccs5R0uy.s:2055   .text.app_start_key_deal:00000054 $t
C:\Users\user001\AppData\Local\Temp\ccs5R0uy.s:2143   .text.app_start_key_deal:000000c0 $d
C:\Users\user001\AppData\Local\Temp\ccs5R0uy.s:2150   .text.app_hotwater_key_deal:00000000 $t
C:\Users\user001\AppData\Local\Temp\ccs5R0uy.s:2157   .text.app_hotwater_key_deal:00000000 app_hotwater_key_deal
C:\Users\user001\AppData\Local\Temp\ccs5R0uy.s:2216   .text.app_hotwater_key_deal:00000038 $d
C:\Users\user001\AppData\Local\Temp\ccs5R0uy.s:2222   .text.app_espresso_key_deal:00000000 $t
C:\Users\user001\AppData\Local\Temp\ccs5R0uy.s:2229   .text.app_espresso_key_deal:00000000 app_espresso_key_deal
C:\Users\user001\AppData\Local\Temp\ccs5R0uy.s:2328   .text.app_espresso_key_deal:0000007c $d
C:\Users\user001\AppData\Local\Temp\ccs5R0uy.s:2335   .text.app_steam_key_deal:00000000 $t
C:\Users\user001\AppData\Local\Temp\ccs5R0uy.s:2342   .text.app_steam_key_deal:00000000 app_steam_key_deal
C:\Users\user001\AppData\Local\Temp\ccs5R0uy.s:2401   .text.app_steam_key_deal:00000038 $d
C:\Users\user001\AppData\Local\Temp\ccs5R0uy.s:2407   .text.app_ame_key_deal:00000000 $t
C:\Users\user001\AppData\Local\Temp\ccs5R0uy.s:2414   .text.app_ame_key_deal:00000000 app_ame_key_deal
C:\Users\user001\AppData\Local\Temp\ccs5R0uy.s:2513   .text.app_ame_key_deal:0000007c $d
C:\Users\user001\AppData\Local\Temp\ccs5R0uy.s:2520   .text.app_coffee_key_deal:00000000 $t
C:\Users\user001\AppData\Local\Temp\ccs5R0uy.s:2527   .text.app_coffee_key_deal:00000000 app_coffee_key_deal
C:\Users\user001\AppData\Local\Temp\ccs5R0uy.s:2637   .text.app_coffee_key_deal:00000084 $d
C:\Users\user001\AppData\Local\Temp\ccs5R0uy.s:2644   .text.app_water_key_deal:00000000 $t
C:\Users\user001\AppData\Local\Temp\ccs5R0uy.s:2651   .text.app_water_key_deal:00000000 app_water_key_deal
C:\Users\user001\AppData\Local\Temp\ccs5R0uy.s:2773   .text.app_water_key_deal:000000a0 $d
C:\Users\user001\AppData\Local\Temp\ccs5R0uy.s:2780   .text.app_calc_key_deal:00000000 $t
C:\Users\user001\AppData\Local\Temp\ccs5R0uy.s:2787   .text.app_calc_key_deal:00000000 app_calc_key_deal
C:\Users\user001\AppData\Local\Temp\ccs5R0uy.s:2846   .text.app_calc_key_deal:00000038 $d
C:\Users\user001\AppData\Local\Temp\ccs5R0uy.s:2852   .text.app_aqua_key_deal:00000000 $t
C:\Users\user001\AppData\Local\Temp\ccs5R0uy.s:2859   .text.app_aqua_key_deal:00000000 app_aqua_key_deal
C:\Users\user001\AppData\Local\Temp\ccs5R0uy.s:2918   .text.app_aqua_key_deal:00000038 $d
C:\Users\user001\AppData\Local\Temp\ccs5R0uy.s:2924   .text.app_pad_key_deal:00000000 $t
C:\Users\user001\AppData\Local\Temp\ccs5R0uy.s:2931   .text.app_pad_key_deal:00000000 app_pad_key_deal
C:\Users\user001\AppData\Local\Temp\ccs5R0uy.s:2961   .text.app_pad_key_deal:00000014 $d
C:\Users\user001\AppData\Local\Temp\ccs5R0uy.s:2966   .text.app_key_handler:00000000 $t
C:\Users\user001\AppData\Local\Temp\ccs5R0uy.s:2973   .text.app_key_handler:00000000 app_key_handler
C:\Users\user001\AppData\Local\Temp\ccs5R0uy.s:3225   .text.app_init_handler:00000000 $t
C:\Users\user001\AppData\Local\Temp\ccs5R0uy.s:3232   .text.app_init_handler:00000000 app_init_handler
C:\Users\user001\AppData\Local\Temp\ccs5R0uy.s:3296   .text.app_init_handler:0000004c $d
C:\Users\user001\AppData\Local\Temp\ccs5R0uy.s:3302   .text.app_idle_handler:00000000 $t
C:\Users\user001\AppData\Local\Temp\ccs5R0uy.s:3309   .text.app_idle_handler:00000000 app_idle_handler
C:\Users\user001\AppData\Local\Temp\ccs5R0uy.s:3354   .text.app_idle_handler:00000030 $d
C:\Users\user001\AppData\Local\Temp\ccs5R0uy.s:3359   .text.app_startup_handler:00000000 $t
C:\Users\user001\AppData\Local\Temp\ccs5R0uy.s:3366   .text.app_startup_handler:00000000 app_startup_handler
C:\Users\user001\AppData\Local\Temp\ccs5R0uy.s:3387   .text.app_startup_handler:00000014 $d
C:\Users\user001\AppData\Local\Temp\ccs5R0uy.s:3404   .text.app_startup_handler:00000058 $t
C:\Users\user001\AppData\Local\Temp\ccs5R0uy.s:3854   .text.app_startup_handler:000002fc $d
C:\Users\user001\AppData\Local\Temp\ccs5R0uy.s:3858   .text.app_startup_handler:00000304 $t
C:\Users\user001\AppData\Local\Temp\ccs5R0uy.s:3936   .text.app_startup_handler:00000378 $d
C:\Users\user001\AppData\Local\Temp\ccs5R0uy.s:3941   .text.app_normal_handler:00000000 $t
C:\Users\user001\AppData\Local\Temp\ccs5R0uy.s:3948   .text.app_normal_handler:00000000 app_normal_handler
C:\Users\user001\AppData\Local\Temp\ccs5R0uy.s:3969   .text.app_normal_handler:00000014 $d
C:\Users\user001\AppData\Local\Temp\ccs5R0uy.s:3982   .text.app_normal_handler:00000048 $t
C:\Users\user001\AppData\Local\Temp\ccs5R0uy.s:4201   .text.app_normal_handler:000001ac $d
C:\Users\user001\AppData\Local\Temp\ccs5R0uy.s:4207   .text.app_espresso_handler:00000000 $t
C:\Users\user001\AppData\Local\Temp\ccs5R0uy.s:4214   .text.app_espresso_handler:00000000 app_espresso_handler
C:\Users\user001\AppData\Local\Temp\ccs5R0uy.s:4235   .text.app_espresso_handler:00000014 $d
C:\Users\user001\AppData\Local\Temp\ccs5R0uy.s:4256   .text.app_espresso_handler:00000068 $t
C:\Users\user001\AppData\Local\Temp\ccs5R0uy.s:4692   .text.app_espresso_handler:000002fc $d
C:\Users\user001\AppData\Local\Temp\ccs5R0uy.s:4699   .text.app_espresso_handler:00000310 $t
C:\Users\user001\AppData\Local\Temp\ccs5R0uy.s:4910   .text.app_espresso_handler:0000043c $d
C:\Users\user001\AppData\Local\Temp\ccs5R0uy.s:4919   .text.app_american_handler:00000000 $t
C:\Users\user001\AppData\Local\Temp\ccs5R0uy.s:4926   .text.app_american_handler:00000000 app_american_handler
C:\Users\user001\AppData\Local\Temp\ccs5R0uy.s:4947   .text.app_american_handler:00000014 $d
C:\Users\user001\AppData\Local\Temp\ccs5R0uy.s:4981   .text.app_american_handler:0000009c $t
C:\Users\user001\AppData\Local\Temp\ccs5R0uy.s:5382   .text.app_american_handler:000002fc $d
C:\Users\user001\AppData\Local\Temp\ccs5R0uy.s:5389   .text.app_american_handler:00000310 $t
C:\Users\user001\AppData\Local\Temp\ccs5R0uy.s:5855   .text.app_american_handler:000005c4 $d
C:\Users\user001\AppData\Local\Temp\ccs5R0uy.s:5865   .text.app_american_handler:000005e4 $t
C:\Users\user001\AppData\Local\Temp\ccs5R0uy.s:5996   .text.app_american_handler:00000698 $d
C:\Users\user001\AppData\Local\Temp\ccs5R0uy.s:6004   .text.app_hotwater_handler:00000000 $t
C:\Users\user001\AppData\Local\Temp\ccs5R0uy.s:6011   .text.app_hotwater_handler:00000000 app_hotwater_handler
C:\Users\user001\AppData\Local\Temp\ccs5R0uy.s:6032   .text.app_hotwater_handler:00000014 $d
C:\Users\user001\AppData\Local\Temp\ccs5R0uy.s:6038   .text.app_hotwater_handler:0000002c $t
C:\Users\user001\AppData\Local\Temp\ccs5R0uy.s:6205   .text.app_hotwater_handler:00000120 $d
C:\Users\user001\AppData\Local\Temp\ccs5R0uy.s:6213   .text.app_steam_handler:00000000 $t
C:\Users\user001\AppData\Local\Temp\ccs5R0uy.s:6220   .text.app_steam_handler:00000000 app_steam_handler
C:\Users\user001\AppData\Local\Temp\ccs5R0uy.s:6267   .text.app_steam_handler:00000034 $d
C:\Users\user001\AppData\Local\Temp\ccs5R0uy.s:6272   .text.app_aqua_handler:00000000 $t
C:\Users\user001\AppData\Local\Temp\ccs5R0uy.s:6279   .text.app_aqua_handler:00000000 app_aqua_handler
C:\Users\user001\AppData\Local\Temp\ccs5R0uy.s:6326   .text.app_aqua_handler:00000034 $d
C:\Users\user001\AppData\Local\Temp\ccs5R0uy.s:6331   .text.app_calc_handler:00000000 $t
C:\Users\user001\AppData\Local\Temp\ccs5R0uy.s:6338   .text.app_calc_handler:00000000 app_calc_handler
C:\Users\user001\AppData\Local\Temp\ccs5R0uy.s:6385   .text.app_calc_handler:00000034 $d
C:\Users\user001\AppData\Local\Temp\ccs5R0uy.s:6390   .text.app_setup_handler:00000000 $t
C:\Users\user001\AppData\Local\Temp\ccs5R0uy.s:6397   .text.app_setup_handler:00000000 app_setup_handler
C:\Users\user001\AppData\Local\Temp\ccs5R0uy.s:6418   .text.app_setup_handler:00000014 $d
C:\Users\user001\AppData\Local\Temp\ccs5R0uy.s:6426   .text.app_setup_handler:00000034 $t
C:\Users\user001\AppData\Local\Temp\ccs5R0uy.s:6655   .text.app_setup_handler:00000178 $d
C:\Users\user001\AppData\Local\Temp\ccs5R0uy.s:6661   .text.app_running_onoff_grind_handler:00000000 $t
C:\Users\user001\AppData\Local\Temp\ccs5R0uy.s:6668   .text.app_running_onoff_grind_handler:00000000 app_running_onoff_grind_handler
C:\Users\user001\AppData\Local\Temp\ccs5R0uy.s:6689   .text.app_running_onoff_grind_handler:00000014 $d
C:\Users\user001\AppData\Local\Temp\ccs5R0uy.s:6700   .text.app_running_onoff_grind_handler:00000040 $t
C:\Users\user001\AppData\Local\Temp\ccs5R0uy.s:6950   .text.app_running_onoff_grind_handler:000001ac $d
C:\Users\user001\AppData\Local\Temp\ccs5R0uy.s:9023   .bss.sta.8839:00000000 sta.8839
C:\Users\user001\AppData\Local\Temp\ccs5R0uy.s:6956   .text.app_running_onoff_go_water_handler:00000000 $t
C:\Users\user001\AppData\Local\Temp\ccs5R0uy.s:6963   .text.app_running_onoff_go_water_handler:00000000 app_running_onoff_go_water_handler
C:\Users\user001\AppData\Local\Temp\ccs5R0uy.s:6984   .text.app_running_onoff_go_water_handler:00000014 $d
C:\Users\user001\AppData\Local\Temp\ccs5R0uy.s:6995   .text.app_running_onoff_go_water_handler:00000040 $t
C:\Users\user001\AppData\Local\Temp\ccs5R0uy.s:7243   .text.app_running_onoff_go_water_handler:000001ac $d
C:\Users\user001\AppData\Local\Temp\ccs5R0uy.s:9028   .bss.sta.8856:00000000 sta.8856
C:\Users\user001\AppData\Local\Temp\ccs5R0uy.s:7249   .text.app_running_onoff_pre_brew_handler:00000000 $t
C:\Users\user001\AppData\Local\Temp\ccs5R0uy.s:7256   .text.app_running_onoff_pre_brew_handler:00000000 app_running_onoff_pre_brew_handler
C:\Users\user001\AppData\Local\Temp\ccs5R0uy.s:7277   .text.app_running_onoff_pre_brew_handler:00000014 $d
C:\Users\user001\AppData\Local\Temp\ccs5R0uy.s:7286   .text.app_running_onoff_pre_brew_handler:00000038 $t
C:\Users\user001\AppData\Local\Temp\ccs5R0uy.s:7475   .text.app_running_onoff_pre_brew_handler:0000014c $d
C:\Users\user001\AppData\Local\Temp\ccs5R0uy.s:9033   .bss.sta.8873:00000000 sta.8873
C:\Users\user001\AppData\Local\Temp\ccs5R0uy.s:7481   .text.app_running_onoff_brew_handler:00000000 $t
C:\Users\user001\AppData\Local\Temp\ccs5R0uy.s:7488   .text.app_running_onoff_brew_handler:00000000 app_running_onoff_brew_handler
C:\Users\user001\AppData\Local\Temp\ccs5R0uy.s:7509   .text.app_running_onoff_brew_handler:00000014 $d
C:\Users\user001\AppData\Local\Temp\ccs5R0uy.s:7516   .text.app_running_onoff_brew_handler:00000030 $t
C:\Users\user001\AppData\Local\Temp\ccs5R0uy.s:7680   .text.app_running_onoff_brew_handler:0000011c $d
C:\Users\user001\AppData\Local\Temp\ccs5R0uy.s:9038   .bss.sta.8888:00000000 sta.8888
C:\Users\user001\AppData\Local\Temp\ccs5R0uy.s:7686   .text.app_running_onoff_drop_beans_handler:00000000 $t
C:\Users\user001\AppData\Local\Temp\ccs5R0uy.s:7693   .text.app_running_onoff_drop_beans_handler:00000000 app_running_onoff_drop_beans_handler
C:\Users\user001\AppData\Local\Temp\ccs5R0uy.s:7714   .text.app_running_onoff_drop_beans_handler:00000014 $d
C:\Users\user001\AppData\Local\Temp\ccs5R0uy.s:7722   .text.app_running_onoff_drop_beans_handler:00000034 $t
C:\Users\user001\AppData\Local\Temp\ccs5R0uy.s:7920   .text.app_running_onoff_drop_beans_handler:00000144 $d
C:\Users\user001\AppData\Local\Temp\ccs5R0uy.s:9043   .bss.sta.8901:00000000 sta.8901
C:\Users\user001\AppData\Local\Temp\ccs5R0uy.s:7927   .text.app_running_onoff_rst_handler:00000000 $t
C:\Users\user001\AppData\Local\Temp\ccs5R0uy.s:7934   .text.app_running_onoff_rst_handler:00000000 app_running_onoff_rst_handler
C:\Users\user001\AppData\Local\Temp\ccs5R0uy.s:7955   .text.app_running_onoff_rst_handler:00000014 $d
C:\Users\user001\AppData\Local\Temp\ccs5R0uy.s:7960   .text.app_running_onoff_rst_handler:00000028 $t
C:\Users\user001\AppData\Local\Temp\ccs5R0uy.s:8096   .text.app_running_onoff_rst_handler:000000e0 $d
C:\Users\user001\AppData\Local\Temp\ccs5R0uy.s:9048   .bss.sta.8915:00000000 sta.8915
C:\Users\user001\AppData\Local\Temp\ccs5R0uy.s:8102   .text.app_running_onoff_flush_handler:00000000 $t
C:\Users\user001\AppData\Local\Temp\ccs5R0uy.s:8109   .text.app_running_onoff_flush_handler:00000000 app_running_onoff_flush_handler
C:\Users\user001\AppData\Local\Temp\ccs5R0uy.s:8130   .text.app_running_onoff_flush_handler:00000014 $d
C:\Users\user001\AppData\Local\Temp\ccs5R0uy.s:8143   .text.app_running_onoff_flush_handler:00000048 $t
C:\Users\user001\AppData\Local\Temp\ccs5R0uy.s:8486   .text.app_running_onoff_flush_handler:00000240 $d
C:\Users\user001\AppData\Local\Temp\ccs5R0uy.s:9053   .bss.sta.8926:00000000 sta.8926
C:\Users\user001\AppData\Local\Temp\ccs5R0uy.s:8492   .text.app_running_onoff_handler:00000000 $t
C:\Users\user001\AppData\Local\Temp\ccs5R0uy.s:8499   .text.app_running_onoff_handler:00000000 app_running_onoff_handler
C:\Users\user001\AppData\Local\Temp\ccs5R0uy.s:8520   .text.app_running_onoff_handler:00000014 $d
C:\Users\user001\AppData\Local\Temp\ccs5R0uy.s:8529   .text.app_running_onoff_handler:00000038 $t
C:\Users\user001\AppData\Local\Temp\ccs5R0uy.s:8546   .text.app_running_onoff_handler:00000054 $d
C:\Users\user001\AppData\Local\Temp\ccs5R0uy.s:8553   .text.app_running_onoff_handler:00000070 $t
C:\Users\user001\AppData\Local\Temp\ccs5R0uy.s:8775   .text.app_running_onoff_handler:00000184 $d
C:\Users\user001\AppData\Local\Temp\ccs5R0uy.s:8784   .text.init_app_task:00000000 $t
C:\Users\user001\AppData\Local\Temp\ccs5R0uy.s:8791   .text.init_app_task:00000000 init_app_task
C:\Users\user001\AppData\Local\Temp\ccs5R0uy.s:8833   .text.init_app_task:00000028 $d
C:\Users\user001\AppData\Local\Temp\ccs5R0uy.s:8840   .text.app_task_handler:00000000 $t
C:\Users\user001\AppData\Local\Temp\ccs5R0uy.s:8847   .text.app_task_handler:00000000 app_task_handler
C:\Users\user001\AppData\Local\Temp\ccs5R0uy.s:8868   .text.app_task_handler:00000014 $d
C:\Users\user001\AppData\Local\Temp\ccs5R0uy.s:8880   .text.app_task_handler:00000044 $t
C:\Users\user001\AppData\Local\Temp\ccs5R0uy.s:8951   .text.app_task_handler:00000094 $d
C:\Users\user001\AppData\Local\Temp\ccs5R0uy.s:8956   .text.app_event_handler:00000000 $t
C:\Users\user001\AppData\Local\Temp\ccs5R0uy.s:8963   .text.app_event_handler:00000000 app_event_handler
C:\Users\user001\AppData\Local\Temp\ccs5R0uy.s:9015   .text.app_event_handler:00000034 $d
C:\Users\user001\AppData\Local\Temp\ccs5R0uy.s:9024   .bss.sta.8839:00000000 $d
C:\Users\user001\AppData\Local\Temp\ccs5R0uy.s:9029   .bss.sta.8856:00000000 $d
C:\Users\user001\AppData\Local\Temp\ccs5R0uy.s:9034   .bss.sta.8873:00000000 $d
C:\Users\user001\AppData\Local\Temp\ccs5R0uy.s:9039   .bss.sta.8888:00000000 $d
C:\Users\user001\AppData\Local\Temp\ccs5R0uy.s:9044   .bss.sta.8901:00000000 $d
C:\Users\user001\AppData\Local\Temp\ccs5R0uy.s:9049   .bss.sta.8915:00000000 $d
C:\Users\user001\AppData\Local\Temp\ccs5R0uy.s:9054   .bss.sta.8926:00000000 $d
                           .group:00000000 wm4.0.0b2cbd0a579afdcbc37120f4ceb86892
                           .group:00000000 wm4._newlib_version.h.4.9ba035841e762c3308916a0ce96032e7
                           .group:00000000 wm4.newlib.h.18.ac66930cc5dc086504ebba5cc05ab7f1
                           .group:00000000 wm4.ieeefp.h.77.d5685ba212d3ed6e914898d045f873e3
                           .group:00000000 wm4.features.h.22.fad1cec3bc7ff06488171438dbdcfd02
                           .group:00000000 wm4.config.h.220.6cac6a9685cfce5e83c17784171638d9
                           .group:00000000 wm4._ansi.h.31.de524f58584151836e90d8620a16f8e8
                           .group:00000000 wm4.stddef.h.39.144cf5ddcd53cbfdac30259dc1a6c87f
                           .group:00000000 wm4._default_types.h.6.959254cf5f09734ea7516c89e8bb21bd
                           .group:00000000 wm4.lock.h.2.1461d1fff82dffe8bfddc23307f6484f
                           .group:00000000 wm4._types.h.125.5cf8a495f1f7ef36777ad868a1e32068
                           .group:00000000 wm4.stddef.h.155.3588ebfdd1e8c7ede80509bb9c3b8009
                           .group:00000000 wm4._types.h.184.03611d4f6b5bec9997bcf4279eceba07
                           .group:00000000 wm4.reent.h.17.90c2574d4acdcfce933db5cb09ff35fe
                           .group:00000000 wm4.cdefs.h.49.6260d97adb8d27534cbdc0f868b8ea87
                           .group:00000000 wm4.string.h.15.dab3980bf35408a4c507182805e2de3a
                           .group:00000000 wm4.stddef.h.155.ba788add86a0e365f264484f110c3c29
                           .group:00000000 wm4.gd32f30x.h.39.a203e36f89dbb1753b66e1e665732b11
                           .group:00000000 wm4.core_cm4.h.47.434d5634a5df7142236685d6945e71d7
                           .group:00000000 wm4._intsup.h.10.cce27fed8484c08a33f522034c30d2b5
                           .group:00000000 wm4._stdint.h.10.c24fa3af3bc1706662bb5593a907e841
                           .group:00000000 wm4.stdint.h.23.d53047a68f4a85177f80b422d52785ed
                           .group:00000000 wm4.core_cmInstr.h.25.d8165482ef3061013a2fc83e2d85f3d9
                           .group:00000000 wm4.core_cm4_simd.h.43.bf657009d9c246d6ac6e7b120cdd899a
                           .group:00000000 wm4.core_cm4.h.196.6f0a9ac4bbc7fecc10f22e6a71f29e52
                           .group:00000000 wm4.system_gd32f30x.h.38.120525a84dcd3d76a4734e6bcde7b49c
                           .group:00000000 wm4.gd32f30x.h.294.5e6753de52124d3e3ab34f8aafd628cc
                           .group:00000000 wm4.gd32f30x_rcu.h.41.eb7011467c51e1274d4ea5dfbe3b7403
                           .group:00000000 wm4.gd32f30x_adc.h.36.124b47377c29d63ea85a6515ff99e7d0
                           .group:00000000 wm4.gd32f30x_can.h.36.85eb2b9bdffce148e9f2cf53e35a47f8
                           .group:00000000 wm4.gd32f30x_crc.h.36.3e50e7397bf79ecca0d280169ab2b7e1
                           .group:00000000 wm4.gd32f30x_ctc.h.36.42aeab0e42f8a7b6cc58608cdc08a712
                           .group:00000000 wm4.gd32f30x_dac.h.36.f867e713911fc6770d5f38223b88a122
                           .group:00000000 wm4.gd32f30x_dbg.h.36.4d3777753862ded915f1f9e71f4c290a
                           .group:00000000 wm4.gd32f30x_dma.h.36.00aa3536820feed4ebeab0c0060e7723
                           .group:00000000 wm4.gd32f30x_exti.h.36.64affc4e75ae7f53393e90b0bfc38f38
                           .group:00000000 wm4.gd32f30x_fmc.h.37.17b3f65aacec1755989aca30031b6a7c
                           .group:00000000 wm4.gd32f30x_fwdgt.h.36.1e7c1bfe259ede52150f5b1c58591a95
                           .group:00000000 wm4.gd32f30x_gpio.h.36.faffc48a681d1163918cf519d3cc7454
                           .group:00000000 wm4.gd32f30x_i2c.h.36.5765e4fd7e67145781f52c3602fdf526
                           .group:00000000 wm4.gd32f30x_pmu.h.37.9dd0def5d1159a6e20d49fadc0da3d91
                           .group:00000000 wm4.gd32f30x_bkp.h.36.74dcfa31c344ae6ddc6f3a850e1b1f1c
                           .group:00000000 wm4.gd32f30x_rtc.h.37.6e2dc4b1c1143d8443b19d8b8578e187
                           .group:00000000 wm4.gd32f30x_sdio.h.36.6dde0ac1ffebc8ac87750ca48ebf5355
                           .group:00000000 wm4.gd32f30x_spi.h.36.761dbcfdf151612384a2a7e1dfbd70a2
                           .group:00000000 wm4.gd32f30x_timer.h.36.aa3a076608594e31d0be360d6248cd0c
                           .group:00000000 wm4.gd32f30x_usart.h.36.c16033d6419d9317c5e1d5c9a4db894a
                           .group:00000000 wm4.gd32f30x_wwdgt.h.37.074fc90df4806e0bcba242ad61cb154f
                           .group:00000000 wm4.gd32f30x_misc.h.36.ca5ec56efc9d42fdcdbc33fa419c4320
                           .group:00000000 wm4.gd32f30x_enet.h.36.7f39b2eaaae239e349e809a8bdf838ed
                           .group:00000000 wm4.gd32f30x_exmc.h.36.6a5eb51a45aba96edb0f318836bccfc7
                           .group:00000000 wm4.os_lyh_config.h.10.bc2c4655df284899727d3a1ab69fe55d
                           .group:00000000 wm4.os_msg.h.10.a94e4ae0955bd46ca3a4d1a43d60b65d
                           .group:00000000 wm4.os_lyh_core.h.21.da159c9c8e09d857b8c2a987141693aa
                           .group:00000000 wm4.configboard.h.3.5d7999deb151db360ef411cbf30581d9
                           .group:00000000 wm4.keyboard.h.3.89e82c2c5604c80a5d29f84b207feee3
                           .group:00000000 wm4.acmotor.h.19.e32e17b82447380c9631c8ecb160ec50
                           .group:00000000 wm4.dcmotor.h.2.f0e751b97a118431bbabf05c3c943b2b
                           .group:00000000 wm4.display.h.19.4afe06d8dfd6c2f3df25f7cc51049b44
                           .group:00000000 wm4.timer.h.19.a82f4ede3cad5645e78e3c71f10c984d
                           .group:00000000 wm4.usart.h.19.b0b7cc356d4f06c8ed965d5c47dabfa0
                           .group:00000000 wm4.heat.h.3.e369736d2e46d50970c9988935448f3e
                           .group:00000000 wm4.adc.h.19.b7b71ccc5b83f495b1d7f2c83649d46d
                           .group:00000000 wm4.app.h.3.bd859777deff3e713c3d9000297b3b02
                           .group:00000000 wm4.bus.h.3.006a12bb937063aa955474032db251cd
                           .group:00000000 wm4.relay.h.2.68d8ff0db7f3799b00c17eb83273c2f3

UNDEFINED SYMBOLS
gpio_output_bit_get
gpio_bit_write
osal_lyh_over_timer
gd_timer_buz
osal_lyh_kill_over_timer
osal_lyh_restore_task
keyinfo
heat_id
eventMap
target_temp
heat_get_temp
Relay2_OFF
Relay2_ON
display_led
display_get_led
osal_lyh_delay_task
display_init
key_prohibit_setup
dc_motor_ClearFault
dc_motor_Start
dc_motor_GetState
dc_motor_Stop
ac_pumb_start
ac_pumb_stop
memset
ac_grind_start
ac_grind_stop
