   1              		.cpu cortex-m4
   2              		.eabi_attribute 20, 1
   3              		.eabi_attribute 21, 1
   4              		.eabi_attribute 23, 3
   5              		.eabi_attribute 24, 1
   6              		.eabi_attribute 25, 1
   7              		.eabi_attribute 26, 1
   8              		.eabi_attribute 30, 6
   9              		.eabi_attribute 34, 1
  10              		.eabi_attribute 18, 4
  11              		.file	"app.c"
  12              		.text
  13              	.Ltext0:
  14              		.cfi_sections	.debug_frame
  15              		.comm	app_id,1,1
  16              		.comm	app_task_step,1,1
  17              		.comm	app_task_substep,1,1
  18              		.comm	manual_setup,3,4
  19              		.comm	run_max_time,2,2
  20              		.comm	Buzzer_times,1,1
  21              		.comm	Leds_loop_run,1,1
  22              		.comm	cup_loop,1,1
  23              		.comm	turn_off_flag,1,1
  24              		.comm	flush_flag,1,1
  25              		.comm	CERRNT_STATE,1,1
  26              		.comm	drop_beans_time,2,2
  27              		.section	.text.app_virtual_croszero_cbfunc,"ax",%progbits
  28              		.align	1
  29              		.global	app_virtual_croszero_cbfunc
  30              		.arch armv7e-m
  31              		.syntax unified
  32              		.thumb
  33              		.thumb_func
  34              		.fpu softvfp
  36              	app_virtual_croszero_cbfunc:
  37              	.LFB116:
  38              		.file 1 "../app/app.c"
   1:../app/app.c  **** /******************** (C) COPYRIGHT 2017 ST *******************************
   2:../app/app.c  **** * COMPANY:	ST
   3:../app/app.c  **** * DATE:		2024/5
   4:../app/app.c  **** * AUTHOR:	
   5:../app/app.c  **** * IC:		STM32G0B1
   6:../app/app.c  **** *____________________________________________________________________________
   7:../app/app.c  **** * REVISION       V0001		
   8:../app/app.c  **** * SDK Version    SDK_Release_V2.03_0428              
   9:../app/app.c  **** * Date					 		
  10:../app/app.c  **** * Description
  11:../app/app.c  **** *____________________________________________________________________________*/
  12:../app/app.c  **** 
  13:../app/app.c  **** /*_____ I N C L U D E S ____________________________________________________*/
  14:../app/app.c  **** #define _APP_C_
  15:../app/app.c  **** #include <string.h>
  16:../app/app.c  **** #include "gd32f30x.h"
  17:../app/app.c  **** #include "user_apiopt.h"
  18:../app/app.c  **** 
  19:../app/app.c  **** /*_____ M A C R O S ______________________________________________________*/
  20:../app/app.c  **** #define _ON_		1u
  21:../app/app.c  **** #define _OFF_		0u
  22:../app/app.c  **** 
  23:../app/app.c  **** #define MOTOR_FIX_TIME		Ms_300	
  24:../app/app.c  **** 
  25:../app/app.c  **** /*_____ D E F I N I T I O N S ________________________________________________*/
  26:../app/app.c  ****  uint16_t run_max_time;
  27:../app/app.c  ****  uint8_t Buzzer_times;
  28:../app/app.c  ****  uint8_t Leds_loop_run;
  29:../app/app.c  **** 
  30:../app/app.c  **** /************ µ¢░Õó× ***********/
  31:../app/app.c  ****  uint8_t cup_loop;			//µØ»µĢ░ÕŠ¬ńÄ»µ¼ĪµĢ░	0’╝Üx1’╝ī1’╝Üx2
  32:../app/app.c  ****  uint8_t turn_off_flag;		//Õģ│µ£║µĀćÕ┐ŚõĮŹ
  33:../app/app.c  ****  uint8_t flush_flag;		//Õå▓µ┤ŚµĀćÕ┐ŚõĮŹ
  34:../app/app.c  **** enum _RUNNING_STATE CERRNT_STATE;	//ÕĮōÕēŹĶ┐ÉĶĪīńŖČµĆü
  35:../app/app.c  **** uint16_t drop_beans_time;		//ÕēŹÕŠĆõĖóÕÆ¢ÕĢĪµĖŻÕē®õĮÖµŚČķŚ┤
  36:../app/app.c  **** /*_____ F U N C T I O N S __________________________________________________*/
  37:../app/app.c  **** void app_virtual_croszero_cbfunc(void)
  38:../app/app.c  **** {
  39              		.loc 1 38 1
  40              		.cfi_startproc
  41              		@ args = 0, pretend = 0, frame = 0
  42              		@ frame_needed = 1, uses_anonymous_args = 0
  43 0000 80B5     		push	{r7, lr}
  44              		.cfi_def_cfa_offset 8
  45              		.cfi_offset 7, -8
  46              		.cfi_offset 14, -4
  47 0002 00AF     		add	r7, sp, #0
  48              		.cfi_def_cfa_register 7
  39:../app/app.c  **** 	ToggleTest4();
  49              		.loc 1 39 2
  50 0004 4FF40041 		mov	r1, #32768
  51 0008 0A48     		ldr	r0, .L2
  52 000a FFF7FEFF 		bl	gpio_output_bit_get
  53 000e 0346     		mov	r3, r0
  54 0010 C3F10103 		rsb	r3, r3, #1
  55 0014 DBB2     		uxtb	r3, r3
  56 0016 1A46     		mov	r2, r3
  57 0018 4FF40041 		mov	r1, #32768
  58 001c 0548     		ldr	r0, .L2
  59 001e FFF7FEFF 		bl	gpio_bit_write
  40:../app/app.c  **** 	osal_lyh_over_timer(OS_VIRAC_50HZ, Ms_10, app_virtual_croszero_cbfunc);
  60              		.loc 1 40 2
  61 0022 054A     		ldr	r2, .L2+4
  62 0024 0A21     		movs	r1, #10
  63 0026 4FF40040 		mov	r0, #32768
  64 002a FFF7FEFF 		bl	osal_lyh_over_timer
  41:../app/app.c  **** }
  65              		.loc 1 41 1
  66 002e 00BF     		nop
  67 0030 80BD     		pop	{r7, pc}
  68              	.L3:
  69 0032 00BF     		.align	2
  70              	.L2:
  71 0034 00080140 		.word	1073809408
  72 0038 00000000 		.word	app_virtual_croszero_cbfunc
  73              		.cfi_endproc
  74              	.LFE116:
  76              		.section	.text.app_buzon_cbfunc,"ax",%progbits
  77              		.align	1
  78              		.global	app_buzon_cbfunc
  79              		.syntax unified
  80              		.thumb
  81              		.thumb_func
  82              		.fpu softvfp
  84              	app_buzon_cbfunc:
  85              	.LFB117:
  42:../app/app.c  **** 
  43:../app/app.c  **** void app_buzon_cbfunc(void)
  44:../app/app.c  **** {
  86              		.loc 1 44 1
  87              		.cfi_startproc
  88              		@ args = 0, pretend = 0, frame = 0
  89              		@ frame_needed = 1, uses_anonymous_args = 0
  90 0000 80B5     		push	{r7, lr}
  91              		.cfi_def_cfa_offset 8
  92              		.cfi_offset 7, -8
  93              		.cfi_offset 14, -4
  94 0002 00AF     		add	r7, sp, #0
  95              		.cfi_def_cfa_register 7
  45:../app/app.c  **** 	if (--Buzzer_times) {
  96              		.loc 1 45 6
  97 0004 094B     		ldr	r3, .L7
  98 0006 1B78     		ldrb	r3, [r3]	@ zero_extendqisi2
  99 0008 013B     		subs	r3, r3, #1
 100 000a DAB2     		uxtb	r2, r3
 101              		.loc 1 45 5
 102 000c 074B     		ldr	r3, .L7
 103 000e 1A70     		strb	r2, [r3]
 104              		.loc 1 45 6
 105 0010 064B     		ldr	r3, .L7
 106 0012 1B78     		ldrb	r3, [r3]	@ zero_extendqisi2
 107              		.loc 1 45 5
 108 0014 002B     		cmp	r3, #0
 109 0016 07D0     		beq	.L6
  46:../app/app.c  **** 		gd_timer_buz(_ON_);
 110              		.loc 1 46 3
 111 0018 0120     		movs	r0, #1
 112 001a FFF7FEFF 		bl	gd_timer_buz
  47:../app/app.c  **** 		osal_lyh_over_timer(OS_TONE_TIME, Ms_80, app_buzoff_cbfunc);
 113              		.loc 1 47 3
 114 001e 044A     		ldr	r2, .L7+4
 115 0020 5021     		movs	r1, #80
 116 0022 0120     		movs	r0, #1
 117 0024 FFF7FEFF 		bl	osal_lyh_over_timer
 118              	.L6:
  48:../app/app.c  **** 	}
  49:../app/app.c  **** }
 119              		.loc 1 49 1
 120 0028 00BF     		nop
 121 002a 80BD     		pop	{r7, pc}
 122              	.L8:
 123              		.align	2
 124              	.L7:
 125 002c 00000000 		.word	Buzzer_times
 126 0030 00000000 		.word	app_buzoff_cbfunc
 127              		.cfi_endproc
 128              	.LFE117:
 130              		.section	.text.app_buzoff_cbfunc,"ax",%progbits
 131              		.align	1
 132              		.global	app_buzoff_cbfunc
 133              		.syntax unified
 134              		.thumb
 135              		.thumb_func
 136              		.fpu softvfp
 138              	app_buzoff_cbfunc:
 139              	.LFB118:
  50:../app/app.c  **** 
  51:../app/app.c  **** void app_buzoff_cbfunc(void)
  52:../app/app.c  **** {
 140              		.loc 1 52 1
 141              		.cfi_startproc
 142              		@ args = 0, pretend = 0, frame = 0
 143              		@ frame_needed = 1, uses_anonymous_args = 0
 144 0000 80B5     		push	{r7, lr}
 145              		.cfi_def_cfa_offset 8
 146              		.cfi_offset 7, -8
 147              		.cfi_offset 14, -4
 148 0002 00AF     		add	r7, sp, #0
 149              		.cfi_def_cfa_register 7
  53:../app/app.c  **** 	gd_timer_buz(_OFF_);
 150              		.loc 1 53 2
 151 0004 0020     		movs	r0, #0
 152 0006 FFF7FEFF 		bl	gd_timer_buz
  54:../app/app.c  **** 	osal_lyh_over_timer(OS_TONE_TIME, Ms_80, app_buzon_cbfunc);
 153              		.loc 1 54 2
 154 000a 034A     		ldr	r2, .L10
 155 000c 5021     		movs	r1, #80
 156 000e 0120     		movs	r0, #1
 157 0010 FFF7FEFF 		bl	osal_lyh_over_timer
  55:../app/app.c  **** }
 158              		.loc 1 55 1
 159 0014 00BF     		nop
 160 0016 80BD     		pop	{r7, pc}
 161              	.L11:
 162              		.align	2
 163              	.L10:
 164 0018 00000000 		.word	app_buzon_cbfunc
 165              		.cfi_endproc
 166              	.LFE118:
 168              		.section	.text.app_buzzer_on,"ax",%progbits
 169              		.align	1
 170              		.global	app_buzzer_on
 171              		.syntax unified
 172              		.thumb
 173              		.thumb_func
 174              		.fpu softvfp
 176              	app_buzzer_on:
 177              	.LFB119:
  56:../app/app.c  **** 
  57:../app/app.c  **** void app_buzzer_on(uint8_t time)
  58:../app/app.c  **** {
 178              		.loc 1 58 1
 179              		.cfi_startproc
 180              		@ args = 0, pretend = 0, frame = 8
 181              		@ frame_needed = 1, uses_anonymous_args = 0
 182 0000 80B5     		push	{r7, lr}
 183              		.cfi_def_cfa_offset 8
 184              		.cfi_offset 7, -8
 185              		.cfi_offset 14, -4
 186 0002 82B0     		sub	sp, sp, #8
 187              		.cfi_def_cfa_offset 16
 188 0004 00AF     		add	r7, sp, #0
 189              		.cfi_def_cfa_register 7
 190 0006 0346     		mov	r3, r0
 191 0008 FB71     		strb	r3, [r7, #7]
  59:../app/app.c  **** 	if (time) {
 192              		.loc 1 59 5
 193 000a FB79     		ldrb	r3, [r7, #7]	@ zero_extendqisi2
 194 000c 002B     		cmp	r3, #0
 195 000e 0BD0     		beq	.L13
  60:../app/app.c  **** 		Buzzer_times = time;
 196              		.loc 1 60 16
 197 0010 0A4A     		ldr	r2, .L16
 198 0012 FB79     		ldrb	r3, [r7, #7]
 199 0014 1370     		strb	r3, [r2]
  61:../app/app.c  **** 		gd_timer_buz(_ON_);
 200              		.loc 1 61 3
 201 0016 0120     		movs	r0, #1
 202 0018 FFF7FEFF 		bl	gd_timer_buz
  62:../app/app.c  **** 		osal_lyh_over_timer(OS_TONE_TIME, Ms_80, app_buzoff_cbfunc);
 203              		.loc 1 62 3
 204 001c 084A     		ldr	r2, .L16+4
 205 001e 5021     		movs	r1, #80
 206 0020 0120     		movs	r0, #1
 207 0022 FFF7FEFF 		bl	osal_lyh_over_timer
  63:../app/app.c  **** 	}
  64:../app/app.c  **** 	else {
  65:../app/app.c  **** 		gd_timer_buz(_OFF_);
  66:../app/app.c  **** 		osal_lyh_kill_over_timer(OS_TONE_TIME);
  67:../app/app.c  **** 	}
  68:../app/app.c  **** }
 208              		.loc 1 68 1
 209 0026 05E0     		b	.L15
 210              	.L13:
  65:../app/app.c  **** 		osal_lyh_kill_over_timer(OS_TONE_TIME);
 211              		.loc 1 65 3
 212 0028 0020     		movs	r0, #0
 213 002a FFF7FEFF 		bl	gd_timer_buz
  66:../app/app.c  **** 	}
 214              		.loc 1 66 3
 215 002e 0120     		movs	r0, #1
 216 0030 FFF7FEFF 		bl	osal_lyh_kill_over_timer
 217              	.L15:
 218              		.loc 1 68 1
 219 0034 00BF     		nop
 220 0036 0837     		adds	r7, r7, #8
 221              		.cfi_def_cfa_offset 8
 222 0038 BD46     		mov	sp, r7
 223              		.cfi_def_cfa_register 13
 224              		@ sp needed
 225 003a 80BD     		pop	{r7, pc}
 226              	.L17:
 227              		.align	2
 228              	.L16:
 229 003c 00000000 		.word	Buzzer_times
 230 0040 00000000 		.word	app_buzoff_cbfunc
 231              		.cfi_endproc
 232              	.LFE119:
 234              		.section	.text.app_resource_init,"ax",%progbits
 235              		.align	1
 236              		.global	app_resource_init
 237              		.syntax unified
 238              		.thumb
 239              		.thumb_func
 240              		.fpu softvfp
 242              	app_resource_init:
 243              	.LFB120:
  69:../app/app.c  **** 
  70:../app/app.c  **** void app_resource_init(uint8_t Step)
  71:../app/app.c  **** {
 244              		.loc 1 71 1
 245              		.cfi_startproc
 246              		@ args = 0, pretend = 0, frame = 8
 247              		@ frame_needed = 1, uses_anonymous_args = 0
 248              		@ link register save eliminated.
 249 0000 80B4     		push	{r7}
 250              		.cfi_def_cfa_offset 4
 251              		.cfi_offset 7, -4
 252 0002 83B0     		sub	sp, sp, #12
 253              		.cfi_def_cfa_offset 16
 254 0004 00AF     		add	r7, sp, #0
 255              		.cfi_def_cfa_register 7
 256 0006 0346     		mov	r3, r0
 257 0008 FB71     		strb	r3, [r7, #7]
  72:../app/app.c  **** 	switch(Step){
 258              		.loc 1 72 2
 259 000a FB79     		ldrb	r3, [r7, #7]	@ zero_extendqisi2
 260 000c 013B     		subs	r3, r3, #1
 261 000e 0A2B     		cmp	r3, #10
 262 0010 18D8     		bhi	.L32
 263 0012 01A2     		adr	r2, .L21
 264 0014 52F823F0 		ldr	pc, [r2, r3, lsl #2]
 265              		.p2align 2
 266              	.L21:
 267 0018 45000000 		.word	.L32+1
 268 001c 45000000 		.word	.L32+1
 269 0020 45000000 		.word	.L32+1
 270 0024 45000000 		.word	.L32+1
 271 0028 45000000 		.word	.L32+1
 272 002c 45000000 		.word	.L32+1
 273 0030 45000000 		.word	.L32+1
 274 0034 45000000 		.word	.L32+1
 275 0038 45000000 		.word	.L32+1
 276 003c 45000000 		.word	.L32+1
 277 0040 45000000 		.word	.L32+1
 278              		.p2align 1
 279              	.L32:
  73:../app/app.c  **** 	case APP_IDLE_STATE:
  74:../app/app.c  **** 		break;
  75:../app/app.c  **** 	case APP_STARTUP_STATE:
  76:../app/app.c  **** 	case APP_NORMAL_STATE:
  77:../app/app.c  **** 		break;
  78:../app/app.c  **** 	case APP_ESPRESSO_STATE:
  79:../app/app.c  **** 		break;
  80:../app/app.c  **** 	case APP_AMERICAN_STATE:
  81:../app/app.c  **** 		break;
  82:../app/app.c  **** 	case APP_HOTWATER_STATE:
  83:../app/app.c  **** 		break;
  84:../app/app.c  **** 	case APP_STEAM_STATE:
  85:../app/app.c  **** 		break;
  86:../app/app.c  **** 	case APP_AQUA_STATE:
  87:../app/app.c  **** 		break;
  88:../app/app.c  **** 	case APP_CALC_STATE:
  89:../app/app.c  **** 		break;
  90:../app/app.c  **** 	case APP_SETUP_STATE:
  91:../app/app.c  **** 		break;
  92:../app/app.c  **** 	case APP_RUNNING_ONOFF_STATE:
  93:../app/app.c  **** 		break;
  94:../app/app.c  **** 	default:
  95:../app/app.c  **** 		break;
 280              		.loc 1 95 3
 281 0044 00BF     		nop
  96:../app/app.c  **** 	}
  97:../app/app.c  **** }
 282              		.loc 1 97 1
 283 0046 00BF     		nop
 284 0048 0C37     		adds	r7, r7, #12
 285              		.cfi_def_cfa_offset 4
 286 004a BD46     		mov	sp, r7
 287              		.cfi_def_cfa_register 13
 288              		@ sp needed
 289 004c 80BC     		pop	{r7}
 290              		.cfi_restore 7
 291              		.cfi_def_cfa_offset 0
 292 004e 7047     		bx	lr
 293              		.cfi_endproc
 294              	.LFE120:
 296              		.section	.text.app_resource_free,"ax",%progbits
 297              		.align	1
 298              		.global	app_resource_free
 299              		.syntax unified
 300              		.thumb
 301              		.thumb_func
 302              		.fpu softvfp
 304              	app_resource_free:
 305              	.LFB121:
  98:../app/app.c  **** 
  99:../app/app.c  **** void app_resource_free(uint8_t Step)
 100:../app/app.c  **** {
 306              		.loc 1 100 1
 307              		.cfi_startproc
 308              		@ args = 0, pretend = 0, frame = 8
 309              		@ frame_needed = 1, uses_anonymous_args = 0
 310 0000 80B5     		push	{r7, lr}
 311              		.cfi_def_cfa_offset 8
 312              		.cfi_offset 7, -8
 313              		.cfi_offset 14, -4
 314 0002 82B0     		sub	sp, sp, #8
 315              		.cfi_def_cfa_offset 16
 316 0004 00AF     		add	r7, sp, #0
 317              		.cfi_def_cfa_register 7
 318 0006 0346     		mov	r3, r0
 319 0008 FB71     		strb	r3, [r7, #7]
 101:../app/app.c  **** 	switch(Step){
 320              		.loc 1 101 2
 321 000a FB79     		ldrb	r3, [r7, #7]	@ zero_extendqisi2
 322 000c 013B     		subs	r3, r3, #1
 323 000e 0A2B     		cmp	r3, #10
 324 0010 1CD8     		bhi	.L41
 325 0012 01A2     		adr	r2, .L36
 326 0014 52F823F0 		ldr	pc, [r2, r3, lsl #2]
 327              		.p2align 2
 328              	.L36:
 329 0018 4D000000 		.word	.L41+1
 330 001c 45000000 		.word	.L38+1
 331 0020 45000000 		.word	.L38+1
 332 0024 45000000 		.word	.L38+1
 333 0028 45000000 		.word	.L38+1
 334 002c 45000000 		.word	.L38+1
 335 0030 45000000 		.word	.L38+1
 336 0034 45000000 		.word	.L38+1
 337 0038 45000000 		.word	.L38+1
 338 003c 4D000000 		.word	.L41+1
 339 0040 4D000000 		.word	.L41+1
 340              		.p2align 1
 341              	.L38:
 102:../app/app.c  **** 	case APP_IDLE_STATE:
 103:../app/app.c  **** 		break;
 104:../app/app.c  **** 	case APP_STARTUP_STATE:
 105:../app/app.c  **** 	case APP_NORMAL_STATE:
 106:../app/app.c  **** 	case APP_ESPRESSO_STATE:
 107:../app/app.c  **** 	case APP_AMERICAN_STATE:
 108:../app/app.c  **** 	case APP_HOTWATER_STATE:
 109:../app/app.c  **** 	case APP_STEAM_STATE:
 110:../app/app.c  **** 	case APP_AQUA_STATE:
 111:../app/app.c  **** 	case APP_CALC_STATE:
 112:../app/app.c  **** 		osal_lyh_kill_over_timer(OS_LED_TIME);
 342              		.loc 1 112 3
 343 0044 0220     		movs	r0, #2
 344 0046 FFF7FEFF 		bl	osal_lyh_kill_over_timer
 113:../app/app.c  **** 		break;
 345              		.loc 1 113 3
 346 004a 00E0     		b	.L40
 347              	.L41:
 114:../app/app.c  **** 	case APP_SETUP_STATE:
 115:../app/app.c  **** 		break;
 116:../app/app.c  **** 	case APP_RUNNING_ONOFF_STATE:
 117:../app/app.c  **** 		break;
 118:../app/app.c  **** 	default:
 119:../app/app.c  **** 		break;
 348              		.loc 1 119 3
 349 004c 00BF     		nop
 350              	.L40:
 120:../app/app.c  **** 	}
 121:../app/app.c  **** }
 351              		.loc 1 121 1
 352 004e 00BF     		nop
 353 0050 0837     		adds	r7, r7, #8
 354              		.cfi_def_cfa_offset 8
 355 0052 BD46     		mov	sp, r7
 356              		.cfi_def_cfa_register 13
 357              		@ sp needed
 358 0054 80BD     		pop	{r7, pc}
 359              		.cfi_endproc
 360              	.LFE121:
 362 0056 00BF     		.section	.text.app_task_nextstep,"ax",%progbits
 363              		.align	1
 364              		.global	app_task_nextstep
 365              		.syntax unified
 366              		.thumb
 367              		.thumb_func
 368              		.fpu softvfp
 370              	app_task_nextstep:
 371              	.LFB122:
 122:../app/app.c  **** 
 123:../app/app.c  **** void app_task_nextstep(uint8_t Step, uint8_t suStep)
 124:../app/app.c  **** {
 372              		.loc 1 124 1
 373              		.cfi_startproc
 374              		@ args = 0, pretend = 0, frame = 8
 375              		@ frame_needed = 1, uses_anonymous_args = 0
 376 0000 80B5     		push	{r7, lr}
 377              		.cfi_def_cfa_offset 8
 378              		.cfi_offset 7, -8
 379              		.cfi_offset 14, -4
 380 0002 82B0     		sub	sp, sp, #8
 381              		.cfi_def_cfa_offset 16
 382 0004 00AF     		add	r7, sp, #0
 383              		.cfi_def_cfa_register 7
 384 0006 0346     		mov	r3, r0
 385 0008 0A46     		mov	r2, r1
 386 000a FB71     		strb	r3, [r7, #7]
 387 000c 1346     		mov	r3, r2
 388 000e BB71     		strb	r3, [r7, #6]
 125:../app/app.c  **** 	app_resource_free(app_task_step);
 389              		.loc 1 125 2
 390 0010 0B4B     		ldr	r3, .L43
 391 0012 1B78     		ldrb	r3, [r3]	@ zero_extendqisi2
 392 0014 1846     		mov	r0, r3
 393 0016 FFF7FEFF 		bl	app_resource_free
 126:../app/app.c  **** 	app_resource_init(Step);
 394              		.loc 1 126 2
 395 001a FB79     		ldrb	r3, [r7, #7]	@ zero_extendqisi2
 396 001c 1846     		mov	r0, r3
 397 001e FFF7FEFF 		bl	app_resource_init
 127:../app/app.c  **** 	osal_lyh_restore_task(app_id);
 398              		.loc 1 127 2
 399 0022 084B     		ldr	r3, .L43+4
 400 0024 1B78     		ldrb	r3, [r3]	@ zero_extendqisi2
 401 0026 1846     		mov	r0, r3
 402 0028 FFF7FEFF 		bl	osal_lyh_restore_task
 128:../app/app.c  **** 	app_task_substep = suStep;
 403              		.loc 1 128 19
 404 002c 064A     		ldr	r2, .L43+8
 405 002e BB79     		ldrb	r3, [r7, #6]
 406 0030 1370     		strb	r3, [r2]
 129:../app/app.c  **** 	app_task_step = Step;
 407              		.loc 1 129 16
 408 0032 034A     		ldr	r2, .L43
 409 0034 FB79     		ldrb	r3, [r7, #7]
 410 0036 1370     		strb	r3, [r2]
 130:../app/app.c  **** }
 411              		.loc 1 130 1
 412 0038 00BF     		nop
 413 003a 0837     		adds	r7, r7, #8
 414              		.cfi_def_cfa_offset 8
 415 003c BD46     		mov	sp, r7
 416              		.cfi_def_cfa_register 13
 417              		@ sp needed
 418 003e 80BD     		pop	{r7, pc}
 419              	.L44:
 420              		.align	2
 421              	.L43:
 422 0040 00000000 		.word	app_task_step
 423 0044 00000000 		.word	app_id
 424 0048 00000000 		.word	app_task_substep
 425              		.cfi_endproc
 426              	.LFE122:
 428              		.section	.text.app_task_nextsubstep,"ax",%progbits
 429              		.align	1
 430              		.global	app_task_nextsubstep
 431              		.syntax unified
 432              		.thumb
 433              		.thumb_func
 434              		.fpu softvfp
 436              	app_task_nextsubstep:
 437              	.LFB123:
 131:../app/app.c  **** 
 132:../app/app.c  **** void app_task_nextsubstep(uint8_t suStep)
 133:../app/app.c  **** {
 438              		.loc 1 133 1
 439              		.cfi_startproc
 440              		@ args = 0, pretend = 0, frame = 8
 441              		@ frame_needed = 1, uses_anonymous_args = 0
 442 0000 80B5     		push	{r7, lr}
 443              		.cfi_def_cfa_offset 8
 444              		.cfi_offset 7, -8
 445              		.cfi_offset 14, -4
 446 0002 82B0     		sub	sp, sp, #8
 447              		.cfi_def_cfa_offset 16
 448 0004 00AF     		add	r7, sp, #0
 449              		.cfi_def_cfa_register 7
 450 0006 0346     		mov	r3, r0
 451 0008 FB71     		strb	r3, [r7, #7]
 134:../app/app.c  **** 	osal_lyh_restore_task(app_id);
 452              		.loc 1 134 2
 453 000a 064B     		ldr	r3, .L46
 454 000c 1B78     		ldrb	r3, [r3]	@ zero_extendqisi2
 455 000e 1846     		mov	r0, r3
 456 0010 FFF7FEFF 		bl	osal_lyh_restore_task
 135:../app/app.c  **** 	app_task_substep = suStep;
 457              		.loc 1 135 19
 458 0014 044A     		ldr	r2, .L46+4
 459 0016 FB79     		ldrb	r3, [r7, #7]
 460 0018 1370     		strb	r3, [r2]
 136:../app/app.c  **** }
 461              		.loc 1 136 1
 462 001a 00BF     		nop
 463 001c 0837     		adds	r7, r7, #8
 464              		.cfi_def_cfa_offset 8
 465 001e BD46     		mov	sp, r7
 466              		.cfi_def_cfa_register 13
 467              		@ sp needed
 468 0020 80BD     		pop	{r7, pc}
 469              	.L47:
 470 0022 00BF     		.align	2
 471              	.L46:
 472 0024 00000000 		.word	app_id
 473 0028 00000000 		.word	app_task_substep
 474              		.cfi_endproc
 475              	.LFE123:
 477              		.section	.text.app_water_ready,"ax",%progbits
 478              		.align	1
 479              		.global	app_water_ready
 480              		.syntax unified
 481              		.thumb
 482              		.thumb_func
 483              		.fpu softvfp
 485              	app_water_ready:
 486              	.LFB124:
 137:../app/app.c  **** 
 138:../app/app.c  **** uint8_t app_water_ready(void)
 139:../app/app.c  **** {
 487              		.loc 1 139 1
 488              		.cfi_startproc
 489              		@ args = 0, pretend = 0, frame = 0
 490              		@ frame_needed = 1, uses_anonymous_args = 0
 491              		@ link register save eliminated.
 492 0000 80B4     		push	{r7}
 493              		.cfi_def_cfa_offset 4
 494              		.cfi_offset 7, -4
 495 0002 00AF     		add	r7, sp, #0
 496              		.cfi_def_cfa_register 7
 140:../app/app.c  **** 	return (keyinfo.ulUIOnboardSwitches & WATER_DET_MASK)? TRUE:FAIL;
 497              		.loc 1 140 17
 498 0004 054B     		ldr	r3, .L50
 499 0006 DB69     		ldr	r3, [r3, #28]
 500              		.loc 1 140 61
 501 0008 1B0C     		lsrs	r3, r3, #16
 502 000a DBB2     		uxtb	r3, r3
 503 000c 03F00103 		and	r3, r3, #1
 504 0010 DBB2     		uxtb	r3, r3
 141:../app/app.c  **** }
 505              		.loc 1 141 1
 506 0012 1846     		mov	r0, r3
 507 0014 BD46     		mov	sp, r7
 508              		.cfi_def_cfa_register 13
 509              		@ sp needed
 510 0016 80BC     		pop	{r7}
 511              		.cfi_restore 7
 512              		.cfi_def_cfa_offset 0
 513 0018 7047     		bx	lr
 514              	.L51:
 515 001a 00BF     		.align	2
 516              	.L50:
 517 001c 00000000 		.word	keyinfo
 518              		.cfi_endproc
 519              	.LFE124:
 521              		.section	.text.app_pallet_ready,"ax",%progbits
 522              		.align	1
 523              		.global	app_pallet_ready
 524              		.syntax unified
 525              		.thumb
 526              		.thumb_func
 527              		.fpu softvfp
 529              	app_pallet_ready:
 530              	.LFB125:
 142:../app/app.c  **** 
 143:../app/app.c  **** uint8_t app_pallet_ready(void)
 144:../app/app.c  **** {
 531              		.loc 1 144 1
 532              		.cfi_startproc
 533              		@ args = 0, pretend = 0, frame = 0
 534              		@ frame_needed = 1, uses_anonymous_args = 0
 535              		@ link register save eliminated.
 536 0000 80B4     		push	{r7}
 537              		.cfi_def_cfa_offset 4
 538              		.cfi_offset 7, -4
 539 0002 00AF     		add	r7, sp, #0
 540              		.cfi_def_cfa_register 7
 145:../app/app.c  **** 	return (keyinfo.ulUIOnboardSwitches & PALLET_DET_MASK)? TRUE:FAIL;
 541              		.loc 1 145 17
 542 0004 054B     		ldr	r3, .L54
 543 0006 DB69     		ldr	r3, [r3, #28]
 544              		.loc 1 145 62
 545 0008 DB0A     		lsrs	r3, r3, #11
 546 000a DBB2     		uxtb	r3, r3
 547 000c 03F00103 		and	r3, r3, #1
 548 0010 DBB2     		uxtb	r3, r3
 146:../app/app.c  **** }
 549              		.loc 1 146 1
 550 0012 1846     		mov	r0, r3
 551 0014 BD46     		mov	sp, r7
 552              		.cfi_def_cfa_register 13
 553              		@ sp needed
 554 0016 80BC     		pop	{r7}
 555              		.cfi_restore 7
 556              		.cfi_def_cfa_offset 0
 557 0018 7047     		bx	lr
 558              	.L55:
 559 001a 00BF     		.align	2
 560              	.L54:
 561 001c 00000000 		.word	keyinfo
 562              		.cfi_endproc
 563              	.LFE125:
 565              		.section	.text.app_meter_ready,"ax",%progbits
 566              		.align	1
 567              		.global	app_meter_ready
 568              		.syntax unified
 569              		.thumb
 570              		.thumb_func
 571              		.fpu softvfp
 573              	app_meter_ready:
 574              	.LFB126:
 147:../app/app.c  **** 
 148:../app/app.c  **** uint8_t app_meter_ready(void)
 149:../app/app.c  **** {
 575              		.loc 1 149 1
 576              		.cfi_startproc
 577              		@ args = 0, pretend = 0, frame = 0
 578              		@ frame_needed = 1, uses_anonymous_args = 0
 579              		@ link register save eliminated.
 580 0000 80B4     		push	{r7}
 581              		.cfi_def_cfa_offset 4
 582              		.cfi_offset 7, -4
 583 0002 00AF     		add	r7, sp, #0
 584              		.cfi_def_cfa_register 7
 150:../app/app.c  **** 	return (keyinfo.ulUIOnboardSwitches & METER_DET_MASK)? TRUE:FAIL;
 585              		.loc 1 150 17
 586 0004 054B     		ldr	r3, .L58
 587 0006 DB69     		ldr	r3, [r3, #28]
 588              		.loc 1 150 61
 589 0008 9B0B     		lsrs	r3, r3, #14
 590 000a DBB2     		uxtb	r3, r3
 591 000c 03F00103 		and	r3, r3, #1
 592 0010 DBB2     		uxtb	r3, r3
 151:../app/app.c  **** }
 593              		.loc 1 151 1
 594 0012 1846     		mov	r0, r3
 595 0014 BD46     		mov	sp, r7
 596              		.cfi_def_cfa_register 13
 597              		@ sp needed
 598 0016 80BC     		pop	{r7}
 599              		.cfi_restore 7
 600              		.cfi_def_cfa_offset 0
 601 0018 7047     		bx	lr
 602              	.L59:
 603 001a 00BF     		.align	2
 604              	.L58:
 605 001c 00000000 		.word	keyinfo
 606              		.cfi_endproc
 607              	.LFE126:
 609              		.section	.text.app_motor_ready,"ax",%progbits
 610              		.align	1
 611              		.global	app_motor_ready
 612              		.syntax unified
 613              		.thumb
 614              		.thumb_func
 615              		.fpu softvfp
 617              	app_motor_ready:
 618              	.LFB127:
 152:../app/app.c  **** 
 153:../app/app.c  **** uint8_t app_motor_ready(void)
 154:../app/app.c  **** {
 619              		.loc 1 154 1
 620              		.cfi_startproc
 621              		@ args = 0, pretend = 0, frame = 0
 622              		@ frame_needed = 1, uses_anonymous_args = 0
 623              		@ link register save eliminated.
 624 0000 80B4     		push	{r7}
 625              		.cfi_def_cfa_offset 4
 626              		.cfi_offset 7, -4
 627 0002 00AF     		add	r7, sp, #0
 628              		.cfi_def_cfa_register 7
 155:../app/app.c  **** 	return (!(keyinfo.ulUIOnboardSwitches & MOTOR_DET_MASK))? TRUE:FAIL;
 629              		.loc 1 155 19
 630 0004 064B     		ldr	r3, .L62
 631 0006 DB69     		ldr	r3, [r3, #28]
 632              		.loc 1 155 40
 633 0008 03F40043 		and	r3, r3, #32768
 634              		.loc 1 155 64
 635 000c 002B     		cmp	r3, #0
 636 000e 0CBF     		ite	eq
 637 0010 0123     		moveq	r3, #1
 638 0012 0023     		movne	r3, #0
 639 0014 DBB2     		uxtb	r3, r3
 156:../app/app.c  **** }
 640              		.loc 1 156 1
 641 0016 1846     		mov	r0, r3
 642 0018 BD46     		mov	sp, r7
 643              		.cfi_def_cfa_register 13
 644              		@ sp needed
 645 001a 80BC     		pop	{r7}
 646              		.cfi_restore 7
 647              		.cfi_def_cfa_offset 0
 648 001c 7047     		bx	lr
 649              	.L63:
 650 001e 00BF     		.align	2
 651              	.L62:
 652 0020 00000000 		.word	keyinfo
 653              		.cfi_endproc
 654              	.LFE127:
 656              		.section	.text.app_turn_heat_off,"ax",%progbits
 657              		.align	1
 658              		.global	app_turn_heat_off
 659              		.syntax unified
 660              		.thumb
 661              		.thumb_func
 662              		.fpu softvfp
 664              	app_turn_heat_off:
 665              	.LFB128:
 157:../app/app.c  **** 
 158:../app/app.c  **** void app_turn_heat_off(void)
 159:../app/app.c  **** {
 666              		.loc 1 159 1
 667              		.cfi_startproc
 668              		@ args = 0, pretend = 0, frame = 0
 669              		@ frame_needed = 1, uses_anonymous_args = 0
 670              		@ link register save eliminated.
 671 0000 80B4     		push	{r7}
 672              		.cfi_def_cfa_offset 4
 673              		.cfi_offset 7, -4
 674 0002 00AF     		add	r7, sp, #0
 675              		.cfi_def_cfa_register 7
 160:../app/app.c  **** 	osal_lyh_set_event(heat_id, HEAT_STOP_EVENT);
 676              		.loc 1 160 2
 677 0004 084B     		ldr	r3, .L65
 678 0006 1B78     		ldrb	r3, [r3]	@ zero_extendqisi2
 679 0008 1A46     		mov	r2, r3
 680 000a 084B     		ldr	r3, .L65+4
 681 000c 53F82230 		ldr	r3, [r3, r2, lsl #2]
 682 0010 054A     		ldr	r2, .L65
 683 0012 1278     		ldrb	r2, [r2]	@ zero_extendqisi2
 684 0014 1146     		mov	r1, r2
 685 0016 43F00203 		orr	r3, r3, #2
 686 001a 044A     		ldr	r2, .L65+4
 687 001c 42F82130 		str	r3, [r2, r1, lsl #2]
 161:../app/app.c  **** }
 688              		.loc 1 161 1
 689 0020 00BF     		nop
 690 0022 BD46     		mov	sp, r7
 691              		.cfi_def_cfa_register 13
 692              		@ sp needed
 693 0024 80BC     		pop	{r7}
 694              		.cfi_restore 7
 695              		.cfi_def_cfa_offset 0
 696 0026 7047     		bx	lr
 697              	.L66:
 698              		.align	2
 699              	.L65:
 700 0028 00000000 		.word	heat_id
 701 002c 00000000 		.word	eventMap
 702              		.cfi_endproc
 703              	.LFE128:
 705              		.section	.text.app_turn_heat_on,"ax",%progbits
 706              		.align	1
 707              		.global	app_turn_heat_on
 708              		.syntax unified
 709              		.thumb
 710              		.thumb_func
 711              		.fpu softvfp
 713              	app_turn_heat_on:
 714              	.LFB129:
 162:../app/app.c  **** 
 163:../app/app.c  **** void app_turn_heat_on(uint16_t target)
 164:../app/app.c  **** {
 715              		.loc 1 164 1
 716              		.cfi_startproc
 717              		@ args = 0, pretend = 0, frame = 8
 718              		@ frame_needed = 1, uses_anonymous_args = 0
 719              		@ link register save eliminated.
 720 0000 80B4     		push	{r7}
 721              		.cfi_def_cfa_offset 4
 722              		.cfi_offset 7, -4
 723 0002 83B0     		sub	sp, sp, #12
 724              		.cfi_def_cfa_offset 16
 725 0004 00AF     		add	r7, sp, #0
 726              		.cfi_def_cfa_register 7
 727 0006 0346     		mov	r3, r0
 728 0008 FB80     		strh	r3, [r7, #6]	@ movhi
 165:../app/app.c  **** 	osal_lyh_set_event(heat_id, HEAT_START_EVENT);
 729              		.loc 1 165 2
 730 000a 0B4B     		ldr	r3, .L68
 731 000c 1B78     		ldrb	r3, [r3]	@ zero_extendqisi2
 732 000e 1A46     		mov	r2, r3
 733 0010 0A4B     		ldr	r3, .L68+4
 734 0012 53F82230 		ldr	r3, [r3, r2, lsl #2]
 735 0016 084A     		ldr	r2, .L68
 736 0018 1278     		ldrb	r2, [r2]	@ zero_extendqisi2
 737 001a 1146     		mov	r1, r2
 738 001c 43F00103 		orr	r3, r3, #1
 739 0020 064A     		ldr	r2, .L68+4
 740 0022 42F82130 		str	r3, [r2, r1, lsl #2]
 166:../app/app.c  **** 	target_temp = target;
 741              		.loc 1 166 14
 742 0026 064A     		ldr	r2, .L68+8
 743 0028 FB88     		ldrh	r3, [r7, #6]	@ movhi
 744 002a 1380     		strh	r3, [r2]	@ movhi
 167:../app/app.c  **** }
 745              		.loc 1 167 1
 746 002c 00BF     		nop
 747 002e 0C37     		adds	r7, r7, #12
 748              		.cfi_def_cfa_offset 4
 749 0030 BD46     		mov	sp, r7
 750              		.cfi_def_cfa_register 13
 751              		@ sp needed
 752 0032 80BC     		pop	{r7}
 753              		.cfi_restore 7
 754              		.cfi_def_cfa_offset 0
 755 0034 7047     		bx	lr
 756              	.L69:
 757 0036 00BF     		.align	2
 758              	.L68:
 759 0038 00000000 		.word	heat_id
 760 003c 00000000 		.word	eventMap
 761 0040 00000000 		.word	target_temp
 762              		.cfi_endproc
 763              	.LFE129:
 765              		.section	.text.app_temperature_state,"ax",%progbits
 766              		.align	1
 767              		.global	app_temperature_state
 768              		.syntax unified
 769              		.thumb
 770              		.thumb_func
 771              		.fpu softvfp
 773              	app_temperature_state:
 774              	.LFB130:
 168:../app/app.c  **** 
 169:../app/app.c  **** uint8_t app_temperature_state(uint16_t target)
 170:../app/app.c  **** {
 775              		.loc 1 170 1
 776              		.cfi_startproc
 777              		@ args = 0, pretend = 0, frame = 8
 778              		@ frame_needed = 1, uses_anonymous_args = 0
 779 0000 80B5     		push	{r7, lr}
 780              		.cfi_def_cfa_offset 8
 781              		.cfi_offset 7, -8
 782              		.cfi_offset 14, -4
 783 0002 82B0     		sub	sp, sp, #8
 784              		.cfi_def_cfa_offset 16
 785 0004 00AF     		add	r7, sp, #0
 786              		.cfi_def_cfa_register 7
 787 0006 0346     		mov	r3, r0
 788 0008 FB80     		strh	r3, [r7, #6]	@ movhi
 171:../app/app.c  **** 	return heat_get_temp(target);
 789              		.loc 1 171 9
 790 000a FB88     		ldrh	r3, [r7, #6]
 791 000c 1846     		mov	r0, r3
 792 000e FFF7FEFF 		bl	heat_get_temp
 793 0012 0346     		mov	r3, r0
 172:../app/app.c  **** }
 794              		.loc 1 172 1
 795 0014 1846     		mov	r0, r3
 796 0016 0837     		adds	r7, r7, #8
 797              		.cfi_def_cfa_offset 8
 798 0018 BD46     		mov	sp, r7
 799              		.cfi_def_cfa_register 13
 800              		@ sp needed
 801 001a 80BD     		pop	{r7, pc}
 802              		.cfi_endproc
 803              	.LFE130:
 805              		.section	.text.app_relay_set,"ax",%progbits
 806              		.align	1
 807              		.global	app_relay_set
 808              		.syntax unified
 809              		.thumb
 810              		.thumb_func
 811              		.fpu softvfp
 813              	app_relay_set:
 814              	.LFB131:
 173:../app/app.c  **** 
 174:../app/app.c  **** void app_relay_set(uint8_t MODE)
 175:../app/app.c  **** {
 815              		.loc 1 175 1
 816              		.cfi_startproc
 817              		@ args = 0, pretend = 0, frame = 8
 818              		@ frame_needed = 1, uses_anonymous_args = 0
 819 0000 80B5     		push	{r7, lr}
 820              		.cfi_def_cfa_offset 8
 821              		.cfi_offset 7, -8
 822              		.cfi_offset 14, -4
 823 0002 82B0     		sub	sp, sp, #8
 824              		.cfi_def_cfa_offset 16
 825 0004 00AF     		add	r7, sp, #0
 826              		.cfi_def_cfa_register 7
 827 0006 0346     		mov	r3, r0
 828 0008 FB71     		strb	r3, [r7, #7]
 176:../app/app.c  **** 	if(MODE == COFFEE_MODE){
 829              		.loc 1 176 4
 830 000a FB79     		ldrb	r3, [r7, #7]	@ zero_extendqisi2
 831 000c 002B     		cmp	r3, #0
 832 000e 02D1     		bne	.L73
 177:../app/app.c  **** 		Relay2_OFF();
 833              		.loc 1 177 3
 834 0010 FFF7FEFF 		bl	Relay2_OFF
 178:../app/app.c  **** 	}
 179:../app/app.c  **** 	else if(MODE == WATER_MODE){
 180:../app/app.c  **** 		Relay2_ON();
 181:../app/app.c  **** 	}
 182:../app/app.c  **** }
 835              		.loc 1 182 1
 836 0014 04E0     		b	.L75
 837              	.L73:
 179:../app/app.c  **** 		Relay2_ON();
 838              		.loc 1 179 9
 839 0016 FB79     		ldrb	r3, [r7, #7]	@ zero_extendqisi2
 840 0018 012B     		cmp	r3, #1
 841 001a 01D1     		bne	.L75
 180:../app/app.c  **** 	}
 842              		.loc 1 180 3
 843 001c FFF7FEFF 		bl	Relay2_ON
 844              	.L75:
 845              		.loc 1 182 1
 846 0020 00BF     		nop
 847 0022 0837     		adds	r7, r7, #8
 848              		.cfi_def_cfa_offset 8
 849 0024 BD46     		mov	sp, r7
 850              		.cfi_def_cfa_register 13
 851              		@ sp needed
 852 0026 80BD     		pop	{r7, pc}
 853              		.cfi_endproc
 854              	.LFE131:
 856              		.section	.text.app_step_state,"ax",%progbits
 857              		.align	1
 858              		.global	app_step_state
 859              		.syntax unified
 860              		.thumb
 861              		.thumb_func
 862              		.fpu softvfp
 864              	app_step_state:
 865              	.LFB132:
 183:../app/app.c  **** 
 184:../app/app.c  **** uint8_t app_step_state(uint8_t step)
 185:../app/app.c  **** {
 866              		.loc 1 185 1
 867              		.cfi_startproc
 868              		@ args = 0, pretend = 0, frame = 8
 869              		@ frame_needed = 1, uses_anonymous_args = 0
 870              		@ link register save eliminated.
 871 0000 80B4     		push	{r7}
 872              		.cfi_def_cfa_offset 4
 873              		.cfi_offset 7, -4
 874 0002 83B0     		sub	sp, sp, #12
 875              		.cfi_def_cfa_offset 16
 876 0004 00AF     		add	r7, sp, #0
 877              		.cfi_def_cfa_register 7
 878 0006 0346     		mov	r3, r0
 879 0008 FB71     		strb	r3, [r7, #7]
 186:../app/app.c  **** 	return (app_task_step == step)? TRUE:FAIL;
 880              		.loc 1 186 38
 881 000a 064B     		ldr	r3, .L78
 882 000c 1B78     		ldrb	r3, [r3]	@ zero_extendqisi2
 883 000e FA79     		ldrb	r2, [r7, #7]	@ zero_extendqisi2
 884 0010 9A42     		cmp	r2, r3
 885 0012 0CBF     		ite	eq
 886 0014 0123     		moveq	r3, #1
 887 0016 0023     		movne	r3, #0
 888 0018 DBB2     		uxtb	r3, r3
 187:../app/app.c  **** }
 889              		.loc 1 187 1
 890 001a 1846     		mov	r0, r3
 891 001c 0C37     		adds	r7, r7, #12
 892              		.cfi_def_cfa_offset 4
 893 001e BD46     		mov	sp, r7
 894              		.cfi_def_cfa_register 13
 895              		@ sp needed
 896 0020 80BC     		pop	{r7}
 897              		.cfi_restore 7
 898              		.cfi_def_cfa_offset 0
 899 0022 7047     		bx	lr
 900              	.L79:
 901              		.align	2
 902              	.L78:
 903 0024 00000000 		.word	app_task_step
 904              		.cfi_endproc
 905              	.LFE132:
 907              		.section	.text.app_led_heat_cbfunc,"ax",%progbits
 908              		.align	1
 909              		.global	app_led_heat_cbfunc
 910              		.syntax unified
 911              		.thumb
 912              		.thumb_func
 913              		.fpu softvfp
 915              	app_led_heat_cbfunc:
 916              	.LFB133:
 188:../app/app.c  **** 
 189:../app/app.c  **** void app_led_heat_cbfunc(void)
 190:../app/app.c  **** {
 917              		.loc 1 190 1
 918              		.cfi_startproc
 919              		@ args = 0, pretend = 0, frame = 8
 920              		@ frame_needed = 1, uses_anonymous_args = 0
 921 0000 80B5     		push	{r7, lr}
 922              		.cfi_def_cfa_offset 8
 923              		.cfi_offset 7, -8
 924              		.cfi_offset 14, -4
 925 0002 82B0     		sub	sp, sp, #8
 926              		.cfi_def_cfa_offset 16
 927 0004 00AF     		add	r7, sp, #0
 928              		.cfi_def_cfa_register 7
 191:../app/app.c  **** 	uint8_t i, led_id[] = {ESPRESSO1_LED, AMERICANO1_LED, STEAM_LED, HOT_WATER};
 929              		.loc 1 191 13
 930 0006 1F4B     		ldr	r3, .L84
 931 0008 3B60     		str	r3, [r7]
 192:../app/app.c  **** 
 193:../app/app.c  **** 	for (i = 0; i<sizeof(led_id); i++){
 932              		.loc 1 193 9
 933 000a 0023     		movs	r3, #0
 934 000c FB71     		strb	r3, [r7, #7]
 935              		.loc 1 193 2
 936 000e 16E0     		b	.L81
 937              	.L82:
 194:../app/app.c  **** 		display_led(led_id[i], (Leds_loop_run & (1<<i))? LED_ON:LED_OFF);
 938              		.loc 1 194 3 discriminator 3
 939 0010 FB79     		ldrb	r3, [r7, #7]	@ zero_extendqisi2
 940 0012 07F10802 		add	r2, r7, #8
 941 0016 1344     		add	r3, r3, r2
 942 0018 13F8082C 		ldrb	r2, [r3, #-8]	@ zero_extendqisi2
 943              		.loc 1 194 50 discriminator 3
 944 001c 1A4B     		ldr	r3, .L84+4
 945 001e 1B78     		ldrb	r3, [r3]	@ zero_extendqisi2
 946 0020 1946     		mov	r1, r3
 947 0022 FB79     		ldrb	r3, [r7, #7]	@ zero_extendqisi2
 948 0024 41FA03F3 		asr	r3, r1, r3
 949              		.loc 1 194 58 discriminator 3
 950 0028 DBB2     		uxtb	r3, r3
 951              		.loc 1 194 3 discriminator 3
 952 002a 03F00103 		and	r3, r3, #1
 953 002e DBB2     		uxtb	r3, r3
 954 0030 1946     		mov	r1, r3
 955 0032 1046     		mov	r0, r2
 956 0034 FFF7FEFF 		bl	display_led
 193:../app/app.c  **** 		display_led(led_id[i], (Leds_loop_run & (1<<i))? LED_ON:LED_OFF);
 957              		.loc 1 193 33 discriminator 3
 958 0038 FB79     		ldrb	r3, [r7, #7]	@ zero_extendqisi2
 959 003a 0133     		adds	r3, r3, #1
 960 003c FB71     		strb	r3, [r7, #7]
 961              	.L81:
 193:../app/app.c  **** 		display_led(led_id[i], (Leds_loop_run & (1<<i))? LED_ON:LED_OFF);
 962              		.loc 1 193 2 discriminator 1
 963 003e FB79     		ldrb	r3, [r7, #7]	@ zero_extendqisi2
 964 0040 032B     		cmp	r3, #3
 965 0042 E5D9     		bls	.L82
 195:../app/app.c  **** 	}
 196:../app/app.c  **** 	Leds_loop_run <<= 1;
 966              		.loc 1 196 16
 967 0044 104B     		ldr	r3, .L84+4
 968 0046 1B78     		ldrb	r3, [r3]	@ zero_extendqisi2
 969 0048 5B00     		lsls	r3, r3, #1
 970 004a DAB2     		uxtb	r2, r3
 971 004c 0E4B     		ldr	r3, .L84+4
 972 004e 1A70     		strb	r2, [r3]
 197:../app/app.c  **** 	if (Leds_loop_run & (1<<i)) {
 973              		.loc 1 197 6
 974 0050 0D4B     		ldr	r3, .L84+4
 975 0052 1B78     		ldrb	r3, [r3]	@ zero_extendqisi2
 976 0054 1A46     		mov	r2, r3
 977 0056 FB79     		ldrb	r3, [r7, #7]	@ zero_extendqisi2
 978 0058 42FA03F3 		asr	r3, r2, r3
 979 005c 03F00103 		and	r3, r3, #1
 980              		.loc 1 197 5
 981 0060 002B     		cmp	r3, #0
 982 0062 05D0     		beq	.L83
 198:../app/app.c  **** 		Leds_loop_run++;
 983              		.loc 1 198 16
 984 0064 084B     		ldr	r3, .L84+4
 985 0066 1B78     		ldrb	r3, [r3]	@ zero_extendqisi2
 986 0068 0133     		adds	r3, r3, #1
 987 006a DAB2     		uxtb	r2, r3
 988 006c 064B     		ldr	r3, .L84+4
 989 006e 1A70     		strb	r2, [r3]
 990              	.L83:
 199:../app/app.c  **** 	}
 200:../app/app.c  **** 	osal_lyh_over_timer(OS_LED_TIME, Ms_500, app_led_heat_cbfunc);
 991              		.loc 1 200 2
 992 0070 064A     		ldr	r2, .L84+8
 993 0072 4FF4FA71 		mov	r1, #500
 994 0076 0220     		movs	r0, #2
 995 0078 FFF7FEFF 		bl	osal_lyh_over_timer
 201:../app/app.c  **** }
 996              		.loc 1 201 1
 997 007c 00BF     		nop
 998 007e 0837     		adds	r7, r7, #8
 999              		.cfi_def_cfa_offset 8
 1000 0080 BD46     		mov	sp, r7
 1001              		.cfi_def_cfa_register 13
 1002              		@ sp needed
 1003 0082 80BD     		pop	{r7, pc}
 1004              	.L85:
 1005              		.align	2
 1006              	.L84:
 1007 0084 0C0F1215 		.word	353505036
 1008 0088 00000000 		.word	Leds_loop_run
 1009 008c 00000000 		.word	app_led_heat_cbfunc
 1010              		.cfi_endproc
 1011              	.LFE133:
 1013              		.section	.text.app_led_show_init,"ax",%progbits
 1014              		.align	1
 1015              		.global	app_led_show_init
 1016              		.syntax unified
 1017              		.thumb
 1018              		.thumb_func
 1019              		.fpu softvfp
 1021              	app_led_show_init:
 1022              	.LFB134:
 202:../app/app.c  **** 
 203:../app/app.c  **** void app_led_show_init(void)
 204:../app/app.c  **** {
 1023              		.loc 1 204 1
 1024              		.cfi_startproc
 1025              		@ args = 0, pretend = 0, frame = 0
 1026              		@ frame_needed = 1, uses_anonymous_args = 0
 1027 0000 80B5     		push	{r7, lr}
 1028              		.cfi_def_cfa_offset 8
 1029              		.cfi_offset 7, -8
 1030              		.cfi_offset 14, -4
 1031 0002 00AF     		add	r7, sp, #0
 1032              		.cfi_def_cfa_register 7
 205:../app/app.c  **** 	Leds_loop_run = 0x03;
 1033              		.loc 1 205 16
 1034 0004 084B     		ldr	r3, .L87
 1035 0006 0322     		movs	r2, #3
 1036 0008 1A70     		strb	r2, [r3]
 206:../app/app.c  **** 	app_leds_all_fun(LED_OFF);
 1037              		.loc 1 206 2
 1038 000a 0020     		movs	r0, #0
 1039 000c FFF7FEFF 		bl	app_leds_all_fun
 207:../app/app.c  **** 	display_led(ESPRESSO1_LED, LED_ON);
 1040              		.loc 1 207 2
 1041 0010 0121     		movs	r1, #1
 1042 0012 0C20     		movs	r0, #12
 1043 0014 FFF7FEFF 		bl	display_led
 208:../app/app.c  **** 	osal_lyh_over_timer(OS_LED_TIME, Ms_500, app_led_heat_cbfunc);
 1044              		.loc 1 208 2
 1045 0018 044A     		ldr	r2, .L87+4
 1046 001a 4FF4FA71 		mov	r1, #500
 1047 001e 0220     		movs	r0, #2
 1048 0020 FFF7FEFF 		bl	osal_lyh_over_timer
 209:../app/app.c  **** }
 1049              		.loc 1 209 1
 1050 0024 00BF     		nop
 1051 0026 80BD     		pop	{r7, pc}
 1052              	.L88:
 1053              		.align	2
 1054              	.L87:
 1055 0028 00000000 		.word	Leds_loop_run
 1056 002c 00000000 		.word	app_led_heat_cbfunc
 1057              		.cfi_endproc
 1058              	.LFE134:
 1060              		.section	.text.app_led_start_cbfunc,"ax",%progbits
 1061              		.align	1
 1062              		.global	app_led_start_cbfunc
 1063              		.syntax unified
 1064              		.thumb
 1065              		.thumb_func
 1066              		.fpu softvfp
 1068              	app_led_start_cbfunc:
 1069              	.LFB135:
 210:../app/app.c  **** 
 211:../app/app.c  **** void app_led_start_cbfunc(void)
 212:../app/app.c  **** {
 1070              		.loc 1 212 1
 1071              		.cfi_startproc
 1072              		@ args = 0, pretend = 0, frame = 0
 1073              		@ frame_needed = 1, uses_anonymous_args = 0
 1074 0000 80B5     		push	{r7, lr}
 1075              		.cfi_def_cfa_offset 8
 1076              		.cfi_offset 7, -8
 1077              		.cfi_offset 14, -4
 1078 0002 00AF     		add	r7, sp, #0
 1079              		.cfi_def_cfa_register 7
 213:../app/app.c  **** 	display_led(START_LED, LED_TOGGLE);
 1080              		.loc 1 213 2
 1081 0004 0221     		movs	r1, #2
 1082 0006 0520     		movs	r0, #5
 1083 0008 FFF7FEFF 		bl	display_led
 214:../app/app.c  **** 	osal_lyh_over_timer(OS_LED_TIME, Ms_500, app_led_start_cbfunc);
 1084              		.loc 1 214 2
 1085 000c 034A     		ldr	r2, .L90
 1086 000e 4FF4FA71 		mov	r1, #500
 1087 0012 0220     		movs	r0, #2
 1088 0014 FFF7FEFF 		bl	osal_lyh_over_timer
 215:../app/app.c  **** }
 1089              		.loc 1 215 1
 1090 0018 00BF     		nop
 1091 001a 80BD     		pop	{r7, pc}
 1092              	.L91:
 1093              		.align	2
 1094              	.L90:
 1095 001c 00000000 		.word	app_led_start_cbfunc
 1096              		.cfi_endproc
 1097              	.LFE135:
 1099              		.section	.text.app_led_start_init,"ax",%progbits
 1100              		.align	1
 1101              		.global	app_led_start_init
 1102              		.syntax unified
 1103              		.thumb
 1104              		.thumb_func
 1105              		.fpu softvfp
 1107              	app_led_start_init:
 1108              	.LFB136:
 216:../app/app.c  **** 
 217:../app/app.c  **** void app_led_start_init(void)
 218:../app/app.c  **** {
 1109              		.loc 1 218 1
 1110              		.cfi_startproc
 1111              		@ args = 0, pretend = 0, frame = 0
 1112              		@ frame_needed = 1, uses_anonymous_args = 0
 1113 0000 80B5     		push	{r7, lr}
 1114              		.cfi_def_cfa_offset 8
 1115              		.cfi_offset 7, -8
 1116              		.cfi_offset 14, -4
 1117 0002 00AF     		add	r7, sp, #0
 1118              		.cfi_def_cfa_register 7
 219:../app/app.c  **** 	display_led(START_LED, LED_ON);
 1119              		.loc 1 219 2
 1120 0004 0121     		movs	r1, #1
 1121 0006 0520     		movs	r0, #5
 1122 0008 FFF7FEFF 		bl	display_led
 220:../app/app.c  **** 	osal_lyh_over_timer(OS_LED_TIME, Ms_500, app_led_start_cbfunc);
 1123              		.loc 1 220 2
 1124 000c 034A     		ldr	r2, .L93
 1125 000e 4FF4FA71 		mov	r1, #500
 1126 0012 0220     		movs	r0, #2
 1127 0014 FFF7FEFF 		bl	osal_lyh_over_timer
 221:../app/app.c  **** }
 1128              		.loc 1 221 1
 1129 0018 00BF     		nop
 1130 001a 80BD     		pop	{r7, pc}
 1131              	.L94:
 1132              		.align	2
 1133              	.L93:
 1134 001c 00000000 		.word	app_led_start_cbfunc
 1135              		.cfi_endproc
 1136              	.LFE136:
 1138              		.section	.text.app_led_espresso_cbfunc,"ax",%progbits
 1139              		.align	1
 1140              		.global	app_led_espresso_cbfunc
 1141              		.syntax unified
 1142              		.thumb
 1143              		.thumb_func
 1144              		.fpu softvfp
 1146              	app_led_espresso_cbfunc:
 1147              	.LFB137:
 222:../app/app.c  **** 
 223:../app/app.c  **** void app_led_espresso_cbfunc(void)
 224:../app/app.c  **** {
 1148              		.loc 1 224 1
 1149              		.cfi_startproc
 1150              		@ args = 0, pretend = 0, frame = 0
 1151              		@ frame_needed = 1, uses_anonymous_args = 0
 1152 0000 80B5     		push	{r7, lr}
 1153              		.cfi_def_cfa_offset 8
 1154              		.cfi_offset 7, -8
 1155              		.cfi_offset 14, -4
 1156 0002 00AF     		add	r7, sp, #0
 1157              		.cfi_def_cfa_register 7
 225:../app/app.c  **** 	//µĀ╣µŹ«µØ»µĢ░µśŠńż║Õ»╣Õ║öńÜäµīćńż║ńü»
 226:../app/app.c  **** 	if(0 == manual_setup.cup){
 1158              		.loc 1 226 22
 1159 0004 0C4B     		ldr	r3, .L98
 1160 0006 1B78     		ldrb	r3, [r3]	@ zero_extendqisi2
 1161              		.loc 1 226 4
 1162 0008 002B     		cmp	r3, #0
 1163 000a 04D1     		bne	.L96
 227:../app/app.c  **** 		display_led(ESPRESSO1_LED, LED_TOGGLE);
 1164              		.loc 1 227 3
 1165 000c 0221     		movs	r1, #2
 1166 000e 0C20     		movs	r0, #12
 1167 0010 FFF7FEFF 		bl	display_led
 1168 0014 07E0     		b	.L97
 1169              	.L96:
 228:../app/app.c  **** 	}
 229:../app/app.c  **** 	else if(1 == manual_setup.cup){
 1170              		.loc 1 229 27
 1171 0016 084B     		ldr	r3, .L98
 1172 0018 1B78     		ldrb	r3, [r3]	@ zero_extendqisi2
 1173              		.loc 1 229 9
 1174 001a 012B     		cmp	r3, #1
 1175 001c 03D1     		bne	.L97
 230:../app/app.c  **** 		display_led(ESPRESSO2_LED, LED_TOGGLE);
 1176              		.loc 1 230 3
 1177 001e 0221     		movs	r1, #2
 1178 0020 0920     		movs	r0, #9
 1179 0022 FFF7FEFF 		bl	display_led
 1180              	.L97:
 231:../app/app.c  **** 	}
 232:../app/app.c  **** 	osal_lyh_over_timer(OS_LED_TIME, Ms_500, app_led_espresso_cbfunc);
 1181              		.loc 1 232 2
 1182 0026 054A     		ldr	r2, .L98+4
 1183 0028 4FF4FA71 		mov	r1, #500
 1184 002c 0220     		movs	r0, #2
 1185 002e FFF7FEFF 		bl	osal_lyh_over_timer
 233:../app/app.c  **** }
 1186              		.loc 1 233 1
 1187 0032 00BF     		nop
 1188 0034 80BD     		pop	{r7, pc}
 1189              	.L99:
 1190 0036 00BF     		.align	2
 1191              	.L98:
 1192 0038 00000000 		.word	manual_setup
 1193 003c 00000000 		.word	app_led_espresso_cbfunc
 1194              		.cfi_endproc
 1195              	.LFE137:
 1197              		.section	.text.app_led_espresso_init,"ax",%progbits
 1198              		.align	1
 1199              		.global	app_led_espresso_init
 1200              		.syntax unified
 1201              		.thumb
 1202              		.thumb_func
 1203              		.fpu softvfp
 1205              	app_led_espresso_init:
 1206              	.LFB138:
 234:../app/app.c  **** 
 235:../app/app.c  **** void app_led_espresso_init(void)
 236:../app/app.c  **** {
 1207              		.loc 1 236 1
 1208              		.cfi_startproc
 1209              		@ args = 0, pretend = 0, frame = 0
 1210              		@ frame_needed = 1, uses_anonymous_args = 0
 1211 0000 80B5     		push	{r7, lr}
 1212              		.cfi_def_cfa_offset 8
 1213              		.cfi_offset 7, -8
 1214              		.cfi_offset 14, -4
 1215 0002 00AF     		add	r7, sp, #0
 1216              		.cfi_def_cfa_register 7
 237:../app/app.c  **** 	//µĀ╣µŹ«µØ»µĢ░µśŠńż║Õ»╣Õ║öńÜäµīćńż║ńü»
 238:../app/app.c  **** 	if(0 == manual_setup.cup){
 1217              		.loc 1 238 22
 1218 0004 0C4B     		ldr	r3, .L103
 1219 0006 1B78     		ldrb	r3, [r3]	@ zero_extendqisi2
 1220              		.loc 1 238 4
 1221 0008 002B     		cmp	r3, #0
 1222 000a 04D1     		bne	.L101
 239:../app/app.c  **** 		display_led(ESPRESSO1_LED, LED_ON);
 1223              		.loc 1 239 3
 1224 000c 0121     		movs	r1, #1
 1225 000e 0C20     		movs	r0, #12
 1226 0010 FFF7FEFF 		bl	display_led
 1227 0014 07E0     		b	.L102
 1228              	.L101:
 240:../app/app.c  **** 	}
 241:../app/app.c  **** 	else if(1 == manual_setup.cup){
 1229              		.loc 1 241 27
 1230 0016 084B     		ldr	r3, .L103
 1231 0018 1B78     		ldrb	r3, [r3]	@ zero_extendqisi2
 1232              		.loc 1 241 9
 1233 001a 012B     		cmp	r3, #1
 1234 001c 03D1     		bne	.L102
 242:../app/app.c  **** 		display_led(ESPRESSO2_LED, LED_ON);
 1235              		.loc 1 242 3
 1236 001e 0121     		movs	r1, #1
 1237 0020 0920     		movs	r0, #9
 1238 0022 FFF7FEFF 		bl	display_led
 1239              	.L102:
 243:../app/app.c  **** 	}
 244:../app/app.c  **** 	osal_lyh_over_timer(OS_LED_TIME, Ms_500, app_led_espresso_cbfunc);
 1240              		.loc 1 244 2
 1241 0026 054A     		ldr	r2, .L103+4
 1242 0028 4FF4FA71 		mov	r1, #500
 1243 002c 0220     		movs	r0, #2
 1244 002e FFF7FEFF 		bl	osal_lyh_over_timer
 245:../app/app.c  **** }
 1245              		.loc 1 245 1
 1246 0032 00BF     		nop
 1247 0034 80BD     		pop	{r7, pc}
 1248              	.L104:
 1249 0036 00BF     		.align	2
 1250              	.L103:
 1251 0038 00000000 		.word	manual_setup
 1252 003c 00000000 		.word	app_led_espresso_cbfunc
 1253              		.cfi_endproc
 1254              	.LFE138:
 1256              		.section	.text.app_led_americano_cbfunc,"ax",%progbits
 1257              		.align	1
 1258              		.global	app_led_americano_cbfunc
 1259              		.syntax unified
 1260              		.thumb
 1261              		.thumb_func
 1262              		.fpu softvfp
 1264              	app_led_americano_cbfunc:
 1265              	.LFB139:
 246:../app/app.c  **** 
 247:../app/app.c  **** void app_led_americano_cbfunc(void)
 248:../app/app.c  **** {
 1266              		.loc 1 248 1
 1267              		.cfi_startproc
 1268              		@ args = 0, pretend = 0, frame = 0
 1269              		@ frame_needed = 1, uses_anonymous_args = 0
 1270 0000 80B5     		push	{r7, lr}
 1271              		.cfi_def_cfa_offset 8
 1272              		.cfi_offset 7, -8
 1273              		.cfi_offset 14, -4
 1274 0002 00AF     		add	r7, sp, #0
 1275              		.cfi_def_cfa_register 7
 249:../app/app.c  **** 	//µĀ╣µŹ«µØ»µĢ░µśŠńż║Õ»╣Õ║öńÜäµīćńż║ńü»
 250:../app/app.c  **** 	if(0 == manual_setup.cup){
 1276              		.loc 1 250 22
 1277 0004 0C4B     		ldr	r3, .L108
 1278 0006 1B78     		ldrb	r3, [r3]	@ zero_extendqisi2
 1279              		.loc 1 250 4
 1280 0008 002B     		cmp	r3, #0
 1281 000a 04D1     		bne	.L106
 251:../app/app.c  **** 		display_led(AMERICANO1_LED, LED_TOGGLE);
 1282              		.loc 1 251 3
 1283 000c 0221     		movs	r1, #2
 1284 000e 0F20     		movs	r0, #15
 1285 0010 FFF7FEFF 		bl	display_led
 1286 0014 07E0     		b	.L107
 1287              	.L106:
 252:../app/app.c  **** 	}
 253:../app/app.c  **** 	else if(1 == manual_setup.cup){
 1288              		.loc 1 253 27
 1289 0016 084B     		ldr	r3, .L108
 1290 0018 1B78     		ldrb	r3, [r3]	@ zero_extendqisi2
 1291              		.loc 1 253 9
 1292 001a 012B     		cmp	r3, #1
 1293 001c 03D1     		bne	.L107
 254:../app/app.c  **** 		display_led(AMERICANO2_LED, LED_TOGGLE);
 1294              		.loc 1 254 3
 1295 001e 0221     		movs	r1, #2
 1296 0020 0620     		movs	r0, #6
 1297 0022 FFF7FEFF 		bl	display_led
 1298              	.L107:
 255:../app/app.c  **** 	}
 256:../app/app.c  **** 	osal_lyh_over_timer(OS_LED_TIME, Ms_500, app_led_americano_cbfunc);
 1299              		.loc 1 256 2
 1300 0026 054A     		ldr	r2, .L108+4
 1301 0028 4FF4FA71 		mov	r1, #500
 1302 002c 0220     		movs	r0, #2
 1303 002e FFF7FEFF 		bl	osal_lyh_over_timer
 257:../app/app.c  **** }
 1304              		.loc 1 257 1
 1305 0032 00BF     		nop
 1306 0034 80BD     		pop	{r7, pc}
 1307              	.L109:
 1308 0036 00BF     		.align	2
 1309              	.L108:
 1310 0038 00000000 		.word	manual_setup
 1311 003c 00000000 		.word	app_led_americano_cbfunc
 1312              		.cfi_endproc
 1313              	.LFE139:
 1315              		.section	.text.app_led_americano_init,"ax",%progbits
 1316              		.align	1
 1317              		.global	app_led_americano_init
 1318              		.syntax unified
 1319              		.thumb
 1320              		.thumb_func
 1321              		.fpu softvfp
 1323              	app_led_americano_init:
 1324              	.LFB140:
 258:../app/app.c  **** 
 259:../app/app.c  **** void app_led_americano_init(void)
 260:../app/app.c  **** {
 1325              		.loc 1 260 1
 1326              		.cfi_startproc
 1327              		@ args = 0, pretend = 0, frame = 0
 1328              		@ frame_needed = 1, uses_anonymous_args = 0
 1329 0000 80B5     		push	{r7, lr}
 1330              		.cfi_def_cfa_offset 8
 1331              		.cfi_offset 7, -8
 1332              		.cfi_offset 14, -4
 1333 0002 00AF     		add	r7, sp, #0
 1334              		.cfi_def_cfa_register 7
 261:../app/app.c  **** 	//µĀ╣µŹ«µØ»µĢ░µśŠńż║Õ»╣Õ║öńÜäµīćńż║ńü»
 262:../app/app.c  **** 	if(0 == manual_setup.cup){
 1335              		.loc 1 262 22
 1336 0004 0C4B     		ldr	r3, .L113
 1337 0006 1B78     		ldrb	r3, [r3]	@ zero_extendqisi2
 1338              		.loc 1 262 4
 1339 0008 002B     		cmp	r3, #0
 1340 000a 04D1     		bne	.L111
 263:../app/app.c  **** 		display_led(AMERICANO1_LED, LED_TOGGLE);
 1341              		.loc 1 263 3
 1342 000c 0221     		movs	r1, #2
 1343 000e 0F20     		movs	r0, #15
 1344 0010 FFF7FEFF 		bl	display_led
 1345 0014 07E0     		b	.L112
 1346              	.L111:
 264:../app/app.c  **** 	}
 265:../app/app.c  **** 	else if(1 == manual_setup.cup){
 1347              		.loc 1 265 27
 1348 0016 084B     		ldr	r3, .L113
 1349 0018 1B78     		ldrb	r3, [r3]	@ zero_extendqisi2
 1350              		.loc 1 265 9
 1351 001a 012B     		cmp	r3, #1
 1352 001c 03D1     		bne	.L112
 266:../app/app.c  **** 		display_led(AMERICANO2_LED, LED_TOGGLE);
 1353              		.loc 1 266 3
 1354 001e 0221     		movs	r1, #2
 1355 0020 0620     		movs	r0, #6
 1356 0022 FFF7FEFF 		bl	display_led
 1357              	.L112:
 267:../app/app.c  **** 	}
 268:../app/app.c  **** 	osal_lyh_over_timer(OS_LED_TIME, Ms_500, app_led_americano_cbfunc);
 1358              		.loc 1 268 2
 1359 0026 054A     		ldr	r2, .L113+4
 1360 0028 4FF4FA71 		mov	r1, #500
 1361 002c 0220     		movs	r0, #2
 1362 002e FFF7FEFF 		bl	osal_lyh_over_timer
 269:../app/app.c  **** }
 1363              		.loc 1 269 1
 1364 0032 00BF     		nop
 1365 0034 80BD     		pop	{r7, pc}
 1366              	.L114:
 1367 0036 00BF     		.align	2
 1368              	.L113:
 1369 0038 00000000 		.word	manual_setup
 1370 003c 00000000 		.word	app_led_americano_cbfunc
 1371              		.cfi_endproc
 1372              	.LFE140:
 1374              		.section	.text.app_led_hotwater_cbfunc,"ax",%progbits
 1375              		.align	1
 1376              		.global	app_led_hotwater_cbfunc
 1377              		.syntax unified
 1378              		.thumb
 1379              		.thumb_func
 1380              		.fpu softvfp
 1382              	app_led_hotwater_cbfunc:
 1383              	.LFB141:
 270:../app/app.c  **** 
 271:../app/app.c  **** void app_led_hotwater_cbfunc(void)
 272:../app/app.c  **** {
 1384              		.loc 1 272 1
 1385              		.cfi_startproc
 1386              		@ args = 0, pretend = 0, frame = 0
 1387              		@ frame_needed = 1, uses_anonymous_args = 0
 1388 0000 80B5     		push	{r7, lr}
 1389              		.cfi_def_cfa_offset 8
 1390              		.cfi_offset 7, -8
 1391              		.cfi_offset 14, -4
 1392 0002 00AF     		add	r7, sp, #0
 1393              		.cfi_def_cfa_register 7
 273:../app/app.c  **** 	display_led(HOT_WATER, LED_TOGGLE);
 1394              		.loc 1 273 2
 1395 0004 0221     		movs	r1, #2
 1396 0006 1520     		movs	r0, #21
 1397 0008 FFF7FEFF 		bl	display_led
 274:../app/app.c  **** 	osal_lyh_over_timer(OS_LED_TIME, Ms_500, app_led_hotwater_cbfunc);
 1398              		.loc 1 274 2
 1399 000c 034A     		ldr	r2, .L116
 1400 000e 4FF4FA71 		mov	r1, #500
 1401 0012 0220     		movs	r0, #2
 1402 0014 FFF7FEFF 		bl	osal_lyh_over_timer
 275:../app/app.c  **** }
 1403              		.loc 1 275 1
 1404 0018 00BF     		nop
 1405 001a 80BD     		pop	{r7, pc}
 1406              	.L117:
 1407              		.align	2
 1408              	.L116:
 1409 001c 00000000 		.word	app_led_hotwater_cbfunc
 1410              		.cfi_endproc
 1411              	.LFE141:
 1413              		.section	.text.app_led_hotwater_init,"ax",%progbits
 1414              		.align	1
 1415              		.global	app_led_hotwater_init
 1416              		.syntax unified
 1417              		.thumb
 1418              		.thumb_func
 1419              		.fpu softvfp
 1421              	app_led_hotwater_init:
 1422              	.LFB142:
 276:../app/app.c  **** 
 277:../app/app.c  **** void app_led_hotwater_init(void)
 278:../app/app.c  **** {
 1423              		.loc 1 278 1
 1424              		.cfi_startproc
 1425              		@ args = 0, pretend = 0, frame = 0
 1426              		@ frame_needed = 1, uses_anonymous_args = 0
 1427 0000 80B5     		push	{r7, lr}
 1428              		.cfi_def_cfa_offset 8
 1429              		.cfi_offset 7, -8
 1430              		.cfi_offset 14, -4
 1431 0002 00AF     		add	r7, sp, #0
 1432              		.cfi_def_cfa_register 7
 279:../app/app.c  **** 	display_led(HOT_WATER, LED_ON);
 1433              		.loc 1 279 2
 1434 0004 0121     		movs	r1, #1
 1435 0006 1520     		movs	r0, #21
 1436 0008 FFF7FEFF 		bl	display_led
 280:../app/app.c  **** 	osal_lyh_over_timer(OS_LED_TIME, Ms_500, app_led_hotwater_cbfunc);
 1437              		.loc 1 280 2
 1438 000c 034A     		ldr	r2, .L119
 1439 000e 4FF4FA71 		mov	r1, #500
 1440 0012 0220     		movs	r0, #2
 1441 0014 FFF7FEFF 		bl	osal_lyh_over_timer
 281:../app/app.c  **** }
 1442              		.loc 1 281 1
 1443 0018 00BF     		nop
 1444 001a 80BD     		pop	{r7, pc}
 1445              	.L120:
 1446              		.align	2
 1447              	.L119:
 1448 001c 00000000 		.word	app_led_hotwater_cbfunc
 1449              		.cfi_endproc
 1450              	.LFE142:
 1452              		.section	.text.app_led_steam_cbfunc,"ax",%progbits
 1453              		.align	1
 1454              		.global	app_led_steam_cbfunc
 1455              		.syntax unified
 1456              		.thumb
 1457              		.thumb_func
 1458              		.fpu softvfp
 1460              	app_led_steam_cbfunc:
 1461              	.LFB143:
 282:../app/app.c  **** 
 283:../app/app.c  **** void app_led_steam_cbfunc(void)
 284:../app/app.c  **** {
 1462              		.loc 1 284 1
 1463              		.cfi_startproc
 1464              		@ args = 0, pretend = 0, frame = 0
 1465              		@ frame_needed = 1, uses_anonymous_args = 0
 1466 0000 80B5     		push	{r7, lr}
 1467              		.cfi_def_cfa_offset 8
 1468              		.cfi_offset 7, -8
 1469              		.cfi_offset 14, -4
 1470 0002 00AF     		add	r7, sp, #0
 1471              		.cfi_def_cfa_register 7
 285:../app/app.c  **** 	display_led(STEAM_LED, LED_TOGGLE);
 1472              		.loc 1 285 2
 1473 0004 0221     		movs	r1, #2
 1474 0006 1220     		movs	r0, #18
 1475 0008 FFF7FEFF 		bl	display_led
 286:../app/app.c  **** 	osal_lyh_over_timer(OS_LED_TIME, Ms_500, app_led_steam_cbfunc);
 1476              		.loc 1 286 2
 1477 000c 034A     		ldr	r2, .L122
 1478 000e 4FF4FA71 		mov	r1, #500
 1479 0012 0220     		movs	r0, #2
 1480 0014 FFF7FEFF 		bl	osal_lyh_over_timer
 287:../app/app.c  **** }
 1481              		.loc 1 287 1
 1482 0018 00BF     		nop
 1483 001a 80BD     		pop	{r7, pc}
 1484              	.L123:
 1485              		.align	2
 1486              	.L122:
 1487 001c 00000000 		.word	app_led_steam_cbfunc
 1488              		.cfi_endproc
 1489              	.LFE143:
 1491              		.section	.text.app_led_steam_init,"ax",%progbits
 1492              		.align	1
 1493              		.global	app_led_steam_init
 1494              		.syntax unified
 1495              		.thumb
 1496              		.thumb_func
 1497              		.fpu softvfp
 1499              	app_led_steam_init:
 1500              	.LFB144:
 288:../app/app.c  **** 
 289:../app/app.c  **** void app_led_steam_init(void)
 290:../app/app.c  **** {
 1501              		.loc 1 290 1
 1502              		.cfi_startproc
 1503              		@ args = 0, pretend = 0, frame = 0
 1504              		@ frame_needed = 1, uses_anonymous_args = 0
 1505 0000 80B5     		push	{r7, lr}
 1506              		.cfi_def_cfa_offset 8
 1507              		.cfi_offset 7, -8
 1508              		.cfi_offset 14, -4
 1509 0002 00AF     		add	r7, sp, #0
 1510              		.cfi_def_cfa_register 7
 291:../app/app.c  **** 	display_led(STEAM_LED, LED_ON);
 1511              		.loc 1 291 2
 1512 0004 0121     		movs	r1, #1
 1513 0006 1220     		movs	r0, #18
 1514 0008 FFF7FEFF 		bl	display_led
 292:../app/app.c  **** 	osal_lyh_over_timer(OS_LED_TIME, Ms_500, app_led_steam_cbfunc);
 1515              		.loc 1 292 2
 1516 000c 034A     		ldr	r2, .L125
 1517 000e 4FF4FA71 		mov	r1, #500
 1518 0012 0220     		movs	r0, #2
 1519 0014 FFF7FEFF 		bl	osal_lyh_over_timer
 293:../app/app.c  **** }
 1520              		.loc 1 293 1
 1521 0018 00BF     		nop
 1522 001a 80BD     		pop	{r7, pc}
 1523              	.L126:
 1524              		.align	2
 1525              	.L125:
 1526 001c 00000000 		.word	app_led_steam_cbfunc
 1527              		.cfi_endproc
 1528              	.LFE144:
 1530              		.section	.text.app_led_aqua_cbfunc,"ax",%progbits
 1531              		.align	1
 1532              		.global	app_led_aqua_cbfunc
 1533              		.syntax unified
 1534              		.thumb
 1535              		.thumb_func
 1536              		.fpu softvfp
 1538              	app_led_aqua_cbfunc:
 1539              	.LFB145:
 294:../app/app.c  **** 
 295:../app/app.c  **** void app_led_aqua_cbfunc(void)
 296:../app/app.c  **** {
 1540              		.loc 1 296 1
 1541              		.cfi_startproc
 1542              		@ args = 0, pretend = 0, frame = 0
 1543              		@ frame_needed = 1, uses_anonymous_args = 0
 1544 0000 80B5     		push	{r7, lr}
 1545              		.cfi_def_cfa_offset 8
 1546              		.cfi_offset 7, -8
 1547              		.cfi_offset 14, -4
 1548 0002 00AF     		add	r7, sp, #0
 1549              		.cfi_def_cfa_register 7
 297:../app/app.c  **** 	display_led(AQUA_CLEAN_LED, LED_TOGGLE);
 1550              		.loc 1 297 2
 1551 0004 0221     		movs	r1, #2
 1552 0006 1120     		movs	r0, #17
 1553 0008 FFF7FEFF 		bl	display_led
 298:../app/app.c  **** 	osal_lyh_over_timer(OS_LED_TIME, Ms_1000, app_led_aqua_cbfunc);
 1554              		.loc 1 298 2
 1555 000c 034A     		ldr	r2, .L128
 1556 000e 4FF47A71 		mov	r1, #1000
 1557 0012 0220     		movs	r0, #2
 1558 0014 FFF7FEFF 		bl	osal_lyh_over_timer
 299:../app/app.c  **** }
 1559              		.loc 1 299 1
 1560 0018 00BF     		nop
 1561 001a 80BD     		pop	{r7, pc}
 1562              	.L129:
 1563              		.align	2
 1564              	.L128:
 1565 001c 00000000 		.word	app_led_aqua_cbfunc
 1566              		.cfi_endproc
 1567              	.LFE145:
 1569              		.section	.text.app_led_aqua_init,"ax",%progbits
 1570              		.align	1
 1571              		.global	app_led_aqua_init
 1572              		.syntax unified
 1573              		.thumb
 1574              		.thumb_func
 1575              		.fpu softvfp
 1577              	app_led_aqua_init:
 1578              	.LFB146:
 300:../app/app.c  **** 
 301:../app/app.c  **** void app_led_aqua_init(void)
 302:../app/app.c  **** {
 1579              		.loc 1 302 1
 1580              		.cfi_startproc
 1581              		@ args = 0, pretend = 0, frame = 0
 1582              		@ frame_needed = 1, uses_anonymous_args = 0
 1583 0000 80B5     		push	{r7, lr}
 1584              		.cfi_def_cfa_offset 8
 1585              		.cfi_offset 7, -8
 1586              		.cfi_offset 14, -4
 1587 0002 00AF     		add	r7, sp, #0
 1588              		.cfi_def_cfa_register 7
 303:../app/app.c  **** 	display_led(AQUA_CLEAN_LED, LED_ON);
 1589              		.loc 1 303 2
 1590 0004 0121     		movs	r1, #1
 1591 0006 1120     		movs	r0, #17
 1592 0008 FFF7FEFF 		bl	display_led
 304:../app/app.c  **** 	osal_lyh_over_timer(OS_LED_TIME, Ms_1000, app_led_aqua_cbfunc);
 1593              		.loc 1 304 2
 1594 000c 034A     		ldr	r2, .L131
 1595 000e 4FF47A71 		mov	r1, #1000
 1596 0012 0220     		movs	r0, #2
 1597 0014 FFF7FEFF 		bl	osal_lyh_over_timer
 305:../app/app.c  **** }
 1598              		.loc 1 305 1
 1599 0018 00BF     		nop
 1600 001a 80BD     		pop	{r7, pc}
 1601              	.L132:
 1602              		.align	2
 1603              	.L131:
 1604 001c 00000000 		.word	app_led_aqua_cbfunc
 1605              		.cfi_endproc
 1606              	.LFE146:
 1608              		.section	.text.app_led_calc_cbfunc,"ax",%progbits
 1609              		.align	1
 1610              		.global	app_led_calc_cbfunc
 1611              		.syntax unified
 1612              		.thumb
 1613              		.thumb_func
 1614              		.fpu softvfp
 1616              	app_led_calc_cbfunc:
 1617              	.LFB147:
 306:../app/app.c  **** 
 307:../app/app.c  **** void app_led_calc_cbfunc(void)
 308:../app/app.c  **** {
 1618              		.loc 1 308 1
 1619              		.cfi_startproc
 1620              		@ args = 0, pretend = 0, frame = 0
 1621              		@ frame_needed = 1, uses_anonymous_args = 0
 1622 0000 80B5     		push	{r7, lr}
 1623              		.cfi_def_cfa_offset 8
 1624              		.cfi_offset 7, -8
 1625              		.cfi_offset 14, -4
 1626 0002 00AF     		add	r7, sp, #0
 1627              		.cfi_def_cfa_register 7
 309:../app/app.c  **** 	display_led(CALC_CLEAN_LED, LED_TOGGLE);
 1628              		.loc 1 309 2
 1629 0004 0221     		movs	r1, #2
 1630 0006 0220     		movs	r0, #2
 1631 0008 FFF7FEFF 		bl	display_led
 310:../app/app.c  **** 	osal_lyh_over_timer(OS_LED_TIME, Ms_1000, app_led_calc_cbfunc);
 1632              		.loc 1 310 2
 1633 000c 034A     		ldr	r2, .L134
 1634 000e 4FF47A71 		mov	r1, #1000
 1635 0012 0220     		movs	r0, #2
 1636 0014 FFF7FEFF 		bl	osal_lyh_over_timer
 311:../app/app.c  **** }
 1637              		.loc 1 311 1
 1638 0018 00BF     		nop
 1639 001a 80BD     		pop	{r7, pc}
 1640              	.L135:
 1641              		.align	2
 1642              	.L134:
 1643 001c 00000000 		.word	app_led_calc_cbfunc
 1644              		.cfi_endproc
 1645              	.LFE147:
 1647              		.section	.text.app_led_calc_init,"ax",%progbits
 1648              		.align	1
 1649              		.global	app_led_calc_init
 1650              		.syntax unified
 1651              		.thumb
 1652              		.thumb_func
 1653              		.fpu softvfp
 1655              	app_led_calc_init:
 1656              	.LFB148:
 312:../app/app.c  **** 
 313:../app/app.c  **** void app_led_calc_init(void)
 314:../app/app.c  **** {
 1657              		.loc 1 314 1
 1658              		.cfi_startproc
 1659              		@ args = 0, pretend = 0, frame = 0
 1660              		@ frame_needed = 1, uses_anonymous_args = 0
 1661 0000 80B5     		push	{r7, lr}
 1662              		.cfi_def_cfa_offset 8
 1663              		.cfi_offset 7, -8
 1664              		.cfi_offset 14, -4
 1665 0002 00AF     		add	r7, sp, #0
 1666              		.cfi_def_cfa_register 7
 315:../app/app.c  **** 	display_led(CALC_CLEAN_LED, LED_ON);
 1667              		.loc 1 315 2
 1668 0004 0121     		movs	r1, #1
 1669 0006 0220     		movs	r0, #2
 1670 0008 FFF7FEFF 		bl	display_led
 316:../app/app.c  **** 	osal_lyh_over_timer(OS_LED_TIME, Ms_1000, app_led_calc_cbfunc);
 1671              		.loc 1 316 2
 1672 000c 034A     		ldr	r2, .L137
 1673 000e 4FF47A71 		mov	r1, #1000
 1674 0012 0220     		movs	r0, #2
 1675 0014 FFF7FEFF 		bl	osal_lyh_over_timer
 317:../app/app.c  **** }
 1676              		.loc 1 317 1
 1677 0018 00BF     		nop
 1678 001a 80BD     		pop	{r7, pc}
 1679              	.L138:
 1680              		.align	2
 1681              	.L137:
 1682 001c 00000000 		.word	app_led_calc_cbfunc
 1683              		.cfi_endproc
 1684              	.LFE148:
 1686              		.section	.text.app_leds_all_fun,"ax",%progbits
 1687              		.align	1
 1688              		.global	app_leds_all_fun
 1689              		.syntax unified
 1690              		.thumb
 1691              		.thumb_func
 1692              		.fpu softvfp
 1694              	app_leds_all_fun:
 1695              	.LFB149:
 318:../app/app.c  **** 
 319:../app/app.c  **** void app_leds_all_fun(uint8_t status)
 320:../app/app.c  **** {
 1696              		.loc 1 320 1
 1697              		.cfi_startproc
 1698              		@ args = 0, pretend = 0, frame = 8
 1699              		@ frame_needed = 1, uses_anonymous_args = 0
 1700 0000 80B5     		push	{r7, lr}
 1701              		.cfi_def_cfa_offset 8
 1702              		.cfi_offset 7, -8
 1703              		.cfi_offset 14, -4
 1704 0002 82B0     		sub	sp, sp, #8
 1705              		.cfi_def_cfa_offset 16
 1706 0004 00AF     		add	r7, sp, #0
 1707              		.cfi_def_cfa_register 7
 1708 0006 0346     		mov	r3, r0
 1709 0008 FB71     		strb	r3, [r7, #7]
 321:../app/app.c  **** 	display_led(STEAM_LED, status);
 1710              		.loc 1 321 2
 1711 000a FB79     		ldrb	r3, [r7, #7]	@ zero_extendqisi2
 1712 000c 1946     		mov	r1, r3
 1713 000e 1220     		movs	r0, #18
 1714 0010 FFF7FEFF 		bl	display_led
 322:../app/app.c  **** 	display_led(HOT_WATER, status);
 1715              		.loc 1 322 2
 1716 0014 FB79     		ldrb	r3, [r7, #7]	@ zero_extendqisi2
 1717 0016 1946     		mov	r1, r3
 1718 0018 1520     		movs	r0, #21
 1719 001a FFF7FEFF 		bl	display_led
 323:../app/app.c  **** 	display_led(ESPRESSO1_LED, status);
 1720              		.loc 1 323 2
 1721 001e FB79     		ldrb	r3, [r7, #7]	@ zero_extendqisi2
 1722 0020 1946     		mov	r1, r3
 1723 0022 0C20     		movs	r0, #12
 1724 0024 FFF7FEFF 		bl	display_led
 324:../app/app.c  **** 	display_led(AMERICANO1_LED, status);
 1725              		.loc 1 324 2
 1726 0028 FB79     		ldrb	r3, [r7, #7]	@ zero_extendqisi2
 1727 002a 1946     		mov	r1, r3
 1728 002c 0F20     		movs	r0, #15
 1729 002e FFF7FEFF 		bl	display_led
 325:../app/app.c  **** 	display_led(AQUA_GREEN_LED, status);
 1730              		.loc 1 325 2
 1731 0032 FB79     		ldrb	r3, [r7, #7]	@ zero_extendqisi2
 1732 0034 1946     		mov	r1, r3
 1733 0036 1A20     		movs	r0, #26
 1734 0038 FFF7FEFF 		bl	display_led
 326:../app/app.c  **** 	if (status == LED_OFF){
 1735              		.loc 1 326 5
 1736 003c FB79     		ldrb	r3, [r7, #7]	@ zero_extendqisi2
 1737 003e 002B     		cmp	r3, #0
 1738 0040 13D1     		bne	.L141
 327:../app/app.c  **** 		display_led(ESPRESSO2_LED, status);
 1739              		.loc 1 327 3
 1740 0042 FB79     		ldrb	r3, [r7, #7]	@ zero_extendqisi2
 1741 0044 1946     		mov	r1, r3
 1742 0046 0920     		movs	r0, #9
 1743 0048 FFF7FEFF 		bl	display_led
 328:../app/app.c  **** 		display_led(AMERICANO2_LED, status);
 1744              		.loc 1 328 3
 1745 004c FB79     		ldrb	r3, [r7, #7]	@ zero_extendqisi2
 1746 004e 1946     		mov	r1, r3
 1747 0050 0620     		movs	r0, #6
 1748 0052 FFF7FEFF 		bl	display_led
 329:../app/app.c  **** 		display_led(AQUA_CLEAN_LED, status);
 1749              		.loc 1 329 3
 1750 0056 FB79     		ldrb	r3, [r7, #7]	@ zero_extendqisi2
 1751 0058 1946     		mov	r1, r3
 1752 005a 1120     		movs	r0, #17
 1753 005c FFF7FEFF 		bl	display_led
 330:../app/app.c  **** 		display_led(CALC_CLEAN_LED, status);
 1754              		.loc 1 330 3
 1755 0060 FB79     		ldrb	r3, [r7, #7]	@ zero_extendqisi2
 1756 0062 1946     		mov	r1, r3
 1757 0064 0220     		movs	r0, #2
 1758 0066 FFF7FEFF 		bl	display_led
 1759              	.L141:
 331:../app/app.c  **** 	}
 332:../app/app.c  **** }
 1760              		.loc 1 332 1
 1761 006a 00BF     		nop
 1762 006c 0837     		adds	r7, r7, #8
 1763              		.cfi_def_cfa_offset 8
 1764 006e BD46     		mov	sp, r7
 1765              		.cfi_def_cfa_register 13
 1766              		@ sp needed
 1767 0070 80BD     		pop	{r7, pc}
 1768              		.cfi_endproc
 1769              	.LFE149:
 1771              		.section	.text.app_leds_all_ind,"ax",%progbits
 1772              		.align	1
 1773              		.global	app_leds_all_ind
 1774              		.syntax unified
 1775              		.thumb
 1776              		.thumb_func
 1777              		.fpu softvfp
 1779              	app_leds_all_ind:
 1780              	.LFB150:
 333:../app/app.c  **** 
 334:../app/app.c  **** void app_leds_all_ind(uint8_t status)
 335:../app/app.c  **** {
 1781              		.loc 1 335 1
 1782              		.cfi_startproc
 1783              		@ args = 0, pretend = 0, frame = 8
 1784              		@ frame_needed = 1, uses_anonymous_args = 0
 1785 0000 80B5     		push	{r7, lr}
 1786              		.cfi_def_cfa_offset 8
 1787              		.cfi_offset 7, -8
 1788              		.cfi_offset 14, -4
 1789 0002 82B0     		sub	sp, sp, #8
 1790              		.cfi_def_cfa_offset 16
 1791 0004 00AF     		add	r7, sp, #0
 1792              		.cfi_def_cfa_register 7
 1793 0006 0346     		mov	r3, r0
 1794 0008 FB71     		strb	r3, [r7, #7]
 336:../app/app.c  **** 	display_led(COFFEE1_LED, status);
 1795              		.loc 1 336 2
 1796 000a FB79     		ldrb	r3, [r7, #7]	@ zero_extendqisi2
 1797 000c 1946     		mov	r1, r3
 1798 000e 0120     		movs	r0, #1
 1799 0010 FFF7FEFF 		bl	display_led
 337:../app/app.c  **** 	display_led(COFFEE2_LED, status);
 1800              		.loc 1 337 2
 1801 0014 FB79     		ldrb	r3, [r7, #7]	@ zero_extendqisi2
 1802 0016 1946     		mov	r1, r3
 1803 0018 0A20     		movs	r0, #10
 1804 001a FFF7FEFF 		bl	display_led
 338:../app/app.c  **** 	display_led(COFFEE3_LED, status);
 1805              		.loc 1 338 2
 1806 001e FB79     		ldrb	r3, [r7, #7]	@ zero_extendqisi2
 1807 0020 1946     		mov	r1, r3
 1808 0022 0D20     		movs	r0, #13
 1809 0024 FFF7FEFF 		bl	display_led
 339:../app/app.c  **** 	display_led(COFFEE4_LED, status);
 1810              		.loc 1 339 2
 1811 0028 FB79     		ldrb	r3, [r7, #7]	@ zero_extendqisi2
 1812 002a 1946     		mov	r1, r3
 1813 002c 1320     		movs	r0, #19
 1814 002e FFF7FEFF 		bl	display_led
 340:../app/app.c  **** 	display_led(WATER1_LED, status);
 1815              		.loc 1 340 2
 1816 0032 FB79     		ldrb	r3, [r7, #7]	@ zero_extendqisi2
 1817 0034 1946     		mov	r1, r3
 1818 0036 0420     		movs	r0, #4
 1819 0038 FFF7FEFF 		bl	display_led
 341:../app/app.c  **** 	display_led(WATER2_LED, status);
 1820              		.loc 1 341 2
 1821 003c FB79     		ldrb	r3, [r7, #7]	@ zero_extendqisi2
 1822 003e 1946     		mov	r1, r3
 1823 0040 1920     		movs	r0, #25
 1824 0042 FFF7FEFF 		bl	display_led
 342:../app/app.c  **** 	display_led(WATER3_LED, status);
 1825              		.loc 1 342 2
 1826 0046 FB79     		ldrb	r3, [r7, #7]	@ zero_extendqisi2
 1827 0048 1946     		mov	r1, r3
 1828 004a 1020     		movs	r0, #16
 1829 004c FFF7FEFF 		bl	display_led
 343:../app/app.c  **** }
 1830              		.loc 1 343 1
 1831 0050 00BF     		nop
 1832 0052 0837     		adds	r7, r7, #8
 1833              		.cfi_def_cfa_offset 8
 1834 0054 BD46     		mov	sp, r7
 1835              		.cfi_def_cfa_register 13
 1836              		@ sp needed
 1837 0056 80BD     		pop	{r7, pc}
 1838              		.cfi_endproc
 1839              	.LFE150:
 1841              		.section	.text.app_led_oneloop,"ax",%progbits
 1842              		.align	1
 1843              		.global	app_led_oneloop
 1844              		.syntax unified
 1845              		.thumb
 1846              		.thumb_func
 1847              		.fpu softvfp
 1849              	app_led_oneloop:
 1850              	.LFB151:
 344:../app/app.c  **** 
 345:../app/app.c  **** uint8_t app_led_oneloop(void)
 346:../app/app.c  **** {
 1851              		.loc 1 346 1
 1852              		.cfi_startproc
 1853              		@ args = 0, pretend = 0, frame = 0
 1854              		@ frame_needed = 1, uses_anonymous_args = 0
 1855 0000 80B5     		push	{r7, lr}
 1856              		.cfi_def_cfa_offset 8
 1857              		.cfi_offset 7, -8
 1858              		.cfi_offset 14, -4
 1859 0002 00AF     		add	r7, sp, #0
 1860              		.cfi_def_cfa_register 7
 347:../app/app.c  **** 	if (display_get_led(ESPRESSO1_LED) && display_get_led(AMERICANO1_LED))
 1861              		.loc 1 347 6
 1862 0004 0C20     		movs	r0, #12
 1863 0006 FFF7FEFF 		bl	display_get_led
 1864 000a 0346     		mov	r3, r0
 1865              		.loc 1 347 5
 1866 000c 002B     		cmp	r3, #0
 1867 000e 07D0     		beq	.L144
 1868              		.loc 1 347 40 discriminator 1
 1869 0010 0F20     		movs	r0, #15
 1870 0012 FFF7FEFF 		bl	display_get_led
 1871 0016 0346     		mov	r3, r0
 1872              		.loc 1 347 37 discriminator 1
 1873 0018 002B     		cmp	r3, #0
 1874 001a 01D0     		beq	.L144
 348:../app/app.c  **** 	{
 349:../app/app.c  **** 		return TRUE;
 1875              		.loc 1 349 10
 1876 001c 0123     		movs	r3, #1
 1877 001e 00E0     		b	.L145
 1878              	.L144:
 350:../app/app.c  **** 	}
 351:../app/app.c  **** 	return FAIL;
 1879              		.loc 1 351 9
 1880 0020 0023     		movs	r3, #0
 1881              	.L145:
 352:../app/app.c  **** }
 1882              		.loc 1 352 1
 1883 0022 1846     		mov	r0, r3
 1884 0024 80BD     		pop	{r7, pc}
 1885              		.cfi_endproc
 1886              	.LFE151:
 1888              		.section	.text.app_led_finish_step,"ax",%progbits
 1889              		.align	1
 1890              		.global	app_led_finish_step
 1891              		.syntax unified
 1892              		.thumb
 1893              		.thumb_func
 1894              		.fpu softvfp
 1896              	app_led_finish_step:
 1897              	.LFB152:
 353:../app/app.c  **** 
 354:../app/app.c  **** /**************************************************************************
 355:../app/app.c  ****  * @brief Õå▓ńģ«µĄüń©ŗń╗ōµØ¤ÕÉÄLEDµśŠńż║ÕżäńÉåÕćĮµĢ░
 356:../app/app.c  ****  * @return none
 357:../app/app.c  ****  * @note µĄüµ░┤ńü»ÕĖĖķćÅ’╝īaquaõ║«ĶōØńü»’╝īstart_ledńåäńüŁ
 358:../app/app.c  ****  *************************************************************************/
 359:../app/app.c  **** void app_led_finish_step(void)
 360:../app/app.c  **** {
 1898              		.loc 1 360 1
 1899              		.cfi_startproc
 1900              		@ args = 0, pretend = 0, frame = 0
 1901              		@ frame_needed = 1, uses_anonymous_args = 0
 1902 0000 80B5     		push	{r7, lr}
 1903              		.cfi_def_cfa_offset 8
 1904              		.cfi_offset 7, -8
 1905              		.cfi_offset 14, -4
 1906 0002 00AF     		add	r7, sp, #0
 1907              		.cfi_def_cfa_register 7
 361:../app/app.c  **** 	app_leds_all_fun(LED_OFF);
 1908              		.loc 1 361 2
 1909 0004 0020     		movs	r0, #0
 1910 0006 FFF7FEFF 		bl	app_leds_all_fun
 362:../app/app.c  **** 	app_leds_all_ind(LED_OFF);
 1911              		.loc 1 362 2
 1912 000a 0020     		movs	r0, #0
 1913 000c FFF7FEFF 		bl	app_leds_all_ind
 363:../app/app.c  **** 	display_led(START_LED, LED_OFF);
 1914              		.loc 1 363 2
 1915 0010 0021     		movs	r1, #0
 1916 0012 0520     		movs	r0, #5
 1917 0014 FFF7FEFF 		bl	display_led
 364:../app/app.c  **** 
 365:../app/app.c  **** 	app_leds_all_fun(LED_ON);
 1918              		.loc 1 365 2
 1919 0018 0120     		movs	r0, #1
 1920 001a FFF7FEFF 		bl	app_leds_all_fun
 366:../app/app.c  **** }
 1921              		.loc 1 366 1
 1922 001e 00BF     		nop
 1923 0020 80BD     		pop	{r7, pc}
 1924              		.cfi_endproc
 1925              	.LFE152:
 1927              		.section	.text.app_onoff_key_deal,"ax",%progbits
 1928              		.align	1
 1929              		.global	app_onoff_key_deal
 1930              		.syntax unified
 1931              		.thumb
 1932              		.thumb_func
 1933              		.fpu softvfp
 1935              	app_onoff_key_deal:
 1936              	.LFB153:
 367:../app/app.c  **** 
 368:../app/app.c  **** /**************************************************************************
 369:../app/app.c  ****  * @brief on/offķö«ÕżäńÉåÕćĮµĢ░
 370:../app/app.c  ****  * @return none
 371:../app/app.c  ****  * @note none
 372:../app/app.c  ****  *************************************************************************/
 373:../app/app.c  **** void app_onoff_key_deal(void)
 374:../app/app.c  **** {
 1937              		.loc 1 374 1
 1938              		.cfi_startproc
 1939              		@ args = 0, pretend = 0, frame = 0
 1940              		@ frame_needed = 1, uses_anonymous_args = 0
 1941 0000 80B5     		push	{r7, lr}
 1942              		.cfi_def_cfa_offset 8
 1943              		.cfi_offset 7, -8
 1944              		.cfi_offset 14, -4
 1945 0002 00AF     		add	r7, sp, #0
 1946              		.cfi_def_cfa_register 7
 375:../app/app.c  **** 	switch(app_task_step)
 1947              		.loc 1 375 2
 1948 0004 0E4B     		ldr	r3, .L157
 1949 0006 1B78     		ldrb	r3, [r3]	@ zero_extendqisi2
 1950 0008 072B     		cmp	r3, #7
 1951 000a 13DC     		bgt	.L154
 1952 000c 032B     		cmp	r3, #3
 1953 000e 0CDA     		bge	.L149
 1954 0010 012B     		cmp	r3, #1
 1955 0012 02DC     		bgt	.L150
 1956 0014 002B     		cmp	r3, #0
 1957 0016 03DA     		bge	.L151
 376:../app/app.c  **** 	{
 377:../app/app.c  **** 	case APP_INIT_STATE:
 378:../app/app.c  **** 	case APP_IDLE_STATE:
 379:../app/app.c  **** 		app_task_nextstep(APP_STARTUP_STATE, STARTUP_INIT_STATE);
 380:../app/app.c  **** 		break;
 381:../app/app.c  **** 	case APP_STARTUP_STATE:
 382:../app/app.c  **** 		break;
 383:../app/app.c  **** 	case APP_NORMAL_STATE:
 384:../app/app.c  **** 	case APP_ESPRESSO_STATE:
 385:../app/app.c  **** 	case APP_AMERICAN_STATE:
 386:../app/app.c  **** 	case APP_HOTWATER_STATE:
 387:../app/app.c  **** 	case APP_STEAM_STATE:
 388:../app/app.c  **** 		app_task_nextstep(APP_RUNNING_ONOFF_STATE, RUNNING_ONOFF_INIT_STATE);		
 389:../app/app.c  **** 		break;	
 390:../app/app.c  **** 	default:
 391:../app/app.c  **** 		break;
 1958              		.loc 1 391 3
 1959 0018 0CE0     		b	.L154
 1960              	.L150:
 375:../app/app.c  **** 	switch(app_task_step)
 1961              		.loc 1 375 2
 1962 001a 022B     		cmp	r3, #2
 1963 001c 0CD0     		beq	.L155
 1964              		.loc 1 391 3
 1965 001e 09E0     		b	.L154
 1966              	.L151:
 379:../app/app.c  **** 		break;
 1967              		.loc 1 379 3
 1968 0020 0021     		movs	r1, #0
 1969 0022 0220     		movs	r0, #2
 1970 0024 FFF7FEFF 		bl	app_task_nextstep
 380:../app/app.c  **** 	case APP_STARTUP_STATE:
 1971              		.loc 1 380 3
 1972 0028 07E0     		b	.L153
 1973              	.L149:
 388:../app/app.c  **** 		break;	
 1974              		.loc 1 388 3
 1975 002a 0021     		movs	r1, #0
 1976 002c 0B20     		movs	r0, #11
 1977 002e FFF7FEFF 		bl	app_task_nextstep
 389:../app/app.c  **** 	default:
 1978              		.loc 1 389 3
 1979 0032 02E0     		b	.L153
 1980              	.L154:
 1981              		.loc 1 391 3
 1982 0034 00BF     		nop
 1983 0036 00E0     		b	.L156
 1984              	.L155:
 382:../app/app.c  **** 	case APP_NORMAL_STATE:
 1985              		.loc 1 382 3
 1986 0038 00BF     		nop
 1987              	.L153:
 1988              	.L156:
 392:../app/app.c  **** 	}
 393:../app/app.c  **** }
 1989              		.loc 1 393 1
 1990 003a 00BF     		nop
 1991 003c 80BD     		pop	{r7, pc}
 1992              	.L158:
 1993 003e 00BF     		.align	2
 1994              	.L157:
 1995 0040 00000000 		.word	app_task_step
 1996              		.cfi_endproc
 1997              	.LFE153:
 1999              		.section	.text.app_start_key_deal,"ax",%progbits
 2000              		.align	1
 2001              		.global	app_start_key_deal
 2002              		.syntax unified
 2003              		.thumb
 2004              		.thumb_func
 2005              		.fpu softvfp
 2007              	app_start_key_deal:
 2008              	.LFB154:
 394:../app/app.c  **** 
 395:../app/app.c  **** uint8_t app_start_key_deal(void)
 396:../app/app.c  **** {
 2009              		.loc 1 396 1
 2010              		.cfi_startproc
 2011              		@ args = 0, pretend = 0, frame = 8
 2012              		@ frame_needed = 1, uses_anonymous_args = 0
 2013 0000 80B5     		push	{r7, lr}
 2014              		.cfi_def_cfa_offset 8
 2015              		.cfi_offset 7, -8
 2016              		.cfi_offset 14, -4
 2017 0002 82B0     		sub	sp, sp, #8
 2018              		.cfi_def_cfa_offset 16
 2019 0004 00AF     		add	r7, sp, #0
 2020              		.cfi_def_cfa_register 7
 397:../app/app.c  **** 	uint8_t ret = 0;
 2021              		.loc 1 397 10
 2022 0006 0023     		movs	r3, #0
 2023 0008 FB71     		strb	r3, [r7, #7]
 398:../app/app.c  **** 
 399:../app/app.c  **** 	switch(app_task_step)
 2024              		.loc 1 399 2
 2025 000a 384B     		ldr	r3, .L179
 2026 000c 1B78     		ldrb	r3, [r3]	@ zero_extendqisi2
 2027 000e 033B     		subs	r3, r3, #3
 2028 0010 042B     		cmp	r3, #4
 2029 0012 65D8     		bhi	.L177
 2030 0014 01A2     		adr	r2, .L162
 2031 0016 52F823F0 		ldr	pc, [r2, r3, lsl #2]
 2032 001a 00BF     		.p2align 2
 2033              	.L162:
 2034 001c 31000000 		.word	.L165+1
 2035 0020 C5000000 		.word	.L164+1
 2036 0024 C5000000 		.word	.L164+1
 2037 0028 CD000000 		.word	.L163+1
 2038 002c D7000000 		.word	.L161+1
 2039              		.p2align 1
 2040              	.L165:
 400:../app/app.c  **** 	{
 401:../app/app.c  **** 		case APP_NORMAL_STATE:
 402:../app/app.c  **** 			switch(app_task_substep){
 2041              		.loc 1 402 4
 2042 0030 2F4B     		ldr	r3, .L179+4
 2043 0032 1B78     		ldrb	r3, [r3]	@ zero_extendqisi2
 2044 0034 023B     		subs	r3, r3, #2
 2045 0036 0A2B     		cmp	r3, #10
 2046 0038 42D8     		bhi	.L178
 2047 003a 01A2     		adr	r2, .L168
 2048 003c 52F823F0 		ldr	pc, [r2, r3, lsl #2]
 2049              		.p2align 2
 2050              	.L168:
 2051 0040 6D000000 		.word	.L173+1
 2052 0044 C1000000 		.word	.L178+1
 2053 0048 7B000000 		.word	.L172+1
 2054 004c C1000000 		.word	.L178+1
 2055 0050 89000000 		.word	.L171+1
 2056 0054 C1000000 		.word	.L178+1
 2057 0058 97000000 		.word	.L170+1
 2058 005c C1000000 		.word	.L178+1
 2059 0060 A5000000 		.word	.L169+1
 2060 0064 C1000000 		.word	.L178+1
 2061 0068 B3000000 		.word	.L167+1
 2062              		.p2align 1
 2063              	.L173:
 403:../app/app.c  **** 			case NORMAL_ESPRESSO_RUN_STATE:
 404:../app/app.c  **** 				app_task_nextstep(APP_ESPRESSO_STATE, ESPRESSO_INIT_STATE);
 2064              		.loc 1 404 5
 2065 006c 0021     		movs	r1, #0
 2066 006e 0420     		movs	r0, #4
 2067 0070 FFF7FEFF 		bl	app_task_nextstep
 405:../app/app.c  **** 				ret = 1;
 2068              		.loc 1 405 9
 2069 0074 0123     		movs	r3, #1
 2070 0076 FB71     		strb	r3, [r7, #7]
 406:../app/app.c  **** 				break;
 2071              		.loc 1 406 5
 2072 0078 23E0     		b	.L174
 2073              	.L172:
 407:../app/app.c  **** 			case NORMAL_AMERICANO_RUN_STATE:
 408:../app/app.c  **** 				app_task_nextstep(APP_AMERICAN_STATE, AMERICANO_INIT_STATE);
 2074              		.loc 1 408 5
 2075 007a 0021     		movs	r1, #0
 2076 007c 0520     		movs	r0, #5
 2077 007e FFF7FEFF 		bl	app_task_nextstep
 409:../app/app.c  **** 				ret = 1;
 2078              		.loc 1 409 9
 2079 0082 0123     		movs	r3, #1
 2080 0084 FB71     		strb	r3, [r7, #7]
 410:../app/app.c  **** 				break;
 2081              		.loc 1 410 5
 2082 0086 1CE0     		b	.L174
 2083              	.L171:
 411:../app/app.c  **** 			case NORMAL_HOTWATER_RUN_STATE:
 412:../app/app.c  **** 				app_task_nextstep(APP_HOTWATER_STATE, HOTWATER_INIT_STATE);
 2084              		.loc 1 412 5
 2085 0088 0021     		movs	r1, #0
 2086 008a 0620     		movs	r0, #6
 2087 008c FFF7FEFF 		bl	app_task_nextstep
 413:../app/app.c  **** 				ret = 1;
 2088              		.loc 1 413 9
 2089 0090 0123     		movs	r3, #1
 2090 0092 FB71     		strb	r3, [r7, #7]
 414:../app/app.c  **** 				break;
 2091              		.loc 1 414 5
 2092 0094 15E0     		b	.L174
 2093              	.L170:
 415:../app/app.c  **** 			case NORMAL_STEAM_RUN_STATE:
 416:../app/app.c  **** 				app_task_nextstep(APP_STEAM_STATE, STEAM_INIT_STATE);
 2094              		.loc 1 416 5
 2095 0096 0021     		movs	r1, #0
 2096 0098 0720     		movs	r0, #7
 2097 009a FFF7FEFF 		bl	app_task_nextstep
 417:../app/app.c  **** 				ret = 1;
 2098              		.loc 1 417 9
 2099 009e 0123     		movs	r3, #1
 2100 00a0 FB71     		strb	r3, [r7, #7]
 418:../app/app.c  **** 				break;
 2101              		.loc 1 418 5
 2102 00a2 0EE0     		b	.L174
 2103              	.L169:
 419:../app/app.c  **** 			case NORMAL_AQUA_RUN_STATE:
 420:../app/app.c  **** 				app_task_nextstep(APP_AQUA_STATE, AQUA_INIT_STATE);
 2104              		.loc 1 420 5
 2105 00a4 0021     		movs	r1, #0
 2106 00a6 0820     		movs	r0, #8
 2107 00a8 FFF7FEFF 		bl	app_task_nextstep
 421:../app/app.c  **** 				ret = 1;
 2108              		.loc 1 421 9
 2109 00ac 0123     		movs	r3, #1
 2110 00ae FB71     		strb	r3, [r7, #7]
 422:../app/app.c  **** 				break;
 2111              		.loc 1 422 5
 2112 00b0 07E0     		b	.L174
 2113              	.L167:
 423:../app/app.c  **** 			case NORMAL_CALC_RUN_STATE:
 424:../app/app.c  **** 				app_task_nextstep(APP_CALC_STATE, CALC_INIT_STATE);
 2114              		.loc 1 424 5
 2115 00b2 0021     		movs	r1, #0
 2116 00b4 0920     		movs	r0, #9
 2117 00b6 FFF7FEFF 		bl	app_task_nextstep
 425:../app/app.c  **** 				ret = 1;
 2118              		.loc 1 425 9
 2119 00ba 0123     		movs	r3, #1
 2120 00bc FB71     		strb	r3, [r7, #7]
 426:../app/app.c  **** 				break;
 2121              		.loc 1 426 5
 2122 00be 00E0     		b	.L174
 2123              	.L178:
 427:../app/app.c  **** 			default:
 428:../app/app.c  **** 				break;
 2124              		.loc 1 428 5
 2125 00c0 00BF     		nop
 2126              	.L174:
 429:../app/app.c  **** 			}
 430:../app/app.c  **** 			break;
 2127              		.loc 1 430 4
 2128 00c2 0EE0     		b	.L175
 2129              	.L164:
 431:../app/app.c  **** 	
 432:../app/app.c  **** 		case APP_ESPRESSO_STATE:
 433:../app/app.c  **** 		case APP_AMERICAN_STATE:
 434:../app/app.c  **** 			cup_loop = 0;	//Õ░åµØ»µĢ░ÕŠ¬ńÄ»µĖģķÖż’╝īÕÅ¬µē¦ĶĪīµ£¼µ¼ĪÕå▓ńģ«µĄüń©ŗ
 2130              		.loc 1 434 13
 2131 00c4 0B4B     		ldr	r3, .L179+8
 2132 00c6 0022     		movs	r2, #0
 2133 00c8 1A70     		strb	r2, [r3]
 435:../app/app.c  **** 			break;
 2134              		.loc 1 435 4
 2135 00ca 0AE0     		b	.L175
 2136              	.L163:
 436:../app/app.c  **** 		case APP_HOTWATER_STATE:
 437:../app/app.c  **** 			app_task_nextstep(APP_HOTWATER_STATE, HOTWATER_COMPLETE_STATE);		//Ķ┐øÕģźÕ«īµłÉńŖČµĆü
 2137              		.loc 1 437 4
 2138 00cc 0521     		movs	r1, #5
 2139 00ce 0620     		movs	r0, #6
 2140 00d0 FFF7FEFF 		bl	app_task_nextstep
 438:../app/app.c  **** 			break;
 2141              		.loc 1 438 4
 2142 00d4 05E0     		b	.L175
 2143              	.L161:
 439:../app/app.c  **** 		case APP_STEAM_STATE:
 440:../app/app.c  **** 			app_task_nextstep(APP_STEAM_STATE, STEAM_COMPLETE_STATE);		//Ķ┐øÕģźÕ«īµłÉńŖČµĆü
 2144              		.loc 1 440 4
 2145 00d6 0321     		movs	r1, #3
 2146 00d8 0720     		movs	r0, #7
 2147 00da FFF7FEFF 		bl	app_task_nextstep
 441:../app/app.c  **** 			break;
 2148              		.loc 1 441 4
 2149 00de 00E0     		b	.L175
 2150              	.L177:
 442:../app/app.c  **** 		default:
 443:../app/app.c  **** 			break;
 2151              		.loc 1 443 4
 2152 00e0 00BF     		nop
 2153              	.L175:
 444:../app/app.c  **** 	}
 445:../app/app.c  **** 	return ret;
 2154              		.loc 1 445 9
 2155 00e2 FB79     		ldrb	r3, [r7, #7]	@ zero_extendqisi2
 446:../app/app.c  **** }
 2156              		.loc 1 446 1
 2157 00e4 1846     		mov	r0, r3
 2158 00e6 0837     		adds	r7, r7, #8
 2159              		.cfi_def_cfa_offset 8
 2160 00e8 BD46     		mov	sp, r7
 2161              		.cfi_def_cfa_register 13
 2162              		@ sp needed
 2163 00ea 80BD     		pop	{r7, pc}
 2164              	.L180:
 2165              		.align	2
 2166              	.L179:
 2167 00ec 00000000 		.word	app_task_step
 2168 00f0 00000000 		.word	app_task_substep
 2169 00f4 00000000 		.word	cup_loop
 2170              		.cfi_endproc
 2171              	.LFE154:
 2173              		.section	.text.app_hotwater_key_deal,"ax",%progbits
 2174              		.align	1
 2175              		.global	app_hotwater_key_deal
 2176              		.syntax unified
 2177              		.thumb
 2178              		.thumb_func
 2179              		.fpu softvfp
 2181              	app_hotwater_key_deal:
 2182              	.LFB155:
 447:../app/app.c  **** 
 448:../app/app.c  **** uint8_t app_hotwater_key_deal(void)
 449:../app/app.c  **** {
 2183              		.loc 1 449 1
 2184              		.cfi_startproc
 2185              		@ args = 0, pretend = 0, frame = 8
 2186              		@ frame_needed = 1, uses_anonymous_args = 0
 2187 0000 80B5     		push	{r7, lr}
 2188              		.cfi_def_cfa_offset 8
 2189              		.cfi_offset 7, -8
 2190              		.cfi_offset 14, -4
 2191 0002 82B0     		sub	sp, sp, #8
 2192              		.cfi_def_cfa_offset 16
 2193 0004 00AF     		add	r7, sp, #0
 2194              		.cfi_def_cfa_register 7
 450:../app/app.c  **** 	uint8_t ret = 0;
 2195              		.loc 1 450 10
 2196 0006 0023     		movs	r3, #0
 2197 0008 FB71     		strb	r3, [r7, #7]
 451:../app/app.c  **** 
 452:../app/app.c  **** 	switch(app_task_step)
 2198              		.loc 1 452 2
 2199 000a 0B4B     		ldr	r3, .L189
 2200 000c 1B78     		ldrb	r3, [r3]	@ zero_extendqisi2
 2201 000e 032B     		cmp	r3, #3
 2202 0010 0CD1     		bne	.L187
 453:../app/app.c  **** 	{
 454:../app/app.c  **** 	case APP_NORMAL_STATE:
 455:../app/app.c  **** 		switch(app_task_substep){
 2203              		.loc 1 455 3
 2204 0012 0A4B     		ldr	r3, .L189+4
 2205 0014 1B78     		ldrb	r3, [r3]	@ zero_extendqisi2
 2206 0016 053B     		subs	r3, r3, #5
 2207 0018 012B     		cmp	r3, #1
 2208 001a 03D9     		bls	.L188
 456:../app/app.c  **** 		case NORMAL_HOTWATER_INIT_STATE:
 457:../app/app.c  **** 		case NORMAL_HOTWATER_RUN_STATE:
 458:../app/app.c  **** 			break;
 459:../app/app.c  **** 		default:
 460:../app/app.c  **** 			app_task_nextsubstep(NORMAL_HOTWATER_INIT_STATE);
 2209              		.loc 1 460 4
 2210 001c 0520     		movs	r0, #5
 2211 001e FFF7FEFF 		bl	app_task_nextsubstep
 461:../app/app.c  **** 			break;
 2212              		.loc 1 461 4
 2213 0022 00E0     		b	.L184
 2214              	.L188:
 458:../app/app.c  **** 		default:
 2215              		.loc 1 458 4
 2216 0024 00BF     		nop
 2217              	.L184:
 462:../app/app.c  **** 		}
 463:../app/app.c  **** 		ret = 1;
 2218              		.loc 1 463 7
 2219 0026 0123     		movs	r3, #1
 2220 0028 FB71     		strb	r3, [r7, #7]
 464:../app/app.c  **** 		break;
 2221              		.loc 1 464 3
 2222 002a 00E0     		b	.L185
 2223              	.L187:
 465:../app/app.c  **** 	default:
 466:../app/app.c  **** 		break;
 2224              		.loc 1 466 3
 2225 002c 00BF     		nop
 2226              	.L185:
 467:../app/app.c  **** 	}
 468:../app/app.c  **** 	return ret;
 2227              		.loc 1 468 9
 2228 002e FB79     		ldrb	r3, [r7, #7]	@ zero_extendqisi2
 469:../app/app.c  **** }
 2229              		.loc 1 469 1
 2230 0030 1846     		mov	r0, r3
 2231 0032 0837     		adds	r7, r7, #8
 2232              		.cfi_def_cfa_offset 8
 2233 0034 BD46     		mov	sp, r7
 2234              		.cfi_def_cfa_register 13
 2235              		@ sp needed
 2236 0036 80BD     		pop	{r7, pc}
 2237              	.L190:
 2238              		.align	2
 2239              	.L189:
 2240 0038 00000000 		.word	app_task_step
 2241 003c 00000000 		.word	app_task_substep
 2242              		.cfi_endproc
 2243              	.LFE155:
 2245              		.section	.text.app_espresso_key_deal,"ax",%progbits
 2246              		.align	1
 2247              		.global	app_espresso_key_deal
 2248              		.syntax unified
 2249              		.thumb
 2250              		.thumb_func
 2251              		.fpu softvfp
 2253              	app_espresso_key_deal:
 2254              	.LFB156:
 470:../app/app.c  **** 
 471:../app/app.c  **** uint8_t app_espresso_key_deal(void)
 472:../app/app.c  **** {
 2255              		.loc 1 472 1
 2256              		.cfi_startproc
 2257              		@ args = 0, pretend = 0, frame = 8
 2258              		@ frame_needed = 1, uses_anonymous_args = 0
 2259 0000 80B5     		push	{r7, lr}
 2260              		.cfi_def_cfa_offset 8
 2261              		.cfi_offset 7, -8
 2262              		.cfi_offset 14, -4
 2263 0002 82B0     		sub	sp, sp, #8
 2264              		.cfi_def_cfa_offset 16
 2265 0004 00AF     		add	r7, sp, #0
 2266              		.cfi_def_cfa_register 7
 473:../app/app.c  **** 	uint8_t ret = 0;
 2267              		.loc 1 473 10
 2268 0006 0023     		movs	r3, #0
 2269 0008 FB71     		strb	r3, [r7, #7]
 474:../app/app.c  **** 
 475:../app/app.c  **** 	switch(app_task_step)
 2270              		.loc 1 475 2
 2271 000a 1C4B     		ldr	r3, .L200
 2272 000c 1B78     		ldrb	r3, [r3]	@ zero_extendqisi2
 2273 000e 032B     		cmp	r3, #3
 2274 0010 2ED1     		bne	.L199
 476:../app/app.c  **** 	{
 477:../app/app.c  **** 	case APP_NORMAL_STATE:
 478:../app/app.c  **** 		switch(app_task_substep){
 2275              		.loc 1 478 3
 2276 0012 1B4B     		ldr	r3, .L200+4
 2277 0014 1B78     		ldrb	r3, [r3]	@ zero_extendqisi2
 2278 0016 013B     		subs	r3, r3, #1
 2279 0018 012B     		cmp	r3, #1
 2280 001a 22D8     		bhi	.L193
 479:../app/app.c  **** 		case NORMAL_ESPRESSO_INIT_STATE:
 480:../app/app.c  **** 		case NORMAL_ESPRESSO_RUN_STATE:
 481:../app/app.c  **** 			manual_setup.cup++;
 2281              		.loc 1 481 16
 2282 001c 194B     		ldr	r3, .L200+8
 2283 001e 1B78     		ldrb	r3, [r3]	@ zero_extendqisi2
 2284              		.loc 1 481 20
 2285 0020 0133     		adds	r3, r3, #1
 2286 0022 DAB2     		uxtb	r2, r3
 2287 0024 174B     		ldr	r3, .L200+8
 2288 0026 1A70     		strb	r2, [r3]
 482:../app/app.c  **** 			manual_setup.cup &= 0x01;
 2289              		.loc 1 482 21
 2290 0028 164B     		ldr	r3, .L200+8
 2291 002a 1B78     		ldrb	r3, [r3]	@ zero_extendqisi2
 2292 002c 03F00103 		and	r3, r3, #1
 2293 0030 DAB2     		uxtb	r2, r3
 2294 0032 144B     		ldr	r3, .L200+8
 2295 0034 1A70     		strb	r2, [r3]
 483:../app/app.c  **** 			display_led(ESPRESSO1_LED, LED_OFF);
 2296              		.loc 1 483 4
 2297 0036 0021     		movs	r1, #0
 2298 0038 0C20     		movs	r0, #12
 2299 003a FFF7FEFF 		bl	display_led
 484:../app/app.c  **** 			display_led(ESPRESSO2_LED, LED_OFF);
 2300              		.loc 1 484 4
 2301 003e 0021     		movs	r1, #0
 2302 0040 0920     		movs	r0, #9
 2303 0042 FFF7FEFF 		bl	display_led
 485:../app/app.c  **** 			if (manual_setup.cup){
 2304              		.loc 1 485 20
 2305 0046 0F4B     		ldr	r3, .L200+8
 2306 0048 1B78     		ldrb	r3, [r3]	@ zero_extendqisi2
 2307              		.loc 1 485 7
 2308 004a 002B     		cmp	r3, #0
 2309 004c 04D0     		beq	.L194
 486:../app/app.c  **** 				display_led(ESPRESSO2_LED, LED_ON);
 2310              		.loc 1 486 5
 2311 004e 0121     		movs	r1, #1
 2312 0050 0920     		movs	r0, #9
 2313 0052 FFF7FEFF 		bl	display_led
 487:../app/app.c  **** 			}
 488:../app/app.c  **** 			else{
 489:../app/app.c  **** 				display_led(ESPRESSO1_LED, LED_ON);
 490:../app/app.c  **** 			}
 491:../app/app.c  **** 			break;
 2314              		.loc 1 491 4
 2315 0056 08E0     		b	.L196
 2316              	.L194:
 489:../app/app.c  **** 			}
 2317              		.loc 1 489 5
 2318 0058 0121     		movs	r1, #1
 2319 005a 0C20     		movs	r0, #12
 2320 005c FFF7FEFF 		bl	display_led
 2321              		.loc 1 491 4
 2322 0060 03E0     		b	.L196
 2323              	.L193:
 492:../app/app.c  **** 		default:
 493:../app/app.c  **** 			app_task_nextsubstep(NORMAL_ESPRESSO_INIT_STATE);
 2324              		.loc 1 493 4
 2325 0062 0120     		movs	r0, #1
 2326 0064 FFF7FEFF 		bl	app_task_nextsubstep
 494:../app/app.c  **** 			break;
 2327              		.loc 1 494 4
 2328 0068 00BF     		nop
 2329              	.L196:
 495:../app/app.c  **** 		}
 496:../app/app.c  **** 		ret = 1;
 2330              		.loc 1 496 7
 2331 006a 0123     		movs	r3, #1
 2332 006c FB71     		strb	r3, [r7, #7]
 497:../app/app.c  **** 		break;
 2333              		.loc 1 497 3
 2334 006e 00E0     		b	.L197
 2335              	.L199:
 498:../app/app.c  **** 	default:
 499:../app/app.c  **** 		break;
 2336              		.loc 1 499 3
 2337 0070 00BF     		nop
 2338              	.L197:
 500:../app/app.c  **** 	}
 501:../app/app.c  **** 	return ret;
 2339              		.loc 1 501 9
 2340 0072 FB79     		ldrb	r3, [r7, #7]	@ zero_extendqisi2
 502:../app/app.c  **** }
 2341              		.loc 1 502 1
 2342 0074 1846     		mov	r0, r3
 2343 0076 0837     		adds	r7, r7, #8
 2344              		.cfi_def_cfa_offset 8
 2345 0078 BD46     		mov	sp, r7
 2346              		.cfi_def_cfa_register 13
 2347              		@ sp needed
 2348 007a 80BD     		pop	{r7, pc}
 2349              	.L201:
 2350              		.align	2
 2351              	.L200:
 2352 007c 00000000 		.word	app_task_step
 2353 0080 00000000 		.word	app_task_substep
 2354 0084 00000000 		.word	manual_setup
 2355              		.cfi_endproc
 2356              	.LFE156:
 2358              		.section	.text.app_steam_key_deal,"ax",%progbits
 2359              		.align	1
 2360              		.global	app_steam_key_deal
 2361              		.syntax unified
 2362              		.thumb
 2363              		.thumb_func
 2364              		.fpu softvfp
 2366              	app_steam_key_deal:
 2367              	.LFB157:
 503:../app/app.c  **** 
 504:../app/app.c  **** uint8_t app_steam_key_deal(void)
 505:../app/app.c  **** {
 2368              		.loc 1 505 1
 2369              		.cfi_startproc
 2370              		@ args = 0, pretend = 0, frame = 8
 2371              		@ frame_needed = 1, uses_anonymous_args = 0
 2372 0000 80B5     		push	{r7, lr}
 2373              		.cfi_def_cfa_offset 8
 2374              		.cfi_offset 7, -8
 2375              		.cfi_offset 14, -4
 2376 0002 82B0     		sub	sp, sp, #8
 2377              		.cfi_def_cfa_offset 16
 2378 0004 00AF     		add	r7, sp, #0
 2379              		.cfi_def_cfa_register 7
 506:../app/app.c  **** 	uint8_t ret = 0;
 2380              		.loc 1 506 10
 2381 0006 0023     		movs	r3, #0
 2382 0008 FB71     		strb	r3, [r7, #7]
 507:../app/app.c  **** 
 508:../app/app.c  **** 	switch(app_task_step)
 2383              		.loc 1 508 2
 2384 000a 0B4B     		ldr	r3, .L210
 2385 000c 1B78     		ldrb	r3, [r3]	@ zero_extendqisi2
 2386 000e 032B     		cmp	r3, #3
 2387 0010 0CD1     		bne	.L208
 509:../app/app.c  **** 	{
 510:../app/app.c  **** 	case APP_NORMAL_STATE:
 511:../app/app.c  **** 		switch(app_task_substep){
 2388              		.loc 1 511 3
 2389 0012 0A4B     		ldr	r3, .L210+4
 2390 0014 1B78     		ldrb	r3, [r3]	@ zero_extendqisi2
 2391 0016 073B     		subs	r3, r3, #7
 2392 0018 012B     		cmp	r3, #1
 2393 001a 03D9     		bls	.L209
 512:../app/app.c  **** 		case NORMAL_STEAM_INIT_STATE:
 513:../app/app.c  **** 		case NORMAL_STEAM_RUN_STATE:
 514:../app/app.c  **** 			break;
 515:../app/app.c  **** 		default:
 516:../app/app.c  **** 			app_task_nextsubstep(NORMAL_STEAM_INIT_STATE);
 2394              		.loc 1 516 4
 2395 001c 0720     		movs	r0, #7
 2396 001e FFF7FEFF 		bl	app_task_nextsubstep
 517:../app/app.c  **** 			break;
 2397              		.loc 1 517 4
 2398 0022 00E0     		b	.L205
 2399              	.L209:
 514:../app/app.c  **** 		default:
 2400              		.loc 1 514 4
 2401 0024 00BF     		nop
 2402              	.L205:
 518:../app/app.c  **** 		}
 519:../app/app.c  **** 		ret = 1;
 2403              		.loc 1 519 7
 2404 0026 0123     		movs	r3, #1
 2405 0028 FB71     		strb	r3, [r7, #7]
 520:../app/app.c  **** 		break;
 2406              		.loc 1 520 3
 2407 002a 00E0     		b	.L206
 2408              	.L208:
 521:../app/app.c  **** 	default:
 522:../app/app.c  **** 		break;
 2409              		.loc 1 522 3
 2410 002c 00BF     		nop
 2411              	.L206:
 523:../app/app.c  **** 	}
 524:../app/app.c  **** 	return ret;
 2412              		.loc 1 524 9
 2413 002e FB79     		ldrb	r3, [r7, #7]	@ zero_extendqisi2
 525:../app/app.c  **** }
 2414              		.loc 1 525 1
 2415 0030 1846     		mov	r0, r3
 2416 0032 0837     		adds	r7, r7, #8
 2417              		.cfi_def_cfa_offset 8
 2418 0034 BD46     		mov	sp, r7
 2419              		.cfi_def_cfa_register 13
 2420              		@ sp needed
 2421 0036 80BD     		pop	{r7, pc}
 2422              	.L211:
 2423              		.align	2
 2424              	.L210:
 2425 0038 00000000 		.word	app_task_step
 2426 003c 00000000 		.word	app_task_substep
 2427              		.cfi_endproc
 2428              	.LFE157:
 2430              		.section	.text.app_ame_key_deal,"ax",%progbits
 2431              		.align	1
 2432              		.global	app_ame_key_deal
 2433              		.syntax unified
 2434              		.thumb
 2435              		.thumb_func
 2436              		.fpu softvfp
 2438              	app_ame_key_deal:
 2439              	.LFB158:
 526:../app/app.c  **** 
 527:../app/app.c  **** uint8_t app_ame_key_deal(void)
 528:../app/app.c  **** {
 2440              		.loc 1 528 1
 2441              		.cfi_startproc
 2442              		@ args = 0, pretend = 0, frame = 8
 2443              		@ frame_needed = 1, uses_anonymous_args = 0
 2444 0000 80B5     		push	{r7, lr}
 2445              		.cfi_def_cfa_offset 8
 2446              		.cfi_offset 7, -8
 2447              		.cfi_offset 14, -4
 2448 0002 82B0     		sub	sp, sp, #8
 2449              		.cfi_def_cfa_offset 16
 2450 0004 00AF     		add	r7, sp, #0
 2451              		.cfi_def_cfa_register 7
 529:../app/app.c  **** 	uint8_t ret = 0;
 2452              		.loc 1 529 10
 2453 0006 0023     		movs	r3, #0
 2454 0008 FB71     		strb	r3, [r7, #7]
 530:../app/app.c  **** 
 531:../app/app.c  **** 	switch(app_task_step)
 2455              		.loc 1 531 2
 2456 000a 1C4B     		ldr	r3, .L221
 2457 000c 1B78     		ldrb	r3, [r3]	@ zero_extendqisi2
 2458 000e 032B     		cmp	r3, #3
 2459 0010 2ED1     		bne	.L220
 532:../app/app.c  **** 	{
 533:../app/app.c  **** 	case APP_NORMAL_STATE:
 534:../app/app.c  **** 		switch(app_task_substep){
 2460              		.loc 1 534 3
 2461 0012 1B4B     		ldr	r3, .L221+4
 2462 0014 1B78     		ldrb	r3, [r3]	@ zero_extendqisi2
 2463 0016 033B     		subs	r3, r3, #3
 2464 0018 012B     		cmp	r3, #1
 2465 001a 22D8     		bhi	.L214
 535:../app/app.c  **** 		case NORMAL_AMERICANO_INIT_STATE:
 536:../app/app.c  **** 		case NORMAL_AMERICANO_RUN_STATE:
 537:../app/app.c  **** 			manual_setup.cup++;
 2466              		.loc 1 537 16
 2467 001c 194B     		ldr	r3, .L221+8
 2468 001e 1B78     		ldrb	r3, [r3]	@ zero_extendqisi2
 2469              		.loc 1 537 20
 2470 0020 0133     		adds	r3, r3, #1
 2471 0022 DAB2     		uxtb	r2, r3
 2472 0024 174B     		ldr	r3, .L221+8
 2473 0026 1A70     		strb	r2, [r3]
 538:../app/app.c  **** 			manual_setup.cup &= 0x01;
 2474              		.loc 1 538 21
 2475 0028 164B     		ldr	r3, .L221+8
 2476 002a 1B78     		ldrb	r3, [r3]	@ zero_extendqisi2
 2477 002c 03F00103 		and	r3, r3, #1
 2478 0030 DAB2     		uxtb	r2, r3
 2479 0032 144B     		ldr	r3, .L221+8
 2480 0034 1A70     		strb	r2, [r3]
 539:../app/app.c  **** 			display_led(AMERICANO1_LED, LED_OFF);
 2481              		.loc 1 539 4
 2482 0036 0021     		movs	r1, #0
 2483 0038 0F20     		movs	r0, #15
 2484 003a FFF7FEFF 		bl	display_led
 540:../app/app.c  **** 			display_led(AMERICANO2_LED, LED_OFF);
 2485              		.loc 1 540 4
 2486 003e 0021     		movs	r1, #0
 2487 0040 0620     		movs	r0, #6
 2488 0042 FFF7FEFF 		bl	display_led
 541:../app/app.c  **** 			if (manual_setup.cup){
 2489              		.loc 1 541 20
 2490 0046 0F4B     		ldr	r3, .L221+8
 2491 0048 1B78     		ldrb	r3, [r3]	@ zero_extendqisi2
 2492              		.loc 1 541 7
 2493 004a 002B     		cmp	r3, #0
 2494 004c 04D0     		beq	.L215
 542:../app/app.c  **** 				display_led(AMERICANO2_LED, LED_ON);
 2495              		.loc 1 542 5
 2496 004e 0121     		movs	r1, #1
 2497 0050 0620     		movs	r0, #6
 2498 0052 FFF7FEFF 		bl	display_led
 543:../app/app.c  **** 			}
 544:../app/app.c  **** 			else{
 545:../app/app.c  **** 				display_led(AMERICANO1_LED, LED_ON);
 546:../app/app.c  **** 			}
 547:../app/app.c  **** 			break;
 2499              		.loc 1 547 4
 2500 0056 08E0     		b	.L217
 2501              	.L215:
 545:../app/app.c  **** 			}
 2502              		.loc 1 545 5
 2503 0058 0121     		movs	r1, #1
 2504 005a 0F20     		movs	r0, #15
 2505 005c FFF7FEFF 		bl	display_led
 2506              		.loc 1 547 4
 2507 0060 03E0     		b	.L217
 2508              	.L214:
 548:../app/app.c  **** 		default:
 549:../app/app.c  **** 			app_task_nextsubstep(NORMAL_AMERICANO_INIT_STATE);
 2509              		.loc 1 549 4
 2510 0062 0320     		movs	r0, #3
 2511 0064 FFF7FEFF 		bl	app_task_nextsubstep
 550:../app/app.c  **** 			break;
 2512              		.loc 1 550 4
 2513 0068 00BF     		nop
 2514              	.L217:
 551:../app/app.c  **** 		}
 552:../app/app.c  **** 		ret = 1;
 2515              		.loc 1 552 7
 2516 006a 0123     		movs	r3, #1
 2517 006c FB71     		strb	r3, [r7, #7]
 553:../app/app.c  **** 		break;
 2518              		.loc 1 553 3
 2519 006e 00E0     		b	.L218
 2520              	.L220:
 554:../app/app.c  **** 	default:
 555:../app/app.c  **** 		break;
 2521              		.loc 1 555 3
 2522 0070 00BF     		nop
 2523              	.L218:
 556:../app/app.c  **** 	}
 557:../app/app.c  **** 	return ret;
 2524              		.loc 1 557 9
 2525 0072 FB79     		ldrb	r3, [r7, #7]	@ zero_extendqisi2
 558:../app/app.c  **** }
 2526              		.loc 1 558 1
 2527 0074 1846     		mov	r0, r3
 2528 0076 0837     		adds	r7, r7, #8
 2529              		.cfi_def_cfa_offset 8
 2530 0078 BD46     		mov	sp, r7
 2531              		.cfi_def_cfa_register 13
 2532              		@ sp needed
 2533 007a 80BD     		pop	{r7, pc}
 2534              	.L222:
 2535              		.align	2
 2536              	.L221:
 2537 007c 00000000 		.word	app_task_step
 2538 0080 00000000 		.word	app_task_substep
 2539 0084 00000000 		.word	manual_setup
 2540              		.cfi_endproc
 2541              	.LFE158:
 2543              		.section	.text.app_coffee_key_deal,"ax",%progbits
 2544              		.align	1
 2545              		.global	app_coffee_key_deal
 2546              		.syntax unified
 2547              		.thumb
 2548              		.thumb_func
 2549              		.fpu softvfp
 2551              	app_coffee_key_deal:
 2552              	.LFB159:
 559:../app/app.c  **** 
 560:../app/app.c  **** uint8_t app_coffee_key_deal(void)
 561:../app/app.c  **** {
 2553              		.loc 1 561 1
 2554              		.cfi_startproc
 2555              		@ args = 0, pretend = 0, frame = 8
 2556              		@ frame_needed = 1, uses_anonymous_args = 0
 2557 0000 80B5     		push	{r7, lr}
 2558              		.cfi_def_cfa_offset 8
 2559              		.cfi_offset 7, -8
 2560              		.cfi_offset 14, -4
 2561 0002 82B0     		sub	sp, sp, #8
 2562              		.cfi_def_cfa_offset 16
 2563 0004 00AF     		add	r7, sp, #0
 2564              		.cfi_def_cfa_register 7
 562:../app/app.c  **** 	uint8_t ret = 0;
 2565              		.loc 1 562 10
 2566 0006 0023     		movs	r3, #0
 2567 0008 FB71     		strb	r3, [r7, #7]
 563:../app/app.c  **** 
 564:../app/app.c  **** 	switch(app_task_step)
 2568              		.loc 1 564 2
 2569 000a 1E4B     		ldr	r3, .L238
 2570 000c 1B78     		ldrb	r3, [r3]	@ zero_extendqisi2
 2571 000e 032B     		cmp	r3, #3
 2572 0010 31D1     		bne	.L235
 565:../app/app.c  **** 	{
 566:../app/app.c  **** 	case APP_NORMAL_STATE:
 567:../app/app.c  **** 		switch(app_task_substep){
 2573              		.loc 1 567 3
 2574 0012 1D4B     		ldr	r3, .L238+4
 2575 0014 1B78     		ldrb	r3, [r3]	@ zero_extendqisi2
 2576 0016 022B     		cmp	r3, #2
 2577 0018 01D0     		beq	.L225
 2578 001a 042B     		cmp	r3, #4
 2579 001c 29D1     		bne	.L236
 2580              	.L225:
 568:../app/app.c  **** 		case NORMAL_AMERICANO_RUN_STATE:
 569:../app/app.c  **** 		case NORMAL_ESPRESSO_RUN_STATE:
 570:../app/app.c  **** 			display_led(COFFEE4_LED, LED_OFF);
 2581              		.loc 1 570 4 discriminator 1
 2582 001e 0021     		movs	r1, #0
 2583 0020 1320     		movs	r0, #19
 2584 0022 FFF7FEFF 		bl	display_led
 571:../app/app.c  **** 			display_led(COFFEE3_LED, LED_OFF);
 2585              		.loc 1 571 4 discriminator 1
 2586 0026 0021     		movs	r1, #0
 2587 0028 0D20     		movs	r0, #13
 2588 002a FFF7FEFF 		bl	display_led
 572:../app/app.c  **** 			manual_setup.coffee++;
 2589              		.loc 1 572 16 discriminator 1
 2590 002e 174B     		ldr	r3, .L238+8
 2591 0030 5B78     		ldrb	r3, [r3, #1]	@ zero_extendqisi2
 2592              		.loc 1 572 23 discriminator 1
 2593 0032 0133     		adds	r3, r3, #1
 2594 0034 DAB2     		uxtb	r2, r3
 2595 0036 154B     		ldr	r3, .L238+8
 2596 0038 5A70     		strb	r2, [r3, #1]
 573:../app/app.c  **** 			switch(manual_setup.coffee){
 2597              		.loc 1 573 23 discriminator 1
 2598 003a 144B     		ldr	r3, .L238+8
 2599 003c 5B78     		ldrb	r3, [r3, #1]	@ zero_extendqisi2
 2600 003e 032B     		cmp	r3, #3
 2601 0040 06D0     		beq	.L227
 2602 0042 032B     		cmp	r3, #3
 2603 0044 11DC     		bgt	.L237
 2604 0046 012B     		cmp	r3, #1
 2605 0048 0AD0     		beq	.L229
 2606 004a 022B     		cmp	r3, #2
 2607 004c 04D0     		beq	.L230
 574:../app/app.c  **** 			case 3:
 575:../app/app.c  **** 				manual_setup.coffee = 0;
 576:../app/app.c  **** 				break;
 577:../app/app.c  **** 			case 2:
 578:../app/app.c  **** 				display_led(COFFEE4_LED, LED_ON);
 579:../app/app.c  **** 			case 1:
 580:../app/app.c  **** 				display_led(COFFEE3_LED, LED_ON);
 581:../app/app.c  **** 				break;
 582:../app/app.c  **** 			default:
 583:../app/app.c  **** 				break;
 2608              		.loc 1 583 5
 2609 004e 0CE0     		b	.L237
 2610              	.L227:
 575:../app/app.c  **** 				break;
 2611              		.loc 1 575 25
 2612 0050 0E4B     		ldr	r3, .L238+8
 2613 0052 0022     		movs	r2, #0
 2614 0054 5A70     		strb	r2, [r3, #1]
 576:../app/app.c  **** 			case 2:
 2615              		.loc 1 576 5
 2616 0056 09E0     		b	.L231
 2617              	.L230:
 578:../app/app.c  **** 			case 1:
 2618              		.loc 1 578 5
 2619 0058 0121     		movs	r1, #1
 2620 005a 1320     		movs	r0, #19
 2621 005c FFF7FEFF 		bl	display_led
 2622              	.L229:
 580:../app/app.c  **** 				break;
 2623              		.loc 1 580 5
 2624 0060 0121     		movs	r1, #1
 2625 0062 0D20     		movs	r0, #13
 2626 0064 FFF7FEFF 		bl	display_led
 581:../app/app.c  **** 			default:
 2627              		.loc 1 581 5
 2628 0068 00E0     		b	.L231
 2629              	.L237:
 2630              		.loc 1 583 5
 2631 006a 00BF     		nop
 2632              	.L231:
 584:../app/app.c  **** 			}
 585:../app/app.c  **** 			ret = 1;
 2633              		.loc 1 585 8
 2634 006c 0123     		movs	r3, #1
 2635 006e FB71     		strb	r3, [r7, #7]
 586:../app/app.c  **** 			break;
 2636              		.loc 1 586 4
 2637 0070 00E0     		b	.L232
 2638              	.L236:
 587:../app/app.c  **** 		default:
 588:../app/app.c  **** 			break;
 2639              		.loc 1 588 4
 2640 0072 00BF     		nop
 2641              	.L232:
 589:../app/app.c  **** 		}
 590:../app/app.c  **** 		break;
 2642              		.loc 1 590 3
 2643 0074 00E0     		b	.L233
 2644              	.L235:
 591:../app/app.c  **** 	default:
 592:../app/app.c  **** 		break;
 2645              		.loc 1 592 3
 2646 0076 00BF     		nop
 2647              	.L233:
 593:../app/app.c  **** 	}
 594:../app/app.c  **** 	return ret;
 2648              		.loc 1 594 9
 2649 0078 FB79     		ldrb	r3, [r7, #7]	@ zero_extendqisi2
 595:../app/app.c  **** }
 2650              		.loc 1 595 1
 2651 007a 1846     		mov	r0, r3
 2652 007c 0837     		adds	r7, r7, #8
 2653              		.cfi_def_cfa_offset 8
 2654 007e BD46     		mov	sp, r7
 2655              		.cfi_def_cfa_register 13
 2656              		@ sp needed
 2657 0080 80BD     		pop	{r7, pc}
 2658              	.L239:
 2659 0082 00BF     		.align	2
 2660              	.L238:
 2661 0084 00000000 		.word	app_task_step
 2662 0088 00000000 		.word	app_task_substep
 2663 008c 00000000 		.word	manual_setup
 2664              		.cfi_endproc
 2665              	.LFE159:
 2667              		.section	.text.app_water_key_deal,"ax",%progbits
 2668              		.align	1
 2669              		.global	app_water_key_deal
 2670              		.syntax unified
 2671              		.thumb
 2672              		.thumb_func
 2673              		.fpu softvfp
 2675              	app_water_key_deal:
 2676              	.LFB160:
 596:../app/app.c  **** 
 597:../app/app.c  **** uint8_t app_water_key_deal(void)
 598:../app/app.c  **** {
 2677              		.loc 1 598 1
 2678              		.cfi_startproc
 2679              		@ args = 0, pretend = 0, frame = 8
 2680              		@ frame_needed = 1, uses_anonymous_args = 0
 2681 0000 80B5     		push	{r7, lr}
 2682              		.cfi_def_cfa_offset 8
 2683              		.cfi_offset 7, -8
 2684              		.cfi_offset 14, -4
 2685 0002 82B0     		sub	sp, sp, #8
 2686              		.cfi_def_cfa_offset 16
 2687 0004 00AF     		add	r7, sp, #0
 2688              		.cfi_def_cfa_register 7
 599:../app/app.c  **** 	uint8_t ret = 0;
 2689              		.loc 1 599 10
 2690 0006 0023     		movs	r3, #0
 2691 0008 FB71     		strb	r3, [r7, #7]
 600:../app/app.c  **** 
 601:../app/app.c  **** 	switch(app_task_step)
 2692              		.loc 1 601 2
 2693 000a 254B     		ldr	r3, .L254
 2694 000c 1B78     		ldrb	r3, [r3]	@ zero_extendqisi2
 2695 000e 032B     		cmp	r3, #3
 2696 0010 40D1     		bne	.L251
 602:../app/app.c  **** 	{
 603:../app/app.c  **** 	case APP_NORMAL_STATE:
 604:../app/app.c  **** 		switch(app_task_substep){
 2697              		.loc 1 604 3
 2698 0012 244B     		ldr	r3, .L254+4
 2699 0014 1B78     		ldrb	r3, [r3]	@ zero_extendqisi2
 2700 0016 062B     		cmp	r3, #6
 2701 0018 8CBF     		ite	hi
 2702 001a 0122     		movhi	r2, #1
 2703 001c 0022     		movls	r2, #0
 2704 001e D2B2     		uxtb	r2, r2
 2705 0020 002A     		cmp	r2, #0
 2706 0022 35D1     		bne	.L252
 2707 0024 0122     		movs	r2, #1
 2708 0026 02FA03F3 		lsl	r3, r2, r3
 2709 002a 03F05403 		and	r3, r3, #84
 2710 002e 002B     		cmp	r3, #0
 2711 0030 14BF     		ite	ne
 2712 0032 0123     		movne	r3, #1
 2713 0034 0023     		moveq	r3, #0
 2714 0036 DBB2     		uxtb	r3, r3
 2715 0038 002B     		cmp	r3, #0
 2716 003a 29D0     		beq	.L252
 605:../app/app.c  **** 		case NORMAL_AMERICANO_RUN_STATE:
 606:../app/app.c  **** 		case NORMAL_ESPRESSO_RUN_STATE:
 607:../app/app.c  **** 		case NORMAL_HOTWATER_RUN_STATE:
 608:../app/app.c  **** 			display_led(WATER3_LED, LED_OFF);
 2717              		.loc 1 608 4 discriminator 1
 2718 003c 0021     		movs	r1, #0
 2719 003e 1020     		movs	r0, #16
 2720 0040 FFF7FEFF 		bl	display_led
 609:../app/app.c  **** 			display_led(WATER2_LED, LED_OFF);
 2721              		.loc 1 609 4 discriminator 1
 2722 0044 0021     		movs	r1, #0
 2723 0046 1920     		movs	r0, #25
 2724 0048 FFF7FEFF 		bl	display_led
 610:../app/app.c  **** 			manual_setup.water++;
 2725              		.loc 1 610 16 discriminator 1
 2726 004c 164B     		ldr	r3, .L254+8
 2727 004e 9B78     		ldrb	r3, [r3, #2]	@ zero_extendqisi2
 2728              		.loc 1 610 22 discriminator 1
 2729 0050 0133     		adds	r3, r3, #1
 2730 0052 DAB2     		uxtb	r2, r3
 2731 0054 144B     		ldr	r3, .L254+8
 2732 0056 9A70     		strb	r2, [r3, #2]
 611:../app/app.c  **** 			switch(manual_setup.water){
 2733              		.loc 1 611 23 discriminator 1
 2734 0058 134B     		ldr	r3, .L254+8
 2735 005a 9B78     		ldrb	r3, [r3, #2]	@ zero_extendqisi2
 2736 005c 032B     		cmp	r3, #3
 2737 005e 06D0     		beq	.L243
 2738 0060 032B     		cmp	r3, #3
 2739 0062 11DC     		bgt	.L253
 2740 0064 012B     		cmp	r3, #1
 2741 0066 0AD0     		beq	.L245
 2742 0068 022B     		cmp	r3, #2
 2743 006a 04D0     		beq	.L246
 612:../app/app.c  **** 			case 3:
 613:../app/app.c  **** 				manual_setup.water = 0;
 614:../app/app.c  **** 				break;
 615:../app/app.c  **** 			case 2:
 616:../app/app.c  **** 				display_led(WATER3_LED, LED_ON);
 617:../app/app.c  **** 			case 1:
 618:../app/app.c  **** 				display_led(WATER2_LED, LED_ON);
 619:../app/app.c  **** 				break;
 620:../app/app.c  **** 			default:
 621:../app/app.c  **** 				break;
 2744              		.loc 1 621 5
 2745 006c 0CE0     		b	.L253
 2746              	.L243:
 613:../app/app.c  **** 				break;
 2747              		.loc 1 613 24
 2748 006e 0E4B     		ldr	r3, .L254+8
 2749 0070 0022     		movs	r2, #0
 2750 0072 9A70     		strb	r2, [r3, #2]
 614:../app/app.c  **** 			case 2:
 2751              		.loc 1 614 5
 2752 0074 09E0     		b	.L247
 2753              	.L246:
 616:../app/app.c  **** 			case 1:
 2754              		.loc 1 616 5
 2755 0076 0121     		movs	r1, #1
 2756 0078 1020     		movs	r0, #16
 2757 007a FFF7FEFF 		bl	display_led
 2758              	.L245:
 618:../app/app.c  **** 				break;
 2759              		.loc 1 618 5
 2760 007e 0121     		movs	r1, #1
 2761 0080 1920     		movs	r0, #25
 2762 0082 FFF7FEFF 		bl	display_led
 619:../app/app.c  **** 			default:
 2763              		.loc 1 619 5
 2764 0086 00E0     		b	.L247
 2765              	.L253:
 2766              		.loc 1 621 5
 2767 0088 00BF     		nop
 2768              	.L247:
 622:../app/app.c  **** 			}
 623:../app/app.c  **** 			ret = 1;
 2769              		.loc 1 623 8
 2770 008a 0123     		movs	r3, #1
 2771 008c FB71     		strb	r3, [r7, #7]
 624:../app/app.c  **** 			break;
 2772              		.loc 1 624 4
 2773 008e 00E0     		b	.L248
 2774              	.L252:
 625:../app/app.c  **** 		default:
 626:../app/app.c  **** 			break;
 2775              		.loc 1 626 4
 2776 0090 00BF     		nop
 2777              	.L248:
 627:../app/app.c  **** 		}
 628:../app/app.c  **** 		break;
 2778              		.loc 1 628 3
 2779 0092 00E0     		b	.L249
 2780              	.L251:
 629:../app/app.c  **** 	default:
 630:../app/app.c  **** 		break;
 2781              		.loc 1 630 3
 2782 0094 00BF     		nop
 2783              	.L249:
 631:../app/app.c  **** 	}
 632:../app/app.c  **** 	return ret;
 2784              		.loc 1 632 9
 2785 0096 FB79     		ldrb	r3, [r7, #7]	@ zero_extendqisi2
 633:../app/app.c  **** }
 2786              		.loc 1 633 1
 2787 0098 1846     		mov	r0, r3
 2788 009a 0837     		adds	r7, r7, #8
 2789              		.cfi_def_cfa_offset 8
 2790 009c BD46     		mov	sp, r7
 2791              		.cfi_def_cfa_register 13
 2792              		@ sp needed
 2793 009e 80BD     		pop	{r7, pc}
 2794              	.L255:
 2795              		.align	2
 2796              	.L254:
 2797 00a0 00000000 		.word	app_task_step
 2798 00a4 00000000 		.word	app_task_substep
 2799 00a8 00000000 		.word	manual_setup
 2800              		.cfi_endproc
 2801              	.LFE160:
 2803              		.section	.text.app_calc_key_deal,"ax",%progbits
 2804              		.align	1
 2805              		.global	app_calc_key_deal
 2806              		.syntax unified
 2807              		.thumb
 2808              		.thumb_func
 2809              		.fpu softvfp
 2811              	app_calc_key_deal:
 2812              	.LFB161:
 634:../app/app.c  **** 
 635:../app/app.c  **** uint8_t app_calc_key_deal(void)
 636:../app/app.c  **** {
 2813              		.loc 1 636 1
 2814              		.cfi_startproc
 2815              		@ args = 0, pretend = 0, frame = 8
 2816              		@ frame_needed = 1, uses_anonymous_args = 0
 2817 0000 80B5     		push	{r7, lr}
 2818              		.cfi_def_cfa_offset 8
 2819              		.cfi_offset 7, -8
 2820              		.cfi_offset 14, -4
 2821 0002 82B0     		sub	sp, sp, #8
 2822              		.cfi_def_cfa_offset 16
 2823 0004 00AF     		add	r7, sp, #0
 2824              		.cfi_def_cfa_register 7
 637:../app/app.c  **** 	uint8_t ret = 0;
 2825              		.loc 1 637 10
 2826 0006 0023     		movs	r3, #0
 2827 0008 FB71     		strb	r3, [r7, #7]
 638:../app/app.c  **** 
 639:../app/app.c  **** 	switch(app_task_step)
 2828              		.loc 1 639 2
 2829 000a 0B4B     		ldr	r3, .L264
 2830 000c 1B78     		ldrb	r3, [r3]	@ zero_extendqisi2
 2831 000e 032B     		cmp	r3, #3
 2832 0010 0CD1     		bne	.L262
 640:../app/app.c  **** 	{
 641:../app/app.c  **** 	case APP_NORMAL_STATE:
 642:../app/app.c  **** 		switch(app_task_substep){
 2833              		.loc 1 642 3
 2834 0012 0A4B     		ldr	r3, .L264+4
 2835 0014 1B78     		ldrb	r3, [r3]	@ zero_extendqisi2
 2836 0016 0B3B     		subs	r3, r3, #11
 2837 0018 012B     		cmp	r3, #1
 2838 001a 03D9     		bls	.L263
 643:../app/app.c  **** 		case NORMAL_CALC_INIT_STATE:
 644:../app/app.c  **** 		case NORMAL_CALC_RUN_STATE:
 645:../app/app.c  **** 			break;
 646:../app/app.c  **** 		default:
 647:../app/app.c  **** 			app_task_nextsubstep(NORMAL_CALC_INIT_STATE);
 2839              		.loc 1 647 4
 2840 001c 0B20     		movs	r0, #11
 2841 001e FFF7FEFF 		bl	app_task_nextsubstep
 648:../app/app.c  **** 			break;
 2842              		.loc 1 648 4
 2843 0022 00E0     		b	.L259
 2844              	.L263:
 645:../app/app.c  **** 		default:
 2845              		.loc 1 645 4
 2846 0024 00BF     		nop
 2847              	.L259:
 649:../app/app.c  **** 		}
 650:../app/app.c  **** 		ret = 1;
 2848              		.loc 1 650 7
 2849 0026 0123     		movs	r3, #1
 2850 0028 FB71     		strb	r3, [r7, #7]
 651:../app/app.c  **** 		break;
 2851              		.loc 1 651 3
 2852 002a 00E0     		b	.L260
 2853              	.L262:
 652:../app/app.c  **** 	default:
 653:../app/app.c  **** 		break;
 2854              		.loc 1 653 3
 2855 002c 00BF     		nop
 2856              	.L260:
 654:../app/app.c  **** 	}
 655:../app/app.c  **** 	return ret;
 2857              		.loc 1 655 9
 2858 002e FB79     		ldrb	r3, [r7, #7]	@ zero_extendqisi2
 656:../app/app.c  **** }
 2859              		.loc 1 656 1
 2860 0030 1846     		mov	r0, r3
 2861 0032 0837     		adds	r7, r7, #8
 2862              		.cfi_def_cfa_offset 8
 2863 0034 BD46     		mov	sp, r7
 2864              		.cfi_def_cfa_register 13
 2865              		@ sp needed
 2866 0036 80BD     		pop	{r7, pc}
 2867              	.L265:
 2868              		.align	2
 2869              	.L264:
 2870 0038 00000000 		.word	app_task_step
 2871 003c 00000000 		.word	app_task_substep
 2872              		.cfi_endproc
 2873              	.LFE161:
 2875              		.section	.text.app_aqua_key_deal,"ax",%progbits
 2876              		.align	1
 2877              		.global	app_aqua_key_deal
 2878              		.syntax unified
 2879              		.thumb
 2880              		.thumb_func
 2881              		.fpu softvfp
 2883              	app_aqua_key_deal:
 2884              	.LFB162:
 657:../app/app.c  **** 
 658:../app/app.c  **** uint8_t app_aqua_key_deal(void)
 659:../app/app.c  **** {
 2885              		.loc 1 659 1
 2886              		.cfi_startproc
 2887              		@ args = 0, pretend = 0, frame = 8
 2888              		@ frame_needed = 1, uses_anonymous_args = 0
 2889 0000 80B5     		push	{r7, lr}
 2890              		.cfi_def_cfa_offset 8
 2891              		.cfi_offset 7, -8
 2892              		.cfi_offset 14, -4
 2893 0002 82B0     		sub	sp, sp, #8
 2894              		.cfi_def_cfa_offset 16
 2895 0004 00AF     		add	r7, sp, #0
 2896              		.cfi_def_cfa_register 7
 660:../app/app.c  **** 	uint8_t ret = 0;
 2897              		.loc 1 660 10
 2898 0006 0023     		movs	r3, #0
 2899 0008 FB71     		strb	r3, [r7, #7]
 661:../app/app.c  **** 
 662:../app/app.c  **** 	switch(app_task_step)
 2900              		.loc 1 662 2
 2901 000a 0B4B     		ldr	r3, .L274
 2902 000c 1B78     		ldrb	r3, [r3]	@ zero_extendqisi2
 2903 000e 032B     		cmp	r3, #3
 2904 0010 0CD1     		bne	.L272
 663:../app/app.c  **** 	{
 664:../app/app.c  **** 	case APP_NORMAL_STATE:
 665:../app/app.c  **** 		switch(app_task_substep){
 2905              		.loc 1 665 3
 2906 0012 0A4B     		ldr	r3, .L274+4
 2907 0014 1B78     		ldrb	r3, [r3]	@ zero_extendqisi2
 2908 0016 093B     		subs	r3, r3, #9
 2909 0018 012B     		cmp	r3, #1
 2910 001a 03D9     		bls	.L273
 666:../app/app.c  **** 		case NORMAL_AQUA_INIT_STATE:
 667:../app/app.c  **** 		case NORMAL_AQUA_RUN_STATE:
 668:../app/app.c  **** 			break;
 669:../app/app.c  **** 		default:
 670:../app/app.c  **** 			app_task_nextsubstep(NORMAL_AQUA_INIT_STATE);
 2911              		.loc 1 670 4
 2912 001c 0920     		movs	r0, #9
 2913 001e FFF7FEFF 		bl	app_task_nextsubstep
 671:../app/app.c  **** 			break;
 2914              		.loc 1 671 4
 2915 0022 00E0     		b	.L269
 2916              	.L273:
 668:../app/app.c  **** 		default:
 2917              		.loc 1 668 4
 2918 0024 00BF     		nop
 2919              	.L269:
 672:../app/app.c  **** 		}
 673:../app/app.c  **** 		ret = 1;
 2920              		.loc 1 673 7
 2921 0026 0123     		movs	r3, #1
 2922 0028 FB71     		strb	r3, [r7, #7]
 674:../app/app.c  **** 		break;
 2923              		.loc 1 674 3
 2924 002a 00E0     		b	.L270
 2925              	.L272:
 675:../app/app.c  **** 	default:
 676:../app/app.c  **** 		break;
 2926              		.loc 1 676 3
 2927 002c 00BF     		nop
 2928              	.L270:
 677:../app/app.c  **** 	}
 678:../app/app.c  **** 	return ret;
 2929              		.loc 1 678 9
 2930 002e FB79     		ldrb	r3, [r7, #7]	@ zero_extendqisi2
 679:../app/app.c  **** }
 2931              		.loc 1 679 1
 2932 0030 1846     		mov	r0, r3
 2933 0032 0837     		adds	r7, r7, #8
 2934              		.cfi_def_cfa_offset 8
 2935 0034 BD46     		mov	sp, r7
 2936              		.cfi_def_cfa_register 13
 2937              		@ sp needed
 2938 0036 80BD     		pop	{r7, pc}
 2939              	.L275:
 2940              		.align	2
 2941              	.L274:
 2942 0038 00000000 		.word	app_task_step
 2943 003c 00000000 		.word	app_task_substep
 2944              		.cfi_endproc
 2945              	.LFE162:
 2947              		.section	.text.app_pad_key_deal,"ax",%progbits
 2948              		.align	1
 2949              		.global	app_pad_key_deal
 2950              		.syntax unified
 2951              		.thumb
 2952              		.thumb_func
 2953              		.fpu softvfp
 2955              	app_pad_key_deal:
 2956              	.LFB163:
 680:../app/app.c  **** 
 681:../app/app.c  **** 
 682:../app/app.c  **** void app_pad_key_deal(void)
 683:../app/app.c  **** {
 2957              		.loc 1 683 1
 2958              		.cfi_startproc
 2959              		@ args = 0, pretend = 0, frame = 0
 2960              		@ frame_needed = 1, uses_anonymous_args = 0
 2961              		@ link register save eliminated.
 2962 0000 80B4     		push	{r7}
 2963              		.cfi_def_cfa_offset 4
 2964              		.cfi_offset 7, -4
 2965 0002 00AF     		add	r7, sp, #0
 2966              		.cfi_def_cfa_register 7
 684:../app/app.c  **** 	switch(app_task_step)
 2967              		.loc 1 684 2
 2968 0004 034B     		ldr	r3, .L279
 2969 0006 1B78     		ldrb	r3, [r3]	@ zero_extendqisi2
 2970 0008 032B     		cmp	r3, #3
 685:../app/app.c  **** 	{
 686:../app/app.c  **** 	case APP_NORMAL_STATE:
 687:../app/app.c  **** 		break;
 688:../app/app.c  **** 	default:
 689:../app/app.c  **** 		break;
 2971              		.loc 1 689 3
 2972 000a 00BF     		nop
 690:../app/app.c  **** 	}
 691:../app/app.c  **** }
 2973              		.loc 1 691 1
 2974 000c 00BF     		nop
 2975 000e BD46     		mov	sp, r7
 2976              		.cfi_def_cfa_register 13
 2977              		@ sp needed
 2978 0010 80BC     		pop	{r7}
 2979              		.cfi_restore 7
 2980              		.cfi_def_cfa_offset 0
 2981 0012 7047     		bx	lr
 2982              	.L280:
 2983              		.align	2
 2984              	.L279:
 2985 0014 00000000 		.word	app_task_step
 2986              		.cfi_endproc
 2987              	.LFE163:
 2989              		.section	.text.app_key_handler,"ax",%progbits
 2990              		.align	1
 2991              		.global	app_key_handler
 2992              		.syntax unified
 2993              		.thumb
 2994              		.thumb_func
 2995              		.fpu softvfp
 2997              	app_key_handler:
 2998              	.LFB164:
 692:../app/app.c  **** 
 693:../app/app.c  **** /************************************************************************
 694:../app/app.c  **** * function name: app_key_handler
 695:../app/app.c  **** * input: non
 696:../app/app.c  **** * output: non
 697:../app/app.c  **** * description: this object's message loop
 698:../app/app.c  **** *************************************************************************/
 699:../app/app.c  **** void app_key_handler(_keystruct* pkey)
 700:../app/app.c  **** {
 2999              		.loc 1 700 1
 3000              		.cfi_startproc
 3001              		@ args = 0, pretend = 0, frame = 8
 3002              		@ frame_needed = 1, uses_anonymous_args = 0
 3003 0000 80B5     		push	{r7, lr}
 3004              		.cfi_def_cfa_offset 8
 3005              		.cfi_offset 7, -8
 3006              		.cfi_offset 14, -4
 3007 0002 82B0     		sub	sp, sp, #8
 3008              		.cfi_def_cfa_offset 16
 3009 0004 00AF     		add	r7, sp, #0
 3010              		.cfi_def_cfa_register 7
 3011 0006 7860     		str	r0, [r7, #4]
 701:../app/app.c  **** 	if (pkey->ulLPressF & KEY_ONOFF_MASK){
 3012              		.loc 1 701 10
 3013 0008 7B68     		ldr	r3, [r7, #4]
 3014 000a 5B68     		ldr	r3, [r3, #4]
 3015              		.loc 1 701 22
 3016 000c 03F00103 		and	r3, r3, #1
 3017              		.loc 1 701 5
 3018 0010 002B     		cmp	r3, #0
 3019 0012 02D0     		beq	.L282
 702:../app/app.c  **** 		app_buzzer_on(1);
 3020              		.loc 1 702 3
 3021 0014 0120     		movs	r0, #1
 3022 0016 FFF7FEFF 		bl	app_buzzer_on
 3023              	.L282:
 703:../app/app.c  **** 	}
 704:../app/app.c  **** 	if (pkey->ulReleaseF & KEY_ONOFF_MASK){
 3024              		.loc 1 704 10
 3025 001a 7B68     		ldr	r3, [r7, #4]
 3026 001c 9B68     		ldr	r3, [r3, #8]
 3027              		.loc 1 704 23
 3028 001e 03F00103 		and	r3, r3, #1
 3029              		.loc 1 704 5
 3030 0022 002B     		cmp	r3, #0
 3031 0024 19D0     		beq	.L283
 705:../app/app.c  **** 		if (pkey->ulLPressMaskF & KEY_ONOFF_MASK){
 3032              		.loc 1 705 11
 3033 0026 7B68     		ldr	r3, [r7, #4]
 3034 0028 1B69     		ldr	r3, [r3, #16]
 3035              		.loc 1 705 27
 3036 002a 03F00103 		and	r3, r3, #1
 3037              		.loc 1 705 6
 3038 002e 002B     		cmp	r3, #0
 3039 0030 02D0     		beq	.L284
 706:../app/app.c  **** 			app_onoff_key_deal();
 3040              		.loc 1 706 4
 3041 0032 FFF7FEFF 		bl	app_onoff_key_deal
 3042 0036 0AE0     		b	.L285
 3043              	.L284:
 707:../app/app.c  **** 		}
 708:../app/app.c  **** 		else if (FAIL == app_step_state(APP_IDLE_STATE)){
 3044              		.loc 1 708 20
 3045 0038 0120     		movs	r0, #1
 3046 003a FFF7FEFF 		bl	app_step_state
 3047 003e 0346     		mov	r3, r0
 3048              		.loc 1 708 11
 3049 0040 002B     		cmp	r3, #0
 3050 0042 04D1     		bne	.L285
 709:../app/app.c  **** 			app_buzzer_on(1);
 3051              		.loc 1 709 4
 3052 0044 0120     		movs	r0, #1
 3053 0046 FFF7FEFF 		bl	app_buzzer_on
 710:../app/app.c  **** 			app_onoff_key_deal();
 3054              		.loc 1 710 4
 3055 004a FFF7FEFF 		bl	app_onoff_key_deal
 3056              	.L285:
 711:../app/app.c  **** 		}
 712:../app/app.c  **** 		pkey->ulLPressMaskF &= ~KEY_ONOFF_MASK;
 3057              		.loc 1 712 23
 3058 004e 7B68     		ldr	r3, [r7, #4]
 3059 0050 1B69     		ldr	r3, [r3, #16]
 3060 0052 23F00102 		bic	r2, r3, #1
 3061 0056 7B68     		ldr	r3, [r7, #4]
 3062 0058 1A61     		str	r2, [r3, #16]
 3063              	.L283:
 713:../app/app.c  **** 	}
 714:../app/app.c  **** 	
 715:../app/app.c  **** 	if (pkey->ulReleaseF & KEY_START_MASK) {
 3064              		.loc 1 715 10
 3065 005a 7B68     		ldr	r3, [r7, #4]
 3066 005c 9B68     		ldr	r3, [r3, #8]
 3067              		.loc 1 715 23
 3068 005e 03F01003 		and	r3, r3, #16
 3069              		.loc 1 715 5
 3070 0062 002B     		cmp	r3, #0
 3071 0064 07D0     		beq	.L286
 716:../app/app.c  **** 		if (app_start_key_deal()){
 3072              		.loc 1 716 7
 3073 0066 FFF7FEFF 		bl	app_start_key_deal
 3074 006a 0346     		mov	r3, r0
 3075              		.loc 1 716 6
 3076 006c 002B     		cmp	r3, #0
 3077 006e 02D0     		beq	.L286
 717:../app/app.c  **** 			app_buzzer_on(1);
 3078              		.loc 1 717 4
 3079 0070 0120     		movs	r0, #1
 3080 0072 FFF7FEFF 		bl	app_buzzer_on
 3081              	.L286:
 718:../app/app.c  **** 		}
 719:../app/app.c  **** 	}
 720:../app/app.c  **** 
 721:../app/app.c  **** 	if (pkey->ulReleaseF & KEY_ESPRESSO_MASK) {
 3082              		.loc 1 721 10
 3083 0076 7B68     		ldr	r3, [r7, #4]
 3084 0078 9B68     		ldr	r3, [r3, #8]
 3085              		.loc 1 721 23
 3086 007a 03F00403 		and	r3, r3, #4
 3087              		.loc 1 721 5
 3088 007e 002B     		cmp	r3, #0
 3089 0080 07D0     		beq	.L287
 722:../app/app.c  **** 		if (app_espresso_key_deal()){
 3090              		.loc 1 722 7
 3091 0082 FFF7FEFF 		bl	app_espresso_key_deal
 3092 0086 0346     		mov	r3, r0
 3093              		.loc 1 722 6
 3094 0088 002B     		cmp	r3, #0
 3095 008a 02D0     		beq	.L287
 723:../app/app.c  **** 			app_buzzer_on(1);
 3096              		.loc 1 723 4
 3097 008c 0120     		movs	r0, #1
 3098 008e FFF7FEFF 		bl	app_buzzer_on
 3099              	.L287:
 724:../app/app.c  **** 		}
 725:../app/app.c  **** 	}
 726:../app/app.c  **** 	
 727:../app/app.c  **** 	if (pkey->ulReleaseF & KEY_AMERICANO_MASK) {
 3100              		.loc 1 727 10
 3101 0092 7B68     		ldr	r3, [r7, #4]
 3102 0094 9B68     		ldr	r3, [r3, #8]
 3103              		.loc 1 727 23
 3104 0096 03F02003 		and	r3, r3, #32
 3105              		.loc 1 727 5
 3106 009a 002B     		cmp	r3, #0
 3107 009c 07D0     		beq	.L288
 728:../app/app.c  **** 		if (app_ame_key_deal()){
 3108              		.loc 1 728 7
 3109 009e FFF7FEFF 		bl	app_ame_key_deal
 3110 00a2 0346     		mov	r3, r0
 3111              		.loc 1 728 6
 3112 00a4 002B     		cmp	r3, #0
 3113 00a6 02D0     		beq	.L288
 729:../app/app.c  **** 			app_buzzer_on(1);
 3114              		.loc 1 729 4
 3115 00a8 0120     		movs	r0, #1
 3116 00aa FFF7FEFF 		bl	app_buzzer_on
 3117              	.L288:
 730:../app/app.c  **** 		}
 731:../app/app.c  **** 	}
 732:../app/app.c  **** 
 733:../app/app.c  **** 	if (pkey->ulReleaseF & KEY_HOTWATER_MASK) {
 3118              		.loc 1 733 10
 3119 00ae 7B68     		ldr	r3, [r7, #4]
 3120 00b0 9B68     		ldr	r3, [r3, #8]
 3121              		.loc 1 733 23
 3122 00b2 03F00203 		and	r3, r3, #2
 3123              		.loc 1 733 5
 3124 00b6 002B     		cmp	r3, #0
 3125 00b8 07D0     		beq	.L289
 734:../app/app.c  **** 		if (app_hotwater_key_deal()){
 3126              		.loc 1 734 7
 3127 00ba FFF7FEFF 		bl	app_hotwater_key_deal
 3128 00be 0346     		mov	r3, r0
 3129              		.loc 1 734 6
 3130 00c0 002B     		cmp	r3, #0
 3131 00c2 02D0     		beq	.L289
 735:../app/app.c  **** 			app_buzzer_on(1);
 3132              		.loc 1 735 4
 3133 00c4 0120     		movs	r0, #1
 3134 00c6 FFF7FEFF 		bl	app_buzzer_on
 3135              	.L289:
 736:../app/app.c  **** 		}
 737:../app/app.c  **** 	}
 738:../app/app.c  **** 
 739:../app/app.c  **** 	if (pkey->ulReleaseF & KEY_STEAM_MASK) {
 3136              		.loc 1 739 10
 3137 00ca 7B68     		ldr	r3, [r7, #4]
 3138 00cc 9B68     		ldr	r3, [r3, #8]
 3139              		.loc 1 739 23
 3140 00ce 03F00803 		and	r3, r3, #8
 3141              		.loc 1 739 5
 3142 00d2 002B     		cmp	r3, #0
 3143 00d4 07D0     		beq	.L290
 740:../app/app.c  **** 		if (app_steam_key_deal()){
 3144              		.loc 1 740 7
 3145 00d6 FFF7FEFF 		bl	app_steam_key_deal
 3146 00da 0346     		mov	r3, r0
 3147              		.loc 1 740 6
 3148 00dc 002B     		cmp	r3, #0
 3149 00de 02D0     		beq	.L290
 741:../app/app.c  **** 			app_buzzer_on(1);
 3150              		.loc 1 741 4
 3151 00e0 0120     		movs	r0, #1
 3152 00e2 FFF7FEFF 		bl	app_buzzer_on
 3153              	.L290:
 742:../app/app.c  **** 		}
 743:../app/app.c  **** 	}
 744:../app/app.c  **** 	
 745:../app/app.c  **** 	if (pkey->ulReleaseF & KEY_COFFE_MASK) {
 3154              		.loc 1 745 10
 3155 00e6 7B68     		ldr	r3, [r7, #4]
 3156 00e8 9B68     		ldr	r3, [r3, #8]
 3157              		.loc 1 745 23
 3158 00ea 03F04003 		and	r3, r3, #64
 3159              		.loc 1 745 5
 3160 00ee 002B     		cmp	r3, #0
 3161 00f0 07D0     		beq	.L291
 746:../app/app.c  **** 		if (app_coffee_key_deal()){
 3162              		.loc 1 746 7
 3163 00f2 FFF7FEFF 		bl	app_coffee_key_deal
 3164 00f6 0346     		mov	r3, r0
 3165              		.loc 1 746 6
 3166 00f8 002B     		cmp	r3, #0
 3167 00fa 02D0     		beq	.L291
 747:../app/app.c  **** 			app_buzzer_on(1);
 3168              		.loc 1 747 4
 3169 00fc 0120     		movs	r0, #1
 3170 00fe FFF7FEFF 		bl	app_buzzer_on
 3171              	.L291:
 748:../app/app.c  **** 		}
 749:../app/app.c  **** 	}
 750:../app/app.c  **** 	
 751:../app/app.c  **** 	if (pkey->ulReleaseF & KEY_WATER_MASK) {
 3172              		.loc 1 751 10
 3173 0102 7B68     		ldr	r3, [r7, #4]
 3174 0104 9B68     		ldr	r3, [r3, #8]
 3175              		.loc 1 751 23
 3176 0106 03F48063 		and	r3, r3, #1024
 3177              		.loc 1 751 5
 3178 010a 002B     		cmp	r3, #0
 3179 010c 07D0     		beq	.L292
 752:../app/app.c  **** 		if (app_water_key_deal()){
 3180              		.loc 1 752 7
 3181 010e FFF7FEFF 		bl	app_water_key_deal
 3182 0112 0346     		mov	r3, r0
 3183              		.loc 1 752 6
 3184 0114 002B     		cmp	r3, #0
 3185 0116 02D0     		beq	.L292
 753:../app/app.c  **** 			app_buzzer_on(1);
 3186              		.loc 1 753 4
 3187 0118 0120     		movs	r0, #1
 3188 011a FFF7FEFF 		bl	app_buzzer_on
 3189              	.L292:
 754:../app/app.c  **** 		}
 755:../app/app.c  **** 	}
 756:../app/app.c  **** 
 757:../app/app.c  **** 	if (pkey->ulLPressF & KEY_CALC_MASK) {
 3190              		.loc 1 757 10
 3191 011e 7B68     		ldr	r3, [r7, #4]
 3192 0120 5B68     		ldr	r3, [r3, #4]
 3193              		.loc 1 757 22
 3194 0122 03F40073 		and	r3, r3, #512
 3195              		.loc 1 757 5
 3196 0126 002B     		cmp	r3, #0
 3197 0128 07D0     		beq	.L293
 758:../app/app.c  **** 		if (app_calc_key_deal()){
 3198              		.loc 1 758 7
 3199 012a FFF7FEFF 		bl	app_calc_key_deal
 3200 012e 0346     		mov	r3, r0
 3201              		.loc 1 758 6
 3202 0130 002B     		cmp	r3, #0
 3203 0132 02D0     		beq	.L293
 759:../app/app.c  **** 			app_buzzer_on(1);
 3204              		.loc 1 759 4
 3205 0134 0120     		movs	r0, #1
 3206 0136 FFF7FEFF 		bl	app_buzzer_on
 3207              	.L293:
 760:../app/app.c  **** 		}
 761:../app/app.c  **** 	}
 762:../app/app.c  **** 
 763:../app/app.c  **** 	if (pkey->ulLPressF & KEY_AQUA_MASK) {
 3208              		.loc 1 763 10
 3209 013a 7B68     		ldr	r3, [r7, #4]
 3210 013c 5B68     		ldr	r3, [r3, #4]
 3211              		.loc 1 763 22
 3212 013e 03F48073 		and	r3, r3, #256
 3213              		.loc 1 763 5
 3214 0142 002B     		cmp	r3, #0
 3215 0144 07D0     		beq	.L294
 764:../app/app.c  **** 		if (app_aqua_key_deal()){
 3216              		.loc 1 764 7
 3217 0146 FFF7FEFF 		bl	app_aqua_key_deal
 3218 014a 0346     		mov	r3, r0
 3219              		.loc 1 764 6
 3220 014c 002B     		cmp	r3, #0
 3221 014e 02D0     		beq	.L294
 765:../app/app.c  **** 			app_buzzer_on(1);
 3222              		.loc 1 765 4
 3223 0150 0120     		movs	r0, #1
 3224 0152 FFF7FEFF 		bl	app_buzzer_on
 3225              	.L294:
 766:../app/app.c  **** 		}
 767:../app/app.c  **** 	}
 768:../app/app.c  **** 	
 769:../app/app.c  **** 	if (pkey->ulReleaseF & KEY_PAD_MASK) {
 3226              		.loc 1 769 10
 3227 0156 7B68     		ldr	r3, [r7, #4]
 3228 0158 9B68     		ldr	r3, [r3, #8]
 3229              		.loc 1 769 23
 3230 015a 03F08003 		and	r3, r3, #128
 3231              		.loc 1 769 5
 3232 015e 002B     		cmp	r3, #0
 3233 0160 01D0     		beq	.L296
 770:../app/app.c  **** 		app_pad_key_deal();
 3234              		.loc 1 770 3
 3235 0162 FFF7FEFF 		bl	app_pad_key_deal
 3236              	.L296:
 771:../app/app.c  **** 	}
 772:../app/app.c  **** }
 3237              		.loc 1 772 1
 3238 0166 00BF     		nop
 3239 0168 0837     		adds	r7, r7, #8
 3240              		.cfi_def_cfa_offset 8
 3241 016a BD46     		mov	sp, r7
 3242              		.cfi_def_cfa_register 13
 3243              		@ sp needed
 3244 016c 80BD     		pop	{r7, pc}
 3245              		.cfi_endproc
 3246              	.LFE164:
 3248              		.section	.text.app_init_handler,"ax",%progbits
 3249              		.align	1
 3250              		.global	app_init_handler
 3251              		.syntax unified
 3252              		.thumb
 3253              		.thumb_func
 3254              		.fpu softvfp
 3256              	app_init_handler:
 3257              	.LFB165:
 773:../app/app.c  **** 
 774:../app/app.c  **** /************************************************************************
 775:../app/app.c  **** * function name: app_init_handler
 776:../app/app.c  **** * input: non
 777:../app/app.c  **** * output: non
 778:../app/app.c  **** * description: object thread
 779:../app/app.c  **** *************************************************************************/
 780:../app/app.c  **** void app_init_handler(void)
 781:../app/app.c  **** {
 3258              		.loc 1 781 1
 3259              		.cfi_startproc
 3260              		@ args = 0, pretend = 0, frame = 0
 3261              		@ frame_needed = 1, uses_anonymous_args = 0
 3262 0000 80B5     		push	{r7, lr}
 3263              		.cfi_def_cfa_offset 8
 3264              		.cfi_offset 7, -8
 3265              		.cfi_offset 14, -4
 3266 0002 00AF     		add	r7, sp, #0
 3267              		.cfi_def_cfa_register 7
 782:../app/app.c  **** 	switch(app_task_substep)
 3268              		.loc 1 782 2
 3269 0004 114B     		ldr	r3, .L304
 3270 0006 1B78     		ldrb	r3, [r3]	@ zero_extendqisi2
 3271 0008 022B     		cmp	r3, #2
 3272 000a 17D0     		beq	.L298
 3273 000c 022B     		cmp	r3, #2
 3274 000e 1ADC     		bgt	.L303
 3275 0010 002B     		cmp	r3, #0
 3276 0012 02D0     		beq	.L300
 3277 0014 012B     		cmp	r3, #1
 3278 0016 0AD0     		beq	.L301
 783:../app/app.c  **** 	{
 784:../app/app.c  **** 		case INIT_STATE:
 785:../app/app.c  **** 			/* add init code here */
 786:../app/app.c  **** 			osal_lyh_over_timer(OS_VIRAC_50HZ, Ms_10, app_virtual_croszero_cbfunc);
 787:../app/app.c  **** 			app_task_substep = INIT_READY_STATE;
 788:../app/app.c  **** 			break;
 789:../app/app.c  **** 		case INIT_READY_STATE:
 790:../app/app.c  **** 			osal_lyh_delay_task(Ms_2);
 791:../app/app.c  **** 			app_task_substep = INIT_END_STATE;
 792:../app/app.c  **** 			break;
 793:../app/app.c  **** 		case INIT_END_STATE:
 794:../app/app.c  **** 			app_task_nextstep(APP_IDLE_STATE, IDLE_INIT_STATE);
 795:../app/app.c  **** 			break;
 796:../app/app.c  **** 		default:
 797:../app/app.c  **** 			break;
 3279              		.loc 1 797 4
 3280 0018 15E0     		b	.L303
 3281              	.L300:
 786:../app/app.c  **** 			app_task_substep = INIT_READY_STATE;
 3282              		.loc 1 786 4
 3283 001a 0D4A     		ldr	r2, .L304+4
 3284 001c 0A21     		movs	r1, #10
 3285 001e 4FF40040 		mov	r0, #32768
 3286 0022 FFF7FEFF 		bl	osal_lyh_over_timer
 787:../app/app.c  **** 			break;
 3287              		.loc 1 787 21
 3288 0026 094B     		ldr	r3, .L304
 3289 0028 0122     		movs	r2, #1
 3290 002a 1A70     		strb	r2, [r3]
 788:../app/app.c  **** 		case INIT_READY_STATE:
 3291              		.loc 1 788 4
 3292 002c 0CE0     		b	.L302
 3293              	.L301:
 790:../app/app.c  **** 			app_task_substep = INIT_END_STATE;
 3294              		.loc 1 790 4
 3295 002e 0220     		movs	r0, #2
 3296 0030 FFF7FEFF 		bl	osal_lyh_delay_task
 791:../app/app.c  **** 			break;
 3297              		.loc 1 791 21
 3298 0034 054B     		ldr	r3, .L304
 3299 0036 0222     		movs	r2, #2
 3300 0038 1A70     		strb	r2, [r3]
 792:../app/app.c  **** 		case INIT_END_STATE:
 3301              		.loc 1 792 4
 3302 003a 05E0     		b	.L302
 3303              	.L298:
 794:../app/app.c  **** 			break;
 3304              		.loc 1 794 4
 3305 003c 0021     		movs	r1, #0
 3306 003e 0120     		movs	r0, #1
 3307 0040 FFF7FEFF 		bl	app_task_nextstep
 795:../app/app.c  **** 		default:
 3308              		.loc 1 795 4
 3309 0044 00E0     		b	.L302
 3310              	.L303:
 3311              		.loc 1 797 4
 3312 0046 00BF     		nop
 3313              	.L302:
 798:../app/app.c  **** 	}
 799:../app/app.c  **** }
 3314              		.loc 1 799 1
 3315 0048 00BF     		nop
 3316 004a 80BD     		pop	{r7, pc}
 3317              	.L305:
 3318              		.align	2
 3319              	.L304:
 3320 004c 00000000 		.word	app_task_substep
 3321 0050 00000000 		.word	app_virtual_croszero_cbfunc
 3322              		.cfi_endproc
 3323              	.LFE165:
 3325              		.section	.text.app_idle_handler,"ax",%progbits
 3326              		.align	1
 3327              		.global	app_idle_handler
 3328              		.syntax unified
 3329              		.thumb
 3330              		.thumb_func
 3331              		.fpu softvfp
 3333              	app_idle_handler:
 3334              	.LFB166:
 800:../app/app.c  **** 
 801:../app/app.c  **** /************************************************************************
 802:../app/app.c  **** * function name: app_idle_handler
 803:../app/app.c  **** * input: non
 804:../app/app.c  **** * output: non
 805:../app/app.c  **** * description: object thread
 806:../app/app.c  **** *************************************************************************/
 807:../app/app.c  **** void app_idle_handler(void)
 808:../app/app.c  **** {
 3335              		.loc 1 808 1
 3336              		.cfi_startproc
 3337              		@ args = 0, pretend = 0, frame = 0
 3338              		@ frame_needed = 1, uses_anonymous_args = 0
 3339 0000 80B5     		push	{r7, lr}
 3340              		.cfi_def_cfa_offset 8
 3341              		.cfi_offset 7, -8
 3342              		.cfi_offset 14, -4
 3343 0002 00AF     		add	r7, sp, #0
 3344              		.cfi_def_cfa_register 7
 809:../app/app.c  **** 	switch(app_task_substep)
 3345              		.loc 1 809 2
 3346 0004 0A4B     		ldr	r3, .L311
 3347 0006 1B78     		ldrb	r3, [r3]	@ zero_extendqisi2
 3348 0008 002B     		cmp	r3, #0
 3349 000a 02D0     		beq	.L307
 3350 000c 012B     		cmp	r3, #1
 3351 000e 08D0     		beq	.L308
 810:../app/app.c  **** 	{
 811:../app/app.c  **** 		case IDLE_INIT_STATE:
 812:../app/app.c  **** 			display_init();
 813:../app/app.c  **** 			app_turn_heat_off();
 814:../app/app.c  **** 			app_task_substep = IDLE_RUN_STATE;
 815:../app/app.c  **** 			break;
 816:../app/app.c  **** 		case IDLE_RUN_STATE:
 817:../app/app.c  **** 			osal_lyh_delay_task(Ms_500);
 818:../app/app.c  **** 			break;
 819:../app/app.c  **** 		default:
 820:../app/app.c  **** 			break;
 3352              		.loc 1 820 4
 3353 0010 0CE0     		b	.L310
 3354              	.L307:
 812:../app/app.c  **** 			app_turn_heat_off();
 3355              		.loc 1 812 4
 3356 0012 FFF7FEFF 		bl	display_init
 813:../app/app.c  **** 			app_task_substep = IDLE_RUN_STATE;
 3357              		.loc 1 813 4
 3358 0016 FFF7FEFF 		bl	app_turn_heat_off
 814:../app/app.c  **** 			break;
 3359              		.loc 1 814 21
 3360 001a 054B     		ldr	r3, .L311
 3361 001c 0122     		movs	r2, #1
 3362 001e 1A70     		strb	r2, [r3]
 815:../app/app.c  **** 		case IDLE_RUN_STATE:
 3363              		.loc 1 815 4
 3364 0020 04E0     		b	.L310
 3365              	.L308:
 817:../app/app.c  **** 			break;
 3366              		.loc 1 817 4
 3367 0022 4FF4FA70 		mov	r0, #500
 3368 0026 FFF7FEFF 		bl	osal_lyh_delay_task
 818:../app/app.c  **** 		default:
 3369              		.loc 1 818 4
 3370 002a 00BF     		nop
 3371              	.L310:
 821:../app/app.c  **** 	}
 822:../app/app.c  **** }
 3372              		.loc 1 822 1
 3373 002c 00BF     		nop
 3374 002e 80BD     		pop	{r7, pc}
 3375              	.L312:
 3376              		.align	2
 3377              	.L311:
 3378 0030 00000000 		.word	app_task_substep
 3379              		.cfi_endproc
 3380              	.LFE166:
 3382              		.section	.text.app_startup_handler,"ax",%progbits
 3383              		.align	1
 3384              		.global	app_startup_handler
 3385              		.syntax unified
 3386              		.thumb
 3387              		.thumb_func
 3388              		.fpu softvfp
 3390              	app_startup_handler:
 3391              	.LFB167:
 823:../app/app.c  **** 
 824:../app/app.c  **** /************************************************************************
 825:../app/app.c  **** * function name: app_startup_handler
 826:../app/app.c  **** * input: non
 827:../app/app.c  **** * output: non
 828:../app/app.c  **** * description: object thread
 829:../app/app.c  **** *************************************************************************/
 830:../app/app.c  **** void app_startup_handler(void)
 831:../app/app.c  **** {
 3392              		.loc 1 831 1
 3393              		.cfi_startproc
 3394              		@ args = 0, pretend = 0, frame = 0
 3395              		@ frame_needed = 1, uses_anonymous_args = 0
 3396 0000 80B5     		push	{r7, lr}
 3397              		.cfi_def_cfa_offset 8
 3398              		.cfi_offset 7, -8
 3399              		.cfi_offset 14, -4
 3400 0002 00AF     		add	r7, sp, #0
 3401              		.cfi_def_cfa_register 7
 832:../app/app.c  **** 	switch(app_task_substep)
 3402              		.loc 1 832 2
 3403 0004 BD4B     		ldr	r3, .L361
 3404 0006 1B78     		ldrb	r3, [r3]	@ zero_extendqisi2
 3405 0008 102B     		cmp	r3, #16
 3406 000a 00F2AD81 		bhi	.L357
 3407 000e 01A2     		adr	r2, .L316
 3408 0010 52F823F0 		ldr	pc, [r2, r3, lsl #2]
 3409              		.p2align 2
 3410              	.L316:
 3411 0014 59000000 		.word	.L332+1
 3412 0018 9B000000 		.word	.L331+1
 3413 001c C5000000 		.word	.L330+1
 3414 0020 07010000 		.word	.L329+1
 3415 0024 21010000 		.word	.L328+1
 3416 0028 59010000 		.word	.L327+1
 3417 002c 83010000 		.word	.L326+1
 3418 0030 BB010000 		.word	.L325+1
 3419 0034 D5010000 		.word	.L324+1
 3420 0038 0F020000 		.word	.L323+1
 3421 003c 23020000 		.word	.L322+1
 3422 0040 53020000 		.word	.L321+1
 3423 0044 6F020000 		.word	.L320+1
 3424 0048 B1020000 		.word	.L319+1
 3425 004c CD020000 		.word	.L318+1
 3426 0050 05030000 		.word	.L317+1
 3427 0054 31030000 		.word	.L315+1
 3428              		.p2align 1
 3429              	.L332:
 833:../app/app.c  **** 	{
 834:../app/app.c  **** 		/* ÕÉ»ÕŖ©µĄüń©ŗÕłØÕ¦ŗÕī¢ */
 835:../app/app.c  **** 		case STARTUP_INIT_STATE:
 836:../app/app.c  **** 			key_prohibit_setup(KEY_ONOFF_MASK, TRUE);		//Õ▒ÅĶöĮon/off
 3430              		.loc 1 836 4
 3431 0058 0121     		movs	r1, #1
 3432 005a 0120     		movs	r0, #1
 3433 005c FFF7FEFF 		bl	key_prohibit_setup
 837:../app/app.c  **** 			app_task_substep = STARTUP_ENTRY_STATE;
 3434              		.loc 1 837 21
 3435 0060 A64B     		ldr	r3, .L361
 3436 0062 0122     		movs	r2, #1
 3437 0064 1A70     		strb	r2, [r3]
 838:../app/app.c  **** 			if (FAIL == app_pallet_ready()){
 3438              		.loc 1 838 16
 3439 0066 FFF7FEFF 		bl	app_pallet_ready
 3440 006a 0346     		mov	r3, r0
 3441              		.loc 1 838 7
 3442 006c 002B     		cmp	r3, #0
 3443 006e 06D1     		bne	.L333
 839:../app/app.c  **** 				display_led(PALLET_ERR_LED, LED_ON);
 3444              		.loc 1 839 5
 3445 0070 0121     		movs	r1, #1
 3446 0072 0820     		movs	r0, #8
 3447 0074 FFF7FEFF 		bl	display_led
 840:../app/app.c  **** 				app_task_substep = STARTUP_FAIL_STATE;
 3448              		.loc 1 840 22
 3449 0078 A04B     		ldr	r3, .L361
 3450 007a 1022     		movs	r2, #16
 3451 007c 1A70     		strb	r2, [r3]
 3452              	.L333:
 841:../app/app.c  **** 			}
 842:../app/app.c  **** 			if (FAIL == app_water_ready()){
 3453              		.loc 1 842 16
 3454 007e FFF7FEFF 		bl	app_water_ready
 3455 0082 0346     		mov	r3, r0
 3456              		.loc 1 842 7
 3457 0084 002B     		cmp	r3, #0
 3458 0086 40F07181 		bne	.L358
 843:../app/app.c  **** 				display_led(WATER_ERR_LED, LED_ON);
 3459              		.loc 1 843 5
 3460 008a 0121     		movs	r1, #1
 3461 008c 0E20     		movs	r0, #14
 3462 008e FFF7FEFF 		bl	display_led
 844:../app/app.c  **** 				app_task_substep = STARTUP_FAIL_STATE;
 3463              		.loc 1 844 22
 3464 0092 9A4B     		ldr	r3, .L361
 3465 0094 1022     		movs	r2, #16
 3466 0096 1A70     		strb	r2, [r3]
 845:../app/app.c  **** 			}
 846:../app/app.c  **** 			break;
 3467              		.loc 1 846 4
 3468 0098 68E1     		b	.L358
 3469              	.L331:
 847:../app/app.c  **** 		/* µĄüń©ŗÕ╝ĆÕ¦ŗ’╝ÜLEDµĄüµ░┤ńü»ŃĆüńöĄµ£║ÕŖ©õĮ£ŃĆüÕ╝ĆÕÉ»ÕŖĀńāŁ */	
 848:../app/app.c  **** 		case STARTUP_ENTRY_STATE:
 849:../app/app.c  **** 			app_led_show_init();
 3470              		.loc 1 849 4
 3471 009a FFF7FEFF 		bl	app_led_show_init
 850:../app/app.c  **** 			dc_motor_ClearFault();
 3472              		.loc 1 850 4
 3473 009e FFF7FEFF 		bl	dc_motor_ClearFault
 851:../app/app.c  **** 			dc_motor_Start(MOTOR_RIGHT);
 3474              		.loc 1 851 4
 3475 00a2 0120     		movs	r0, #1
 3476 00a4 FFF7FEFF 		bl	dc_motor_Start
 852:../app/app.c  **** 			app_turn_heat_on(TARGET_TEMP_STARTUP);
 3477              		.loc 1 852 4
 3478 00a8 40F6A230 		movw	r0, #2978
 3479 00ac FFF7FEFF 		bl	app_turn_heat_on
 853:../app/app.c  **** 			app_task_substep = STARTUP_RIGHT_RST_STATE;
 3480              		.loc 1 853 21
 3481 00b0 924B     		ldr	r3, .L361
 3482 00b2 0222     		movs	r2, #2
 3483 00b4 1A70     		strb	r2, [r3]
 854:../app/app.c  **** 			run_max_time = RIGHT_TIMER(Ms_2000, Ms_100);
 3484              		.loc 1 854 17
 3485 00b6 924B     		ldr	r3, .L361+4
 3486 00b8 1422     		movs	r2, #20
 3487 00ba 1A80     		strh	r2, [r3]	@ movhi
 855:../app/app.c  **** 			osal_lyh_delay_task(Ms_100);
 3488              		.loc 1 855 4
 3489 00bc 6420     		movs	r0, #100
 3490 00be FFF7FEFF 		bl	osal_lyh_delay_task
 856:../app/app.c  **** 			break;
 3491              		.loc 1 856 4
 3492 00c2 56E1     		b	.L335
 3493              	.L330:
 857:../app/app.c  **** 		/* Õłżµ¢ŁńöĄµ£║µś»ÕÉ”Õł░Ķ¦”ńé╣ */	
 858:../app/app.c  **** 		case STARTUP_RIGHT_RST_STATE:
 859:../app/app.c  **** 			if ((MOTOR_STATE_STOPED == dc_motor_GetState())
 3494              		.loc 1 859 31
 3495 00c4 FFF7FEFF 		bl	dc_motor_GetState
 3496 00c8 0346     		mov	r3, r0
 3497              		.loc 1 859 7
 3498 00ca 002B     		cmp	r3, #0
 3499 00cc 0ED0     		beq	.L336
 860:../app/app.c  **** 				|| (TRUE == app_motor_ready())
 3500              		.loc 1 860 17
 3501 00ce FFF7FEFF 		bl	app_motor_ready
 3502 00d2 0346     		mov	r3, r0
 3503              		.loc 1 860 5
 3504 00d4 012B     		cmp	r3, #1
 3505 00d6 09D0     		beq	.L336
 861:../app/app.c  **** 				|| (--run_max_time == 0)){
 3506              		.loc 1 861 9
 3507 00d8 894B     		ldr	r3, .L361+4
 3508 00da 1B88     		ldrh	r3, [r3]
 3509 00dc 013B     		subs	r3, r3, #1
 3510 00de 9AB2     		uxth	r2, r3
 3511              		.loc 1 861 5
 3512 00e0 874B     		ldr	r3, .L361+4
 3513 00e2 1A80     		strh	r2, [r3]	@ movhi
 3514              		.loc 1 861 9
 3515 00e4 864B     		ldr	r3, .L361+4
 3516 00e6 1B88     		ldrh	r3, [r3]
 3517              		.loc 1 861 5
 3518 00e8 002B     		cmp	r3, #0
 3519 00ea 08D1     		bne	.L337
 3520              	.L336:
 862:../app/app.c  **** 				dc_motor_Stop();
 3521              		.loc 1 862 5
 3522 00ec FFF7FEFF 		bl	dc_motor_Stop
 863:../app/app.c  **** 				osal_lyh_delay_task(Ms_200);
 3523              		.loc 1 863 5
 3524 00f0 C820     		movs	r0, #200
 3525 00f2 FFF7FEFF 		bl	osal_lyh_delay_task
 864:../app/app.c  **** 				app_task_substep = STARTUP_LEFT_STATE;
 3526              		.loc 1 864 22
 3527 00f6 814B     		ldr	r3, .L361
 3528 00f8 0322     		movs	r2, #3
 3529 00fa 1A70     		strb	r2, [r3]
 865:../app/app.c  **** 			}
 866:../app/app.c  **** 			else {
 867:../app/app.c  **** 				osal_lyh_delay_task(Ms_100);
 868:../app/app.c  **** 			}
 869:../app/app.c  **** 			break;
 3530              		.loc 1 869 4
 3531 00fc 39E1     		b	.L335
 3532              	.L337:
 867:../app/app.c  **** 			}
 3533              		.loc 1 867 5
 3534 00fe 6420     		movs	r0, #100
 3535 0100 FFF7FEFF 		bl	osal_lyh_delay_task
 3536              		.loc 1 869 4
 3537 0104 35E1     		b	.L335
 3538              	.L329:
 870:../app/app.c  **** 		/* ńöĄµ£║Õø×ĶĮ¼Õł░ÕÄ¤ńé╣ */	
 871:../app/app.c  **** 		case STARTUP_LEFT_STATE:
 872:../app/app.c  **** 			dc_motor_Start(MOTOR_LEFT);
 3539              		.loc 1 872 4
 3540 0106 0220     		movs	r0, #2
 3541 0108 FFF7FEFF 		bl	dc_motor_Start
 873:../app/app.c  **** 			osal_lyh_delay_task(Ms_100);
 3542              		.loc 1 873 4
 3543 010c 6420     		movs	r0, #100
 3544 010e FFF7FEFF 		bl	osal_lyh_delay_task
 874:../app/app.c  **** 			run_max_time = LEFT_TIMER(MOTOR_FIX_TIME, Ms_100);
 3545              		.loc 1 874 17
 3546 0112 7B4B     		ldr	r3, .L361+4
 3547 0114 0322     		movs	r2, #3
 3548 0116 1A80     		strh	r2, [r3]	@ movhi
 875:../app/app.c  **** 			app_task_substep = STARTUP_LEFT_RST_STATE;
 3549              		.loc 1 875 21
 3550 0118 784B     		ldr	r3, .L361
 3551 011a 0422     		movs	r2, #4
 3552 011c 1A70     		strb	r2, [r3]
 876:../app/app.c  **** 			break;
 3553              		.loc 1 876 4
 3554 011e 28E1     		b	.L335
 3555              	.L328:
 877:../app/app.c  **** 		/* Õłżµ¢ŁńöĄµ£║µś»ÕÉ”ĶĮ¼Õø×ÕÄ¤ńé╣ */	
 878:../app/app.c  **** 		case STARTUP_LEFT_RST_STATE:
 879:../app/app.c  **** 			if (1/*(FAIL == app_motor_ready())*/	// deleting point,(temp to cancel) 
 880:../app/app.c  **** 				&& ((MOTOR_STATE_STOPED == dc_motor_GetState())
 3556              		.loc 1 880 32
 3557 0120 FFF7FEFF 		bl	dc_motor_GetState
 3558 0124 0346     		mov	r3, r0
 879:../app/app.c  **** 				&& ((MOTOR_STATE_STOPED == dc_motor_GetState())
 3559              		.loc 1 879 7
 3560 0126 002B     		cmp	r3, #0
 3561 0128 09D0     		beq	.L339
 881:../app/app.c  **** 				|| (--run_max_time == 0))){
 3562              		.loc 1 881 9
 3563 012a 754B     		ldr	r3, .L361+4
 3564 012c 1B88     		ldrh	r3, [r3]
 3565 012e 013B     		subs	r3, r3, #1
 3566 0130 9AB2     		uxth	r2, r3
 880:../app/app.c  **** 				|| (--run_max_time == 0))){
 3567              		.loc 1 880 5
 3568 0132 734B     		ldr	r3, .L361+4
 3569 0134 1A80     		strh	r2, [r3]	@ movhi
 3570              		.loc 1 881 9
 3571 0136 724B     		ldr	r3, .L361+4
 3572 0138 1B88     		ldrh	r3, [r3]
 880:../app/app.c  **** 				|| (--run_max_time == 0))){
 3573              		.loc 1 880 5
 3574 013a 002B     		cmp	r3, #0
 3575 013c 08D1     		bne	.L340
 3576              	.L339:
 882:../app/app.c  **** 				dc_motor_Stop();
 3577              		.loc 1 882 5
 3578 013e FFF7FEFF 		bl	dc_motor_Stop
 883:../app/app.c  **** 				key_prohibit_setup(KEY_ONOFF_MASK, FAIL);
 3579              		.loc 1 883 5
 3580 0142 0021     		movs	r1, #0
 3581 0144 0120     		movs	r0, #1
 3582 0146 FFF7FEFF 		bl	key_prohibit_setup
 884:../app/app.c  **** 				app_task_substep = STARTUP_HEAT_RDY_STATE;
 3583              		.loc 1 884 22
 3584 014a 6C4B     		ldr	r3, .L361
 3585 014c 0522     		movs	r2, #5
 3586 014e 1A70     		strb	r2, [r3]
 3587              	.L340:
 885:../app/app.c  **** 			}
 886:../app/app.c  **** 			osal_lyh_delay_task(Ms_100);
 3588              		.loc 1 886 4
 3589 0150 6420     		movs	r0, #100
 3590 0152 FFF7FEFF 		bl	osal_lyh_delay_task
 887:../app/app.c  **** 			break;
 3591              		.loc 1 887 4
 3592 0156 0CE1     		b	.L335
 3593              	.L327:
 888:../app/app.c  **** 		/* Õłżµ¢ŁµĖ®Õ║”µś»ÕÉ”Õł░ĶŠŠ */	
 889:../app/app.c  **** 		case STARTUP_HEAT_RDY_STATE:
 890:../app/app.c  **** 			if (TRUE == app_temperature_state(TARGET_TEMP_107D)){
 3594              		.loc 1 890 16
 3595 0158 40F6BA00 		movw	r0, #2234
 3596 015c FFF7FEFF 		bl	app_temperature_state
 3597 0160 0346     		mov	r3, r0
 3598              		.loc 1 890 7
 3599 0162 012B     		cmp	r3, #1
 3600 0164 03D1     		bne	.L341
 891:../app/app.c  **** 				app_task_substep = STARTUP_COMPLETE_STATE;
 3601              		.loc 1 891 22
 3602 0166 654B     		ldr	r3, .L361
 3603 0168 0F22     		movs	r2, #15
 3604 016a 1A70     		strb	r2, [r3]
 3605 016c 05E0     		b	.L342
 3606              	.L341:
 892:../app/app.c  **** 			}
 893:../app/app.c  **** 			else {
 894:../app/app.c  **** 				run_max_time = HEAT_MAX_TIMER(Ms_100);
 3607              		.loc 1 894 18
 3608 016e 644B     		ldr	r3, .L361+4
 3609 0170 C822     		movs	r2, #200
 3610 0172 1A80     		strh	r2, [r3]	@ movhi
 895:../app/app.c  **** 				app_task_substep = STARTUP_HEAT_ING_STATE;
 3611              		.loc 1 895 22
 3612 0174 614B     		ldr	r3, .L361
 3613 0176 0622     		movs	r2, #6
 3614 0178 1A70     		strb	r2, [r3]
 3615              	.L342:
 896:../app/app.c  **** 			}
 897:../app/app.c  **** 			osal_lyh_delay_task(Ms_100);
 3616              		.loc 1 897 4
 3617 017a 6420     		movs	r0, #100
 3618 017c FFF7FEFF 		bl	osal_lyh_delay_task
 898:../app/app.c  **** 			break;	
 3619              		.loc 1 898 4
 3620 0180 F7E0     		b	.L335
 3621              	.L326:
 899:../app/app.c  **** 		case STARTUP_HEAT_ING_STATE:
 900:../app/app.c  **** 			if ((TRUE == app_temperature_state(TARGET_TEMP_107D))
 3622              		.loc 1 900 17
 3623 0182 40F6BA00 		movw	r0, #2234
 3624 0186 FFF7FEFF 		bl	app_temperature_state
 3625 018a 0346     		mov	r3, r0
 3626              		.loc 1 900 7
 3627 018c 012B     		cmp	r3, #1
 3628 018e 09D0     		beq	.L343
 901:../app/app.c  **** 				|| (--run_max_time == 0)){
 3629              		.loc 1 901 9
 3630 0190 5B4B     		ldr	r3, .L361+4
 3631 0192 1B88     		ldrh	r3, [r3]
 3632 0194 013B     		subs	r3, r3, #1
 3633 0196 9AB2     		uxth	r2, r3
 3634              		.loc 1 901 5
 3635 0198 594B     		ldr	r3, .L361+4
 3636 019a 1A80     		strh	r2, [r3]	@ movhi
 3637              		.loc 1 901 9
 3638 019c 584B     		ldr	r3, .L361+4
 3639 019e 1B88     		ldrh	r3, [r3]
 3640              		.loc 1 901 5
 3641 01a0 002B     		cmp	r3, #0
 3642 01a2 06D1     		bne	.L344
 3643              	.L343:
 902:../app/app.c  **** 				display_led(START_LED, LED_ON);
 3644              		.loc 1 902 5
 3645 01a4 0121     		movs	r1, #1
 3646 01a6 0520     		movs	r0, #5
 3647 01a8 FFF7FEFF 		bl	display_led
 903:../app/app.c  **** 				app_task_substep = STARTUP_HEAT_END_STATE;
 3648              		.loc 1 903 22
 3649 01ac 534B     		ldr	r3, .L361
 3650 01ae 0722     		movs	r2, #7
 3651 01b0 1A70     		strb	r2, [r3]
 3652              	.L344:
 904:../app/app.c  **** 			}
 905:../app/app.c  **** 			osal_lyh_delay_task(Ms_100);
 3653              		.loc 1 905 4
 3654 01b2 6420     		movs	r0, #100
 3655 01b4 FFF7FEFF 		bl	osal_lyh_delay_task
 906:../app/app.c  **** 			break;
 3656              		.loc 1 906 4
 3657 01b8 DBE0     		b	.L335
 3658              	.L325:
 907:../app/app.c  **** 		/* ńöĄµ£║ĶĮ¼ÕÉæĶÉāÕÅ¢õĮŹńĮ« */	
 908:../app/app.c  **** 		case STARTUP_HEAT_END_STATE:
 909:../app/app.c  **** 			dc_motor_Start(MOTOR_LEFT);
 3659              		.loc 1 909 4
 3660 01ba 0220     		movs	r0, #2
 3661 01bc FFF7FEFF 		bl	dc_motor_Start
 910:../app/app.c  **** 			osal_lyh_delay_task(Ms_100);
 3662              		.loc 1 910 4
 3663 01c0 6420     		movs	r0, #100
 3664 01c2 FFF7FEFF 		bl	osal_lyh_delay_task
 911:../app/app.c  **** 			run_max_time = LEFT_TIMER(Ms_6000, Ms_100);
 3665              		.loc 1 911 17
 3666 01c6 4E4B     		ldr	r3, .L361+4
 3667 01c8 3C22     		movs	r2, #60
 3668 01ca 1A80     		strh	r2, [r3]	@ movhi
 912:../app/app.c  **** 			app_task_substep = STARTUP_LEFT_MOVE_STATE;
 3669              		.loc 1 912 21
 3670 01cc 4B4B     		ldr	r3, .L361
 3671 01ce 0822     		movs	r2, #8
 3672 01d0 1A70     		strb	r2, [r3]
 913:../app/app.c  **** 			break;
 3673              		.loc 1 913 4
 3674 01d2 CEE0     		b	.L335
 3675              	.L324:
 914:../app/app.c  **** 		/* Õłżµ¢ŁńöĄµ£║µś»ÕÉ”Õł░ĶŠŠĶÉāÕÅ¢õĮŹńĮ« */	
 915:../app/app.c  **** 		case STARTUP_LEFT_MOVE_STATE:
 916:../app/app.c  **** 			if ((MOTOR_STATE_STOPED == dc_motor_GetState())
 3676              		.loc 1 916 31
 3677 01d4 FFF7FEFF 		bl	dc_motor_GetState
 3678 01d8 0346     		mov	r3, r0
 3679              		.loc 1 916 7
 3680 01da 002B     		cmp	r3, #0
 3681 01dc 0ED0     		beq	.L345
 917:../app/app.c  **** 				|| (TRUE == app_motor_ready())
 3682              		.loc 1 917 17
 3683 01de FFF7FEFF 		bl	app_motor_ready
 3684 01e2 0346     		mov	r3, r0
 3685              		.loc 1 917 5
 3686 01e4 012B     		cmp	r3, #1
 3687 01e6 09D0     		beq	.L345
 918:../app/app.c  **** 				|| (--run_max_time == 0)){
 3688              		.loc 1 918 9
 3689 01e8 454B     		ldr	r3, .L361+4
 3690 01ea 1B88     		ldrh	r3, [r3]
 3691 01ec 013B     		subs	r3, r3, #1
 3692 01ee 9AB2     		uxth	r2, r3
 3693              		.loc 1 918 5
 3694 01f0 434B     		ldr	r3, .L361+4
 3695 01f2 1A80     		strh	r2, [r3]	@ movhi
 3696              		.loc 1 918 9
 3697 01f4 424B     		ldr	r3, .L361+4
 3698 01f6 1B88     		ldrh	r3, [r3]
 3699              		.loc 1 918 5
 3700 01f8 002B     		cmp	r3, #0
 3701 01fa 04D1     		bne	.L346
 3702              	.L345:
 919:../app/app.c  **** 				dc_motor_Stop();
 3703              		.loc 1 919 5
 3704 01fc FFF7FEFF 		bl	dc_motor_Stop
 920:../app/app.c  **** 				app_task_substep = STARTUP_WATER_RDY_STATE;
 3705              		.loc 1 920 22
 3706 0200 3E4B     		ldr	r3, .L361
 3707 0202 0922     		movs	r2, #9
 3708 0204 1A70     		strb	r2, [r3]
 3709              	.L346:
 921:../app/app.c  **** 			}
 922:../app/app.c  **** 			osal_lyh_delay_task(Ms_100);
 3710              		.loc 1 922 4
 3711 0206 6420     		movs	r0, #100
 3712 0208 FFF7FEFF 		bl	osal_lyh_delay_task
 923:../app/app.c  **** 			break;
 3713              		.loc 1 923 4
 3714 020c B1E0     		b	.L335
 3715              	.L323:
 924:../app/app.c  **** 		/* µŖĮµ░┤Õå▓µ┤Ś */	
 925:../app/app.c  **** 		case STARTUP_WATER_RDY_STATE:
 926:../app/app.c  **** 			ac_pumb_start(CONTINUE_MODE);
 3716              		.loc 1 926 4
 3717 020e 0020     		movs	r0, #0
 3718 0210 FFF7FEFF 		bl	ac_pumb_start
 927:../app/app.c  **** 			run_max_time = WATER_MAX_TIMER(Ms_100);
 3719              		.loc 1 927 17
 3720 0214 3A4B     		ldr	r3, .L361+4
 3721 0216 6422     		movs	r2, #100
 3722 0218 1A80     		strh	r2, [r3]	@ movhi
 928:../app/app.c  **** 			app_task_substep = STARTUP_WATER_ING_STATE;
 3723              		.loc 1 928 21
 3724 021a 384B     		ldr	r3, .L361
 3725 021c 0A22     		movs	r2, #10
 3726 021e 1A70     		strb	r2, [r3]
 929:../app/app.c  **** 			break;	
 3727              		.loc 1 929 4
 3728 0220 A7E0     		b	.L335
 3729              	.L322:
 930:../app/app.c  **** 		case STARTUP_WATER_ING_STATE:
 931:../app/app.c  **** 			if (--run_max_time == 0){
 3730              		.loc 1 931 8
 3731 0222 374B     		ldr	r3, .L361+4
 3732 0224 1B88     		ldrh	r3, [r3]
 3733 0226 013B     		subs	r3, r3, #1
 3734 0228 9AB2     		uxth	r2, r3
 3735              		.loc 1 931 7
 3736 022a 354B     		ldr	r3, .L361+4
 3737 022c 1A80     		strh	r2, [r3]	@ movhi
 3738              		.loc 1 931 8
 3739 022e 344B     		ldr	r3, .L361+4
 3740 0230 1B88     		ldrh	r3, [r3]
 3741              		.loc 1 931 7
 3742 0232 002B     		cmp	r3, #0
 3743 0234 09D1     		bne	.L347
 932:../app/app.c  **** 				ac_pumb_stop();
 3744              		.loc 1 932 5
 3745 0236 FFF7FEFF 		bl	ac_pumb_stop
 933:../app/app.c  **** 				osal_lyh_delay_task(Ms_6000);
 3746              		.loc 1 933 5
 3747 023a 41F27070 		movw	r0, #6000
 3748 023e FFF7FEFF 		bl	osal_lyh_delay_task
 934:../app/app.c  **** 				app_task_substep = STARTUP_WATER_END_STATE;
 3749              		.loc 1 934 22
 3750 0242 2E4B     		ldr	r3, .L361
 3751 0244 0B22     		movs	r2, #11
 3752 0246 1A70     		strb	r2, [r3]
 935:../app/app.c  **** 			}
 936:../app/app.c  **** 			else {
 937:../app/app.c  **** 				osal_lyh_delay_task(Ms_100);
 938:../app/app.c  **** 			}
 939:../app/app.c  **** 			break;
 3753              		.loc 1 939 4
 3754 0248 93E0     		b	.L335
 3755              	.L347:
 937:../app/app.c  **** 			}
 3756              		.loc 1 937 5
 3757 024a 6420     		movs	r0, #100
 3758 024c FFF7FEFF 		bl	osal_lyh_delay_task
 3759              		.loc 1 939 4
 3760 0250 8FE0     		b	.L335
 3761              	.L321:
 940:../app/app.c  **** 		/* ńöĄµ£║ĶĮ¼Õø×ÕÄ¤õĮŹ */	
 941:../app/app.c  **** 		case STARTUP_WATER_END_STATE:
 942:../app/app.c  **** 			osal_lyh_delay_task(Ms_1500);	// wait motor to move the detecting point
 3762              		.loc 1 942 4
 3763 0252 40F2DC50 		movw	r0, #1500
 3764 0256 FFF7FEFF 		bl	osal_lyh_delay_task
 943:../app/app.c  **** 			dc_motor_Start(MOTOR_RIGHT);
 3765              		.loc 1 943 4
 3766 025a 0120     		movs	r0, #1
 3767 025c FFF7FEFF 		bl	dc_motor_Start
 944:../app/app.c  **** 			run_max_time = RIGHT_TIMER(Ms_6000, Ms_100);
 3768              		.loc 1 944 17
 3769 0260 274B     		ldr	r3, .L361+4
 3770 0262 3C22     		movs	r2, #60
 3771 0264 1A80     		strh	r2, [r3]	@ movhi
 945:../app/app.c  **** 			app_task_substep = STARTUP_RIGHT_MOVE_STATE;
 3772              		.loc 1 945 21
 3773 0266 254B     		ldr	r3, .L361
 3774 0268 0C22     		movs	r2, #12
 3775 026a 1A70     		strb	r2, [r3]
 946:../app/app.c  **** 			break;
 3776              		.loc 1 946 4
 3777 026c 81E0     		b	.L335
 3778              	.L320:
 947:../app/app.c  **** 		/* Õłżµ¢ŁńöĄµ£║µś»ÕÉ”Ķ¦”ńó░Ķ¦”ńé╣ */	
 948:../app/app.c  **** 		case STARTUP_RIGHT_MOVE_STATE:
 949:../app/app.c  **** 			if ((MOTOR_STATE_STOPED ==dc_motor_GetState())
 3779              		.loc 1 949 30
 3780 026e FFF7FEFF 		bl	dc_motor_GetState
 3781 0272 0346     		mov	r3, r0
 3782              		.loc 1 949 7
 3783 0274 002B     		cmp	r3, #0
 3784 0276 0ED0     		beq	.L349
 950:../app/app.c  **** 				|| (TRUE == app_motor_ready())
 3785              		.loc 1 950 17
 3786 0278 FFF7FEFF 		bl	app_motor_ready
 3787 027c 0346     		mov	r3, r0
 3788              		.loc 1 950 5
 3789 027e 012B     		cmp	r3, #1
 3790 0280 09D0     		beq	.L349
 951:../app/app.c  **** 				|| (--run_max_time == 0)){
 3791              		.loc 1 951 9
 3792 0282 1F4B     		ldr	r3, .L361+4
 3793 0284 1B88     		ldrh	r3, [r3]
 3794 0286 013B     		subs	r3, r3, #1
 3795 0288 9AB2     		uxth	r2, r3
 3796              		.loc 1 951 5
 3797 028a 1D4B     		ldr	r3, .L361+4
 3798 028c 1A80     		strh	r2, [r3]	@ movhi
 3799              		.loc 1 951 9
 3800 028e 1C4B     		ldr	r3, .L361+4
 3801 0290 1B88     		ldrh	r3, [r3]
 3802              		.loc 1 951 5
 3803 0292 002B     		cmp	r3, #0
 3804 0294 08D1     		bne	.L350
 3805              	.L349:
 952:../app/app.c  **** 				dc_motor_Stop();
 3806              		.loc 1 952 5
 3807 0296 FFF7FEFF 		bl	dc_motor_Stop
 953:../app/app.c  **** 				osal_lyh_delay_task(Ms_200);
 3808              		.loc 1 953 5
 3809 029a C820     		movs	r0, #200
 3810 029c FFF7FEFF 		bl	osal_lyh_delay_task
 954:../app/app.c  **** 				app_task_substep = STARTUP_LEFT_START_STATE;
 3811              		.loc 1 954 22
 3812 02a0 164B     		ldr	r3, .L361
 3813 02a2 0D22     		movs	r2, #13
 3814 02a4 1A70     		strb	r2, [r3]
 955:../app/app.c  **** 			}
 956:../app/app.c  **** 			else {
 957:../app/app.c  **** 				osal_lyh_delay_task(Ms_100);
 958:../app/app.c  **** 			}
 959:../app/app.c  **** 			break;
 3815              		.loc 1 959 4
 3816 02a6 64E0     		b	.L335
 3817              	.L350:
 957:../app/app.c  **** 			}
 3818              		.loc 1 957 5
 3819 02a8 6420     		movs	r0, #100
 3820 02aa FFF7FEFF 		bl	osal_lyh_delay_task
 3821              		.loc 1 959 4
 3822 02ae 60E0     		b	.L335
 3823              	.L319:
 960:../app/app.c  **** 		/* ńöĄµ£║Õø×ĶĮ¼ */	
 961:../app/app.c  **** 		case STARTUP_LEFT_START_STATE:
 962:../app/app.c  **** 			display_led(START_LED, LED_OFF);
 3824              		.loc 1 962 4
 3825 02b0 0021     		movs	r1, #0
 3826 02b2 0520     		movs	r0, #5
 3827 02b4 FFF7FEFF 		bl	display_led
 963:../app/app.c  **** 			dc_motor_Start(MOTOR_LEFT);
 3828              		.loc 1 963 4
 3829 02b8 0220     		movs	r0, #2
 3830 02ba FFF7FEFF 		bl	dc_motor_Start
 964:../app/app.c  **** 			run_max_time = LEFT_TIMER(MOTOR_FIX_TIME, Ms_100);
 3831              		.loc 1 964 17
 3832 02be 104B     		ldr	r3, .L361+4
 3833 02c0 0322     		movs	r2, #3
 3834 02c2 1A80     		strh	r2, [r3]	@ movhi
 965:../app/app.c  **** 			app_task_substep = STARTUP_LEFT_END_STATE;
 3835              		.loc 1 965 21
 3836 02c4 0D4B     		ldr	r3, .L361
 3837 02c6 0E22     		movs	r2, #14
 3838 02c8 1A70     		strb	r2, [r3]
 966:../app/app.c  **** 			break;
 3839              		.loc 1 966 4
 3840 02ca 52E0     		b	.L335
 3841              	.L318:
 967:../app/app.c  **** 		/* Õłżµ¢ŁńöĄµ£║µś»ÕÉ”Õø×ĶĮ¼Õ«īµłÉ */	
 968:../app/app.c  **** 		case STARTUP_LEFT_END_STATE:
 969:../app/app.c  **** 			if (1/*(FAIL == app_motor_ready())*/	// deleting point,(temp to cancel)
 970:../app/app.c  **** 				&& ((MOTOR_STATE_STOPED ==dc_motor_GetState())
 3842              		.loc 1 970 31
 3843 02cc FFF7FEFF 		bl	dc_motor_GetState
 3844 02d0 0346     		mov	r3, r0
 969:../app/app.c  **** 				&& ((MOTOR_STATE_STOPED ==dc_motor_GetState())
 3845              		.loc 1 969 7
 3846 02d2 002B     		cmp	r3, #0
 3847 02d4 09D0     		beq	.L352
 971:../app/app.c  **** 				|| (--run_max_time == 0))){
 3848              		.loc 1 971 9
 3849 02d6 0A4B     		ldr	r3, .L361+4
 3850 02d8 1B88     		ldrh	r3, [r3]
 3851 02da 013B     		subs	r3, r3, #1
 3852 02dc 9AB2     		uxth	r2, r3
 970:../app/app.c  **** 				|| (--run_max_time == 0))){
 3853              		.loc 1 970 5
 3854 02de 084B     		ldr	r3, .L361+4
 3855 02e0 1A80     		strh	r2, [r3]	@ movhi
 3856              		.loc 1 971 9
 3857 02e2 074B     		ldr	r3, .L361+4
 3858 02e4 1B88     		ldrh	r3, [r3]
 970:../app/app.c  **** 				|| (--run_max_time == 0))){
 3859              		.loc 1 970 5
 3860 02e6 002B     		cmp	r3, #0
 3861 02e8 04D1     		bne	.L353
 3862              	.L352:
 972:../app/app.c  **** 				dc_motor_Stop();
 3863              		.loc 1 972 5
 3864 02ea FFF7FEFF 		bl	dc_motor_Stop
 973:../app/app.c  **** 				app_task_substep = STARTUP_COMPLETE_STATE;
 3865              		.loc 1 973 22
 3866 02ee 034B     		ldr	r3, .L361
 3867 02f0 0F22     		movs	r2, #15
 3868 02f2 1A70     		strb	r2, [r3]
 3869              	.L353:
 974:../app/app.c  **** 			}
 975:../app/app.c  **** 			osal_lyh_delay_task(Ms_100);
 3870              		.loc 1 975 4
 3871 02f4 6420     		movs	r0, #100
 3872 02f6 FFF7FEFF 		bl	osal_lyh_delay_task
 976:../app/app.c  **** 			break;
 3873              		.loc 1 976 4
 3874 02fa 3AE0     		b	.L335
 3875              	.L362:
 3876              		.align	2
 3877              	.L361:
 3878 02fc 00000000 		.word	app_task_substep
 3879 0300 00000000 		.word	run_max_time
 3880              	.L317:
 977:../app/app.c  **** 		/* ÕÉ»ÕŖ©Õ«īµłÉ */	
 978:../app/app.c  **** 		case STARTUP_COMPLETE_STATE:
 979:../app/app.c  **** 			key_prohibit_setup(KEY_ONOFF_MASK, FAIL);
 3881              		.loc 1 979 4
 3882 0304 0021     		movs	r1, #0
 3883 0306 0120     		movs	r0, #1
 3884 0308 FFF7FEFF 		bl	key_prohibit_setup
 980:../app/app.c  **** 			app_turn_heat_off();
 3885              		.loc 1 980 4
 3886 030c FFF7FEFF 		bl	app_turn_heat_off
 981:../app/app.c  **** 			if (TRUE == app_led_oneloop()){
 3887              		.loc 1 981 16
 3888 0310 FFF7FEFF 		bl	app_led_oneloop
 3889 0314 0346     		mov	r3, r0
 3890              		.loc 1 981 7
 3891 0316 012B     		cmp	r3, #1
 3892 0318 2AD1     		bne	.L359
 982:../app/app.c  **** 				app_leds_all_fun(LED_ON);
 3893              		.loc 1 982 5
 3894 031a 0120     		movs	r0, #1
 3895 031c FFF7FEFF 		bl	app_leds_all_fun
 983:../app/app.c  **** 				osal_lyh_kill_over_timer(OS_LED_TIME);
 3896              		.loc 1 983 5
 3897 0320 0220     		movs	r0, #2
 3898 0322 FFF7FEFF 		bl	osal_lyh_kill_over_timer
 984:../app/app.c  **** 				app_task_nextstep(APP_NORMAL_STATE, NORMAL_INIT_STATE);
 3899              		.loc 1 984 5
 3900 0326 0021     		movs	r1, #0
 3901 0328 0320     		movs	r0, #3
 3902 032a FFF7FEFF 		bl	app_task_nextstep
 985:../app/app.c  **** 			}
 986:../app/app.c  **** 			break;
 3903              		.loc 1 986 4
 3904 032e 1FE0     		b	.L359
 3905              	.L315:
 987:../app/app.c  **** 		case STARTUP_FAIL_STATE:
 988:../app/app.c  **** 			if (TRUE == app_pallet_ready()){
 3906              		.loc 1 988 16
 3907 0330 FFF7FEFF 		bl	app_pallet_ready
 3908 0334 0346     		mov	r3, r0
 3909              		.loc 1 988 7
 3910 0336 012B     		cmp	r3, #1
 3911 0338 06D1     		bne	.L355
 989:../app/app.c  **** 				display_led(PALLET_ERR_LED, LED_OFF);
 3912              		.loc 1 989 5
 3913 033a 0021     		movs	r1, #0
 3914 033c 0820     		movs	r0, #8
 3915 033e FFF7FEFF 		bl	display_led
 990:../app/app.c  **** 				app_task_substep = STARTUP_INIT_STATE;
 3916              		.loc 1 990 22
 3917 0342 0D4B     		ldr	r3, .L363
 3918 0344 0022     		movs	r2, #0
 3919 0346 1A70     		strb	r2, [r3]
 3920              	.L355:
 991:../app/app.c  **** 			}
 992:../app/app.c  **** 			if (TRUE == app_water_ready()){
 3921              		.loc 1 992 16
 3922 0348 FFF7FEFF 		bl	app_water_ready
 3923 034c 0346     		mov	r3, r0
 3924              		.loc 1 992 7
 3925 034e 012B     		cmp	r3, #1
 3926 0350 06D1     		bne	.L356
 993:../app/app.c  **** 				display_led(WATER_ERR_LED, LED_OFF);
 3927              		.loc 1 993 5
 3928 0352 0021     		movs	r1, #0
 3929 0354 0E20     		movs	r0, #14
 3930 0356 FFF7FEFF 		bl	display_led
 994:../app/app.c  **** 				app_task_substep = STARTUP_INIT_STATE;
 3931              		.loc 1 994 22
 3932 035a 074B     		ldr	r3, .L363
 3933 035c 0022     		movs	r2, #0
 3934 035e 1A70     		strb	r2, [r3]
 3935              	.L356:
 995:../app/app.c  **** 			}
 996:../app/app.c  **** 			osal_lyh_delay_task(Ms_50);
 3936              		.loc 1 996 4
 3937 0360 3220     		movs	r0, #50
 3938 0362 FFF7FEFF 		bl	osal_lyh_delay_task
 997:../app/app.c  **** 			break;
 3939              		.loc 1 997 4
 3940 0366 04E0     		b	.L335
 3941              	.L357:
 998:../app/app.c  **** 		default:
 999:../app/app.c  **** 			break;
 3942              		.loc 1 999 4
 3943 0368 00BF     		nop
 3944 036a 02E0     		b	.L360
 3945              	.L358:
 846:../app/app.c  **** 		/* µĄüń©ŗÕ╝ĆÕ¦ŗ’╝ÜLEDµĄüµ░┤ńü»ŃĆüńöĄµ£║ÕŖ©õĮ£ŃĆüÕ╝ĆÕÉ»ÕŖĀńāŁ */	
 3946              		.loc 1 846 4
 3947 036c 00BF     		nop
 3948 036e 00E0     		b	.L360
 3949              	.L359:
 986:../app/app.c  **** 		case STARTUP_FAIL_STATE:
 3950              		.loc 1 986 4
 3951 0370 00BF     		nop
 3952              	.L335:
 3953              	.L360:
1000:../app/app.c  **** 	}
1001:../app/app.c  **** }
 3954              		.loc 1 1001 1
 3955 0372 00BF     		nop
 3956 0374 80BD     		pop	{r7, pc}
 3957              	.L364:
 3958 0376 00BF     		.align	2
 3959              	.L363:
 3960 0378 00000000 		.word	app_task_substep
 3961              		.cfi_endproc
 3962              	.LFE167:
 3964              		.section	.text.app_normal_handler,"ax",%progbits
 3965              		.align	1
 3966              		.global	app_normal_handler
 3967              		.syntax unified
 3968              		.thumb
 3969              		.thumb_func
 3970              		.fpu softvfp
 3972              	app_normal_handler:
 3973              	.LFB168:
1002:../app/app.c  **** 
1003:../app/app.c  **** /************************************************************************
1004:../app/app.c  **** * function name: app_normal_handler
1005:../app/app.c  **** * input: non
1006:../app/app.c  **** * output: non
1007:../app/app.c  **** * description: object thread
1008:../app/app.c  **** *************************************************************************/
1009:../app/app.c  **** void app_normal_handler(void)
1010:../app/app.c  **** {
 3974              		.loc 1 1010 1
 3975              		.cfi_startproc
 3976              		@ args = 0, pretend = 0, frame = 0
 3977              		@ frame_needed = 1, uses_anonymous_args = 0
 3978 0000 80B5     		push	{r7, lr}
 3979              		.cfi_def_cfa_offset 8
 3980              		.cfi_offset 7, -8
 3981              		.cfi_offset 14, -4
 3982 0002 00AF     		add	r7, sp, #0
 3983              		.cfi_def_cfa_register 7
1011:../app/app.c  **** 	switch(app_task_substep)
 3984              		.loc 1 1011 2
 3985 0004 694B     		ldr	r3, .L383
 3986 0006 1B78     		ldrb	r3, [r3]	@ zero_extendqisi2
 3987 0008 0C2B     		cmp	r3, #12
 3988 000a 00F2CC80 		bhi	.L382
 3989 000e 01A2     		adr	r2, .L368
 3990 0010 52F823F0 		ldr	pc, [r2, r3, lsl #2]
 3991              		.p2align 2
 3992              	.L368:
 3993 0014 49000000 		.word	.L380+1
 3994 0018 51000000 		.word	.L379+1
 3995 001c 8B000000 		.word	.L378+1
 3996 0020 93000000 		.word	.L377+1
 3997 0024 CD000000 		.word	.L376+1
 3998 0028 D5000000 		.word	.L375+1
 3999 002c 1D010000 		.word	.L374+1
 4000 0030 25010000 		.word	.L373+1
 4001 0034 4F010000 		.word	.L372+1
 4002 0038 57010000 		.word	.L371+1
 4003 003c 77010000 		.word	.L370+1
 4004 0040 7F010000 		.word	.L369+1
 4005 0044 9F010000 		.word	.L367+1
 4006              		.p2align 1
 4007              	.L380:
1012:../app/app.c  **** 	{
1013:../app/app.c  **** 		case NORMAL_INIT_STATE:
1014:../app/app.c  **** 			osal_lyh_delay_task(Ms_10);
 4008              		.loc 1 1014 4
 4009 0048 0A20     		movs	r0, #10
 4010 004a FFF7FEFF 		bl	osal_lyh_delay_task
1015:../app/app.c  **** 			break;
 4011              		.loc 1 1015 4
 4012 004e ABE0     		b	.L381
 4013              	.L379:
1016:../app/app.c  **** 		case NORMAL_ESPRESSO_INIT_STATE:
1017:../app/app.c  **** 			memset((uint8_t *)&manual_setup, 0, sizeof(st_opDef));
 4014              		.loc 1 1017 4
 4015 0050 0322     		movs	r2, #3
 4016 0052 0021     		movs	r1, #0
 4017 0054 5648     		ldr	r0, .L383+4
 4018 0056 FFF7FEFF 		bl	memset
1018:../app/app.c  **** 			app_led_start_init();
 4019              		.loc 1 1018 4
 4020 005a FFF7FEFF 		bl	app_led_start_init
1019:../app/app.c  **** 			app_leds_all_fun(LED_OFF);
 4021              		.loc 1 1019 4
 4022 005e 0020     		movs	r0, #0
 4023 0060 FFF7FEFF 		bl	app_leds_all_fun
1020:../app/app.c  **** 			app_leds_all_ind(LED_OFF);
 4024              		.loc 1 1020 4
 4025 0064 0020     		movs	r0, #0
 4026 0066 FFF7FEFF 		bl	app_leds_all_ind
1021:../app/app.c  **** 			display_led(ESPRESSO1_LED, LED_ON);
 4027              		.loc 1 1021 4
 4028 006a 0121     		movs	r1, #1
 4029 006c 0C20     		movs	r0, #12
 4030 006e FFF7FEFF 		bl	display_led
1022:../app/app.c  **** 			display_led(COFFEE2_LED, LED_ON);
 4031              		.loc 1 1022 4
 4032 0072 0121     		movs	r1, #1
 4033 0074 0A20     		movs	r0, #10
 4034 0076 FFF7FEFF 		bl	display_led
1023:../app/app.c  **** 			display_led(WATER1_LED, LED_ON);
 4035              		.loc 1 1023 4
 4036 007a 0121     		movs	r1, #1
 4037 007c 0420     		movs	r0, #4
 4038 007e FFF7FEFF 		bl	display_led
1024:../app/app.c  **** 			app_task_substep = NORMAL_ESPRESSO_RUN_STATE;
 4039              		.loc 1 1024 21
 4040 0082 4A4B     		ldr	r3, .L383
 4041 0084 0222     		movs	r2, #2
 4042 0086 1A70     		strb	r2, [r3]
1025:../app/app.c  **** 			break;
 4043              		.loc 1 1025 4
 4044 0088 8EE0     		b	.L381
 4045              	.L378:
1026:../app/app.c  **** 		case NORMAL_ESPRESSO_RUN_STATE:
1027:../app/app.c  **** 			osal_lyh_delay_task(Ms_10);
 4046              		.loc 1 1027 4
 4047 008a 0A20     		movs	r0, #10
 4048 008c FFF7FEFF 		bl	osal_lyh_delay_task
1028:../app/app.c  **** 			break;
 4049              		.loc 1 1028 4
 4050 0090 8AE0     		b	.L381
 4051              	.L377:
1029:../app/app.c  **** 		case NORMAL_AMERICANO_INIT_STATE:
1030:../app/app.c  **** 			memset((uint8_t *)&manual_setup, 0, sizeof(st_opDef));
 4052              		.loc 1 1030 4
 4053 0092 0322     		movs	r2, #3
 4054 0094 0021     		movs	r1, #0
 4055 0096 4648     		ldr	r0, .L383+4
 4056 0098 FFF7FEFF 		bl	memset
1031:../app/app.c  **** 			app_led_start_init();
 4057              		.loc 1 1031 4
 4058 009c FFF7FEFF 		bl	app_led_start_init
1032:../app/app.c  **** 			app_leds_all_fun(LED_OFF);
 4059              		.loc 1 1032 4
 4060 00a0 0020     		movs	r0, #0
 4061 00a2 FFF7FEFF 		bl	app_leds_all_fun
1033:../app/app.c  **** 			app_leds_all_ind(LED_OFF);
 4062              		.loc 1 1033 4
 4063 00a6 0020     		movs	r0, #0
 4064 00a8 FFF7FEFF 		bl	app_leds_all_ind
1034:../app/app.c  **** 			display_led(AMERICANO1_LED, LED_ON);
 4065              		.loc 1 1034 4
 4066 00ac 0121     		movs	r1, #1
 4067 00ae 0F20     		movs	r0, #15
 4068 00b0 FFF7FEFF 		bl	display_led
1035:../app/app.c  **** 			display_led(COFFEE2_LED, LED_ON);
 4069              		.loc 1 1035 4
 4070 00b4 0121     		movs	r1, #1
 4071 00b6 0A20     		movs	r0, #10
 4072 00b8 FFF7FEFF 		bl	display_led
1036:../app/app.c  **** 			display_led(WATER1_LED, LED_ON);
 4073              		.loc 1 1036 4
 4074 00bc 0121     		movs	r1, #1
 4075 00be 0420     		movs	r0, #4
 4076 00c0 FFF7FEFF 		bl	display_led
1037:../app/app.c  **** 			app_task_substep = NORMAL_AMERICANO_RUN_STATE;
 4077              		.loc 1 1037 21
 4078 00c4 394B     		ldr	r3, .L383
 4079 00c6 0422     		movs	r2, #4
 4080 00c8 1A70     		strb	r2, [r3]
1038:../app/app.c  **** 			break;
 4081              		.loc 1 1038 4
 4082 00ca 6DE0     		b	.L381
 4083              	.L376:
1039:../app/app.c  **** 		case NORMAL_AMERICANO_RUN_STATE:
1040:../app/app.c  **** 			osal_lyh_delay_task(Ms_10);
 4084              		.loc 1 1040 4
 4085 00cc 0A20     		movs	r0, #10
 4086 00ce FFF7FEFF 		bl	osal_lyh_delay_task
1041:../app/app.c  **** 			break;
 4087              		.loc 1 1041 4
 4088 00d2 69E0     		b	.L381
 4089              	.L375:
1042:../app/app.c  **** 		case NORMAL_HOTWATER_INIT_STATE:
1043:../app/app.c  **** 			memset((uint8_t *)&manual_setup, 0, sizeof(st_opDef));
 4090              		.loc 1 1043 4
 4091 00d4 0322     		movs	r2, #3
 4092 00d6 0021     		movs	r1, #0
 4093 00d8 3548     		ldr	r0, .L383+4
 4094 00da FFF7FEFF 		bl	memset
1044:../app/app.c  **** 			manual_setup.water = 2;
 4095              		.loc 1 1044 23
 4096 00de 344B     		ldr	r3, .L383+4
 4097 00e0 0222     		movs	r2, #2
 4098 00e2 9A70     		strb	r2, [r3, #2]
1045:../app/app.c  **** 			app_led_start_init();
 4099              		.loc 1 1045 4
 4100 00e4 FFF7FEFF 		bl	app_led_start_init
1046:../app/app.c  **** 			app_leds_all_fun(LED_OFF);
 4101              		.loc 1 1046 4
 4102 00e8 0020     		movs	r0, #0
 4103 00ea FFF7FEFF 		bl	app_leds_all_fun
1047:../app/app.c  **** 			app_leds_all_ind(LED_OFF);
 4104              		.loc 1 1047 4
 4105 00ee 0020     		movs	r0, #0
 4106 00f0 FFF7FEFF 		bl	app_leds_all_ind
1048:../app/app.c  **** 			display_led(HOT_WATER, LED_ON);
 4107              		.loc 1 1048 4
 4108 00f4 0121     		movs	r1, #1
 4109 00f6 1520     		movs	r0, #21
 4110 00f8 FFF7FEFF 		bl	display_led
1049:../app/app.c  **** 			display_led(WATER1_LED, LED_ON);
 4111              		.loc 1 1049 4
 4112 00fc 0121     		movs	r1, #1
 4113 00fe 0420     		movs	r0, #4
 4114 0100 FFF7FEFF 		bl	display_led
1050:../app/app.c  **** 			display_led(WATER2_LED, LED_ON);
 4115              		.loc 1 1050 4
 4116 0104 0121     		movs	r1, #1
 4117 0106 1920     		movs	r0, #25
 4118 0108 FFF7FEFF 		bl	display_led
1051:../app/app.c  **** 			display_led(WATER3_LED, LED_ON);
 4119              		.loc 1 1051 4
 4120 010c 0121     		movs	r1, #1
 4121 010e 1020     		movs	r0, #16
 4122 0110 FFF7FEFF 		bl	display_led
1052:../app/app.c  **** 			app_task_substep = NORMAL_HOTWATER_RUN_STATE;
 4123              		.loc 1 1052 21
 4124 0114 254B     		ldr	r3, .L383
 4125 0116 0622     		movs	r2, #6
 4126 0118 1A70     		strb	r2, [r3]
1053:../app/app.c  **** 			break;
 4127              		.loc 1 1053 4
 4128 011a 45E0     		b	.L381
 4129              	.L374:
1054:../app/app.c  **** 		case NORMAL_HOTWATER_RUN_STATE:
1055:../app/app.c  **** 			osal_lyh_delay_task(Ms_10);
 4130              		.loc 1 1055 4
 4131 011c 0A20     		movs	r0, #10
 4132 011e FFF7FEFF 		bl	osal_lyh_delay_task
1056:../app/app.c  **** 			break;
 4133              		.loc 1 1056 4
 4134 0122 41E0     		b	.L381
 4135              	.L373:
1057:../app/app.c  **** 		case NORMAL_STEAM_INIT_STATE:
1058:../app/app.c  **** 			memset((uint8_t *)&manual_setup, 0, sizeof(st_opDef));
 4136              		.loc 1 1058 4
 4137 0124 0322     		movs	r2, #3
 4138 0126 0021     		movs	r1, #0
 4139 0128 2148     		ldr	r0, .L383+4
 4140 012a FFF7FEFF 		bl	memset
1059:../app/app.c  **** 			app_led_start_init();
 4141              		.loc 1 1059 4
 4142 012e FFF7FEFF 		bl	app_led_start_init
1060:../app/app.c  **** 			app_leds_all_fun(LED_OFF);
 4143              		.loc 1 1060 4
 4144 0132 0020     		movs	r0, #0
 4145 0134 FFF7FEFF 		bl	app_leds_all_fun
1061:../app/app.c  **** 			app_leds_all_ind(LED_OFF);
 4146              		.loc 1 1061 4
 4147 0138 0020     		movs	r0, #0
 4148 013a FFF7FEFF 		bl	app_leds_all_ind
1062:../app/app.c  **** 			display_led(STEAM_LED, LED_ON);
 4149              		.loc 1 1062 4
 4150 013e 0121     		movs	r1, #1
 4151 0140 1220     		movs	r0, #18
 4152 0142 FFF7FEFF 		bl	display_led
1063:../app/app.c  **** 			app_task_substep = NORMAL_STEAM_RUN_STATE;
 4153              		.loc 1 1063 21
 4154 0146 194B     		ldr	r3, .L383
 4155 0148 0822     		movs	r2, #8
 4156 014a 1A70     		strb	r2, [r3]
1064:../app/app.c  **** 			break;
 4157              		.loc 1 1064 4
 4158 014c 2CE0     		b	.L381
 4159              	.L372:
1065:../app/app.c  **** 		case NORMAL_STEAM_RUN_STATE:
1066:../app/app.c  **** 			osal_lyh_delay_task(Ms_10);
 4160              		.loc 1 1066 4
 4161 014e 0A20     		movs	r0, #10
 4162 0150 FFF7FEFF 		bl	osal_lyh_delay_task
1067:../app/app.c  **** 			break;
 4163              		.loc 1 1067 4
 4164 0154 28E0     		b	.L381
 4165              	.L371:
1068:../app/app.c  **** 		case NORMAL_AQUA_INIT_STATE:
1069:../app/app.c  **** 			app_led_start_init();
 4166              		.loc 1 1069 4
 4167 0156 FFF7FEFF 		bl	app_led_start_init
1070:../app/app.c  **** 			app_leds_all_fun(LED_OFF);
 4168              		.loc 1 1070 4
 4169 015a 0020     		movs	r0, #0
 4170 015c FFF7FEFF 		bl	app_leds_all_fun
1071:../app/app.c  **** 			app_leds_all_ind(LED_OFF);
 4171              		.loc 1 1071 4
 4172 0160 0020     		movs	r0, #0
 4173 0162 FFF7FEFF 		bl	app_leds_all_ind
1072:../app/app.c  **** 			display_led(AQUA_CLEAN_LED, LED_ON);
 4174              		.loc 1 1072 4
 4175 0166 0121     		movs	r1, #1
 4176 0168 1120     		movs	r0, #17
 4177 016a FFF7FEFF 		bl	display_led
1073:../app/app.c  **** 			app_task_substep = NORMAL_AQUA_RUN_STATE;
 4178              		.loc 1 1073 21
 4179 016e 0F4B     		ldr	r3, .L383
 4180 0170 0A22     		movs	r2, #10
 4181 0172 1A70     		strb	r2, [r3]
1074:../app/app.c  **** 			break;
 4182              		.loc 1 1074 4
 4183 0174 18E0     		b	.L381
 4184              	.L370:
1075:../app/app.c  **** 		case NORMAL_AQUA_RUN_STATE:
1076:../app/app.c  **** 			osal_lyh_delay_task(Ms_10);
 4185              		.loc 1 1076 4
 4186 0176 0A20     		movs	r0, #10
 4187 0178 FFF7FEFF 		bl	osal_lyh_delay_task
1077:../app/app.c  **** 			break;
 4188              		.loc 1 1077 4
 4189 017c 14E0     		b	.L381
 4190              	.L369:
1078:../app/app.c  **** 		case NORMAL_CALC_INIT_STATE:
1079:../app/app.c  **** 			app_led_start_init();
 4191              		.loc 1 1079 4
 4192 017e FFF7FEFF 		bl	app_led_start_init
1080:../app/app.c  **** 			app_leds_all_fun(LED_OFF);
 4193              		.loc 1 1080 4
 4194 0182 0020     		movs	r0, #0
 4195 0184 FFF7FEFF 		bl	app_leds_all_fun
1081:../app/app.c  **** 			app_leds_all_ind(LED_OFF);
 4196              		.loc 1 1081 4
 4197 0188 0020     		movs	r0, #0
 4198 018a FFF7FEFF 		bl	app_leds_all_ind
1082:../app/app.c  **** 			display_led(CALC_CLEAN_LED, LED_ON);
 4199              		.loc 1 1082 4
 4200 018e 0121     		movs	r1, #1
 4201 0190 0220     		movs	r0, #2
 4202 0192 FFF7FEFF 		bl	display_led
1083:../app/app.c  **** 			app_task_substep = NORMAL_CALC_RUN_STATE;
 4203              		.loc 1 1083 21
 4204 0196 054B     		ldr	r3, .L383
 4205 0198 0C22     		movs	r2, #12
 4206 019a 1A70     		strb	r2, [r3]
1084:../app/app.c  **** 			break;
 4207              		.loc 1 1084 4
 4208 019c 04E0     		b	.L381
 4209              	.L367:
1085:../app/app.c  **** 		case NORMAL_CALC_RUN_STATE:
1086:../app/app.c  **** 			osal_lyh_delay_task(Ms_10);
 4210              		.loc 1 1086 4
 4211 019e 0A20     		movs	r0, #10
 4212 01a0 FFF7FEFF 		bl	osal_lyh_delay_task
1087:../app/app.c  **** 			break;
 4213              		.loc 1 1087 4
 4214 01a4 00E0     		b	.L381
 4215              	.L382:
1088:../app/app.c  **** 		default:
1089:../app/app.c  **** 			break;
 4216              		.loc 1 1089 4
 4217 01a6 00BF     		nop
 4218              	.L381:
1090:../app/app.c  **** 	}
1091:../app/app.c  **** }
 4219              		.loc 1 1091 1
 4220 01a8 00BF     		nop
 4221 01aa 80BD     		pop	{r7, pc}
 4222              	.L384:
 4223              		.align	2
 4224              	.L383:
 4225 01ac 00000000 		.word	app_task_substep
 4226 01b0 00000000 		.word	manual_setup
 4227              		.cfi_endproc
 4228              	.LFE168:
 4230              		.section	.text.app_espresso_handler,"ax",%progbits
 4231              		.align	1
 4232              		.global	app_espresso_handler
 4233              		.syntax unified
 4234              		.thumb
 4235              		.thumb_func
 4236              		.fpu softvfp
 4238              	app_espresso_handler:
 4239              	.LFB169:
1092:../app/app.c  **** 
1093:../app/app.c  **** /************************************************************************
1094:../app/app.c  **** * function name: app_espresso_handler
1095:../app/app.c  **** * input: non
1096:../app/app.c  **** * output: non
1097:../app/app.c  **** * description: object thread
1098:../app/app.c  **** *************************************************************************/
1099:../app/app.c  **** void app_espresso_handler(void)
1100:../app/app.c  **** {
 4240              		.loc 1 1100 1
 4241              		.cfi_startproc
 4242              		@ args = 0, pretend = 0, frame = 0
 4243              		@ frame_needed = 1, uses_anonymous_args = 0
 4244 0000 80B5     		push	{r7, lr}
 4245              		.cfi_def_cfa_offset 8
 4246              		.cfi_offset 7, -8
 4247              		.cfi_offset 14, -4
 4248 0002 00AF     		add	r7, sp, #0
 4249              		.cfi_def_cfa_register 7
1101:../app/app.c  **** 	switch(app_task_substep)
 4250              		.loc 1 1101 2
 4251 0004 BD4B     		ldr	r3, .L443
 4252 0006 1B78     		ldrb	r3, [r3]	@ zero_extendqisi2
 4253 0008 142B     		cmp	r3, #20
 4254 000a 00F20F82 		bhi	.L439
 4255 000e 01A2     		adr	r2, .L388
 4256 0010 52F823F0 		ldr	pc, [r2, r3, lsl #2]
 4257              		.p2align 2
 4258              	.L388:
 4259 0014 69000000 		.word	.L408+1
 4260 0018 A5000000 		.word	.L407+1
 4261 001c C3000000 		.word	.L406+1
 4262 0020 FF000000 		.word	.L405+1
 4263 0024 19010000 		.word	.L404+1
 4264 0028 4B010000 		.word	.L403+1
 4265 002c AF010000 		.word	.L402+1
 4266 0030 DF010000 		.word	.L401+1
 4267 0034 FF010000 		.word	.L400+1
 4268 0038 3B020000 		.word	.L399+1
 4269 003c 57020000 		.word	.L398+1
 4270 0040 6B020000 		.word	.L397+1
 4271 0044 CD020000 		.word	.L396+1
 4272 0048 E1020000 		.word	.L395+1
 4273 004c 11030000 		.word	.L394+1
 4274 0050 41030000 		.word	.L393+1
 4275 0054 61030000 		.word	.L392+1
 4276 0058 9D030000 		.word	.L391+1
 4277 005c B7030000 		.word	.L390+1
 4278 0060 E9030000 		.word	.L389+1
 4279 0064 0F040000 		.word	.L387+1
 4280              		.p2align 1
 4281              	.L408:
1102:../app/app.c  **** 	{
1103:../app/app.c  **** 		/* ÕłØÕ¦ŗÕī¢ńŖČµĆü */
1104:../app/app.c  **** 		case ESPRESSO_INIT_STATE:
1105:../app/app.c  **** 			CERRNT_STATE = INIT_AND_GRIND_STATE;	//Ķ«░ÕĮĢĶ┐øÕ║”
 4282              		.loc 1 1105 17
 4283 0068 A54B     		ldr	r3, .L443+4
 4284 006a 0122     		movs	r2, #1
 4285 006c 1A70     		strb	r2, [r3]
1106:../app/app.c  **** 			app_leds_all_fun(LED_OFF);
 4286              		.loc 1 1106 4
 4287 006e 0020     		movs	r0, #0
 4288 0070 FFF7FEFF 		bl	app_leds_all_fun
1107:../app/app.c  **** 			app_leds_all_ind(LED_OFF);
 4289              		.loc 1 1107 4
 4290 0074 0020     		movs	r0, #0
 4291 0076 FFF7FEFF 		bl	app_leds_all_ind
1108:../app/app.c  **** 			display_led(START_LED, LED_ON);
 4292              		.loc 1 1108 4
 4293 007a 0121     		movs	r1, #1
 4294 007c 0520     		movs	r0, #5
 4295 007e FFF7FEFF 		bl	display_led
1109:../app/app.c  **** 			app_led_espresso_init();		//ÕłØÕ¦ŗÕī¢espressoµīćńż║ńü»ķŚ¬ńāü
 4296              		.loc 1 1109 4
 4297 0082 FFF7FEFF 		bl	app_led_espresso_init
1110:../app/app.c  **** 			if(1 == manual_setup.cup){		//Õłżµ¢Łµ£¼µ¼ĪÕłČõĮ£µØ»µĢ░
 4298              		.loc 1 1110 24
 4299 0086 9F4B     		ldr	r3, .L443+8
 4300 0088 1B78     		ldrb	r3, [r3]	@ zero_extendqisi2
 4301              		.loc 1 1110 6
 4302 008a 012B     		cmp	r3, #1
 4303 008c 03D1     		bne	.L409
1111:../app/app.c  **** 				cup_loop = 1;
 4304              		.loc 1 1111 14
 4305 008e 9E4B     		ldr	r3, .L443+12
 4306 0090 0122     		movs	r2, #1
 4307 0092 1A70     		strb	r2, [r3]
 4308 0094 02E0     		b	.L410
 4309              	.L409:
1112:../app/app.c  **** 			}
1113:../app/app.c  **** 			else{
1114:../app/app.c  **** 				cup_loop = 0;
 4310              		.loc 1 1114 14
 4311 0096 9C4B     		ldr	r3, .L443+12
 4312 0098 0022     		movs	r2, #0
 4313 009a 1A70     		strb	r2, [r3]
 4314              	.L410:
1115:../app/app.c  **** 			}
1116:../app/app.c  **** 			app_task_substep = ESPRESSO_MOTO_CHECK_STATE;
 4315              		.loc 1 1116 21
 4316 009c 974B     		ldr	r3, .L443
 4317 009e 0122     		movs	r2, #1
 4318 00a0 1A70     		strb	r2, [r3]
1117:../app/app.c  **** 			break;
 4319              		.loc 1 1117 4
 4320 00a2 C8E1     		b	.L411
 4321              	.L407:
1118:../app/app.c  **** 		/* ĶÉāÕÅ¢ńöĄµ£║õĮŹńĮ«µŻĆµĄŗ */
1119:../app/app.c  **** 		case ESPRESSO_MOTO_CHECK_STATE:
1120:../app/app.c  **** 			dc_motor_ClearFault();		
 4322              		.loc 1 1120 4
 4323 00a4 FFF7FEFF 		bl	dc_motor_ClearFault
1121:../app/app.c  **** 			dc_motor_Start(MOTOR_RIGHT);
 4324              		.loc 1 1121 4
 4325 00a8 0120     		movs	r0, #1
 4326 00aa FFF7FEFF 		bl	dc_motor_Start
1122:../app/app.c  **** 			osal_lyh_delay_task(Ms_100);
 4327              		.loc 1 1122 4
 4328 00ae 6420     		movs	r0, #100
 4329 00b0 FFF7FEFF 		bl	osal_lyh_delay_task
1123:../app/app.c  **** 			run_max_time = RIGHT_TIMER(Ms_3000, Ms_100);
 4330              		.loc 1 1123 17
 4331 00b4 954B     		ldr	r3, .L443+16
 4332 00b6 1E22     		movs	r2, #30
 4333 00b8 1A80     		strh	r2, [r3]	@ movhi
1124:../app/app.c  **** 			app_task_substep = ESPRESSO_MOTO_CHECK_JUDGE_STATE;
 4334              		.loc 1 1124 21
 4335 00ba 904B     		ldr	r3, .L443
 4336 00bc 0222     		movs	r2, #2
 4337 00be 1A70     		strb	r2, [r3]
1125:../app/app.c  **** 			break;
 4338              		.loc 1 1125 4
 4339 00c0 B9E1     		b	.L411
 4340              	.L406:
1126:../app/app.c  **** 		/* Õłżµ¢ŁĶÉāÕÅ¢ńöĄµ£║µś»ÕÉ”Ķ¦”ńó░ÕÄ¤ńé╣Ķ¦”ńé╣ */
1127:../app/app.c  **** 		case ESPRESSO_MOTO_CHECK_JUDGE_STATE:
1128:../app/app.c  **** 			if ((MOTOR_STATE_STOPED ==dc_motor_GetState())
 4341              		.loc 1 1128 30
 4342 00c2 FFF7FEFF 		bl	dc_motor_GetState
 4343 00c6 0346     		mov	r3, r0
 4344              		.loc 1 1128 7
 4345 00c8 002B     		cmp	r3, #0
 4346 00ca 0ED0     		beq	.L412
1129:../app/app.c  **** 				|| (TRUE == app_motor_ready())
 4347              		.loc 1 1129 17
 4348 00cc FFF7FEFF 		bl	app_motor_ready
 4349 00d0 0346     		mov	r3, r0
 4350              		.loc 1 1129 5
 4351 00d2 012B     		cmp	r3, #1
 4352 00d4 09D0     		beq	.L412
1130:../app/app.c  **** 				|| (--run_max_time == 0)){
 4353              		.loc 1 1130 9
 4354 00d6 8D4B     		ldr	r3, .L443+16
 4355 00d8 1B88     		ldrh	r3, [r3]
 4356 00da 013B     		subs	r3, r3, #1
 4357 00dc 9AB2     		uxth	r2, r3
 4358              		.loc 1 1130 5
 4359 00de 8B4B     		ldr	r3, .L443+16
 4360 00e0 1A80     		strh	r2, [r3]	@ movhi
 4361              		.loc 1 1130 9
 4362 00e2 8A4B     		ldr	r3, .L443+16
 4363 00e4 1B88     		ldrh	r3, [r3]
 4364              		.loc 1 1130 5
 4365 00e6 002B     		cmp	r3, #0
 4366 00e8 05D1     		bne	.L413
 4367              	.L412:
1131:../app/app.c  **** 				dc_motor_Stop();
 4368              		.loc 1 1131 5
 4369 00ea FFF7FEFF 		bl	dc_motor_Stop
1132:../app/app.c  **** 				app_task_substep = ESPRESSO_MOTO_FIRST_RST_STATE;					
 4370              		.loc 1 1132 22
 4371 00ee 834B     		ldr	r3, .L443
 4372 00f0 0322     		movs	r2, #3
 4373 00f2 1A70     		strb	r2, [r3]
1133:../app/app.c  **** 			}
1134:../app/app.c  **** 			else {
1135:../app/app.c  **** 				osal_lyh_delay_task(Ms_100);
1136:../app/app.c  **** 			}
1137:../app/app.c  **** 			break;
 4374              		.loc 1 1137 4
 4375 00f4 9FE1     		b	.L411
 4376              	.L413:
1135:../app/app.c  **** 			}
 4377              		.loc 1 1135 5
 4378 00f6 6420     		movs	r0, #100
 4379 00f8 FFF7FEFF 		bl	osal_lyh_delay_task
 4380              		.loc 1 1137 4
 4381 00fc 9BE1     		b	.L411
 4382              	.L405:
1138:../app/app.c  **** 		/* ĶÉāÕÅ¢ńöĄµ£║ÕÉæÕø×ĶĮ¼Õł░ÕÄ¤ńé╣ */
1139:../app/app.c  **** 		case ESPRESSO_MOTO_FIRST_RST_STATE:
1140:../app/app.c  **** 			dc_motor_Start(MOTOR_LEFT);
 4383              		.loc 1 1140 4
 4384 00fe 0220     		movs	r0, #2
 4385 0100 FFF7FEFF 		bl	dc_motor_Start
1141:../app/app.c  **** 			osal_lyh_delay_task(Ms_100);
 4386              		.loc 1 1141 4
 4387 0104 6420     		movs	r0, #100
 4388 0106 FFF7FEFF 		bl	osal_lyh_delay_task
1142:../app/app.c  **** 			run_max_time = LEFT_TIMER(MOTOR_FIX_TIME, Ms_100);
 4389              		.loc 1 1142 17
 4390 010a 804B     		ldr	r3, .L443+16
 4391 010c 0322     		movs	r2, #3
 4392 010e 1A80     		strh	r2, [r3]	@ movhi
1143:../app/app.c  **** 			app_task_substep = ESPRESSO_MOTO_CHECK_COMPLETE_STATE;
 4393              		.loc 1 1143 21
 4394 0110 7A4B     		ldr	r3, .L443
 4395 0112 0422     		movs	r2, #4
 4396 0114 1A70     		strb	r2, [r3]
1144:../app/app.c  **** 			break;
 4397              		.loc 1 1144 4
 4398 0116 8EE1     		b	.L411
 4399              	.L404:
1145:../app/app.c  **** 		/* Õłżµ¢ŁĶÉāÕÅ¢ńöĄµ£║µś»ÕÉ”Õ«īµłÉÕø×ĶĮ¼ */
1146:../app/app.c  **** 		case ESPRESSO_MOTO_CHECK_COMPLETE_STATE:
1147:../app/app.c  **** 			if (1/*(FAIL == app_motor_ready())*/	// deleting point,(temp to cancel)
1148:../app/app.c  **** 				&& ((MOTOR_STATE_STOPED ==dc_motor_GetState())
 4400              		.loc 1 1148 31
 4401 0118 FFF7FEFF 		bl	dc_motor_GetState
 4402 011c 0346     		mov	r3, r0
1147:../app/app.c  **** 				&& ((MOTOR_STATE_STOPED ==dc_motor_GetState())
 4403              		.loc 1 1147 7
 4404 011e 002B     		cmp	r3, #0
 4405 0120 09D0     		beq	.L415
1149:../app/app.c  **** 				|| (--run_max_time == 0))){
 4406              		.loc 1 1149 9
 4407 0122 7A4B     		ldr	r3, .L443+16
 4408 0124 1B88     		ldrh	r3, [r3]
 4409 0126 013B     		subs	r3, r3, #1
 4410 0128 9AB2     		uxth	r2, r3
1148:../app/app.c  **** 				|| (--run_max_time == 0))){
 4411              		.loc 1 1148 5
 4412 012a 784B     		ldr	r3, .L443+16
 4413 012c 1A80     		strh	r2, [r3]	@ movhi
 4414              		.loc 1 1149 9
 4415 012e 774B     		ldr	r3, .L443+16
 4416 0130 1B88     		ldrh	r3, [r3]
1148:../app/app.c  **** 				|| (--run_max_time == 0))){
 4417              		.loc 1 1148 5
 4418 0132 002B     		cmp	r3, #0
 4419 0134 05D1     		bne	.L416
 4420              	.L415:
1150:../app/app.c  **** 				dc_motor_Stop();
 4421              		.loc 1 1150 5
 4422 0136 FFF7FEFF 		bl	dc_motor_Stop
1151:../app/app.c  **** 				app_task_substep = ESPRESSO_GRIND_ING_STATE;					
 4423              		.loc 1 1151 22
 4424 013a 704B     		ldr	r3, .L443
 4425 013c 0522     		movs	r2, #5
 4426 013e 1A70     		strb	r2, [r3]
1152:../app/app.c  **** 			}
1153:../app/app.c  **** 			else {
1154:../app/app.c  **** 				osal_lyh_delay_task(Ms_100);
1155:../app/app.c  **** 			}
1156:../app/app.c  **** 			break;
 4427              		.loc 1 1156 4
 4428 0140 79E1     		b	.L411
 4429              	.L416:
1154:../app/app.c  **** 			}
 4430              		.loc 1 1154 5
 4431 0142 6420     		movs	r0, #100
 4432 0144 FFF7FEFF 		bl	osal_lyh_delay_task
 4433              		.loc 1 1156 4
 4434 0148 75E1     		b	.L411
 4435              	.L403:
1157:../app/app.c  **** 		/* ńĀöńŻ©ÕÆ¢ÕĢĪĶ▒å */
1158:../app/app.c  **** 		case ESPRESSO_GRIND_ING_STATE:
1159:../app/app.c  **** 			app_turn_heat_on(TARGET_TEMP_COFFEE);
 4436              		.loc 1 1159 4
 4437 014a 40F6DC20 		movw	r0, #2780
 4438 014e FFF7FEFF 		bl	app_turn_heat_on
1160:../app/app.c  **** 			if(0 == manual_setup.coffee)	//ńĀöńŻ©µŚČķŚ┤µĀ╣µŹ«coffeeń©ŗÕ║”Ķ░āµĢ┤’╝Üx1=8s,x2=9s,x3=10s
 4439              		.loc 1 1160 24
 4440 0152 6C4B     		ldr	r3, .L443+8
 4441 0154 5B78     		ldrb	r3, [r3, #1]	@ zero_extendqisi2
 4442              		.loc 1 1160 6
 4443 0156 002B     		cmp	r3, #0
 4444 0158 0AD1     		bne	.L418
1161:../app/app.c  **** 			{
1162:../app/app.c  **** 				ac_grind_start(1000);		//ÕÉ»ÕŖ©ńĀöńŻ©ńöĄµ£║
 4445              		.loc 1 1162 5
 4446 015a 4FF47A70 		mov	r0, #1000
 4447 015e FFF7FEFF 		bl	ac_grind_start
1163:../app/app.c  **** 				run_max_time = GRIND_TIMER(Ms_8000, Ms_100);
 4448              		.loc 1 1163 18
 4449 0162 6A4B     		ldr	r3, .L443+16
 4450 0164 5022     		movs	r2, #80
 4451 0166 1A80     		strh	r2, [r3]	@ movhi
1164:../app/app.c  **** 				app_task_substep = ESPRESSO_GRIND_END_STATE;
 4452              		.loc 1 1164 22
 4453 0168 644B     		ldr	r3, .L443
 4454 016a 0622     		movs	r2, #6
 4455 016c 1A70     		strb	r2, [r3]
1165:../app/app.c  **** 			}
1166:../app/app.c  **** 			else if (1 == manual_setup.coffee)
1167:../app/app.c  **** 			{
1168:../app/app.c  **** 				ac_grind_start(1000);		//ÕÉ»ÕŖ©ńĀöńŻ©ńöĄµ£║
1169:../app/app.c  **** 				run_max_time = GRIND_TIMER(Ms_9000, Ms_100);
1170:../app/app.c  **** 				app_task_substep = ESPRESSO_GRIND_END_STATE;	
1171:../app/app.c  **** 			}			
1172:../app/app.c  **** 			else if(2 == manual_setup.coffee)
1173:../app/app.c  **** 			{
1174:../app/app.c  **** 				ac_grind_start(1000);		//ÕÉ»ÕŖ©ńĀöńŻ©ńöĄµ£║
1175:../app/app.c  **** 				run_max_time = GRIND_TIMER(Ms_10000, Ms_100);
1176:../app/app.c  **** 				app_task_substep = ESPRESSO_GRIND_END_STATE;	
1177:../app/app.c  **** 			}
1178:../app/app.c  **** 			break;
 4456              		.loc 1 1178 4
 4457 016e 5FE1     		b	.L440
 4458              	.L418:
1166:../app/app.c  **** 			{
 4459              		.loc 1 1166 30
 4460 0170 644B     		ldr	r3, .L443+8
 4461 0172 5B78     		ldrb	r3, [r3, #1]	@ zero_extendqisi2
1166:../app/app.c  **** 			{
 4462              		.loc 1 1166 12
 4463 0174 012B     		cmp	r3, #1
 4464 0176 0AD1     		bne	.L420
1168:../app/app.c  **** 				run_max_time = GRIND_TIMER(Ms_9000, Ms_100);
 4465              		.loc 1 1168 5
 4466 0178 4FF47A70 		mov	r0, #1000
 4467 017c FFF7FEFF 		bl	ac_grind_start
1169:../app/app.c  **** 				app_task_substep = ESPRESSO_GRIND_END_STATE;	
 4468              		.loc 1 1169 18
 4469 0180 624B     		ldr	r3, .L443+16
 4470 0182 5A22     		movs	r2, #90
 4471 0184 1A80     		strh	r2, [r3]	@ movhi
1170:../app/app.c  **** 			}			
 4472              		.loc 1 1170 22
 4473 0186 5D4B     		ldr	r3, .L443
 4474 0188 0622     		movs	r2, #6
 4475 018a 1A70     		strb	r2, [r3]
 4476              		.loc 1 1178 4
 4477 018c 50E1     		b	.L440
 4478              	.L420:
1172:../app/app.c  **** 			{
 4479              		.loc 1 1172 29
 4480 018e 5D4B     		ldr	r3, .L443+8
 4481 0190 5B78     		ldrb	r3, [r3, #1]	@ zero_extendqisi2
1172:../app/app.c  **** 			{
 4482              		.loc 1 1172 11
 4483 0192 022B     		cmp	r3, #2
 4484 0194 40F04C81 		bne	.L440
1174:../app/app.c  **** 				run_max_time = GRIND_TIMER(Ms_10000, Ms_100);
 4485              		.loc 1 1174 5
 4486 0198 4FF47A70 		mov	r0, #1000
 4487 019c FFF7FEFF 		bl	ac_grind_start
1175:../app/app.c  **** 				app_task_substep = ESPRESSO_GRIND_END_STATE;	
 4488              		.loc 1 1175 18
 4489 01a0 5A4B     		ldr	r3, .L443+16
 4490 01a2 6422     		movs	r2, #100
 4491 01a4 1A80     		strh	r2, [r3]	@ movhi
1176:../app/app.c  **** 			}
 4492              		.loc 1 1176 22
 4493 01a6 554B     		ldr	r3, .L443
 4494 01a8 0622     		movs	r2, #6
 4495 01aa 1A70     		strb	r2, [r3]
 4496              		.loc 1 1178 4
 4497 01ac 40E1     		b	.L440
 4498              	.L402:
1179:../app/app.c  **** 		case ESPRESSO_GRIND_END_STATE:
1180:../app/app.c  **** 			if (--run_max_time == 0){	//Õłżµ¢ŁńĀöńŻ©µŚČķŚ┤µś»ÕÉ”Õł░ĶŠŠ
 4499              		.loc 1 1180 8
 4500 01ae 574B     		ldr	r3, .L443+16
 4501 01b0 1B88     		ldrh	r3, [r3]
 4502 01b2 013B     		subs	r3, r3, #1
 4503 01b4 9AB2     		uxth	r2, r3
 4504              		.loc 1 1180 7
 4505 01b6 554B     		ldr	r3, .L443+16
 4506 01b8 1A80     		strh	r2, [r3]	@ movhi
 4507              		.loc 1 1180 8
 4508 01ba 544B     		ldr	r3, .L443+16
 4509 01bc 1B88     		ldrh	r3, [r3]
 4510              		.loc 1 1180 7
 4511 01be 002B     		cmp	r3, #0
 4512 01c0 09D1     		bne	.L421
1181:../app/app.c  **** 				ac_grind_stop();
 4513              		.loc 1 1181 5
 4514 01c2 FFF7FEFF 		bl	ac_grind_stop
1182:../app/app.c  **** 				osal_lyh_delay_task(Ms_1000);
 4515              		.loc 1 1182 5
 4516 01c6 4FF47A70 		mov	r0, #1000
 4517 01ca FFF7FEFF 		bl	osal_lyh_delay_task
1183:../app/app.c  **** 				app_task_substep = ESPRESSO_MOTO_GO_BREW_STATE;	
 4518              		.loc 1 1183 22
 4519 01ce 4B4B     		ldr	r3, .L443
 4520 01d0 0722     		movs	r2, #7
 4521 01d2 1A70     		strb	r2, [r3]
1184:../app/app.c  **** 			}
1185:../app/app.c  **** 			else {
1186:../app/app.c  **** 				osal_lyh_delay_task(Ms_100);
1187:../app/app.c  **** 			}
1188:../app/app.c  **** 			break;
 4522              		.loc 1 1188 4
 4523 01d4 2FE1     		b	.L411
 4524              	.L421:
1186:../app/app.c  **** 			}
 4525              		.loc 1 1186 5
 4526 01d6 6420     		movs	r0, #100
 4527 01d8 FFF7FEFF 		bl	osal_lyh_delay_task
 4528              		.loc 1 1188 4
 4529 01dc 2BE1     		b	.L411
 4530              	.L401:
1189:../app/app.c  **** 		/* ĶÉāÕÅ¢ńöĄµ£║ĶĮ¼Õł░ĶÉāÕÅ¢õĮŹńĮ« */
1190:../app/app.c  **** 		case ESPRESSO_MOTO_GO_BREW_STATE:
1191:../app/app.c  **** 			CERRNT_STATE = GO_BREW_STATE;	//Ķ«░ÕĮĢĶ┐øÕ║”
 4531              		.loc 1 1191 17
 4532 01de 484B     		ldr	r3, .L443+4
 4533 01e0 0222     		movs	r2, #2
 4534 01e2 1A70     		strb	r2, [r3]
1192:../app/app.c  **** 			dc_motor_Start(MOTOR_LEFT);		
 4535              		.loc 1 1192 4
 4536 01e4 0220     		movs	r0, #2
 4537 01e6 FFF7FEFF 		bl	dc_motor_Start
1193:../app/app.c  **** 			osal_lyh_delay_task(Ms_100);
 4538              		.loc 1 1193 4
 4539 01ea 6420     		movs	r0, #100
 4540 01ec FFF7FEFF 		bl	osal_lyh_delay_task
1194:../app/app.c  **** 			run_max_time = LEFT_TIMER(Ms_7000, Ms_100);
 4541              		.loc 1 1194 17
 4542 01f0 464B     		ldr	r3, .L443+16
 4543 01f2 4622     		movs	r2, #70
 4544 01f4 1A80     		strh	r2, [r3]	@ movhi
1195:../app/app.c  **** 			app_task_substep = ESPRESSO_MOTO_GO_BREW_JUDGE_STATE;
 4545              		.loc 1 1195 21
 4546 01f6 414B     		ldr	r3, .L443
 4547 01f8 0822     		movs	r2, #8
 4548 01fa 1A70     		strb	r2, [r3]
1196:../app/app.c  **** 			break;
 4549              		.loc 1 1196 4
 4550 01fc 1BE1     		b	.L411
 4551              	.L400:
1197:../app/app.c  **** 		/* Õłżµ¢ŁĶÉāÕÅ¢ńöĄµ£║µś»ÕÉ”Õł░ĶŠŠĶÉāÕÅ¢õĮŹńĮ« */
1198:../app/app.c  **** 		case ESPRESSO_MOTO_GO_BREW_JUDGE_STATE:
1199:../app/app.c  **** 			if ((MOTOR_STATE_STOPED ==dc_motor_GetState())
 4552              		.loc 1 1199 30
 4553 01fe FFF7FEFF 		bl	dc_motor_GetState
 4554 0202 0346     		mov	r3, r0
 4555              		.loc 1 1199 7
 4556 0204 002B     		cmp	r3, #0
 4557 0206 0ED0     		beq	.L423
1200:../app/app.c  **** 				|| (TRUE == app_motor_ready())
 4558              		.loc 1 1200 17
 4559 0208 FFF7FEFF 		bl	app_motor_ready
 4560 020c 0346     		mov	r3, r0
 4561              		.loc 1 1200 5
 4562 020e 012B     		cmp	r3, #1
 4563 0210 09D0     		beq	.L423
1201:../app/app.c  **** 				|| (--run_max_time == 0)){
 4564              		.loc 1 1201 9
 4565 0212 3E4B     		ldr	r3, .L443+16
 4566 0214 1B88     		ldrh	r3, [r3]
 4567 0216 013B     		subs	r3, r3, #1
 4568 0218 9AB2     		uxth	r2, r3
 4569              		.loc 1 1201 5
 4570 021a 3C4B     		ldr	r3, .L443+16
 4571 021c 1A80     		strh	r2, [r3]	@ movhi
 4572              		.loc 1 1201 9
 4573 021e 3B4B     		ldr	r3, .L443+16
 4574 0220 1B88     		ldrh	r3, [r3]
 4575              		.loc 1 1201 5
 4576 0222 002B     		cmp	r3, #0
 4577 0224 05D1     		bne	.L424
 4578              	.L423:
1202:../app/app.c  **** 				dc_motor_Stop();
 4579              		.loc 1 1202 5
 4580 0226 FFF7FEFF 		bl	dc_motor_Stop
1203:../app/app.c  **** 				app_task_substep = ESPRESSO_PRE_BREW_STATE;	
 4581              		.loc 1 1203 22
 4582 022a 344B     		ldr	r3, .L443
 4583 022c 0922     		movs	r2, #9
 4584 022e 1A70     		strb	r2, [r3]
1204:../app/app.c  **** 			}
1205:../app/app.c  **** 			else {
1206:../app/app.c  **** 				osal_lyh_delay_task(Ms_100);
1207:../app/app.c  **** 			}			
1208:../app/app.c  **** 			break;
 4585              		.loc 1 1208 4
 4586 0230 01E1     		b	.L411
 4587              	.L424:
1206:../app/app.c  **** 			}			
 4588              		.loc 1 1206 5
 4589 0232 6420     		movs	r0, #100
 4590 0234 FFF7FEFF 		bl	osal_lyh_delay_task
 4591              		.loc 1 1208 4
 4592 0238 FDE0     		b	.L411
 4593              	.L399:
1209:../app/app.c  **** 		/* ķóäÕå▓ńģ«ńŖČµĆü */
1210:../app/app.c  **** 		case ESPRESSO_PRE_BREW_STATE:
1211:../app/app.c  **** 			CERRNT_STATE = PRE_BREW_STATE;	//Ķ«░ÕĮĢĶ┐øÕ║”
 4594              		.loc 1 1211 17
 4595 023a 314B     		ldr	r3, .L443+4
 4596 023c 0322     		movs	r2, #3
 4597 023e 1A70     		strb	r2, [r3]
1212:../app/app.c  **** 			ac_pumb_start(CONTINUE_MODE);		//ÕÉ»ÕŖ©µ░┤µ│Ą
 4598              		.loc 1 1212 4
 4599 0240 0020     		movs	r0, #0
 4600 0242 FFF7FEFF 		bl	ac_pumb_start
1213:../app/app.c  **** 			osal_lyh_delay_task(Ms_2000 - Ms_100);
 4601              		.loc 1 1213 4
 4602 0246 40F26C70 		movw	r0, #1900
 4603 024a FFF7FEFF 		bl	osal_lyh_delay_task
1214:../app/app.c  **** 			app_task_substep = ESPRESSO_WAIT_BREW_STATE;	
 4604              		.loc 1 1214 21
 4605 024e 2B4B     		ldr	r3, .L443
 4606 0250 0A22     		movs	r2, #10
 4607 0252 1A70     		strb	r2, [r3]
1215:../app/app.c  **** 			break;
 4608              		.loc 1 1215 4
 4609 0254 EFE0     		b	.L411
 4610              	.L398:
1216:../app/app.c  **** 		case ESPRESSO_WAIT_BREW_STATE:
1217:../app/app.c  **** 			ac_pumb_stop();						//Õü£µŁóµ░┤µ│Ą
 4611              		.loc 1 1217 4
 4612 0256 FFF7FEFF 		bl	ac_pumb_stop
1218:../app/app.c  **** 			osal_lyh_delay_task(Ms_4000);
 4613              		.loc 1 1218 4
 4614 025a 4FF47A60 		mov	r0, #4000
 4615 025e FFF7FEFF 		bl	osal_lyh_delay_task
1219:../app/app.c  **** 			app_task_substep = ESPRESSO_BREW_STATE;	
 4616              		.loc 1 1219 21
 4617 0262 264B     		ldr	r3, .L443
 4618 0264 0B22     		movs	r2, #11
 4619 0266 1A70     		strb	r2, [r3]
1220:../app/app.c  **** 			break;
 4620              		.loc 1 1220 4
 4621 0268 E5E0     		b	.L411
 4622              	.L397:
1221:../app/app.c  **** 		/* Õå▓ńģ«ńŖČµĆü */
1222:../app/app.c  **** 		case ESPRESSO_BREW_STATE:
1223:../app/app.c  **** 			CERRNT_STATE = BREW_STATE;	//Ķ«░ÕĮĢĶ┐øÕ║”
 4623              		.loc 1 1223 17
 4624 026a 254B     		ldr	r3, .L443+4
 4625 026c 0422     		movs	r2, #4
 4626 026e 1A70     		strb	r2, [r3]
1224:../app/app.c  **** 			if(0 == manual_setup.water)		//µĀ╣µŹ«µØ»ķćÅÕå│Õ«ÜµŖĮµ░┤µŚČķŚ┤’╝Üx1=5s,x2=10s,x3=20s
 4627              		.loc 1 1224 24
 4628 0270 244B     		ldr	r3, .L443+8
 4629 0272 9B78     		ldrb	r3, [r3, #2]	@ zero_extendqisi2
 4630              		.loc 1 1224 6
 4631 0274 002B     		cmp	r3, #0
 4632 0276 0AD1     		bne	.L426
1225:../app/app.c  **** 			{
1226:../app/app.c  **** 				ac_pumb_start(CONTINUE_MODE);
 4633              		.loc 1 1226 5
 4634 0278 0020     		movs	r0, #0
 4635 027a FFF7FEFF 		bl	ac_pumb_start
1227:../app/app.c  **** 				osal_lyh_delay_task(Ms_5000);
 4636              		.loc 1 1227 5
 4637 027e 41F28830 		movw	r0, #5000
 4638 0282 FFF7FEFF 		bl	osal_lyh_delay_task
1228:../app/app.c  **** 				app_task_substep = ESPRESSO_BREW_FINISH_STATE;	
 4639              		.loc 1 1228 22
 4640 0286 1D4B     		ldr	r3, .L443
 4641 0288 0C22     		movs	r2, #12
 4642 028a 1A70     		strb	r2, [r3]
1229:../app/app.c  **** 			}
1230:../app/app.c  **** 			else if(1 == manual_setup.water)
1231:../app/app.c  **** 			{
1232:../app/app.c  **** 				ac_pumb_start(CONTINUE_MODE);
1233:../app/app.c  **** 				osal_lyh_delay_task(Ms_10000);
1234:../app/app.c  **** 				app_task_substep = ESPRESSO_BREW_FINISH_STATE;	
1235:../app/app.c  **** 
1236:../app/app.c  **** 			}
1237:../app/app.c  **** 			else if(2 == manual_setup.water)
1238:../app/app.c  **** 			{
1239:../app/app.c  **** 				ac_pumb_start(CONTINUE_MODE);
1240:../app/app.c  **** 				osal_lyh_delay_task(Ms_10000 + Ms_10000);
1241:../app/app.c  **** 				app_task_substep = ESPRESSO_BREW_FINISH_STATE;	
1242:../app/app.c  **** 			}
1243:../app/app.c  **** 			break;
 4643              		.loc 1 1243 4
 4644 028c D2E0     		b	.L441
 4645              	.L426:
1230:../app/app.c  **** 			{
 4646              		.loc 1 1230 29
 4647 028e 1D4B     		ldr	r3, .L443+8
 4648 0290 9B78     		ldrb	r3, [r3, #2]	@ zero_extendqisi2
1230:../app/app.c  **** 			{
 4649              		.loc 1 1230 11
 4650 0292 012B     		cmp	r3, #1
 4651 0294 0AD1     		bne	.L428
1232:../app/app.c  **** 				osal_lyh_delay_task(Ms_10000);
 4652              		.loc 1 1232 5
 4653 0296 0020     		movs	r0, #0
 4654 0298 FFF7FEFF 		bl	ac_pumb_start
1233:../app/app.c  **** 				app_task_substep = ESPRESSO_BREW_FINISH_STATE;	
 4655              		.loc 1 1233 5
 4656 029c 42F21070 		movw	r0, #10000
 4657 02a0 FFF7FEFF 		bl	osal_lyh_delay_task
1234:../app/app.c  **** 
 4658              		.loc 1 1234 22
 4659 02a4 154B     		ldr	r3, .L443
 4660 02a6 0C22     		movs	r2, #12
 4661 02a8 1A70     		strb	r2, [r3]
 4662              		.loc 1 1243 4
 4663 02aa C3E0     		b	.L441
 4664              	.L428:
1237:../app/app.c  **** 			{
 4665              		.loc 1 1237 29
 4666 02ac 154B     		ldr	r3, .L443+8
 4667 02ae 9B78     		ldrb	r3, [r3, #2]	@ zero_extendqisi2
1237:../app/app.c  **** 			{
 4668              		.loc 1 1237 11
 4669 02b0 022B     		cmp	r3, #2
 4670 02b2 40F0BF80 		bne	.L441
1239:../app/app.c  **** 				osal_lyh_delay_task(Ms_10000 + Ms_10000);
 4671              		.loc 1 1239 5
 4672 02b6 0020     		movs	r0, #0
 4673 02b8 FFF7FEFF 		bl	ac_pumb_start
1240:../app/app.c  **** 				app_task_substep = ESPRESSO_BREW_FINISH_STATE;	
 4674              		.loc 1 1240 5
 4675 02bc 44F62060 		movw	r0, #20000
 4676 02c0 FFF7FEFF 		bl	osal_lyh_delay_task
1241:../app/app.c  **** 			}
 4677              		.loc 1 1241 22
 4678 02c4 0D4B     		ldr	r3, .L443
 4679 02c6 0C22     		movs	r2, #12
 4680 02c8 1A70     		strb	r2, [r3]
 4681              		.loc 1 1243 4
 4682 02ca B3E0     		b	.L441
 4683              	.L396:
1244:../app/app.c  **** 		case ESPRESSO_BREW_FINISH_STATE:	//Õå▓ńģ«Õ«īµłÉ
1245:../app/app.c  **** 			ac_pumb_stop();		//Õü£µŁóµ░┤µ│Ą	
 4684              		.loc 1 1245 4
 4685 02cc FFF7FEFF 		bl	ac_pumb_stop
1246:../app/app.c  **** 			osal_lyh_delay_task(Ms_6000);
 4686              		.loc 1 1246 4
 4687 02d0 41F27070 		movw	r0, #6000
 4688 02d4 FFF7FEFF 		bl	osal_lyh_delay_task
1247:../app/app.c  **** 			app_task_substep = ESPRESSO_GO_DROP_COFFEE_GROUNDS_STATE;	
 4689              		.loc 1 1247 21
 4690 02d8 084B     		ldr	r3, .L443
 4691 02da 0D22     		movs	r2, #13
 4692 02dc 1A70     		strb	r2, [r3]
1248:../app/app.c  **** 			break;
 4693              		.loc 1 1248 4
 4694 02de AAE0     		b	.L411
 4695              	.L395:
1249:../app/app.c  **** 		/* õĖóÕÆ¢ÕĢĪµĖŻńŖČµĆü */
1250:../app/app.c  **** 		case ESPRESSO_GO_DROP_COFFEE_GROUNDS_STATE:
1251:../app/app.c  **** 			CERRNT_STATE = DROP_BEANS_STATE;	//Ķ«░ÕĮĢĶ┐øÕ║”
 4696              		.loc 1 1251 17
 4697 02e0 074B     		ldr	r3, .L443+4
 4698 02e2 0522     		movs	r2, #5
 4699 02e4 1A70     		strb	r2, [r3]
1252:../app/app.c  **** 			dc_motor_Start(MOTOR_RIGHT);	//ńöĄµ£║ÕÅŹĶĮ¼2.9s’╝ī Õł░õĖóÕÆ¢ÕĢĪµĖŻõĮŹńĮ«
 4700              		.loc 1 1252 4
 4701 02e6 0120     		movs	r0, #1
 4702 02e8 FFF7FEFF 		bl	dc_motor_Start
1253:../app/app.c  **** 			run_max_time = RIGHT_TIMER(Ms_2900, Ms_100);
 4703              		.loc 1 1253 17
 4704 02ec 074B     		ldr	r3, .L443+16
 4705 02ee 1D22     		movs	r2, #29
 4706 02f0 1A80     		strh	r2, [r3]	@ movhi
1254:../app/app.c  **** 			app_task_substep = ESPRESSO_DROP_COFFEE_GROUNDS_STATE;	
 4707              		.loc 1 1254 21
 4708 02f2 024B     		ldr	r3, .L443
 4709 02f4 0E22     		movs	r2, #14
 4710 02f6 1A70     		strb	r2, [r3]
1255:../app/app.c  **** 			break;
 4711              		.loc 1 1255 4
 4712 02f8 9DE0     		b	.L411
 4713              	.L444:
 4714 02fa 00BF     		.align	2
 4715              	.L443:
 4716 02fc 00000000 		.word	app_task_substep
 4717 0300 00000000 		.word	CERRNT_STATE
 4718 0304 00000000 		.word	manual_setup
 4719 0308 00000000 		.word	cup_loop
 4720 030c 00000000 		.word	run_max_time
 4721              	.L394:
1256:../app/app.c  **** 		case ESPRESSO_DROP_COFFEE_GROUNDS_STATE:
1257:../app/app.c  **** 			if(--run_max_time == 0){
 4722              		.loc 1 1257 7
 4723 0310 4A4B     		ldr	r3, .L445
 4724 0312 1B88     		ldrh	r3, [r3]
 4725 0314 013B     		subs	r3, r3, #1
 4726 0316 9AB2     		uxth	r2, r3
 4727              		.loc 1 1257 6
 4728 0318 484B     		ldr	r3, .L445
 4729 031a 1A80     		strh	r2, [r3]	@ movhi
 4730              		.loc 1 1257 7
 4731 031c 474B     		ldr	r3, .L445
 4732 031e 1B88     		ldrh	r3, [r3]
 4733              		.loc 1 1257 6
 4734 0320 002B     		cmp	r3, #0
 4735 0322 09D1     		bne	.L429
1258:../app/app.c  **** 				dc_motor_Stop();
 4736              		.loc 1 1258 5
 4737 0324 FFF7FEFF 		bl	dc_motor_Stop
1259:../app/app.c  **** 				osal_lyh_delay_task(Ms_3000);
 4738              		.loc 1 1259 5
 4739 0328 40F6B830 		movw	r0, #3000
 4740 032c FFF7FEFF 		bl	osal_lyh_delay_task
1260:../app/app.c  **** 				app_task_substep = ESPRESSO_BACK_STATE;
 4741              		.loc 1 1260 22
 4742 0330 434B     		ldr	r3, .L445+4
 4743 0332 0F22     		movs	r2, #15
 4744 0334 1A70     		strb	r2, [r3]
1261:../app/app.c  **** 			}
1262:../app/app.c  **** 			else{
1263:../app/app.c  **** 				osal_lyh_delay_task(Ms_100);
1264:../app/app.c  **** 			}
1265:../app/app.c  **** 			break;
 4745              		.loc 1 1265 4
 4746 0336 7EE0     		b	.L411
 4747              	.L429:
1263:../app/app.c  **** 			}
 4748              		.loc 1 1263 5
 4749 0338 6420     		movs	r0, #100
 4750 033a FFF7FEFF 		bl	osal_lyh_delay_task
 4751              		.loc 1 1265 4
 4752 033e 7AE0     		b	.L411
 4753              	.L393:
1266:../app/app.c  **** 		/* ĶÉāÕÅ¢ńöĄµ£║Ķ┐öÕø×ÕÄ¤õĮŹ */
1267:../app/app.c  **** 		case ESPRESSO_BACK_STATE:		//ńöĄµ£║ÕÉæÕÄ¤õĮŹĶĮ¼ÕŖ©
1268:../app/app.c  **** 			CERRNT_STATE = RST_STATE;	//Ķ«░ÕĮĢĶ┐øÕ║”		
 4754              		.loc 1 1268 17
 4755 0340 404B     		ldr	r3, .L445+8
 4756 0342 0622     		movs	r2, #6
 4757 0344 1A70     		strb	r2, [r3]
1269:../app/app.c  **** 			dc_motor_Start(MOTOR_RIGHT);
 4758              		.loc 1 1269 4
 4759 0346 0120     		movs	r0, #1
 4760 0348 FFF7FEFF 		bl	dc_motor_Start
1270:../app/app.c  **** 			osal_lyh_delay_task(Ms_100);
 4761              		.loc 1 1270 4
 4762 034c 6420     		movs	r0, #100
 4763 034e FFF7FEFF 		bl	osal_lyh_delay_task
1271:../app/app.c  **** 			run_max_time = RIGHT_TIMER(Ms_5000, Ms_100);
 4764              		.loc 1 1271 17
 4765 0352 3A4B     		ldr	r3, .L445
 4766 0354 3222     		movs	r2, #50
 4767 0356 1A80     		strh	r2, [r3]	@ movhi
1272:../app/app.c  **** 			app_task_substep = ESPRESSO_INPLACE_JUDGE_STATE;
 4768              		.loc 1 1272 21
 4769 0358 394B     		ldr	r3, .L445+4
 4770 035a 1022     		movs	r2, #16
 4771 035c 1A70     		strb	r2, [r3]
1273:../app/app.c  **** 			break;	
 4772              		.loc 1 1273 4
 4773 035e 6AE0     		b	.L411
 4774              	.L392:
1274:../app/app.c  **** 		case ESPRESSO_INPLACE_JUDGE_STATE:			//Õłżµ¢ŁńöĄµ£║µś»ÕÉ”Õł░ÕÄ¤ńé╣Ķ¦”ńé╣
1275:../app/app.c  **** 			if ((MOTOR_STATE_STOPED ==dc_motor_GetState())
 4775              		.loc 1 1275 30
 4776 0360 FFF7FEFF 		bl	dc_motor_GetState
 4777 0364 0346     		mov	r3, r0
 4778              		.loc 1 1275 7
 4779 0366 002B     		cmp	r3, #0
 4780 0368 0ED0     		beq	.L431
1276:../app/app.c  **** 				|| (TRUE == app_motor_ready())
 4781              		.loc 1 1276 17
 4782 036a FFF7FEFF 		bl	app_motor_ready
 4783 036e 0346     		mov	r3, r0
 4784              		.loc 1 1276 5
 4785 0370 012B     		cmp	r3, #1
 4786 0372 09D0     		beq	.L431
1277:../app/app.c  **** 				|| (--run_max_time == 0)){
 4787              		.loc 1 1277 9
 4788 0374 314B     		ldr	r3, .L445
 4789 0376 1B88     		ldrh	r3, [r3]
 4790 0378 013B     		subs	r3, r3, #1
 4791 037a 9AB2     		uxth	r2, r3
 4792              		.loc 1 1277 5
 4793 037c 2F4B     		ldr	r3, .L445
 4794 037e 1A80     		strh	r2, [r3]	@ movhi
 4795              		.loc 1 1277 9
 4796 0380 2E4B     		ldr	r3, .L445
 4797 0382 1B88     		ldrh	r3, [r3]
 4798              		.loc 1 1277 5
 4799 0384 002B     		cmp	r3, #0
 4800 0386 05D1     		bne	.L432
 4801              	.L431:
1278:../app/app.c  **** 				dc_motor_Stop();
 4802              		.loc 1 1278 5
 4803 0388 FFF7FEFF 		bl	dc_motor_Stop
1279:../app/app.c  **** 				app_task_substep = ESPRESSO_INPLACE_STATE;					
 4804              		.loc 1 1279 22
 4805 038c 2C4B     		ldr	r3, .L445+4
 4806 038e 1122     		movs	r2, #17
 4807 0390 1A70     		strb	r2, [r3]
1280:../app/app.c  **** 			}
1281:../app/app.c  **** 			else {
1282:../app/app.c  **** 				osal_lyh_delay_task(Ms_100);
1283:../app/app.c  **** 			}
1284:../app/app.c  **** 			break;
 4808              		.loc 1 1284 4
 4809 0392 50E0     		b	.L411
 4810              	.L432:
1282:../app/app.c  **** 			}
 4811              		.loc 1 1282 5
 4812 0394 6420     		movs	r0, #100
 4813 0396 FFF7FEFF 		bl	osal_lyh_delay_task
 4814              		.loc 1 1284 4
 4815 039a 4CE0     		b	.L411
 4816              	.L391:
1285:../app/app.c  **** 		case ESPRESSO_INPLACE_STATE:			//ńöĄµ£║Õø×ĶĮ¼Õł░ÕÄ¤õĮŹ
1286:../app/app.c  **** 			dc_motor_Start(MOTOR_LEFT);
 4817              		.loc 1 1286 4
 4818 039c 0220     		movs	r0, #2
 4819 039e FFF7FEFF 		bl	dc_motor_Start
1287:../app/app.c  **** 			osal_lyh_delay_task(Ms_100);
 4820              		.loc 1 1287 4
 4821 03a2 6420     		movs	r0, #100
 4822 03a4 FFF7FEFF 		bl	osal_lyh_delay_task
1288:../app/app.c  **** 			run_max_time = LEFT_TIMER(MOTOR_FIX_TIME, Ms_100);
 4823              		.loc 1 1288 17
 4824 03a8 244B     		ldr	r3, .L445
 4825 03aa 0322     		movs	r2, #3
 4826 03ac 1A80     		strh	r2, [r3]	@ movhi
1289:../app/app.c  **** 			app_task_substep = ESPRESSO_MOTO_SECOND_RST_STATE;
 4827              		.loc 1 1289 21
 4828 03ae 244B     		ldr	r3, .L445+4
 4829 03b0 1222     		movs	r2, #18
 4830 03b2 1A70     		strb	r2, [r3]
1290:../app/app.c  **** 			break;	
 4831              		.loc 1 1290 4
 4832 03b4 3FE0     		b	.L411
 4833              	.L390:
1291:../app/app.c  **** 		case ESPRESSO_MOTO_SECOND_RST_STATE:	//Õłżµ¢ŁńöĄµ£║µś»ÕÉ”Õø×ĶĮ¼Õł░ÕÄ¤õĮŹ
1292:../app/app.c  **** 			if (1/*(FAIL == app_motor_ready())*/	// deleting point,(temp to cancel)
1293:../app/app.c  **** 				&& ((MOTOR_STATE_STOPED ==dc_motor_GetState())
 4834              		.loc 1 1293 31
 4835 03b6 FFF7FEFF 		bl	dc_motor_GetState
 4836 03ba 0346     		mov	r3, r0
1292:../app/app.c  **** 				&& ((MOTOR_STATE_STOPED ==dc_motor_GetState())
 4837              		.loc 1 1292 7
 4838 03bc 002B     		cmp	r3, #0
 4839 03be 09D0     		beq	.L434
1294:../app/app.c  **** 				|| (--run_max_time == 0))){
 4840              		.loc 1 1294 9
 4841 03c0 1E4B     		ldr	r3, .L445
 4842 03c2 1B88     		ldrh	r3, [r3]
 4843 03c4 013B     		subs	r3, r3, #1
 4844 03c6 9AB2     		uxth	r2, r3
1293:../app/app.c  **** 				|| (--run_max_time == 0))){
 4845              		.loc 1 1293 5
 4846 03c8 1C4B     		ldr	r3, .L445
 4847 03ca 1A80     		strh	r2, [r3]	@ movhi
 4848              		.loc 1 1294 9
 4849 03cc 1B4B     		ldr	r3, .L445
 4850 03ce 1B88     		ldrh	r3, [r3]
1293:../app/app.c  **** 				|| (--run_max_time == 0))){
 4851              		.loc 1 1293 5
 4852 03d0 002B     		cmp	r3, #0
 4853 03d2 05D1     		bne	.L435
 4854              	.L434:
1295:../app/app.c  **** 				dc_motor_Stop();
 4855              		.loc 1 1295 5
 4856 03d4 FFF7FEFF 		bl	dc_motor_Stop
1296:../app/app.c  **** 				app_task_substep = ESPRESSO_JUDGE_TWO_CUP_STATE;
 4857              		.loc 1 1296 22
 4858 03d8 194B     		ldr	r3, .L445+4
 4859 03da 1322     		movs	r2, #19
 4860 03dc 1A70     		strb	r2, [r3]
1297:../app/app.c  **** 			}
1298:../app/app.c  **** 			else {
1299:../app/app.c  **** 				osal_lyh_delay_task(Ms_100);
1300:../app/app.c  **** 			}
1301:../app/app.c  **** 			break;
 4861              		.loc 1 1301 4
 4862 03de 2AE0     		b	.L411
 4863              	.L435:
1299:../app/app.c  **** 			}
 4864              		.loc 1 1299 5
 4865 03e0 6420     		movs	r0, #100
 4866 03e2 FFF7FEFF 		bl	osal_lyh_delay_task
 4867              		.loc 1 1301 4
 4868 03e6 26E0     		b	.L411
 4869              	.L389:
1302:../app/app.c  **** 		/* Õłżµ¢Łµś»ÕÉ”ń╗¦ń╗ŁÕłČõĮ£ń¼¼õ║īµØ» */
1303:../app/app.c  **** 		case ESPRESSO_JUDGE_TWO_CUP_STATE:
1304:../app/app.c  **** 			if (1 == cup_loop){
 4870              		.loc 1 1304 10
 4871 03e8 174B     		ldr	r3, .L445+12
 4872 03ea 1B78     		ldrb	r3, [r3]	@ zero_extendqisi2
 4873              		.loc 1 1304 7
 4874 03ec 012B     		cmp	r3, #1
 4875 03ee 0AD1     		bne	.L437
1305:../app/app.c  **** 				app_task_substep = ESPRESSO_MOTO_CHECK_STATE;	//ń╗¦ń╗ŁÕłČõĮ£ń¼¼õ║īµØ»
 4876              		.loc 1 1305 22
 4877 03f0 134B     		ldr	r3, .L445+4
 4878 03f2 0122     		movs	r2, #1
 4879 03f4 1A70     		strb	r2, [r3]
1306:../app/app.c  **** 				cup_loop = 0;
 4880              		.loc 1 1306 14
 4881 03f6 144B     		ldr	r3, .L445+12
 4882 03f8 0022     		movs	r2, #0
 4883 03fa 1A70     		strb	r2, [r3]
1307:../app/app.c  **** 				osal_lyh_delay_task(Ms_500);
 4884              		.loc 1 1307 5
 4885 03fc 4FF4FA70 		mov	r0, #500
 4886 0400 FFF7FEFF 		bl	osal_lyh_delay_task
1308:../app/app.c  **** 			}
1309:../app/app.c  **** 			else {
1310:../app/app.c  **** 				app_task_substep = ESPRESSO_COMPLETE_STATE;		//ÕłČõĮ£Õ«īµłÉ
1311:../app/app.c  **** 			}
1312:../app/app.c  **** 			break;
 4887              		.loc 1 1312 4
 4888 0404 17E0     		b	.L411
 4889              	.L437:
1310:../app/app.c  **** 			}
 4890              		.loc 1 1310 22
 4891 0406 0E4B     		ldr	r3, .L445+4
 4892 0408 1422     		movs	r2, #20
 4893 040a 1A70     		strb	r2, [r3]
 4894              		.loc 1 1312 4
 4895 040c 13E0     		b	.L411
 4896              	.L387:
1313:../app/app.c  **** 		/* ÕłČõĮ£Õ«īµłÉńŖČµĆü */
1314:../app/app.c  **** 		case ESPRESSO_COMPLETE_STATE:
1315:../app/app.c  **** 			CERRNT_STATE = NULL_STATE;	//Ķ«░ÕĮĢĶ┐øÕ║”
 4897              		.loc 1 1315 17
 4898 040e 0D4B     		ldr	r3, .L445+8
 4899 0410 0022     		movs	r2, #0
 4900 0412 1A70     		strb	r2, [r3]
1316:../app/app.c  **** 			app_turn_heat_off();		//Õģ│ķŚŁÕŖĀńāŁ
 4901              		.loc 1 1316 4
 4902 0414 FFF7FEFF 		bl	app_turn_heat_off
1317:../app/app.c  **** 			flush_flag = 1;				//ńĮ«õĮŹÕå▓µ┤Ś
 4903              		.loc 1 1317 15
 4904 0418 0C4B     		ldr	r3, .L445+16
 4905 041a 0122     		movs	r2, #1
 4906 041c 1A70     		strb	r2, [r3]
1318:../app/app.c  **** 			app_led_finish_step();		//µē¦ĶĪīÕ«īµłÉÕÉÄńÜäµīćńż║ńü»µśŠńż║
 4907              		.loc 1 1318 4
 4908 041e FFF7FEFF 		bl	app_led_finish_step
1319:../app/app.c  **** 			app_task_nextstep(APP_NORMAL_STATE, NORMAL_INIT_STATE);		//Õø×Õł░normalńŖČµĆü’╝īńŁēÕŠģõĖŗõĖĆµ¼Īµ
 4909              		.loc 1 1319 4
 4910 0422 0021     		movs	r1, #0
 4911 0424 0320     		movs	r0, #3
 4912 0426 FFF7FEFF 		bl	app_task_nextstep
1320:../app/app.c  **** 			break;
 4913              		.loc 1 1320 4
 4914 042a 04E0     		b	.L411
 4915              	.L439:
1321:../app/app.c  **** 		default:
1322:../app/app.c  **** 			break;
 4916              		.loc 1 1322 4
 4917 042c 00BF     		nop
 4918 042e 02E0     		b	.L442
 4919              	.L440:
1178:../app/app.c  **** 		case ESPRESSO_GRIND_END_STATE:
 4920              		.loc 1 1178 4
 4921 0430 00BF     		nop
 4922 0432 00E0     		b	.L442
 4923              	.L441:
1243:../app/app.c  **** 		case ESPRESSO_BREW_FINISH_STATE:	//Õå▓ńģ«Õ«īµłÉ
 4924              		.loc 1 1243 4
 4925 0434 00BF     		nop
 4926              	.L411:
 4927              	.L442:
1323:../app/app.c  **** 	}
1324:../app/app.c  **** }
 4928              		.loc 1 1324 1
 4929 0436 00BF     		nop
 4930 0438 80BD     		pop	{r7, pc}
 4931              	.L446:
 4932 043a 00BF     		.align	2
 4933              	.L445:
 4934 043c 00000000 		.word	run_max_time
 4935 0440 00000000 		.word	app_task_substep
 4936 0444 00000000 		.word	CERRNT_STATE
 4937 0448 00000000 		.word	cup_loop
 4938 044c 00000000 		.word	flush_flag
 4939              		.cfi_endproc
 4940              	.LFE169:
 4942              		.section	.text.app_american_handler,"ax",%progbits
 4943              		.align	1
 4944              		.global	app_american_handler
 4945              		.syntax unified
 4946              		.thumb
 4947              		.thumb_func
 4948              		.fpu softvfp
 4950              	app_american_handler:
 4951              	.LFB170:
1325:../app/app.c  **** 
1326:../app/app.c  **** /************************************************************************
1327:../app/app.c  **** * function name: app_american_handler
1328:../app/app.c  **** * input: non
1329:../app/app.c  **** * output: non
1330:../app/app.c  **** * description: object thread
1331:../app/app.c  **** *************************************************************************/
1332:../app/app.c  **** void app_american_handler(void)
1333:../app/app.c  **** {
 4952              		.loc 1 1333 1
 4953              		.cfi_startproc
 4954              		@ args = 0, pretend = 0, frame = 0
 4955              		@ frame_needed = 1, uses_anonymous_args = 0
 4956 0000 80B5     		push	{r7, lr}
 4957              		.cfi_def_cfa_offset 8
 4958              		.cfi_offset 7, -8
 4959              		.cfi_offset 14, -4
 4960 0002 00AF     		add	r7, sp, #0
 4961              		.cfi_def_cfa_register 7
1334:../app/app.c  **** 	switch(app_task_substep)
 4962              		.loc 1 1334 2
 4963 0004 BD4B     		ldr	r3, .L537
 4964 0006 1B78     		ldrb	r3, [r3]	@ zero_extendqisi2
 4965 0008 212B     		cmp	r3, #33
 4966 000a 00F23E83 		bhi	.L533
 4967 000e 01A2     		adr	r2, .L450
 4968 0010 52F823F0 		ldr	pc, [r2, r3, lsl #2]
 4969              		.p2align 2
 4970              	.L450:
 4971 0014 9D000000 		.word	.L483+1
 4972 0018 D9000000 		.word	.L482+1
 4973 001c F3000000 		.word	.L481+1
 4974 0020 2F010000 		.word	.L480+1
 4975 0024 49010000 		.word	.L479+1
 4976 0028 7B010000 		.word	.L478+1
 4977 002c DF010000 		.word	.L477+1
 4978 0030 0F020000 		.word	.L476+1
 4979 0034 2F020000 		.word	.L475+1
 4980 0038 6B020000 		.word	.L474+1
 4981 003c 87020000 		.word	.L473+1
 4982 0040 9B020000 		.word	.L472+1
 4983 0044 B7020000 		.word	.L471+1
 4984 0048 CB020000 		.word	.L470+1
 4985 004c E7020000 		.word	.L469+1
 4986 0050 11030000 		.word	.L468+1
 4987 0054 31030000 		.word	.L467+1
 4988 0058 6D030000 		.word	.L466+1
 4989 005c 87030000 		.word	.L465+1
 4990 0060 B9030000 		.word	.L464+1
 4991 0064 ED030000 		.word	.L463+1
 4992 0068 07040000 		.word	.L462+1
 4993 006c 43040000 		.word	.L461+1
 4994 0070 5D040000 		.word	.L460+1
 4995 0074 8F040000 		.word	.L459+1
 4996 0078 9F040000 		.word	.L458+1
 4997 007c BF040000 		.word	.L457+1
 4998 0080 FB040000 		.word	.L456+1
 4999 0084 8F050000 		.word	.L455+1
 5000 0088 A3050000 		.word	.L454+1
 5001 008c E5050000 		.word	.L453+1
 5002 0090 21060000 		.word	.L452+1
 5003 0094 3B060000 		.word	.L451+1
 5004 0098 6D060000 		.word	.L449+1
 5005              		.p2align 1
 5006              	.L483:
1335:../app/app.c  **** 	{
1336:../app/app.c  **** 		/* ÕłØÕ¦ŗÕī¢ńŖČµĆü */
1337:../app/app.c  **** 		case AMERICANO_INIT_STATE:
1338:../app/app.c  **** 			CERRNT_STATE = INIT_AND_GRIND_STATE;	//Ķ«░ÕĮĢĶ┐øÕ║”
 5007              		.loc 1 1338 17
 5008 009c 984B     		ldr	r3, .L537+4
 5009 009e 0122     		movs	r2, #1
 5010 00a0 1A70     		strb	r2, [r3]
1339:../app/app.c  **** 			app_leds_all_fun(LED_OFF);
 5011              		.loc 1 1339 4
 5012 00a2 0020     		movs	r0, #0
 5013 00a4 FFF7FEFF 		bl	app_leds_all_fun
1340:../app/app.c  **** 			app_leds_all_ind(LED_OFF);
 5014              		.loc 1 1340 4
 5015 00a8 0020     		movs	r0, #0
 5016 00aa FFF7FEFF 		bl	app_leds_all_ind
1341:../app/app.c  **** 			display_led(START_LED, LED_ON);
 5017              		.loc 1 1341 4
 5018 00ae 0121     		movs	r1, #1
 5019 00b0 0520     		movs	r0, #5
 5020 00b2 FFF7FEFF 		bl	display_led
1342:../app/app.c  **** 			app_led_americano_init();		//ÕłØÕ¦ŗÕī¢americanoµīćńż║ńü»ķŚ¬ńāü
 5021              		.loc 1 1342 4
 5022 00b6 FFF7FEFF 		bl	app_led_americano_init
1343:../app/app.c  **** 			if(1 == manual_setup.cup){		//Õłżµ¢Łµ£¼µ¼ĪÕłČõĮ£µØ»µĢ░
 5023              		.loc 1 1343 24
 5024 00ba 924B     		ldr	r3, .L537+8
 5025 00bc 1B78     		ldrb	r3, [r3]	@ zero_extendqisi2
 5026              		.loc 1 1343 6
 5027 00be 012B     		cmp	r3, #1
 5028 00c0 03D1     		bne	.L484
1344:../app/app.c  **** 				cup_loop = 1;
 5029              		.loc 1 1344 14
 5030 00c2 914B     		ldr	r3, .L537+12
 5031 00c4 0122     		movs	r2, #1
 5032 00c6 1A70     		strb	r2, [r3]
 5033 00c8 02E0     		b	.L485
 5034              	.L484:
1345:../app/app.c  **** 			}
1346:../app/app.c  **** 			else{
1347:../app/app.c  **** 				cup_loop = 0;
 5035              		.loc 1 1347 14
 5036 00ca 8F4B     		ldr	r3, .L537+12
 5037 00cc 0022     		movs	r2, #0
 5038 00ce 1A70     		strb	r2, [r3]
 5039              	.L485:
1348:../app/app.c  **** 			}
1349:../app/app.c  **** 			app_task_substep = AMERICANO_MOTO_CHECK_STATE;
 5040              		.loc 1 1349 21
 5041 00d0 8A4B     		ldr	r3, .L537
 5042 00d2 0122     		movs	r2, #1
 5043 00d4 1A70     		strb	r2, [r3]
1350:../app/app.c  **** 			break;
 5044              		.loc 1 1350 4
 5045 00d6 DDE2     		b	.L486
 5046              	.L482:
1351:../app/app.c  **** 		/* ĶÉāÕÅ¢ńöĄµ£║õĮŹńĮ«µŻĆµĄŗ */
1352:../app/app.c  **** 		case AMERICANO_MOTO_CHECK_STATE:	
1353:../app/app.c  **** 			dc_motor_Start(MOTOR_RIGHT);
 5047              		.loc 1 1353 4
 5048 00d8 0120     		movs	r0, #1
 5049 00da FFF7FEFF 		bl	dc_motor_Start
1354:../app/app.c  **** 			osal_lyh_delay_task(Ms_100);
 5050              		.loc 1 1354 4
 5051 00de 6420     		movs	r0, #100
 5052 00e0 FFF7FEFF 		bl	osal_lyh_delay_task
1355:../app/app.c  **** 			run_max_time = RIGHT_TIMER(Ms_3000, Ms_100);
 5053              		.loc 1 1355 17
 5054 00e4 894B     		ldr	r3, .L537+16
 5055 00e6 1E22     		movs	r2, #30
 5056 00e8 1A80     		strh	r2, [r3]	@ movhi
1356:../app/app.c  **** 			app_task_substep = AMERICANO_MOTO_CHECK_JUDGE_STATE;
 5057              		.loc 1 1356 21
 5058 00ea 844B     		ldr	r3, .L537
 5059 00ec 0222     		movs	r2, #2
 5060 00ee 1A70     		strb	r2, [r3]
1357:../app/app.c  **** 			break;
 5061              		.loc 1 1357 4
 5062 00f0 D0E2     		b	.L486
 5063              	.L481:
1358:../app/app.c  **** 		/* Õłżµ¢ŁĶÉāÕÅ¢ńöĄµ£║µś»ÕÉ”Ķ¦”ńó░ÕÄ¤ńé╣Ķ¦”ńé╣ */
1359:../app/app.c  **** 		case AMERICANO_MOTO_CHECK_JUDGE_STATE:
1360:../app/app.c  **** 			if ((MOTOR_STATE_STOPED ==dc_motor_GetState())
 5064              		.loc 1 1360 30
 5065 00f2 FFF7FEFF 		bl	dc_motor_GetState
 5066 00f6 0346     		mov	r3, r0
 5067              		.loc 1 1360 7
 5068 00f8 002B     		cmp	r3, #0
 5069 00fa 0ED0     		beq	.L487
1361:../app/app.c  **** 				|| (TRUE == app_motor_ready())
 5070              		.loc 1 1361 17
 5071 00fc FFF7FEFF 		bl	app_motor_ready
 5072 0100 0346     		mov	r3, r0
 5073              		.loc 1 1361 5
 5074 0102 012B     		cmp	r3, #1
 5075 0104 09D0     		beq	.L487
1362:../app/app.c  **** 				|| (--run_max_time == 0)){
 5076              		.loc 1 1362 9
 5077 0106 814B     		ldr	r3, .L537+16
 5078 0108 1B88     		ldrh	r3, [r3]
 5079 010a 013B     		subs	r3, r3, #1
 5080 010c 9AB2     		uxth	r2, r3
 5081              		.loc 1 1362 5
 5082 010e 7F4B     		ldr	r3, .L537+16
 5083 0110 1A80     		strh	r2, [r3]	@ movhi
 5084              		.loc 1 1362 9
 5085 0112 7E4B     		ldr	r3, .L537+16
 5086 0114 1B88     		ldrh	r3, [r3]
 5087              		.loc 1 1362 5
 5088 0116 002B     		cmp	r3, #0
 5089 0118 05D1     		bne	.L488
 5090              	.L487:
1363:../app/app.c  **** 				dc_motor_Stop();
 5091              		.loc 1 1363 5
 5092 011a FFF7FEFF 		bl	dc_motor_Stop
1364:../app/app.c  **** 				app_task_substep = AMERICANO_MOTO_FIRST_RST_STATE;					
 5093              		.loc 1 1364 22
 5094 011e 774B     		ldr	r3, .L537
 5095 0120 0322     		movs	r2, #3
 5096 0122 1A70     		strb	r2, [r3]
1365:../app/app.c  **** 			}
1366:../app/app.c  **** 			else {
1367:../app/app.c  **** 				osal_lyh_delay_task(Ms_100);
1368:../app/app.c  **** 			}
1369:../app/app.c  **** 			break;
 5097              		.loc 1 1369 4
 5098 0124 B6E2     		b	.L486
 5099              	.L488:
1367:../app/app.c  **** 			}
 5100              		.loc 1 1367 5
 5101 0126 6420     		movs	r0, #100
 5102 0128 FFF7FEFF 		bl	osal_lyh_delay_task
 5103              		.loc 1 1369 4
 5104 012c B2E2     		b	.L486
 5105              	.L480:
1370:../app/app.c  **** 		/* ĶÉāÕÅ¢ńöĄµ£║ÕÉæÕø×ĶĮ¼Õł░ÕÄ¤ńé╣ */
1371:../app/app.c  **** 		case AMERICANO_MOTO_FIRST_RST_STATE:
1372:../app/app.c  **** 			dc_motor_Start(MOTOR_LEFT);
 5106              		.loc 1 1372 4
 5107 012e 0220     		movs	r0, #2
 5108 0130 FFF7FEFF 		bl	dc_motor_Start
1373:../app/app.c  **** 			osal_lyh_delay_task(Ms_100);
 5109              		.loc 1 1373 4
 5110 0134 6420     		movs	r0, #100
 5111 0136 FFF7FEFF 		bl	osal_lyh_delay_task
1374:../app/app.c  **** 			run_max_time = LEFT_TIMER(MOTOR_FIX_TIME, Ms_100);
 5112              		.loc 1 1374 17
 5113 013a 744B     		ldr	r3, .L537+16
 5114 013c 0322     		movs	r2, #3
 5115 013e 1A80     		strh	r2, [r3]	@ movhi
1375:../app/app.c  **** 			app_task_substep = AMERICANO_MOTO_CHECK_COMPLETE_STATE;
 5116              		.loc 1 1375 21
 5117 0140 6E4B     		ldr	r3, .L537
 5118 0142 0422     		movs	r2, #4
 5119 0144 1A70     		strb	r2, [r3]
1376:../app/app.c  **** 			break;
 5120              		.loc 1 1376 4
 5121 0146 A5E2     		b	.L486
 5122              	.L479:
1377:../app/app.c  **** 		/* Õłżµ¢ŁĶÉāÕÅ¢ńöĄµ£║µś»ÕÉ”Õ«īµłÉÕø×ĶĮ¼ */
1378:../app/app.c  **** 		case AMERICANO_MOTO_CHECK_COMPLETE_STATE:
1379:../app/app.c  **** 			if (1/*(FAIL == app_motor_ready())*/	// deleting point,(temp to cancel)
1380:../app/app.c  **** 				&& ((MOTOR_STATE_STOPED ==dc_motor_GetState())
 5123              		.loc 1 1380 31
 5124 0148 FFF7FEFF 		bl	dc_motor_GetState
 5125 014c 0346     		mov	r3, r0
1379:../app/app.c  **** 				&& ((MOTOR_STATE_STOPED ==dc_motor_GetState())
 5126              		.loc 1 1379 7
 5127 014e 002B     		cmp	r3, #0
 5128 0150 09D0     		beq	.L490
1381:../app/app.c  **** 				|| (--run_max_time == 0))){
 5129              		.loc 1 1381 9
 5130 0152 6E4B     		ldr	r3, .L537+16
 5131 0154 1B88     		ldrh	r3, [r3]
 5132 0156 013B     		subs	r3, r3, #1
 5133 0158 9AB2     		uxth	r2, r3
1380:../app/app.c  **** 				|| (--run_max_time == 0))){
 5134              		.loc 1 1380 5
 5135 015a 6C4B     		ldr	r3, .L537+16
 5136 015c 1A80     		strh	r2, [r3]	@ movhi
 5137              		.loc 1 1381 9
 5138 015e 6B4B     		ldr	r3, .L537+16
 5139 0160 1B88     		ldrh	r3, [r3]
1380:../app/app.c  **** 				|| (--run_max_time == 0))){
 5140              		.loc 1 1380 5
 5141 0162 002B     		cmp	r3, #0
 5142 0164 05D1     		bne	.L491
 5143              	.L490:
1382:../app/app.c  **** 				dc_motor_Stop();
 5144              		.loc 1 1382 5
 5145 0166 FFF7FEFF 		bl	dc_motor_Stop
1383:../app/app.c  **** 				app_task_substep = AMERICANO_GRIND_TIME_JUDGE_STATE;					
 5146              		.loc 1 1383 22
 5147 016a 644B     		ldr	r3, .L537
 5148 016c 0522     		movs	r2, #5
 5149 016e 1A70     		strb	r2, [r3]
1384:../app/app.c  **** 			}
1385:../app/app.c  **** 			else {
1386:../app/app.c  **** 				osal_lyh_delay_task(Ms_100);
1387:../app/app.c  **** 			}
1388:../app/app.c  **** 			break;
 5150              		.loc 1 1388 4
 5151 0170 90E2     		b	.L486
 5152              	.L491:
1386:../app/app.c  **** 			}
 5153              		.loc 1 1386 5
 5154 0172 6420     		movs	r0, #100
 5155 0174 FFF7FEFF 		bl	osal_lyh_delay_task
 5156              		.loc 1 1388 4
 5157 0178 8CE2     		b	.L486
 5158              	.L478:
1389:../app/app.c  **** 		/* ńĀöńŻ©ÕÆ¢ÕĢĪĶ▒å */
1390:../app/app.c  **** 		case AMERICANO_GRIND_TIME_JUDGE_STATE:
1391:../app/app.c  **** 			app_turn_heat_on(TARGET_TEMP_COFFEE);		//Õ╝ĆÕÉ»ÕŖĀńāŁ
 5159              		.loc 1 1391 4
 5160 017a 40F6DC20 		movw	r0, #2780
 5161 017e FFF7FEFF 		bl	app_turn_heat_on
1392:../app/app.c  **** 			if(0 == manual_setup.coffee)	//ńĀöńŻ©µŚČķŚ┤µĀ╣µŹ«coffeeń©ŗÕ║”Ķ░āµĢ┤’╝Üx1=8s,x2=9s,x3=10s
 5162              		.loc 1 1392 24
 5163 0182 604B     		ldr	r3, .L537+8
 5164 0184 5B78     		ldrb	r3, [r3, #1]	@ zero_extendqisi2
 5165              		.loc 1 1392 6
 5166 0186 002B     		cmp	r3, #0
 5167 0188 0AD1     		bne	.L493
1393:../app/app.c  **** 			{
1394:../app/app.c  **** 				ac_grind_start(1000);		//ÕÉ»ÕŖ©ńĀöńŻ©ńöĄµ£║
 5168              		.loc 1 1394 5
 5169 018a 4FF47A70 		mov	r0, #1000
 5170 018e FFF7FEFF 		bl	ac_grind_start
1395:../app/app.c  **** 				run_max_time = GRIND_TIMER(Ms_8000, Ms_100);
 5171              		.loc 1 1395 18
 5172 0192 5E4B     		ldr	r3, .L537+16
 5173 0194 5022     		movs	r2, #80
 5174 0196 1A80     		strh	r2, [r3]	@ movhi
1396:../app/app.c  **** 				app_task_substep = AMERICANO_GRIND_STATE;
 5175              		.loc 1 1396 22
 5176 0198 584B     		ldr	r3, .L537
 5177 019a 0622     		movs	r2, #6
 5178 019c 1A70     		strb	r2, [r3]
1397:../app/app.c  **** 			}
1398:../app/app.c  **** 			else if (1 == manual_setup.coffee)
1399:../app/app.c  **** 			{
1400:../app/app.c  **** 				ac_grind_start(1000);		//ÕÉ»ÕŖ©ńĀöńŻ©ńöĄµ£║
1401:../app/app.c  **** 				run_max_time = GRIND_TIMER(Ms_9000, Ms_100);
1402:../app/app.c  **** 				app_task_substep = AMERICANO_GRIND_STATE;	
1403:../app/app.c  **** 			}			
1404:../app/app.c  **** 			else if(2 == manual_setup.coffee)
1405:../app/app.c  **** 			{
1406:../app/app.c  **** 				ac_grind_start(1000);		//ÕÉ»ÕŖ©ńĀöńŻ©ńöĄµ£║
1407:../app/app.c  **** 				run_max_time = GRIND_TIMER(Ms_10000, Ms_100);
1408:../app/app.c  **** 				app_task_substep = AMERICANO_GRIND_STATE;	
1409:../app/app.c  **** 			}
1410:../app/app.c  **** 			break;
 5179              		.loc 1 1410 4
 5180 019e 76E2     		b	.L534
 5181              	.L493:
1398:../app/app.c  **** 			{
 5182              		.loc 1 1398 30
 5183 01a0 584B     		ldr	r3, .L537+8
 5184 01a2 5B78     		ldrb	r3, [r3, #1]	@ zero_extendqisi2
1398:../app/app.c  **** 			{
 5185              		.loc 1 1398 12
 5186 01a4 012B     		cmp	r3, #1
 5187 01a6 0AD1     		bne	.L495
1400:../app/app.c  **** 				run_max_time = GRIND_TIMER(Ms_9000, Ms_100);
 5188              		.loc 1 1400 5
 5189 01a8 4FF47A70 		mov	r0, #1000
 5190 01ac FFF7FEFF 		bl	ac_grind_start
1401:../app/app.c  **** 				app_task_substep = AMERICANO_GRIND_STATE;	
 5191              		.loc 1 1401 18
 5192 01b0 564B     		ldr	r3, .L537+16
 5193 01b2 5A22     		movs	r2, #90
 5194 01b4 1A80     		strh	r2, [r3]	@ movhi
1402:../app/app.c  **** 			}			
 5195              		.loc 1 1402 22
 5196 01b6 514B     		ldr	r3, .L537
 5197 01b8 0622     		movs	r2, #6
 5198 01ba 1A70     		strb	r2, [r3]
 5199              		.loc 1 1410 4
 5200 01bc 67E2     		b	.L534
 5201              	.L495:
1404:../app/app.c  **** 			{
 5202              		.loc 1 1404 29
 5203 01be 514B     		ldr	r3, .L537+8
 5204 01c0 5B78     		ldrb	r3, [r3, #1]	@ zero_extendqisi2
1404:../app/app.c  **** 			{
 5205              		.loc 1 1404 11
 5206 01c2 022B     		cmp	r3, #2
 5207 01c4 40F06382 		bne	.L534
1406:../app/app.c  **** 				run_max_time = GRIND_TIMER(Ms_10000, Ms_100);
 5208              		.loc 1 1406 5
 5209 01c8 4FF47A70 		mov	r0, #1000
 5210 01cc FFF7FEFF 		bl	ac_grind_start
1407:../app/app.c  **** 				app_task_substep = AMERICANO_GRIND_STATE;	
 5211              		.loc 1 1407 18
 5212 01d0 4E4B     		ldr	r3, .L537+16
 5213 01d2 6422     		movs	r2, #100
 5214 01d4 1A80     		strh	r2, [r3]	@ movhi
1408:../app/app.c  **** 			}
 5215              		.loc 1 1408 22
 5216 01d6 494B     		ldr	r3, .L537
 5217 01d8 0622     		movs	r2, #6
 5218 01da 1A70     		strb	r2, [r3]
 5219              		.loc 1 1410 4
 5220 01dc 57E2     		b	.L534
 5221              	.L477:
1411:../app/app.c  **** 		case AMERICANO_GRIND_STATE:
1412:../app/app.c  **** 			if (--run_max_time == 0){	//Õłżµ¢ŁńĀöńŻ©µŚČķŚ┤µś»ÕÉ”Õł░ĶŠŠ
 5222              		.loc 1 1412 8
 5223 01de 4B4B     		ldr	r3, .L537+16
 5224 01e0 1B88     		ldrh	r3, [r3]
 5225 01e2 013B     		subs	r3, r3, #1
 5226 01e4 9AB2     		uxth	r2, r3
 5227              		.loc 1 1412 7
 5228 01e6 494B     		ldr	r3, .L537+16
 5229 01e8 1A80     		strh	r2, [r3]	@ movhi
 5230              		.loc 1 1412 8
 5231 01ea 484B     		ldr	r3, .L537+16
 5232 01ec 1B88     		ldrh	r3, [r3]
 5233              		.loc 1 1412 7
 5234 01ee 002B     		cmp	r3, #0
 5235 01f0 09D1     		bne	.L496
1413:../app/app.c  **** 				ac_grind_stop();
 5236              		.loc 1 1413 5
 5237 01f2 FFF7FEFF 		bl	ac_grind_stop
1414:../app/app.c  **** 				osal_lyh_delay_task(Ms_1000);
 5238              		.loc 1 1414 5
 5239 01f6 4FF47A70 		mov	r0, #1000
 5240 01fa FFF7FEFF 		bl	osal_lyh_delay_task
1415:../app/app.c  **** 				app_task_substep = AMERICANO_MOTO_GO_BREW_STATE;	
 5241              		.loc 1 1415 22
 5242 01fe 3F4B     		ldr	r3, .L537
 5243 0200 0722     		movs	r2, #7
 5244 0202 1A70     		strb	r2, [r3]
1416:../app/app.c  **** 			}
1417:../app/app.c  **** 			else {
1418:../app/app.c  **** 				osal_lyh_delay_task(Ms_100);
1419:../app/app.c  **** 			}
1420:../app/app.c  **** 			break;
 5245              		.loc 1 1420 4
 5246 0204 46E2     		b	.L486
 5247              	.L496:
1418:../app/app.c  **** 			}
 5248              		.loc 1 1418 5
 5249 0206 6420     		movs	r0, #100
 5250 0208 FFF7FEFF 		bl	osal_lyh_delay_task
 5251              		.loc 1 1420 4
 5252 020c 42E2     		b	.L486
 5253              	.L476:
1421:../app/app.c  **** 		/* ĶÉāÕÅ¢ńöĄµ£║ĶĮ¼Õł░ĶÉāÕÅ¢õĮŹńĮ« */
1422:../app/app.c  **** 		case AMERICANO_MOTO_GO_BREW_STATE:
1423:../app/app.c  **** 			CERRNT_STATE = GO_BREW_STATE;	//Ķ«░ÕĮĢĶ┐øÕ║”		
 5254              		.loc 1 1423 17
 5255 020e 3C4B     		ldr	r3, .L537+4
 5256 0210 0222     		movs	r2, #2
 5257 0212 1A70     		strb	r2, [r3]
1424:../app/app.c  **** 			dc_motor_Start(MOTOR_LEFT);		
 5258              		.loc 1 1424 4
 5259 0214 0220     		movs	r0, #2
 5260 0216 FFF7FEFF 		bl	dc_motor_Start
1425:../app/app.c  **** 			osal_lyh_delay_task(Ms_100);
 5261              		.loc 1 1425 4
 5262 021a 6420     		movs	r0, #100
 5263 021c FFF7FEFF 		bl	osal_lyh_delay_task
1426:../app/app.c  **** 			run_max_time = LEFT_TIMER(Ms_7000, Ms_100);
 5264              		.loc 1 1426 17
 5265 0220 3A4B     		ldr	r3, .L537+16
 5266 0222 4622     		movs	r2, #70
 5267 0224 1A80     		strh	r2, [r3]	@ movhi
1427:../app/app.c  **** 			app_task_substep = AMERICANO_MOTO_GO_BREW_JUDGE_STATE;
 5268              		.loc 1 1427 21
 5269 0226 354B     		ldr	r3, .L537
 5270 0228 0822     		movs	r2, #8
 5271 022a 1A70     		strb	r2, [r3]
1428:../app/app.c  **** 			break;
 5272              		.loc 1 1428 4
 5273 022c 32E2     		b	.L486
 5274              	.L475:
1429:../app/app.c  **** 		/* Õłżµ¢ŁĶÉāÕÅ¢ńöĄµ£║µś»ÕÉ”Õł░ĶŠŠĶÉāÕÅ¢õĮŹńĮ« */
1430:../app/app.c  **** 		case AMERICANO_MOTO_GO_BREW_JUDGE_STATE:
1431:../app/app.c  **** 			if ((MOTOR_STATE_STOPED ==dc_motor_GetState())
 5275              		.loc 1 1431 30
 5276 022e FFF7FEFF 		bl	dc_motor_GetState
 5277 0232 0346     		mov	r3, r0
 5278              		.loc 1 1431 7
 5279 0234 002B     		cmp	r3, #0
 5280 0236 0ED0     		beq	.L498
1432:../app/app.c  **** 				|| (TRUE == app_motor_ready())
 5281              		.loc 1 1432 17
 5282 0238 FFF7FEFF 		bl	app_motor_ready
 5283 023c 0346     		mov	r3, r0
 5284              		.loc 1 1432 5
 5285 023e 012B     		cmp	r3, #1
 5286 0240 09D0     		beq	.L498
1433:../app/app.c  **** 				|| (--run_max_time == 0)){
 5287              		.loc 1 1433 9
 5288 0242 324B     		ldr	r3, .L537+16
 5289 0244 1B88     		ldrh	r3, [r3]
 5290 0246 013B     		subs	r3, r3, #1
 5291 0248 9AB2     		uxth	r2, r3
 5292              		.loc 1 1433 5
 5293 024a 304B     		ldr	r3, .L537+16
 5294 024c 1A80     		strh	r2, [r3]	@ movhi
 5295              		.loc 1 1433 9
 5296 024e 2F4B     		ldr	r3, .L537+16
 5297 0250 1B88     		ldrh	r3, [r3]
 5298              		.loc 1 1433 5
 5299 0252 002B     		cmp	r3, #0
 5300 0254 05D1     		bne	.L499
 5301              	.L498:
1434:../app/app.c  **** 				dc_motor_Stop();
 5302              		.loc 1 1434 5
 5303 0256 FFF7FEFF 		bl	dc_motor_Stop
1435:../app/app.c  **** 				app_task_substep = AMERICANO_PRE_BREW_STATE;	
 5304              		.loc 1 1435 22
 5305 025a 284B     		ldr	r3, .L537
 5306 025c 0922     		movs	r2, #9
 5307 025e 1A70     		strb	r2, [r3]
1436:../app/app.c  **** 			}
1437:../app/app.c  **** 			else {
1438:../app/app.c  **** 				osal_lyh_delay_task(Ms_100);
1439:../app/app.c  **** 			}			
1440:../app/app.c  **** 			break;
 5308              		.loc 1 1440 4
 5309 0260 18E2     		b	.L486
 5310              	.L499:
1438:../app/app.c  **** 			}			
 5311              		.loc 1 1438 5
 5312 0262 6420     		movs	r0, #100
 5313 0264 FFF7FEFF 		bl	osal_lyh_delay_task
 5314              		.loc 1 1440 4
 5315 0268 14E2     		b	.L486
 5316              	.L474:
1441:../app/app.c  **** 		/* ķóäÕå▓ńģ«ńŖČµĆü */
1442:../app/app.c  **** 		case AMERICANO_PRE_BREW_STATE:
1443:../app/app.c  **** 			CERRNT_STATE = PRE_BREW_STATE;	//Ķ«░ÕĮĢĶ┐øÕ║”
 5317              		.loc 1 1443 17
 5318 026a 254B     		ldr	r3, .L537+4
 5319 026c 0322     		movs	r2, #3
 5320 026e 1A70     		strb	r2, [r3]
1444:../app/app.c  **** 			ac_pumb_start(CONTINUE_MODE);		//ÕÉ»ÕŖ©µ░┤µ│Ą
 5321              		.loc 1 1444 4
 5322 0270 0020     		movs	r0, #0
 5323 0272 FFF7FEFF 		bl	ac_pumb_start
1445:../app/app.c  **** 			osal_lyh_delay_task(Ms_2000 - Ms_200);
 5324              		.loc 1 1445 4
 5325 0276 4FF4E160 		mov	r0, #1800
 5326 027a FFF7FEFF 		bl	osal_lyh_delay_task
1446:../app/app.c  **** 			app_task_substep = AMERICANO_WAIT_BREW_STATE;	
 5327              		.loc 1 1446 21
 5328 027e 1F4B     		ldr	r3, .L537
 5329 0280 0A22     		movs	r2, #10
 5330 0282 1A70     		strb	r2, [r3]
1447:../app/app.c  **** 			break;
 5331              		.loc 1 1447 4
 5332 0284 06E2     		b	.L486
 5333              	.L473:
1448:../app/app.c  **** 		case AMERICANO_WAIT_BREW_STATE:
1449:../app/app.c  **** 			ac_pumb_stop();						//Õü£µŁóµ░┤µ│Ą
 5334              		.loc 1 1449 4
 5335 0286 FFF7FEFF 		bl	ac_pumb_stop
1450:../app/app.c  **** 			osal_lyh_delay_task(Ms_4000);
 5336              		.loc 1 1450 4
 5337 028a 4FF47A60 		mov	r0, #4000
 5338 028e FFF7FEFF 		bl	osal_lyh_delay_task
1451:../app/app.c  **** 			app_task_substep = AMERICANO_BREW_STATE;	
 5339              		.loc 1 1451 21
 5340 0292 1A4B     		ldr	r3, .L537
 5341 0294 0B22     		movs	r2, #11
 5342 0296 1A70     		strb	r2, [r3]
1452:../app/app.c  **** 			break;
 5343              		.loc 1 1452 4
 5344 0298 FCE1     		b	.L486
 5345              	.L472:
1453:../app/app.c  **** 		/* Õå▓ńģ«ńŖČµĆü */
1454:../app/app.c  **** 		case AMERICANO_BREW_STATE:			
1455:../app/app.c  **** 			CERRNT_STATE = BREW_STATE;	//Ķ«░ÕĮĢĶ┐øÕ║”
 5346              		.loc 1 1455 17
 5347 029a 194B     		ldr	r3, .L537+4
 5348 029c 0422     		movs	r2, #4
 5349 029e 1A70     		strb	r2, [r3]
1456:../app/app.c  **** 			ac_pumb_start(CONTINUE_MODE);
 5350              		.loc 1 1456 4
 5351 02a0 0020     		movs	r0, #0
 5352 02a2 FFF7FEFF 		bl	ac_pumb_start
1457:../app/app.c  **** 			osal_lyh_delay_task(Ms_12000 - Ms_100);
 5353              		.loc 1 1457 4
 5354 02a6 42F67C60 		movw	r0, #11900
 5355 02aa FFF7FEFF 		bl	osal_lyh_delay_task
1458:../app/app.c  **** 			app_task_substep = AMERICANO_BREW_FINISH_STATE;			
 5356              		.loc 1 1458 21
 5357 02ae 134B     		ldr	r3, .L537
 5358 02b0 0C22     		movs	r2, #12
 5359 02b2 1A70     		strb	r2, [r3]
1459:../app/app.c  **** 			break;
 5360              		.loc 1 1459 4
 5361 02b4 EEE1     		b	.L486
 5362              	.L471:
1460:../app/app.c  **** 		case AMERICANO_BREW_FINISH_STATE:	//Õå▓ńģ«Õ«īµłÉ
1461:../app/app.c  **** 			ac_pumb_stop();		//Õü£µŁóµ░┤µ│Ą	
 5363              		.loc 1 1461 4
 5364 02b6 FFF7FEFF 		bl	ac_pumb_stop
1462:../app/app.c  **** 			osal_lyh_delay_task(Ms_6000);
 5365              		.loc 1 1462 4
 5366 02ba 41F27070 		movw	r0, #6000
 5367 02be FFF7FEFF 		bl	osal_lyh_delay_task
1463:../app/app.c  **** 			app_task_substep = AMERICANO_GO_DROP_COFFEE_GROUNDS_STATE;	
 5368              		.loc 1 1463 21
 5369 02c2 0E4B     		ldr	r3, .L537
 5370 02c4 0D22     		movs	r2, #13
 5371 02c6 1A70     		strb	r2, [r3]
1464:../app/app.c  **** 			break;
 5372              		.loc 1 1464 4
 5373 02c8 E4E1     		b	.L486
 5374              	.L470:
1465:../app/app.c  **** 		/* õĖóÕÆ¢ÕĢĪµĖŻńŖČµĆü */
1466:../app/app.c  **** 		case AMERICANO_GO_DROP_COFFEE_GROUNDS_STATE:
1467:../app/app.c  **** 			CERRNT_STATE = DROP_BEANS_STATE;	//Ķ«░ÕĮĢĶ┐øÕ║”
 5375              		.loc 1 1467 17
 5376 02ca 0D4B     		ldr	r3, .L537+4
 5377 02cc 0522     		movs	r2, #5
 5378 02ce 1A70     		strb	r2, [r3]
1468:../app/app.c  **** 			dc_motor_Start(MOTOR_RIGHT);	//ńöĄµ£║ÕÅŹĶĮ¼2.9s’╝ī Õł░õĖóÕÆ¢ÕĢĪµĖŻõĮŹńĮ«
 5379              		.loc 1 1468 4
 5380 02d0 0120     		movs	r0, #1
 5381 02d2 FFF7FEFF 		bl	dc_motor_Start
1469:../app/app.c  **** 			osal_lyh_delay_task(Ms_3000 - Ms_100);
 5382              		.loc 1 1469 4
 5383 02d6 40F65430 		movw	r0, #2900
 5384 02da FFF7FEFF 		bl	osal_lyh_delay_task
1470:../app/app.c  **** 			app_task_substep = AMERICANO_DROP_COFFEE_GROUNDS_STATE;	
 5385              		.loc 1 1470 21
 5386 02de 074B     		ldr	r3, .L537
 5387 02e0 0E22     		movs	r2, #14
 5388 02e2 1A70     		strb	r2, [r3]
1471:../app/app.c  **** 			break;
 5389              		.loc 1 1471 4
 5390 02e4 D6E1     		b	.L486
 5391              	.L469:
1472:../app/app.c  **** 		case AMERICANO_DROP_COFFEE_GROUNDS_STATE:
1473:../app/app.c  **** 			dc_motor_Stop();
 5392              		.loc 1 1473 4
 5393 02e6 FFF7FEFF 		bl	dc_motor_Stop
1474:../app/app.c  **** 			osal_lyh_delay_task(Ms_3000);
 5394              		.loc 1 1474 4
 5395 02ea 40F6B830 		movw	r0, #3000
 5396 02ee FFF7FEFF 		bl	osal_lyh_delay_task
1475:../app/app.c  **** 			app_task_substep = AMERICANO_BACK_STATE;
 5397              		.loc 1 1475 21
 5398 02f2 024B     		ldr	r3, .L537
 5399 02f4 0F22     		movs	r2, #15
 5400 02f6 1A70     		strb	r2, [r3]
1476:../app/app.c  **** 			break;
 5401              		.loc 1 1476 4
 5402 02f8 CCE1     		b	.L486
 5403              	.L538:
 5404 02fa 00BF     		.align	2
 5405              	.L537:
 5406 02fc 00000000 		.word	app_task_substep
 5407 0300 00000000 		.word	CERRNT_STATE
 5408 0304 00000000 		.word	manual_setup
 5409 0308 00000000 		.word	cup_loop
 5410 030c 00000000 		.word	run_max_time
 5411              	.L468:
1477:../app/app.c  **** 		/* ĶÉāÕÅ¢ńöĄµ£║Ķ┐öÕø×ÕÄ¤õĮŹ */
1478:../app/app.c  **** 		case AMERICANO_BACK_STATE:		//ńöĄµ£║ÕÉæÕÄ¤õĮŹĶĮ¼ÕŖ©
1479:../app/app.c  **** 			CERRNT_STATE = RST_STATE;	//Ķ«░ÕĮĢĶ┐øÕ║”
 5412              		.loc 1 1479 17
 5413 0310 AC4B     		ldr	r3, .L539
 5414 0312 0622     		movs	r2, #6
 5415 0314 1A70     		strb	r2, [r3]
1480:../app/app.c  **** 			dc_motor_Start(MOTOR_RIGHT);
 5416              		.loc 1 1480 4
 5417 0316 0120     		movs	r0, #1
 5418 0318 FFF7FEFF 		bl	dc_motor_Start
1481:../app/app.c  **** 			osal_lyh_delay_task(Ms_100);
 5419              		.loc 1 1481 4
 5420 031c 6420     		movs	r0, #100
 5421 031e FFF7FEFF 		bl	osal_lyh_delay_task
1482:../app/app.c  **** 			run_max_time = RIGHT_TIMER(Ms_5000, Ms_100);
 5422              		.loc 1 1482 17
 5423 0322 A94B     		ldr	r3, .L539+4
 5424 0324 3222     		movs	r2, #50
 5425 0326 1A80     		strh	r2, [r3]	@ movhi
1483:../app/app.c  **** 			app_task_substep = AMERICANO_INPLACE_JUDGE_STATE;
 5426              		.loc 1 1483 21
 5427 0328 A84B     		ldr	r3, .L539+8
 5428 032a 1022     		movs	r2, #16
 5429 032c 1A70     		strb	r2, [r3]
1484:../app/app.c  **** 			break;	
 5430              		.loc 1 1484 4
 5431 032e B1E1     		b	.L486
 5432              	.L467:
1485:../app/app.c  **** 		case AMERICANO_INPLACE_JUDGE_STATE:			//Õłżµ¢ŁńöĄµ£║µś»ÕÉ”Õł░ÕÄ¤ńé╣Ķ¦”ńé╣
1486:../app/app.c  **** 			if ((MOTOR_STATE_STOPED ==dc_motor_GetState())
 5433              		.loc 1 1486 30
 5434 0330 FFF7FEFF 		bl	dc_motor_GetState
 5435 0334 0346     		mov	r3, r0
 5436              		.loc 1 1486 7
 5437 0336 002B     		cmp	r3, #0
 5438 0338 0ED0     		beq	.L501
1487:../app/app.c  **** 				|| (TRUE == app_motor_ready())
 5439              		.loc 1 1487 17
 5440 033a FFF7FEFF 		bl	app_motor_ready
 5441 033e 0346     		mov	r3, r0
 5442              		.loc 1 1487 5
 5443 0340 012B     		cmp	r3, #1
 5444 0342 09D0     		beq	.L501
1488:../app/app.c  **** 				|| (--run_max_time == 0)){
 5445              		.loc 1 1488 9
 5446 0344 A04B     		ldr	r3, .L539+4
 5447 0346 1B88     		ldrh	r3, [r3]
 5448 0348 013B     		subs	r3, r3, #1
 5449 034a 9AB2     		uxth	r2, r3
 5450              		.loc 1 1488 5
 5451 034c 9E4B     		ldr	r3, .L539+4
 5452 034e 1A80     		strh	r2, [r3]	@ movhi
 5453              		.loc 1 1488 9
 5454 0350 9D4B     		ldr	r3, .L539+4
 5455 0352 1B88     		ldrh	r3, [r3]
 5456              		.loc 1 1488 5
 5457 0354 002B     		cmp	r3, #0
 5458 0356 05D1     		bne	.L502
 5459              	.L501:
1489:../app/app.c  **** 				dc_motor_Stop();
 5460              		.loc 1 1489 5
 5461 0358 FFF7FEFF 		bl	dc_motor_Stop
1490:../app/app.c  **** 				app_task_substep = AMERICANO_INPLACE_STATE;					
 5462              		.loc 1 1490 22
 5463 035c 9B4B     		ldr	r3, .L539+8
 5464 035e 1122     		movs	r2, #17
 5465 0360 1A70     		strb	r2, [r3]
1491:../app/app.c  **** 			}
1492:../app/app.c  **** 			else {
1493:../app/app.c  **** 				osal_lyh_delay_task(Ms_100);
1494:../app/app.c  **** 			}
1495:../app/app.c  **** 			break;
 5466              		.loc 1 1495 4
 5467 0362 97E1     		b	.L486
 5468              	.L502:
1493:../app/app.c  **** 			}
 5469              		.loc 1 1493 5
 5470 0364 6420     		movs	r0, #100
 5471 0366 FFF7FEFF 		bl	osal_lyh_delay_task
 5472              		.loc 1 1495 4
 5473 036a 93E1     		b	.L486
 5474              	.L466:
1496:../app/app.c  **** 		case AMERICANO_INPLACE_STATE:			//ńöĄµ£║Õø×ĶĮ¼Õł░ÕÄ¤õĮŹ
1497:../app/app.c  **** 			dc_motor_Start(MOTOR_LEFT);
 5475              		.loc 1 1497 4
 5476 036c 0220     		movs	r0, #2
 5477 036e FFF7FEFF 		bl	dc_motor_Start
1498:../app/app.c  **** 			osal_lyh_delay_task(Ms_100);
 5478              		.loc 1 1498 4
 5479 0372 6420     		movs	r0, #100
 5480 0374 FFF7FEFF 		bl	osal_lyh_delay_task
1499:../app/app.c  **** 			run_max_time = LEFT_TIMER(MOTOR_FIX_TIME, Ms_100);
 5481              		.loc 1 1499 17
 5482 0378 934B     		ldr	r3, .L539+4
 5483 037a 0322     		movs	r2, #3
 5484 037c 1A80     		strh	r2, [r3]	@ movhi
1500:../app/app.c  **** 			app_task_substep = AMERICANO_MOTO_RST_STATE;
 5485              		.loc 1 1500 21
 5486 037e 934B     		ldr	r3, .L539+8
 5487 0380 1222     		movs	r2, #18
 5488 0382 1A70     		strb	r2, [r3]
1501:../app/app.c  **** 			break;	
 5489              		.loc 1 1501 4
 5490 0384 86E1     		b	.L486
 5491              	.L465:
1502:../app/app.c  **** 		case AMERICANO_MOTO_RST_STATE:	//Õłżµ¢ŁńöĄµ£║µś»ÕÉ”Õø×ĶĮ¼Õł░ÕÄ¤õĮŹ
1503:../app/app.c  **** 			if (1/*(FAIL == app_motor_ready())*/	// deleting point,(temp to cancel)
1504:../app/app.c  **** 				&& ((MOTOR_STATE_STOPED ==dc_motor_GetState())
 5492              		.loc 1 1504 31
 5493 0386 FFF7FEFF 		bl	dc_motor_GetState
 5494 038a 0346     		mov	r3, r0
1503:../app/app.c  **** 				&& ((MOTOR_STATE_STOPED ==dc_motor_GetState())
 5495              		.loc 1 1503 7
 5496 038c 002B     		cmp	r3, #0
 5497 038e 09D0     		beq	.L504
1505:../app/app.c  **** 				|| (--run_max_time == 0))){
 5498              		.loc 1 1505 9
 5499 0390 8D4B     		ldr	r3, .L539+4
 5500 0392 1B88     		ldrh	r3, [r3]
 5501 0394 013B     		subs	r3, r3, #1
 5502 0396 9AB2     		uxth	r2, r3
1504:../app/app.c  **** 				|| (--run_max_time == 0))){
 5503              		.loc 1 1504 5
 5504 0398 8B4B     		ldr	r3, .L539+4
 5505 039a 1A80     		strh	r2, [r3]	@ movhi
 5506              		.loc 1 1505 9
 5507 039c 8A4B     		ldr	r3, .L539+4
 5508 039e 1B88     		ldrh	r3, [r3]
1504:../app/app.c  **** 				|| (--run_max_time == 0))){
 5509              		.loc 1 1504 5
 5510 03a0 002B     		cmp	r3, #0
 5511 03a2 05D1     		bne	.L505
 5512              	.L504:
1506:../app/app.c  **** 				dc_motor_Stop();
 5513              		.loc 1 1506 5
 5514 03a4 FFF7FEFF 		bl	dc_motor_Stop
1507:../app/app.c  **** 				app_task_substep = AMERICANO_JUDGE_TWO_CUP_STATE;
 5515              		.loc 1 1507 22
 5516 03a8 884B     		ldr	r3, .L539+8
 5517 03aa 1322     		movs	r2, #19
 5518 03ac 1A70     		strb	r2, [r3]
1508:../app/app.c  **** 			}
1509:../app/app.c  **** 			else {
1510:../app/app.c  **** 				osal_lyh_delay_task(Ms_100);
1511:../app/app.c  **** 			}
1512:../app/app.c  **** 			break;
 5519              		.loc 1 1512 4
 5520 03ae 71E1     		b	.L486
 5521              	.L505:
1510:../app/app.c  **** 			}
 5522              		.loc 1 1510 5
 5523 03b0 6420     		movs	r0, #100
 5524 03b2 FFF7FEFF 		bl	osal_lyh_delay_task
 5525              		.loc 1 1512 4
 5526 03b6 6DE1     		b	.L486
 5527              	.L464:
1513:../app/app.c  **** 		/* Õłżµ¢Łµś»ÕÉ”ń╗¦ń╗ŁÕłČõĮ£ń¼¼õ║īµØ» */
1514:../app/app.c  **** 		case AMERICANO_JUDGE_TWO_CUP_STATE:
1515:../app/app.c  **** 			flush_flag = 1;				//ńĮ«õĮŹµĖģµ┤ŚµĀćÕ┐Ś
 5528              		.loc 1 1515 15
 5529 03b8 854B     		ldr	r3, .L539+12
 5530 03ba 0122     		movs	r2, #1
 5531 03bc 1A70     		strb	r2, [r3]
1516:../app/app.c  **** 			if(1 == cup_loop){											//ķ£ĆĶ”üÕłČõĮ£ń¼¼õ║īµØ»	
 5532              		.loc 1 1516 9
 5533 03be 854B     		ldr	r3, .L539+16
 5534 03c0 1B78     		ldrb	r3, [r3]	@ zero_extendqisi2
 5535              		.loc 1 1516 6
 5536 03c2 012B     		cmp	r3, #1
 5537 03c4 0AD1     		bne	.L507
1517:../app/app.c  **** 				cup_loop = 0;											//µČłĶĆŚµØ»µĢ░ÕŠ¬ńÄ»µĀćÕ┐Ś
 5538              		.loc 1 1517 14
 5539 03c6 834B     		ldr	r3, .L539+16
 5540 03c8 0022     		movs	r2, #0
 5541 03ca 1A70     		strb	r2, [r3]
1518:../app/app.c  **** 				osal_lyh_delay_task(Ms_500);
 5542              		.loc 1 1518 5
 5543 03cc 4FF4FA70 		mov	r0, #500
 5544 03d0 FFF7FEFF 		bl	osal_lyh_delay_task
1519:../app/app.c  **** 				app_task_substep = AMERICANO_GRIND_TIME_JUDGE_STATE;	//Ķ┐öÕø×ńĀöńŻ©µŁźķ¬ż’╝īń╗¦ń╗ŁÕłČõĮ£ń¼¼õ║īµ
 5545              		.loc 1 1519 22
 5546 03d4 7D4B     		ldr	r3, .L539+8
 5547 03d6 0522     		movs	r2, #5
 5548 03d8 1A70     		strb	r2, [r3]
1520:../app/app.c  **** 			}
1521:../app/app.c  **** 			else{														//õĖŹķ£ĆĶ”üÕłČõĮ£ń¼¼õ║īµØ»
1522:../app/app.c  **** 				osal_lyh_delay_task(Ms_360);
1523:../app/app.c  **** 				app_task_substep = AMERICANO_MOTO_CHECK2_STATE;			//Ķ┐øĶĪīń¼¼õ║īµ¼ĪĶÉāÕÅ¢ńöĄµ£║õĮŹńĮ«µŻĆµ¤ź
1524:../app/app.c  **** 			}
1525:../app/app.c  **** 			break;
 5549              		.loc 1 1525 4
 5550 03da 5BE1     		b	.L486
 5551              	.L507:
1522:../app/app.c  **** 				app_task_substep = AMERICANO_MOTO_CHECK2_STATE;			//Ķ┐øĶĪīń¼¼õ║īµ¼ĪĶÉāÕÅ¢ńöĄµ£║õĮŹńĮ«µŻĆµ¤ź
 5552              		.loc 1 1522 5
 5553 03dc 4FF4B470 		mov	r0, #360
 5554 03e0 FFF7FEFF 		bl	osal_lyh_delay_task
1523:../app/app.c  **** 			}
 5555              		.loc 1 1523 22
 5556 03e4 794B     		ldr	r3, .L539+8
 5557 03e6 1422     		movs	r2, #20
 5558 03e8 1A70     		strb	r2, [r3]
 5559              		.loc 1 1525 4
 5560 03ea 53E1     		b	.L486
 5561              	.L463:
1526:../app/app.c  **** 		/* ń¼¼õ║īµ¼ĪµŻĆµĄŗĶÉāÕÅ¢ńöĄµ£║õĮŹńĮ« */
1527:../app/app.c  **** 		case AMERICANO_MOTO_CHECK2_STATE:
1528:../app/app.c  **** 			dc_motor_Start(MOTOR_RIGHT);
 5562              		.loc 1 1528 4
 5563 03ec 0120     		movs	r0, #1
 5564 03ee FFF7FEFF 		bl	dc_motor_Start
1529:../app/app.c  **** 			osal_lyh_delay_task(Ms_100);
 5565              		.loc 1 1529 4
 5566 03f2 6420     		movs	r0, #100
 5567 03f4 FFF7FEFF 		bl	osal_lyh_delay_task
1530:../app/app.c  **** 			run_max_time = RIGHT_TIMER(Ms_3000, Ms_100);
 5568              		.loc 1 1530 17
 5569 03f8 734B     		ldr	r3, .L539+4
 5570 03fa 1E22     		movs	r2, #30
 5571 03fc 1A80     		strh	r2, [r3]	@ movhi
1531:../app/app.c  **** 			app_task_substep = AMERICANO_MOTO_CHECK2_JUDGE_STATE;
 5572              		.loc 1 1531 21
 5573 03fe 734B     		ldr	r3, .L539+8
 5574 0400 1522     		movs	r2, #21
 5575 0402 1A70     		strb	r2, [r3]
1532:../app/app.c  **** 			break;
 5576              		.loc 1 1532 4
 5577 0404 46E1     		b	.L486
 5578              	.L462:
1533:../app/app.c  **** 		/* Õłżµ¢ŁĶÉāÕÅ¢ńöĄµ£║µś»ÕÉ”Ķ¦”ńó░ÕÄ¤ńé╣Ķ¦”ńé╣ */
1534:../app/app.c  **** 		case AMERICANO_MOTO_CHECK2_JUDGE_STATE:
1535:../app/app.c  **** 			if ((MOTOR_STATE_STOPED ==dc_motor_GetState())
 5579              		.loc 1 1535 30
 5580 0406 FFF7FEFF 		bl	dc_motor_GetState
 5581 040a 0346     		mov	r3, r0
 5582              		.loc 1 1535 7
 5583 040c 002B     		cmp	r3, #0
 5584 040e 0ED0     		beq	.L509
1536:../app/app.c  **** 				|| (TRUE == app_motor_ready())
 5585              		.loc 1 1536 17
 5586 0410 FFF7FEFF 		bl	app_motor_ready
 5587 0414 0346     		mov	r3, r0
 5588              		.loc 1 1536 5
 5589 0416 012B     		cmp	r3, #1
 5590 0418 09D0     		beq	.L509
1537:../app/app.c  **** 				|| (--run_max_time == 0)){
 5591              		.loc 1 1537 9
 5592 041a 6B4B     		ldr	r3, .L539+4
 5593 041c 1B88     		ldrh	r3, [r3]
 5594 041e 013B     		subs	r3, r3, #1
 5595 0420 9AB2     		uxth	r2, r3
 5596              		.loc 1 1537 5
 5597 0422 694B     		ldr	r3, .L539+4
 5598 0424 1A80     		strh	r2, [r3]	@ movhi
 5599              		.loc 1 1537 9
 5600 0426 684B     		ldr	r3, .L539+4
 5601 0428 1B88     		ldrh	r3, [r3]
 5602              		.loc 1 1537 5
 5603 042a 002B     		cmp	r3, #0
 5604 042c 05D1     		bne	.L510
 5605              	.L509:
1538:../app/app.c  **** 				dc_motor_Stop();
 5606              		.loc 1 1538 5
 5607 042e FFF7FEFF 		bl	dc_motor_Stop
1539:../app/app.c  **** 				app_task_substep = AMERICANO_MOTO_SECOND_RST_STATE;					
 5608              		.loc 1 1539 22
 5609 0432 664B     		ldr	r3, .L539+8
 5610 0434 1622     		movs	r2, #22
 5611 0436 1A70     		strb	r2, [r3]
1540:../app/app.c  **** 			}
1541:../app/app.c  **** 			else {
1542:../app/app.c  **** 				osal_lyh_delay_task(Ms_100);
1543:../app/app.c  **** 			}
1544:../app/app.c  **** 			break;
 5612              		.loc 1 1544 4
 5613 0438 2CE1     		b	.L486
 5614              	.L510:
1542:../app/app.c  **** 			}
 5615              		.loc 1 1542 5
 5616 043a 6420     		movs	r0, #100
 5617 043c FFF7FEFF 		bl	osal_lyh_delay_task
 5618              		.loc 1 1544 4
 5619 0440 28E1     		b	.L486
 5620              	.L461:
1545:../app/app.c  **** 		/* ĶÉāÕÅ¢ńöĄµ£║ÕÉæÕø×ĶĮ¼Õł░ÕÄ¤ńé╣ */
1546:../app/app.c  **** 		case AMERICANO_MOTO_SECOND_RST_STATE:
1547:../app/app.c  **** 			dc_motor_Start(MOTOR_LEFT);
 5621              		.loc 1 1547 4
 5622 0442 0220     		movs	r0, #2
 5623 0444 FFF7FEFF 		bl	dc_motor_Start
1548:../app/app.c  **** 			osal_lyh_delay_task(Ms_100);
 5624              		.loc 1 1548 4
 5625 0448 6420     		movs	r0, #100
 5626 044a FFF7FEFF 		bl	osal_lyh_delay_task
1549:../app/app.c  **** 			run_max_time = LEFT_TIMER(MOTOR_FIX_TIME, Ms_100);
 5627              		.loc 1 1549 17
 5628 044e 5E4B     		ldr	r3, .L539+4
 5629 0450 0322     		movs	r2, #3
 5630 0452 1A80     		strh	r2, [r3]	@ movhi
1550:../app/app.c  **** 			app_task_substep = AMERICANO_MOTO_CHECK2_COMPLETE_STATE;
 5631              		.loc 1 1550 21
 5632 0454 5D4B     		ldr	r3, .L539+8
 5633 0456 1722     		movs	r2, #23
 5634 0458 1A70     		strb	r2, [r3]
1551:../app/app.c  **** 			break;
 5635              		.loc 1 1551 4
 5636 045a 1BE1     		b	.L486
 5637              	.L460:
1552:../app/app.c  **** 		/* Õłżµ¢ŁĶÉāÕÅ¢ńöĄµ£║µś»ÕÉ”Õ«īµłÉÕø×ĶĮ¼ */
1553:../app/app.c  **** 		case AMERICANO_MOTO_CHECK2_COMPLETE_STATE:
1554:../app/app.c  **** 			if (1/*(FAIL == app_motor_ready())*/	// deleting point,(temp to cancel)
1555:../app/app.c  **** 				&& ((MOTOR_STATE_STOPED ==dc_motor_GetState())
 5638              		.loc 1 1555 31
 5639 045c FFF7FEFF 		bl	dc_motor_GetState
 5640 0460 0346     		mov	r3, r0
1554:../app/app.c  **** 				&& ((MOTOR_STATE_STOPED ==dc_motor_GetState())
 5641              		.loc 1 1554 7
 5642 0462 002B     		cmp	r3, #0
 5643 0464 09D0     		beq	.L512
1556:../app/app.c  **** 				|| (--run_max_time == 0))){
 5644              		.loc 1 1556 9
 5645 0466 584B     		ldr	r3, .L539+4
 5646 0468 1B88     		ldrh	r3, [r3]
 5647 046a 013B     		subs	r3, r3, #1
 5648 046c 9AB2     		uxth	r2, r3
1555:../app/app.c  **** 				|| (--run_max_time == 0))){
 5649              		.loc 1 1555 5
 5650 046e 564B     		ldr	r3, .L539+4
 5651 0470 1A80     		strh	r2, [r3]	@ movhi
 5652              		.loc 1 1556 9
 5653 0472 554B     		ldr	r3, .L539+4
 5654 0474 1B88     		ldrh	r3, [r3]
1555:../app/app.c  **** 				|| (--run_max_time == 0))){
 5655              		.loc 1 1555 5
 5656 0476 002B     		cmp	r3, #0
 5657 0478 05D1     		bne	.L513
 5658              	.L512:
1557:../app/app.c  **** 				dc_motor_Stop();
 5659              		.loc 1 1557 5
 5660 047a FFF7FEFF 		bl	dc_motor_Stop
1558:../app/app.c  **** 				app_task_substep = AMERICANO_WAIT_MOTO_GO_BREW2_STATE;					
 5661              		.loc 1 1558 22
 5662 047e 534B     		ldr	r3, .L539+8
 5663 0480 1822     		movs	r2, #24
 5664 0482 1A70     		strb	r2, [r3]
1559:../app/app.c  **** 			}
1560:../app/app.c  **** 			else {
1561:../app/app.c  **** 				osal_lyh_delay_task(Ms_100);
1562:../app/app.c  **** 			}
1563:../app/app.c  **** 			break;
 5665              		.loc 1 1563 4
 5666 0484 06E1     		b	.L486
 5667              	.L513:
1561:../app/app.c  **** 			}
 5668              		.loc 1 1561 5
 5669 0486 6420     		movs	r0, #100
 5670 0488 FFF7FEFF 		bl	osal_lyh_delay_task
 5671              		.loc 1 1563 4
 5672 048c 02E1     		b	.L486
 5673              	.L459:
1564:../app/app.c  **** 		/* ńŁēÕŠģń¼¼õ║īµ¼ĪĶÉāÕÅ¢’╝łÕŖĀµ░┤’╝ē */	
1565:../app/app.c  **** 		case AMERICANO_WAIT_MOTO_GO_BREW2_STATE:
1566:../app/app.c  **** 			osal_lyh_delay_task(Ms_4000);
 5674              		.loc 1 1566 4
 5675 048e 4FF47A60 		mov	r0, #4000
 5676 0492 FFF7FEFF 		bl	osal_lyh_delay_task
1567:../app/app.c  **** 			app_task_substep = AMERICANO_MOTO_GO_BREW2_STATE;
 5677              		.loc 1 1567 21
 5678 0496 4D4B     		ldr	r3, .L539+8
 5679 0498 1922     		movs	r2, #25
 5680 049a 1A70     		strb	r2, [r3]
1568:../app/app.c  **** 			break;
 5681              		.loc 1 1568 4
 5682 049c FAE0     		b	.L486
 5683              	.L458:
1569:../app/app.c  **** 		/* ń¼¼õ║īµ¼ĪÕÄ╗ĶÉāÕÅ¢’╝łÕŖĀµ░┤’╝ē */	
1570:../app/app.c  **** 		case AMERICANO_MOTO_GO_BREW2_STATE:
1571:../app/app.c  **** 			CERRNT_STATE = GO_BREW_STATE;	//Ķ«░ÕĮĢĶ┐øÕ║”
 5684              		.loc 1 1571 17
 5685 049e 494B     		ldr	r3, .L539
 5686 04a0 0222     		movs	r2, #2
 5687 04a2 1A70     		strb	r2, [r3]
1572:../app/app.c  **** 			dc_motor_Start(MOTOR_LEFT);		
 5688              		.loc 1 1572 4
 5689 04a4 0220     		movs	r0, #2
 5690 04a6 FFF7FEFF 		bl	dc_motor_Start
1573:../app/app.c  **** 			osal_lyh_delay_task(Ms_100);
 5691              		.loc 1 1573 4
 5692 04aa 6420     		movs	r0, #100
 5693 04ac FFF7FEFF 		bl	osal_lyh_delay_task
1574:../app/app.c  **** 			run_max_time = LEFT_TIMER(Ms_7000, Ms_100);
 5694              		.loc 1 1574 17
 5695 04b0 454B     		ldr	r3, .L539+4
 5696 04b2 4622     		movs	r2, #70
 5697 04b4 1A80     		strh	r2, [r3]	@ movhi
1575:../app/app.c  **** 			app_task_substep = AMERICANO_MOTO_GO_BREW2_JUDGE_STATE;
 5698              		.loc 1 1575 21
 5699 04b6 454B     		ldr	r3, .L539+8
 5700 04b8 1A22     		movs	r2, #26
 5701 04ba 1A70     		strb	r2, [r3]
1576:../app/app.c  **** 			break;
 5702              		.loc 1 1576 4
 5703 04bc EAE0     		b	.L486
 5704              	.L457:
1577:../app/app.c  **** 		/* Õłżµ¢ŁĶÉāÕÅ¢ńöĄµ£║µś»ÕÉ”Õł░ĶŠŠĶÉāÕÅ¢õĮŹńĮ« */
1578:../app/app.c  **** 		case AMERICANO_MOTO_GO_BREW2_JUDGE_STATE:
1579:../app/app.c  **** 			if ((MOTOR_STATE_STOPED ==dc_motor_GetState())
 5705              		.loc 1 1579 30
 5706 04be FFF7FEFF 		bl	dc_motor_GetState
 5707 04c2 0346     		mov	r3, r0
 5708              		.loc 1 1579 7
 5709 04c4 002B     		cmp	r3, #0
 5710 04c6 0ED0     		beq	.L515
1580:../app/app.c  **** 				|| (TRUE == app_motor_ready())
 5711              		.loc 1 1580 17
 5712 04c8 FFF7FEFF 		bl	app_motor_ready
 5713 04cc 0346     		mov	r3, r0
 5714              		.loc 1 1580 5
 5715 04ce 012B     		cmp	r3, #1
 5716 04d0 09D0     		beq	.L515
1581:../app/app.c  **** 				|| (--run_max_time == 0)){
 5717              		.loc 1 1581 9
 5718 04d2 3D4B     		ldr	r3, .L539+4
 5719 04d4 1B88     		ldrh	r3, [r3]
 5720 04d6 013B     		subs	r3, r3, #1
 5721 04d8 9AB2     		uxth	r2, r3
 5722              		.loc 1 1581 5
 5723 04da 3B4B     		ldr	r3, .L539+4
 5724 04dc 1A80     		strh	r2, [r3]	@ movhi
 5725              		.loc 1 1581 9
 5726 04de 3A4B     		ldr	r3, .L539+4
 5727 04e0 1B88     		ldrh	r3, [r3]
 5728              		.loc 1 1581 5
 5729 04e2 002B     		cmp	r3, #0
 5730 04e4 05D1     		bne	.L516
 5731              	.L515:
1582:../app/app.c  **** 				dc_motor_Stop();
 5732              		.loc 1 1582 5
 5733 04e6 FFF7FEFF 		bl	dc_motor_Stop
1583:../app/app.c  **** 				app_task_substep = AMERICANO_BREW2_STATE;	
 5734              		.loc 1 1583 22
 5735 04ea 384B     		ldr	r3, .L539+8
 5736 04ec 1B22     		movs	r2, #27
 5737 04ee 1A70     		strb	r2, [r3]
1584:../app/app.c  **** 			}
1585:../app/app.c  **** 			else {
1586:../app/app.c  **** 				osal_lyh_delay_task(Ms_100);
1587:../app/app.c  **** 			}			
1588:../app/app.c  **** 			break;
 5738              		.loc 1 1588 4
 5739 04f0 D0E0     		b	.L486
 5740              	.L516:
1586:../app/app.c  **** 			}			
 5741              		.loc 1 1586 5
 5742 04f2 6420     		movs	r0, #100
 5743 04f4 FFF7FEFF 		bl	osal_lyh_delay_task
 5744              		.loc 1 1588 4
 5745 04f8 CCE0     		b	.L486
 5746              	.L456:
1589:../app/app.c  **** 		/* ń¼¼õ║īµ¼ĪĶÉāÕÅ¢’╝łÕŖĀµ░┤’╝ē */	
1590:../app/app.c  **** 		case AMERICANO_BREW2_STATE:
1591:../app/app.c  **** 			CERRNT_STATE = BREW_STATE;	//Ķ«░ÕĮĢĶ┐øÕ║”
 5747              		.loc 1 1591 17
 5748 04fa 324B     		ldr	r3, .L539
 5749 04fc 0422     		movs	r2, #4
 5750 04fe 1A70     		strb	r2, [r3]
1592:../app/app.c  **** 			if(0 == manual_setup.water){			//µĀ╣µŹ«µØ»ķćÅÕå│Õ«ÜµŖĮµ░┤µŚČķŚ┤’╝Üx1=19s,x2=36s,x3=51s		
 5751              		.loc 1 1592 24
 5752 0500 354B     		ldr	r3, .L539+20
 5753 0502 9B78     		ldrb	r3, [r3, #2]	@ zero_extendqisi2
 5754              		.loc 1 1592 6
 5755 0504 002B     		cmp	r3, #0
 5756 0506 13D1     		bne	.L518
1593:../app/app.c  **** 				ac_pumb_start(CONTINUE_MODE);
 5757              		.loc 1 1593 5
 5758 0508 0020     		movs	r0, #0
 5759 050a FFF7FEFF 		bl	ac_pumb_start
1594:../app/app.c  **** 				if(0 == manual_setup.cup){
 5760              		.loc 1 1594 25
 5761 050e 324B     		ldr	r3, .L539+20
 5762 0510 1B78     		ldrb	r3, [r3]	@ zero_extendqisi2
 5763              		.loc 1 1594 7
 5764 0512 002B     		cmp	r3, #0
 5765 0514 04D1     		bne	.L519
1595:../app/app.c  **** 					osal_lyh_delay_task(Ms_19000);
 5766              		.loc 1 1595 6
 5767 0516 44F63820 		movw	r0, #19000
 5768 051a FFF7FEFF 		bl	osal_lyh_delay_task
 5769 051e 03E0     		b	.L520
 5770              	.L519:
1596:../app/app.c  **** 				}
1597:../app/app.c  **** 				else{
1598:../app/app.c  **** 					osal_lyh_delay_task(Ms_33000);
 5771              		.loc 1 1598 6
 5772 0520 48F2E800 		movw	r0, #33000
 5773 0524 FFF7FEFF 		bl	osal_lyh_delay_task
 5774              	.L520:
1599:../app/app.c  **** 				}
1600:../app/app.c  **** 				app_task_substep = AMERICANO_BREW2_FINISH_STATE;	
 5775              		.loc 1 1600 22
 5776 0528 284B     		ldr	r3, .L539+8
 5777 052a 1C22     		movs	r2, #28
 5778 052c 1A70     		strb	r2, [r3]
1601:../app/app.c  **** 			}
1602:../app/app.c  **** 			else if (1 == manual_setup.water){
1603:../app/app.c  **** 				ac_pumb_start(CONTINUE_MODE);
1604:../app/app.c  **** 				if(0 == manual_setup.cup){
1605:../app/app.c  **** 					osal_lyh_delay_task(Ms_36000);
1606:../app/app.c  **** 				}
1607:../app/app.c  **** 				else{
1608:../app/app.c  **** 					osal_lyh_delay_task(Ms_72000);
1609:../app/app.c  **** 				}
1610:../app/app.c  **** 				app_task_substep = AMERICANO_BREW2_FINISH_STATE;		
1611:../app/app.c  **** 			}
1612:../app/app.c  **** 			else if (2 == manual_setup.water){
1613:../app/app.c  **** 				ac_pumb_start(CONTINUE_MODE);
1614:../app/app.c  **** 				if(0 == manual_setup.cup){
1615:../app/app.c  **** 					osal_lyh_delay_task(Ms_51000);
1616:../app/app.c  **** 				}
1617:../app/app.c  **** 				else{
1618:../app/app.c  **** 					osal_lyh_delay_task(Ms_105000);
1619:../app/app.c  **** 				}
1620:../app/app.c  **** 				app_task_substep = AMERICANO_BREW2_FINISH_STATE;		
1621:../app/app.c  **** 			}
1622:../app/app.c  **** 			break;
 5779              		.loc 1 1622 4
 5780 052e B0E0     		b	.L535
 5781              	.L518:
1602:../app/app.c  **** 				ac_pumb_start(CONTINUE_MODE);
 5782              		.loc 1 1602 30
 5783 0530 294B     		ldr	r3, .L539+20
 5784 0532 9B78     		ldrb	r3, [r3, #2]	@ zero_extendqisi2
1602:../app/app.c  **** 				ac_pumb_start(CONTINUE_MODE);
 5785              		.loc 1 1602 12
 5786 0534 012B     		cmp	r3, #1
 5787 0536 12D1     		bne	.L522
1603:../app/app.c  **** 				if(0 == manual_setup.cup){
 5788              		.loc 1 1603 5
 5789 0538 0020     		movs	r0, #0
 5790 053a FFF7FEFF 		bl	ac_pumb_start
1604:../app/app.c  **** 					osal_lyh_delay_task(Ms_36000);
 5791              		.loc 1 1604 25
 5792 053e 264B     		ldr	r3, .L539+20
 5793 0540 1B78     		ldrb	r3, [r3]	@ zero_extendqisi2
1604:../app/app.c  **** 					osal_lyh_delay_task(Ms_36000);
 5794              		.loc 1 1604 7
 5795 0542 002B     		cmp	r3, #0
 5796 0544 04D1     		bne	.L523
1605:../app/app.c  **** 				}
 5797              		.loc 1 1605 6
 5798 0546 48F6A040 		movw	r0, #36000
 5799 054a FFF7FEFF 		bl	osal_lyh_delay_task
 5800 054e 02E0     		b	.L524
 5801              	.L523:
1608:../app/app.c  **** 				}
 5802              		.loc 1 1608 6
 5803 0550 2248     		ldr	r0, .L539+24
 5804 0552 FFF7FEFF 		bl	osal_lyh_delay_task
 5805              	.L524:
1610:../app/app.c  **** 			}
 5806              		.loc 1 1610 22
 5807 0556 1D4B     		ldr	r3, .L539+8
 5808 0558 1C22     		movs	r2, #28
 5809 055a 1A70     		strb	r2, [r3]
 5810              		.loc 1 1622 4
 5811 055c 99E0     		b	.L535
 5812              	.L522:
1612:../app/app.c  **** 				ac_pumb_start(CONTINUE_MODE);
 5813              		.loc 1 1612 30
 5814 055e 1E4B     		ldr	r3, .L539+20
 5815 0560 9B78     		ldrb	r3, [r3, #2]	@ zero_extendqisi2
1612:../app/app.c  **** 				ac_pumb_start(CONTINUE_MODE);
 5816              		.loc 1 1612 12
 5817 0562 022B     		cmp	r3, #2
 5818 0564 40F09580 		bne	.L535
1613:../app/app.c  **** 				if(0 == manual_setup.cup){
 5819              		.loc 1 1613 5
 5820 0568 0020     		movs	r0, #0
 5821 056a FFF7FEFF 		bl	ac_pumb_start
1614:../app/app.c  **** 					osal_lyh_delay_task(Ms_51000);
 5822              		.loc 1 1614 25
 5823 056e 1A4B     		ldr	r3, .L539+20
 5824 0570 1B78     		ldrb	r3, [r3]	@ zero_extendqisi2
1614:../app/app.c  **** 					osal_lyh_delay_task(Ms_51000);
 5825              		.loc 1 1614 7
 5826 0572 002B     		cmp	r3, #0
 5827 0574 04D1     		bne	.L525
1615:../app/app.c  **** 				}
 5828              		.loc 1 1615 6
 5829 0576 4CF23870 		movw	r0, #51000
 5830 057a FFF7FEFF 		bl	osal_lyh_delay_task
 5831 057e 02E0     		b	.L526
 5832              	.L525:
1618:../app/app.c  **** 				}
 5833              		.loc 1 1618 6
 5834 0580 1748     		ldr	r0, .L539+28
 5835 0582 FFF7FEFF 		bl	osal_lyh_delay_task
 5836              	.L526:
1620:../app/app.c  **** 			}
 5837              		.loc 1 1620 22
 5838 0586 114B     		ldr	r3, .L539+8
 5839 0588 1C22     		movs	r2, #28
 5840 058a 1A70     		strb	r2, [r3]
 5841              		.loc 1 1622 4
 5842 058c 81E0     		b	.L535
 5843              	.L455:
1623:../app/app.c  **** 		case AMERICANO_BREW2_FINISH_STATE:
1624:../app/app.c  **** 			ac_pumb_stop();		//Õü£µŁóµ░┤µ│Ą
 5844              		.loc 1 1624 4
 5845 058e FFF7FEFF 		bl	ac_pumb_stop
1625:../app/app.c  **** 			osal_lyh_delay_task(Ms_6000);
 5846              		.loc 1 1625 4
 5847 0592 41F27070 		movw	r0, #6000
 5848 0596 FFF7FEFF 		bl	osal_lyh_delay_task
1626:../app/app.c  **** 			app_task_substep = AMERICANO_BACK2_STATE;
 5849              		.loc 1 1626 21
 5850 059a 0C4B     		ldr	r3, .L539+8
 5851 059c 1D22     		movs	r2, #29
 5852 059e 1A70     		strb	r2, [r3]
1627:../app/app.c  **** 			break;
 5853              		.loc 1 1627 4
 5854 05a0 78E0     		b	.L486
 5855              	.L454:
1628:../app/app.c  **** 		/* Ķ┐öÕø×ÕÄ¤õĮŹ */	
1629:../app/app.c  **** 		case AMERICANO_BACK2_STATE:
1630:../app/app.c  **** 			CERRNT_STATE = RST_STATE;	//Ķ«░ÕĮĢĶ┐øÕ║”
 5856              		.loc 1 1630 17
 5857 05a2 084B     		ldr	r3, .L539
 5858 05a4 0622     		movs	r2, #6
 5859 05a6 1A70     		strb	r2, [r3]
1631:../app/app.c  **** 			dc_motor_Start(MOTOR_RIGHT);
 5860              		.loc 1 1631 4
 5861 05a8 0120     		movs	r0, #1
 5862 05aa FFF7FEFF 		bl	dc_motor_Start
1632:../app/app.c  **** 			osal_lyh_delay_task(Ms_1000);			//µŁżÕżädelayÕ║öõ┐ØµīüĶŠāÕż¦ńÜäµĢ░’╝ł>500ms’╝ē’╝īÕÉ”ÕłÖńöĄµ£║Ķ┐ś
 5863              		.loc 1 1632 4
 5864 05ae 4FF47A70 		mov	r0, #1000
 5865 05b2 FFF7FEFF 		bl	osal_lyh_delay_task
1633:../app/app.c  **** 													//Õ«╣µśōĶ»»ÕłżõĖ║ÕĘ▓ń╗ÅĶ¦”ńó░Õł░ÕÄ¤ńé╣Õ╝ĆÕģ│’╝īÕ»╝Ķć┤ńöĄµ£║µŚĀµ│ĢÕø×ĶĮ¼Õł░ÕÄ¤õĮŹ
1634:../app/app.c  **** 			run_max_time = RIGHT_TIMER(Ms_6000, Ms_100);		
 5866              		.loc 1 1634 17
 5867 05b6 044B     		ldr	r3, .L539+4
 5868 05b8 3C22     		movs	r2, #60
 5869 05ba 1A80     		strh	r2, [r3]	@ movhi
1635:../app/app.c  **** 			app_task_substep = AMERICANO_INPLACE2_JUDGE_STATE;
 5870              		.loc 1 1635 21
 5871 05bc 034B     		ldr	r3, .L539+8
 5872 05be 1E22     		movs	r2, #30
 5873 05c0 1A70     		strb	r2, [r3]
1636:../app/app.c  **** 			break;	
 5874              		.loc 1 1636 4
 5875 05c2 67E0     		b	.L486
 5876              	.L540:
 5877              		.align	2
 5878              	.L539:
 5879 05c4 00000000 		.word	CERRNT_STATE
 5880 05c8 00000000 		.word	run_max_time
 5881 05cc 00000000 		.word	app_task_substep
 5882 05d0 00000000 		.word	flush_flag
 5883 05d4 00000000 		.word	cup_loop
 5884 05d8 00000000 		.word	manual_setup
 5885 05dc 40190100 		.word	72000
 5886 05e0 289A0100 		.word	105000
 5887              	.L453:
1637:../app/app.c  **** 		 /* Õłżµ¢ŁńöĄµ£║µś»ÕÉ”Õł░ÕÄ¤ńé╣Ķ¦”ńé╣ */	
1638:../app/app.c  **** 		case AMERICANO_INPLACE2_JUDGE_STATE:													
1639:../app/app.c  **** 			if ((MOTOR_STATE_STOPED ==dc_motor_GetState())
 5888              		.loc 1 1639 30
 5889 05e4 FFF7FEFF 		bl	dc_motor_GetState
 5890 05e8 0346     		mov	r3, r0
 5891              		.loc 1 1639 7
 5892 05ea 002B     		cmp	r3, #0
 5893 05ec 0ED0     		beq	.L527
1640:../app/app.c  **** 				|| (TRUE == app_motor_ready())
 5894              		.loc 1 1640 17
 5895 05ee FFF7FEFF 		bl	app_motor_ready
 5896 05f2 0346     		mov	r3, r0
 5897              		.loc 1 1640 5
 5898 05f4 012B     		cmp	r3, #1
 5899 05f6 09D0     		beq	.L527
1641:../app/app.c  **** 				|| (--run_max_time == 0)){
 5900              		.loc 1 1641 9
 5901 05f8 274B     		ldr	r3, .L541
 5902 05fa 1B88     		ldrh	r3, [r3]
 5903 05fc 013B     		subs	r3, r3, #1
 5904 05fe 9AB2     		uxth	r2, r3
 5905              		.loc 1 1641 5
 5906 0600 254B     		ldr	r3, .L541
 5907 0602 1A80     		strh	r2, [r3]	@ movhi
 5908              		.loc 1 1641 9
 5909 0604 244B     		ldr	r3, .L541
 5910 0606 1B88     		ldrh	r3, [r3]
 5911              		.loc 1 1641 5
 5912 0608 002B     		cmp	r3, #0
 5913 060a 05D1     		bne	.L528
 5914              	.L527:
1642:../app/app.c  **** 				dc_motor_Stop();
 5915              		.loc 1 1642 5
 5916 060c FFF7FEFF 		bl	dc_motor_Stop
1643:../app/app.c  **** 				app_task_substep = AMERICANO_INPLACE2_STATE;				
 5917              		.loc 1 1643 22
 5918 0610 224B     		ldr	r3, .L541+4
 5919 0612 1F22     		movs	r2, #31
 5920 0614 1A70     		strb	r2, [r3]
1644:../app/app.c  **** 			}
1645:../app/app.c  **** 			else {
1646:../app/app.c  **** 				osal_lyh_delay_task(Ms_100);
1647:../app/app.c  **** 			}
1648:../app/app.c  **** 			break;
 5921              		.loc 1 1648 4
 5922 0616 3DE0     		b	.L486
 5923              	.L528:
1646:../app/app.c  **** 			}
 5924              		.loc 1 1646 5
 5925 0618 6420     		movs	r0, #100
 5926 061a FFF7FEFF 		bl	osal_lyh_delay_task
 5927              		.loc 1 1648 4
 5928 061e 39E0     		b	.L486
 5929              	.L452:
1649:../app/app.c  **** 		/* ĶÉāÕÅ¢ńöĄµ£║Õø×ĶĮ¼Õł░ÕÄ¤õĮŹ */
1650:../app/app.c  **** 		case AMERICANO_INPLACE2_STATE:													
1651:../app/app.c  **** 			dc_motor_Start(MOTOR_LEFT);
 5930              		.loc 1 1651 4
 5931 0620 0220     		movs	r0, #2
 5932 0622 FFF7FEFF 		bl	dc_motor_Start
1652:../app/app.c  **** 			osal_lyh_delay_task(Ms_100);
 5933              		.loc 1 1652 4
 5934 0626 6420     		movs	r0, #100
 5935 0628 FFF7FEFF 		bl	osal_lyh_delay_task
1653:../app/app.c  **** 			run_max_time = LEFT_TIMER(MOTOR_FIX_TIME, Ms_100);
 5936              		.loc 1 1653 17
 5937 062c 1A4B     		ldr	r3, .L541
 5938 062e 0322     		movs	r2, #3
 5939 0630 1A80     		strh	r2, [r3]	@ movhi
1654:../app/app.c  **** 			app_task_substep = AMERICANO_MOTO_RST2_STATE;
 5940              		.loc 1 1654 21
 5941 0632 1A4B     		ldr	r3, .L541+4
 5942 0634 2022     		movs	r2, #32
 5943 0636 1A70     		strb	r2, [r3]
1655:../app/app.c  **** 			break;
 5944              		.loc 1 1655 4
 5945 0638 2CE0     		b	.L486
 5946              	.L451:
1656:../app/app.c  **** 		/* Õłżµ¢ŁĶÉāÕÅ¢ńöĄµ£║µś»ÕÉ”Õø×ĶĮ¼Õł░ÕÄ¤õĮŹ */
1657:../app/app.c  **** 		case AMERICANO_MOTO_RST2_STATE:													
1658:../app/app.c  **** 			if (1/*(FAIL == app_motor_ready())*/	// deleting point,(temp to cancel)
1659:../app/app.c  **** 				&& ((MOTOR_STATE_STOPED ==dc_motor_GetState())
 5947              		.loc 1 1659 31
 5948 063a FFF7FEFF 		bl	dc_motor_GetState
 5949 063e 0346     		mov	r3, r0
1658:../app/app.c  **** 				&& ((MOTOR_STATE_STOPED ==dc_motor_GetState())
 5950              		.loc 1 1658 7
 5951 0640 002B     		cmp	r3, #0
 5952 0642 09D0     		beq	.L530
1660:../app/app.c  **** 				|| (--run_max_time == 0))){
 5953              		.loc 1 1660 9
 5954 0644 144B     		ldr	r3, .L541
 5955 0646 1B88     		ldrh	r3, [r3]
 5956 0648 013B     		subs	r3, r3, #1
 5957 064a 9AB2     		uxth	r2, r3
1659:../app/app.c  **** 				|| (--run_max_time == 0))){
 5958              		.loc 1 1659 5
 5959 064c 124B     		ldr	r3, .L541
 5960 064e 1A80     		strh	r2, [r3]	@ movhi
 5961              		.loc 1 1660 9
 5962 0650 114B     		ldr	r3, .L541
 5963 0652 1B88     		ldrh	r3, [r3]
1659:../app/app.c  **** 				|| (--run_max_time == 0))){
 5964              		.loc 1 1659 5
 5965 0654 002B     		cmp	r3, #0
 5966 0656 05D1     		bne	.L531
 5967              	.L530:
1661:../app/app.c  **** 				dc_motor_Stop();
 5968              		.loc 1 1661 5
 5969 0658 FFF7FEFF 		bl	dc_motor_Stop
1662:../app/app.c  **** 				app_task_substep = AMERICANO_COMPLETE_STATE;
 5970              		.loc 1 1662 22
 5971 065c 0F4B     		ldr	r3, .L541+4
 5972 065e 2122     		movs	r2, #33
 5973 0660 1A70     		strb	r2, [r3]
1663:../app/app.c  **** 			}
1664:../app/app.c  **** 			else {
1665:../app/app.c  **** 				osal_lyh_delay_task(Ms_100);
1666:../app/app.c  **** 			}
1667:../app/app.c  **** 			break;
 5974              		.loc 1 1667 4
 5975 0662 17E0     		b	.L486
 5976              	.L531:
1665:../app/app.c  **** 			}
 5977              		.loc 1 1665 5
 5978 0664 6420     		movs	r0, #100
 5979 0666 FFF7FEFF 		bl	osal_lyh_delay_task
 5980              		.loc 1 1667 4
 5981 066a 13E0     		b	.L486
 5982              	.L449:
1668:../app/app.c  **** 		case AMERICANO_COMPLETE_STATE:
1669:../app/app.c  **** 			CERRNT_STATE = NULL_STATE;	//Ķ«░ÕĮĢĶ┐øÕ║”
 5983              		.loc 1 1669 17
 5984 066c 0C4B     		ldr	r3, .L541+8
 5985 066e 0022     		movs	r2, #0
 5986 0670 1A70     		strb	r2, [r3]
1670:../app/app.c  **** 			app_turn_heat_off();		//Õģ│ķŚŁÕŖĀńāŁ
 5987              		.loc 1 1670 4
 5988 0672 FFF7FEFF 		bl	app_turn_heat_off
1671:../app/app.c  **** 			flush_flag = 1;				//Ķ«ŠńĮ«Õå▓µ┤ŚµĀćÕ┐Ś	
 5989              		.loc 1 1671 15
 5990 0676 0B4B     		ldr	r3, .L541+12
 5991 0678 0122     		movs	r2, #1
 5992 067a 1A70     		strb	r2, [r3]
1672:../app/app.c  **** 			app_led_finish_step();		//µē¦ĶĪīÕ«īµłÉÕÉÄńÜäµīćńż║ńü»µśŠńż║
 5993              		.loc 1 1672 4
 5994 067c FFF7FEFF 		bl	app_led_finish_step
1673:../app/app.c  **** 			app_task_nextstep(APP_NORMAL_STATE, NORMAL_INIT_STATE);		//Õø×Õł░normalńŖČµĆü’╝īńŁēÕŠģõĖŗõĖĆµ¼Īµ
 5995              		.loc 1 1673 4
 5996 0680 0021     		movs	r1, #0
 5997 0682 0320     		movs	r0, #3
 5998 0684 FFF7FEFF 		bl	app_task_nextstep
1674:../app/app.c  **** 			break;	
 5999              		.loc 1 1674 4
 6000 0688 04E0     		b	.L486
 6001              	.L533:
1675:../app/app.c  **** 
1676:../app/app.c  **** 		default:
1677:../app/app.c  **** 			break;
 6002              		.loc 1 1677 4
 6003 068a 00BF     		nop
 6004 068c 02E0     		b	.L536
 6005              	.L534:
1410:../app/app.c  **** 		case AMERICANO_GRIND_STATE:
 6006              		.loc 1 1410 4
 6007 068e 00BF     		nop
 6008 0690 00E0     		b	.L536
 6009              	.L535:
1622:../app/app.c  **** 		case AMERICANO_BREW2_FINISH_STATE:
 6010              		.loc 1 1622 4
 6011 0692 00BF     		nop
 6012              	.L486:
 6013              	.L536:
1678:../app/app.c  **** 	}
1679:../app/app.c  **** }
 6014              		.loc 1 1679 1
 6015 0694 00BF     		nop
 6016 0696 80BD     		pop	{r7, pc}
 6017              	.L542:
 6018              		.align	2
 6019              	.L541:
 6020 0698 00000000 		.word	run_max_time
 6021 069c 00000000 		.word	app_task_substep
 6022 06a0 00000000 		.word	CERRNT_STATE
 6023 06a4 00000000 		.word	flush_flag
 6024              		.cfi_endproc
 6025              	.LFE170:
 6027              		.section	.text.app_hotwater_handler,"ax",%progbits
 6028              		.align	1
 6029              		.global	app_hotwater_handler
 6030              		.syntax unified
 6031              		.thumb
 6032              		.thumb_func
 6033              		.fpu softvfp
 6035              	app_hotwater_handler:
 6036              	.LFB171:
1680:../app/app.c  **** 
1681:../app/app.c  **** /************************************************************************
1682:../app/app.c  **** * function name: app_hotwater_handler
1683:../app/app.c  **** * input: non
1684:../app/app.c  **** * output: non
1685:../app/app.c  **** * description: object thread
1686:../app/app.c  **** *************************************************************************/
1687:../app/app.c  **** void app_hotwater_handler(void)
1688:../app/app.c  **** {
 6037              		.loc 1 1688 1
 6038              		.cfi_startproc
 6039              		@ args = 0, pretend = 0, frame = 0
 6040              		@ frame_needed = 1, uses_anonymous_args = 0
 6041 0000 80B5     		push	{r7, lr}
 6042              		.cfi_def_cfa_offset 8
 6043              		.cfi_offset 7, -8
 6044              		.cfi_offset 14, -4
 6045 0002 00AF     		add	r7, sp, #0
 6046              		.cfi_def_cfa_register 7
1689:../app/app.c  **** 	switch(app_task_substep)
 6047              		.loc 1 1689 2
 6048 0004 444B     		ldr	r3, .L561
 6049 0006 1B78     		ldrb	r3, [r3]	@ zero_extendqisi2
 6050 0008 052B     		cmp	r3, #5
 6051 000a 00F28080 		bhi	.L558
 6052 000e 01A2     		adr	r2, .L546
 6053 0010 52F823F0 		ldr	pc, [r2, r3, lsl #2]
 6054              		.p2align 2
 6055              	.L546:
 6056 0014 2D000000 		.word	.L550+1
 6057 0018 5B000000 		.word	.L549+1
 6058 001c 8D000000 		.word	.L548+1
 6059 0020 9B000000 		.word	.L547+1
 6060 0024 0F010000 		.word	.L558+1
 6061 0028 F3000000 		.word	.L545+1
 6062              		.p2align 1
 6063              	.L550:
1690:../app/app.c  **** 	{
1691:../app/app.c  **** 		/* ńāŁµ░┤µĄüń©ŗÕłØÕ¦ŗÕī¢ */
1692:../app/app.c  **** 		case HOTWATER_INIT_STATE:
1693:../app/app.c  **** 			app_leds_all_fun(LED_OFF);
 6064              		.loc 1 1693 4
 6065 002c 0020     		movs	r0, #0
 6066 002e FFF7FEFF 		bl	app_leds_all_fun
1694:../app/app.c  **** 			app_leds_all_ind(LED_OFF);		
 6067              		.loc 1 1694 4
 6068 0032 0020     		movs	r0, #0
 6069 0034 FFF7FEFF 		bl	app_leds_all_ind
1695:../app/app.c  **** 			display_led(START_LED, LED_ON);
 6070              		.loc 1 1695 4
 6071 0038 0121     		movs	r1, #1
 6072 003a 0520     		movs	r0, #5
 6073 003c FFF7FEFF 		bl	display_led
1696:../app/app.c  **** 			app_led_hotwater_init();
 6074              		.loc 1 1696 4
 6075 0040 FFF7FEFF 		bl	app_led_hotwater_init
1697:../app/app.c  **** 			app_turn_heat_on(TARGET_TEMP_HOTWATER);
 6076              		.loc 1 1697 4
 6077 0044 40F61520 		movw	r0, #2581
 6078 0048 FFF7FEFF 		bl	app_turn_heat_on
1698:../app/app.c  **** 			run_max_time = 100;		//õ╗ģĶ░āĶ»Ģńö©’╝īĶ«ŠńĮ«ÕŖĀńāŁµŚČķŚ┤õĖ║10s
 6079              		.loc 1 1698 17
 6080 004c 334B     		ldr	r3, .L561+4
 6081 004e 6422     		movs	r2, #100
 6082 0050 1A80     		strh	r2, [r3]	@ movhi
1699:../app/app.c  **** 			app_task_substep = HOTWATER_WAIT_TEMP_STATE;
 6083              		.loc 1 1699 21
 6084 0052 314B     		ldr	r3, .L561
 6085 0054 0122     		movs	r2, #1
 6086 0056 1A70     		strb	r2, [r3]
1700:../app/app.c  **** 			break;
 6087              		.loc 1 1700 4
 6088 0058 5CE0     		b	.L551
 6089              	.L549:
1701:../app/app.c  **** 		/* ńŁēÕŠģÕŖĀńāŁÕ«īµłÉ */	
1702:../app/app.c  **** 		case HOTWATER_WAIT_TEMP_STATE:
1703:../app/app.c  **** 			if((TRUE == app_temperature_state(TARGET_TEMP_HOTWATER))
 6090              		.loc 1 1703 16
 6091 005a 40F61520 		movw	r0, #2581
 6092 005e FFF7FEFF 		bl	app_temperature_state
 6093 0062 0346     		mov	r3, r0
 6094              		.loc 1 1703 6
 6095 0064 012B     		cmp	r3, #1
 6096 0066 09D0     		beq	.L552
1704:../app/app.c  **** 				|| --run_max_time == 0){
 6097              		.loc 1 1704 8
 6098 0068 2C4B     		ldr	r3, .L561+4
 6099 006a 1B88     		ldrh	r3, [r3]
 6100 006c 013B     		subs	r3, r3, #1
 6101 006e 9AB2     		uxth	r2, r3
 6102              		.loc 1 1704 5
 6103 0070 2A4B     		ldr	r3, .L561+4
 6104 0072 1A80     		strh	r2, [r3]	@ movhi
 6105              		.loc 1 1704 8
 6106 0074 294B     		ldr	r3, .L561+4
 6107 0076 1B88     		ldrh	r3, [r3]
 6108              		.loc 1 1704 5
 6109 0078 002B     		cmp	r3, #0
 6110 007a 03D1     		bne	.L553
 6111              	.L552:
1705:../app/app.c  **** 				app_task_substep = HOTWATER_CHANGE_PIPE_STATE;
 6112              		.loc 1 1705 22
 6113 007c 264B     		ldr	r3, .L561
 6114 007e 0222     		movs	r2, #2
 6115 0080 1A70     		strb	r2, [r3]
1706:../app/app.c  **** 			}
1707:../app/app.c  **** 			else{
1708:../app/app.c  **** 				osal_lyh_delay_task(Ms_100);
1709:../app/app.c  **** 			}
1710:../app/app.c  **** 			break;
 6116              		.loc 1 1710 4
 6117 0082 47E0     		b	.L551
 6118              	.L553:
1708:../app/app.c  **** 			}
 6119              		.loc 1 1708 5
 6120 0084 6420     		movs	r0, #100
 6121 0086 FFF7FEFF 		bl	osal_lyh_delay_task
 6122              		.loc 1 1710 4
 6123 008a 43E0     		b	.L551
 6124              	.L548:
1711:../app/app.c  **** 		/* ÕłćµŹóÕć║µ░┤ÕÅŻ */	
1712:../app/app.c  **** 		case HOTWATER_CHANGE_PIPE_STATE:
1713:../app/app.c  **** 			app_relay_set(WATER_MODE);
 6125              		.loc 1 1713 4
 6126 008c 0120     		movs	r0, #1
 6127 008e FFF7FEFF 		bl	app_relay_set
1714:../app/app.c  **** 			app_task_substep = HOTWATER_JUDGE_WATER_STATE;
 6128              		.loc 1 1714 21
 6129 0092 214B     		ldr	r3, .L561
 6130 0094 0322     		movs	r2, #3
 6131 0096 1A70     		strb	r2, [r3]
1715:../app/app.c  **** 			break;
 6132              		.loc 1 1715 4
 6133 0098 3CE0     		b	.L551
 6134              	.L547:
1716:../app/app.c  **** 		/* Õłżµ¢Łµ░┤ķćÅ */	
1717:../app/app.c  **** 		case HOTWATER_JUDGE_WATER_STATE:
1718:../app/app.c  **** 			if(0 == manual_setup.water){
 6135              		.loc 1 1718 24
 6136 009a 214B     		ldr	r3, .L561+8
 6137 009c 9B78     		ldrb	r3, [r3, #2]	@ zero_extendqisi2
 6138              		.loc 1 1718 6
 6139 009e 002B     		cmp	r3, #0
 6140 00a0 0AD1     		bne	.L555
1719:../app/app.c  **** 				ac_pumb_start(CONTINUE_MODE);
 6141              		.loc 1 1719 5
 6142 00a2 0020     		movs	r0, #0
 6143 00a4 FFF7FEFF 		bl	ac_pumb_start
1720:../app/app.c  **** 				osal_lyh_delay_task(Ms_14000);
 6144              		.loc 1 1720 5
 6145 00a8 43F2B060 		movw	r0, #14000
 6146 00ac FFF7FEFF 		bl	osal_lyh_delay_task
1721:../app/app.c  **** 				app_task_substep = HOTWATER_COMPLETE_STATE;
 6147              		.loc 1 1721 22
 6148 00b0 194B     		ldr	r3, .L561
 6149 00b2 0522     		movs	r2, #5
 6150 00b4 1A70     		strb	r2, [r3]
1722:../app/app.c  **** 			}
1723:../app/app.c  **** 			else if(1 == manual_setup.water){
1724:../app/app.c  **** 				ac_pumb_start(CONTINUE_MODE);
1725:../app/app.c  **** 				osal_lyh_delay_task(Ms_39000);
1726:../app/app.c  **** 				app_task_substep = HOTWATER_COMPLETE_STATE;
1727:../app/app.c  **** 			}
1728:../app/app.c  **** 			else if(2 == manual_setup.water){
1729:../app/app.c  **** 				ac_pumb_start(CONTINUE_MODE);
1730:../app/app.c  **** 				osal_lyh_delay_task(Ms_97000);
1731:../app/app.c  **** 				app_task_substep = HOTWATER_COMPLETE_STATE;				
1732:../app/app.c  **** 			}
1733:../app/app.c  **** 			break;
 6151              		.loc 1 1733 4
 6152 00b6 2CE0     		b	.L559
 6153              	.L555:
1723:../app/app.c  **** 				ac_pumb_start(CONTINUE_MODE);
 6154              		.loc 1 1723 29
 6155 00b8 194B     		ldr	r3, .L561+8
 6156 00ba 9B78     		ldrb	r3, [r3, #2]	@ zero_extendqisi2
1723:../app/app.c  **** 				ac_pumb_start(CONTINUE_MODE);
 6157              		.loc 1 1723 11
 6158 00bc 012B     		cmp	r3, #1
 6159 00be 0AD1     		bne	.L557
1724:../app/app.c  **** 				osal_lyh_delay_task(Ms_39000);
 6160              		.loc 1 1724 5
 6161 00c0 0020     		movs	r0, #0
 6162 00c2 FFF7FEFF 		bl	ac_pumb_start
1725:../app/app.c  **** 				app_task_substep = HOTWATER_COMPLETE_STATE;
 6163              		.loc 1 1725 5
 6164 00c6 49F65800 		movw	r0, #39000
 6165 00ca FFF7FEFF 		bl	osal_lyh_delay_task
1726:../app/app.c  **** 			}
 6166              		.loc 1 1726 22
 6167 00ce 124B     		ldr	r3, .L561
 6168 00d0 0522     		movs	r2, #5
 6169 00d2 1A70     		strb	r2, [r3]
 6170              		.loc 1 1733 4
 6171 00d4 1DE0     		b	.L559
 6172              	.L557:
1728:../app/app.c  **** 				ac_pumb_start(CONTINUE_MODE);
 6173              		.loc 1 1728 29
 6174 00d6 124B     		ldr	r3, .L561+8
 6175 00d8 9B78     		ldrb	r3, [r3, #2]	@ zero_extendqisi2
1728:../app/app.c  **** 				ac_pumb_start(CONTINUE_MODE);
 6176              		.loc 1 1728 11
 6177 00da 022B     		cmp	r3, #2
 6178 00dc 19D1     		bne	.L559
1729:../app/app.c  **** 				osal_lyh_delay_task(Ms_97000);
 6179              		.loc 1 1729 5
 6180 00de 0020     		movs	r0, #0
 6181 00e0 FFF7FEFF 		bl	ac_pumb_start
1730:../app/app.c  **** 				app_task_substep = HOTWATER_COMPLETE_STATE;				
 6182              		.loc 1 1730 5
 6183 00e4 0F48     		ldr	r0, .L561+12
 6184 00e6 FFF7FEFF 		bl	osal_lyh_delay_task
1731:../app/app.c  **** 			}
 6185              		.loc 1 1731 22
 6186 00ea 0B4B     		ldr	r3, .L561
 6187 00ec 0522     		movs	r2, #5
 6188 00ee 1A70     		strb	r2, [r3]
 6189              		.loc 1 1733 4
 6190 00f0 0FE0     		b	.L559
 6191              	.L545:
1734:../app/app.c  **** 		/* µŚČķŚ┤ń╗ōµØ¤ */	
1735:../app/app.c  **** 		case HOTWATER_COMPLETE_STATE:
1736:../app/app.c  **** 			ac_pumb_stop();
 6192              		.loc 1 1736 4
 6193 00f2 FFF7FEFF 		bl	ac_pumb_stop
1737:../app/app.c  **** 			app_relay_set(COFFEE_MODE);
 6194              		.loc 1 1737 4
 6195 00f6 0020     		movs	r0, #0
 6196 00f8 FFF7FEFF 		bl	app_relay_set
1738:../app/app.c  **** 			app_turn_heat_off();
 6197              		.loc 1 1738 4
 6198 00fc FFF7FEFF 		bl	app_turn_heat_off
1739:../app/app.c  **** 			app_led_finish_step();
 6199              		.loc 1 1739 4
 6200 0100 FFF7FEFF 		bl	app_led_finish_step
1740:../app/app.c  **** 			app_task_nextstep(APP_NORMAL_STATE, NORMAL_INIT_STATE);		//Õø×Õł░normalńŖČµĆü’╝īńŁēÕŠģõĖŗõĖĆµ¼Īµ
 6201              		.loc 1 1740 4
 6202 0104 0021     		movs	r1, #0
 6203 0106 0320     		movs	r0, #3
 6204 0108 FFF7FEFF 		bl	app_task_nextstep
1741:../app/app.c  **** 			break;
 6205              		.loc 1 1741 4
 6206 010c 02E0     		b	.L551
 6207              	.L558:
1742:../app/app.c  **** 		default:
1743:../app/app.c  **** 			break;
 6208              		.loc 1 1743 4
 6209 010e 00BF     		nop
 6210 0110 00E0     		b	.L560
 6211              	.L559:
1733:../app/app.c  **** 		/* µŚČķŚ┤ń╗ōµØ¤ */	
 6212              		.loc 1 1733 4
 6213 0112 00BF     		nop
 6214              	.L551:
 6215              	.L560:
1744:../app/app.c  **** 	}
1745:../app/app.c  **** }
 6216              		.loc 1 1745 1
 6217 0114 00BF     		nop
 6218 0116 80BD     		pop	{r7, pc}
 6219              	.L562:
 6220              		.align	2
 6221              	.L561:
 6222 0118 00000000 		.word	app_task_substep
 6223 011c 00000000 		.word	run_max_time
 6224 0120 00000000 		.word	manual_setup
 6225 0124 E87A0100 		.word	97000
 6226              		.cfi_endproc
 6227              	.LFE171:
 6229              		.section	.text.app_steam_handler,"ax",%progbits
 6230              		.align	1
 6231              		.global	app_steam_handler
 6232              		.syntax unified
 6233              		.thumb
 6234              		.thumb_func
 6235              		.fpu softvfp
 6237              	app_steam_handler:
 6238              	.LFB172:
1746:../app/app.c  **** 
1747:../app/app.c  **** /************************************************************************
1748:../app/app.c  **** * function name: app_steam_handler
1749:../app/app.c  **** * input: non
1750:../app/app.c  **** * output: non
1751:../app/app.c  **** * description: object thread
1752:../app/app.c  **** *************************************************************************/
1753:../app/app.c  **** void app_steam_handler(void)
1754:../app/app.c  **** {
 6239              		.loc 1 1754 1
 6240              		.cfi_startproc
 6241              		@ args = 0, pretend = 0, frame = 0
 6242              		@ frame_needed = 1, uses_anonymous_args = 0
 6243 0000 80B5     		push	{r7, lr}
 6244              		.cfi_def_cfa_offset 8
 6245              		.cfi_offset 7, -8
 6246              		.cfi_offset 14, -4
 6247 0002 00AF     		add	r7, sp, #0
 6248              		.cfi_def_cfa_register 7
1755:../app/app.c  **** 	switch(app_task_substep)
 6249              		.loc 1 1755 2
 6250 0004 2B4B     		ldr	r3, .L575
 6251 0006 1B78     		ldrb	r3, [r3]	@ zero_extendqisi2
 6252 0008 032B     		cmp	r3, #3
 6253 000a 4FD8     		bhi	.L574
 6254 000c 01A2     		adr	r2, .L566
 6255 000e 52F823F0 		ldr	pc, [r2, r3, lsl #2]
 6256 0012 00BF     		.p2align 2
 6257              	.L566:
 6258 0014 25000000 		.word	.L569+1
 6259 0018 53000000 		.word	.L568+1
 6260 001c 85000000 		.word	.L567+1
 6261 0020 93000000 		.word	.L565+1
 6262              		.p2align 1
 6263              	.L569:
1756:../app/app.c  **** 	{
1757:../app/app.c  **** 		/* ÕłØÕ¦ŗÕī¢ */
1758:../app/app.c  **** 		case STEAM_INIT_STATE:
1759:../app/app.c  **** 			app_leds_all_fun(LED_OFF);
 6264              		.loc 1 1759 4
 6265 0024 0020     		movs	r0, #0
 6266 0026 FFF7FEFF 		bl	app_leds_all_fun
1760:../app/app.c  **** 			app_leds_all_ind(LED_OFF);		
 6267              		.loc 1 1760 4
 6268 002a 0020     		movs	r0, #0
 6269 002c FFF7FEFF 		bl	app_leds_all_ind
1761:../app/app.c  **** 			display_led(START_LED, LED_ON);
 6270              		.loc 1 1761 4
 6271 0030 0121     		movs	r1, #1
 6272 0032 0520     		movs	r0, #5
 6273 0034 FFF7FEFF 		bl	display_led
1762:../app/app.c  **** 			app_led_steam_init();
 6274              		.loc 1 1762 4
 6275 0038 FFF7FEFF 		bl	app_led_steam_init
1763:../app/app.c  **** 			app_turn_heat_on(TARGET_TEMP_STEAM);
 6276              		.loc 1 1763 4
 6277 003c 40F6CC40 		movw	r0, #3276
 6278 0040 FFF7FEFF 		bl	app_turn_heat_on
1764:../app/app.c  **** 			run_max_time = 100;		//õ╗ģĶ░āĶ»Ģńö©’╝īĶ«ŠńĮ«ÕŖĀńāŁµŚČķŚ┤õĖ║10s
 6279              		.loc 1 1764 17
 6280 0044 1C4B     		ldr	r3, .L575+4
 6281 0046 6422     		movs	r2, #100
 6282 0048 1A80     		strh	r2, [r3]	@ movhi
1765:../app/app.c  **** 			app_task_substep = STEAM_WAIT_TEMP_STATE;
 6283              		.loc 1 1765 21
 6284 004a 1A4B     		ldr	r3, .L575
 6285 004c 0122     		movs	r2, #1
 6286 004e 1A70     		strb	r2, [r3]
1766:../app/app.c  **** 			break;
 6287              		.loc 1 1766 4
 6288 0050 2DE0     		b	.L570
 6289              	.L568:
1767:../app/app.c  **** 		/* ńŁēÕŠģµĖ®Õ║”ÕŹćķ½ś */	
1768:../app/app.c  **** 		case STEAM_WAIT_TEMP_STATE:
1769:../app/app.c  **** 			if((TRUE == app_temperature_state(TARGET_TEMP_HOTWATER))
 6290              		.loc 1 1769 16
 6291 0052 40F61520 		movw	r0, #2581
 6292 0056 FFF7FEFF 		bl	app_temperature_state
 6293 005a 0346     		mov	r3, r0
 6294              		.loc 1 1769 6
 6295 005c 012B     		cmp	r3, #1
 6296 005e 09D0     		beq	.L571
1770:../app/app.c  **** 				|| --run_max_time == 0){
 6297              		.loc 1 1770 8
 6298 0060 154B     		ldr	r3, .L575+4
 6299 0062 1B88     		ldrh	r3, [r3]
 6300 0064 013B     		subs	r3, r3, #1
 6301 0066 9AB2     		uxth	r2, r3
 6302              		.loc 1 1770 5
 6303 0068 134B     		ldr	r3, .L575+4
 6304 006a 1A80     		strh	r2, [r3]	@ movhi
 6305              		.loc 1 1770 8
 6306 006c 124B     		ldr	r3, .L575+4
 6307 006e 1B88     		ldrh	r3, [r3]
 6308              		.loc 1 1770 5
 6309 0070 002B     		cmp	r3, #0
 6310 0072 03D1     		bne	.L572
 6311              	.L571:
1771:../app/app.c  **** 				app_task_substep = STEAM_TEMP_OK_STATE;
 6312              		.loc 1 1771 22
 6313 0074 0F4B     		ldr	r3, .L575
 6314 0076 0222     		movs	r2, #2
 6315 0078 1A70     		strb	r2, [r3]
1772:../app/app.c  **** 			}
1773:../app/app.c  **** 			else{
1774:../app/app.c  **** 				osal_lyh_delay_task(Ms_100);
1775:../app/app.c  **** 			}
1776:../app/app.c  **** 			break;
 6316              		.loc 1 1776 4
 6317 007a 18E0     		b	.L570
 6318              	.L572:
1774:../app/app.c  **** 			}
 6319              		.loc 1 1774 5
 6320 007c 6420     		movs	r0, #100
 6321 007e FFF7FEFF 		bl	osal_lyh_delay_task
 6322              		.loc 1 1776 4
 6323 0082 14E0     		b	.L570
 6324              	.L567:
1777:../app/app.c  **** 		/* µĖ®Õ║”ĶŠŠÕł░’╝īÕ╝ĆÕ¦ŗÕć║ĶÆĖµ▒Į */	
1778:../app/app.c  **** 		case STEAM_TEMP_OK_STATE:
1779:../app/app.c  **** 			app_relay_set(WATER_MODE);
 6325              		.loc 1 1779 4
 6326 0084 0120     		movs	r0, #1
 6327 0086 FFF7FEFF 		bl	app_relay_set
1780:../app/app.c  **** 			ac_pumb_start(STEAM_MODE);
 6328              		.loc 1 1780 4
 6329 008a 0220     		movs	r0, #2
 6330 008c FFF7FEFF 		bl	ac_pumb_start
1781:../app/app.c  **** 			break;
 6331              		.loc 1 1781 4
 6332 0090 0DE0     		b	.L570
 6333              	.L565:
1782:../app/app.c  **** 		/* ń╗ōµØ¤ */	
1783:../app/app.c  **** 		case STEAM_COMPLETE_STATE:
1784:../app/app.c  **** 			app_relay_set(COFFEE_MODE);
 6334              		.loc 1 1784 4
 6335 0092 0020     		movs	r0, #0
 6336 0094 FFF7FEFF 		bl	app_relay_set
1785:../app/app.c  **** 			ac_pumb_stop();
 6337              		.loc 1 1785 4
 6338 0098 FFF7FEFF 		bl	ac_pumb_stop
1786:../app/app.c  **** 			app_turn_heat_off();
 6339              		.loc 1 1786 4
 6340 009c FFF7FEFF 		bl	app_turn_heat_off
1787:../app/app.c  **** 			app_led_finish_step();
 6341              		.loc 1 1787 4
 6342 00a0 FFF7FEFF 		bl	app_led_finish_step
1788:../app/app.c  **** 			app_task_nextstep(APP_NORMAL_STATE, NORMAL_INIT_STATE);		//Õø×Õł░normalńŖČµĆü’╝īńŁēÕŠģõĖŗõĖĆµ¼Īµ
 6343              		.loc 1 1788 4
 6344 00a4 0021     		movs	r1, #0
 6345 00a6 0320     		movs	r0, #3
 6346 00a8 FFF7FEFF 		bl	app_task_nextstep
 6347              	.L574:
1789:../app/app.c  **** 		default:
1790:../app/app.c  **** 			break;
 6348              		.loc 1 1790 4
 6349 00ac 00BF     		nop
 6350              	.L570:
1791:../app/app.c  **** 	}
1792:../app/app.c  **** }
 6351              		.loc 1 1792 1
 6352 00ae 00BF     		nop
 6353 00b0 80BD     		pop	{r7, pc}
 6354              	.L576:
 6355 00b2 00BF     		.align	2
 6356              	.L575:
 6357 00b4 00000000 		.word	app_task_substep
 6358 00b8 00000000 		.word	run_max_time
 6359              		.cfi_endproc
 6360              	.LFE172:
 6362              		.section	.text.app_aqua_handler,"ax",%progbits
 6363              		.align	1
 6364              		.global	app_aqua_handler
 6365              		.syntax unified
 6366              		.thumb
 6367              		.thumb_func
 6368              		.fpu softvfp
 6370              	app_aqua_handler:
 6371              	.LFB173:
1793:../app/app.c  **** 
1794:../app/app.c  **** /************************************************************************
1795:../app/app.c  **** * function name: app_aqua_handler
1796:../app/app.c  **** * input: non
1797:../app/app.c  **** * output: non
1798:../app/app.c  **** * description: object thread
1799:../app/app.c  **** *************************************************************************/
1800:../app/app.c  **** void app_aqua_handler(void)
1801:../app/app.c  **** {
 6372              		.loc 1 1801 1
 6373              		.cfi_startproc
 6374              		@ args = 0, pretend = 0, frame = 0
 6375              		@ frame_needed = 1, uses_anonymous_args = 0
 6376 0000 80B5     		push	{r7, lr}
 6377              		.cfi_def_cfa_offset 8
 6378              		.cfi_offset 7, -8
 6379              		.cfi_offset 14, -4
 6380 0002 00AF     		add	r7, sp, #0
 6381              		.cfi_def_cfa_register 7
1802:../app/app.c  **** 	switch(app_task_substep)
 6382              		.loc 1 1802 2
 6383 0004 0B4B     		ldr	r3, .L582
 6384 0006 1B78     		ldrb	r3, [r3]	@ zero_extendqisi2
 6385 0008 002B     		cmp	r3, #0
 6386 000a 02D0     		beq	.L578
 6387 000c 012B     		cmp	r3, #1
 6388 000e 0AD0     		beq	.L579
1803:../app/app.c  **** 	{
1804:../app/app.c  **** 		case AQUA_INIT_STATE:
1805:../app/app.c  **** 			display_led(START_LED, LED_ON);
1806:../app/app.c  **** 			app_led_aqua_init();
1807:../app/app.c  **** 			app_task_substep = AQUA_RUN_STATE;
1808:../app/app.c  **** 			break;
1809:../app/app.c  **** 		case AQUA_RUN_STATE:
1810:../app/app.c  **** 			osal_lyh_delay_task(Ms_500);
1811:../app/app.c  **** 			break;
1812:../app/app.c  **** 		default:
1813:../app/app.c  **** 			break;
 6389              		.loc 1 1813 4
 6390 0010 0EE0     		b	.L581
 6391              	.L578:
1805:../app/app.c  **** 			app_led_aqua_init();
 6392              		.loc 1 1805 4
 6393 0012 0121     		movs	r1, #1
 6394 0014 0520     		movs	r0, #5
 6395 0016 FFF7FEFF 		bl	display_led
1806:../app/app.c  **** 			app_task_substep = AQUA_RUN_STATE;
 6396              		.loc 1 1806 4
 6397 001a FFF7FEFF 		bl	app_led_aqua_init
1807:../app/app.c  **** 			break;
 6398              		.loc 1 1807 21
 6399 001e 054B     		ldr	r3, .L582
 6400 0020 0122     		movs	r2, #1
 6401 0022 1A70     		strb	r2, [r3]
1808:../app/app.c  **** 		case AQUA_RUN_STATE:
 6402              		.loc 1 1808 4
 6403 0024 04E0     		b	.L581
 6404              	.L579:
1810:../app/app.c  **** 			break;
 6405              		.loc 1 1810 4
 6406 0026 4FF4FA70 		mov	r0, #500
 6407 002a FFF7FEFF 		bl	osal_lyh_delay_task
1811:../app/app.c  **** 		default:
 6408              		.loc 1 1811 4
 6409 002e 00BF     		nop
 6410              	.L581:
1814:../app/app.c  **** 	}
1815:../app/app.c  **** }
 6411              		.loc 1 1815 1
 6412 0030 00BF     		nop
 6413 0032 80BD     		pop	{r7, pc}
 6414              	.L583:
 6415              		.align	2
 6416              	.L582:
 6417 0034 00000000 		.word	app_task_substep
 6418              		.cfi_endproc
 6419              	.LFE173:
 6421              		.section	.text.app_calc_handler,"ax",%progbits
 6422              		.align	1
 6423              		.global	app_calc_handler
 6424              		.syntax unified
 6425              		.thumb
 6426              		.thumb_func
 6427              		.fpu softvfp
 6429              	app_calc_handler:
 6430              	.LFB174:
1816:../app/app.c  **** 
1817:../app/app.c  **** /************************************************************************
1818:../app/app.c  **** * function name: app_calc_handler
1819:../app/app.c  **** * input: non
1820:../app/app.c  **** * output: non
1821:../app/app.c  **** * description: object thread
1822:../app/app.c  **** *************************************************************************/
1823:../app/app.c  **** void app_calc_handler(void)
1824:../app/app.c  **** {
 6431              		.loc 1 1824 1
 6432              		.cfi_startproc
 6433              		@ args = 0, pretend = 0, frame = 0
 6434              		@ frame_needed = 1, uses_anonymous_args = 0
 6435 0000 80B5     		push	{r7, lr}
 6436              		.cfi_def_cfa_offset 8
 6437              		.cfi_offset 7, -8
 6438              		.cfi_offset 14, -4
 6439 0002 00AF     		add	r7, sp, #0
 6440              		.cfi_def_cfa_register 7
1825:../app/app.c  **** 	switch(app_task_substep)
 6441              		.loc 1 1825 2
 6442 0004 0B4B     		ldr	r3, .L589
 6443 0006 1B78     		ldrb	r3, [r3]	@ zero_extendqisi2
 6444 0008 002B     		cmp	r3, #0
 6445 000a 02D0     		beq	.L585
 6446 000c 012B     		cmp	r3, #1
 6447 000e 0AD0     		beq	.L586
1826:../app/app.c  **** 	{
1827:../app/app.c  **** 		case CALC_INIT_STATE:
1828:../app/app.c  **** 			display_led(START_LED, LED_ON);
1829:../app/app.c  **** 			app_led_calc_init();
1830:../app/app.c  **** 			app_task_substep = CALC_RUN_STATE;
1831:../app/app.c  **** 			break;
1832:../app/app.c  **** 		case CALC_RUN_STATE:
1833:../app/app.c  **** 			osal_lyh_delay_task(Ms_500);
1834:../app/app.c  **** 			break;
1835:../app/app.c  **** 		default:
1836:../app/app.c  **** 			break;
 6448              		.loc 1 1836 4
 6449 0010 0EE0     		b	.L588
 6450              	.L585:
1828:../app/app.c  **** 			app_led_calc_init();
 6451              		.loc 1 1828 4
 6452 0012 0121     		movs	r1, #1
 6453 0014 0520     		movs	r0, #5
 6454 0016 FFF7FEFF 		bl	display_led
1829:../app/app.c  **** 			app_task_substep = CALC_RUN_STATE;
 6455              		.loc 1 1829 4
 6456 001a FFF7FEFF 		bl	app_led_calc_init
1830:../app/app.c  **** 			break;
 6457              		.loc 1 1830 21
 6458 001e 054B     		ldr	r3, .L589
 6459 0020 0122     		movs	r2, #1
 6460 0022 1A70     		strb	r2, [r3]
1831:../app/app.c  **** 		case CALC_RUN_STATE:
 6461              		.loc 1 1831 4
 6462 0024 04E0     		b	.L588
 6463              	.L586:
1833:../app/app.c  **** 			break;
 6464              		.loc 1 1833 4
 6465 0026 4FF4FA70 		mov	r0, #500
 6466 002a FFF7FEFF 		bl	osal_lyh_delay_task
1834:../app/app.c  **** 		default:
 6467              		.loc 1 1834 4
 6468 002e 00BF     		nop
 6469              	.L588:
1837:../app/app.c  **** 	}
1838:../app/app.c  **** }
 6470              		.loc 1 1838 1
 6471 0030 00BF     		nop
 6472 0032 80BD     		pop	{r7, pc}
 6473              	.L590:
 6474              		.align	2
 6475              	.L589:
 6476 0034 00000000 		.word	app_task_substep
 6477              		.cfi_endproc
 6478              	.LFE174:
 6480              		.section	.text.app_setup_handler,"ax",%progbits
 6481              		.align	1
 6482              		.global	app_setup_handler
 6483              		.syntax unified
 6484              		.thumb
 6485              		.thumb_func
 6486              		.fpu softvfp
 6488              	app_setup_handler:
 6489              	.LFB175:
1839:../app/app.c  **** 
1840:../app/app.c  **** /************************************************************************
1841:../app/app.c  **** * function name: app_setup_handler
1842:../app/app.c  **** * input: non
1843:../app/app.c  **** * output: non
1844:../app/app.c  **** * description: object thread
1845:../app/app.c  **** *************************************************************************/
1846:../app/app.c  **** void app_setup_handler(void)
1847:../app/app.c  **** {
 6490              		.loc 1 1847 1
 6491              		.cfi_startproc
 6492              		@ args = 0, pretend = 0, frame = 0
 6493              		@ frame_needed = 1, uses_anonymous_args = 0
 6494 0000 80B5     		push	{r7, lr}
 6495              		.cfi_def_cfa_offset 8
 6496              		.cfi_offset 7, -8
 6497              		.cfi_offset 14, -4
 6498 0002 00AF     		add	r7, sp, #0
 6499              		.cfi_def_cfa_register 7
1848:../app/app.c  **** 	switch(app_task_substep)
 6500              		.loc 1 1848 2
 6501 0004 5C4B     		ldr	r3, .L614
 6502 0006 1B78     		ldrb	r3, [r3]	@ zero_extendqisi2
 6503 0008 072B     		cmp	r3, #7
 6504 000a 00F2B280 		bhi	.L613
 6505 000e 01A2     		adr	r2, .L594
 6506 0010 52F823F0 		ldr	pc, [r2, r3, lsl #2]
 6507              		.p2align 2
 6508              	.L594:
 6509 0014 35000000 		.word	.L601+1
 6510 0018 65000000 		.word	.L600+1
 6511 001c 7F000000 		.word	.L599+1
 6512 0020 BB000000 		.word	.L598+1
 6513 0024 D5000000 		.word	.L597+1
 6514 0028 17010000 		.word	.L596+1
 6515 002c 31010000 		.word	.L595+1
 6516 0030 61010000 		.word	.L593+1
 6517              		.p2align 1
 6518              	.L601:
1849:../app/app.c  **** 	{
1850:../app/app.c  **** 		case SETUP_INIT_STATE:
1851:../app/app.c  **** 			if (MOTOR_STATE_STOPED == dc_motor_GetState()){
 6519              		.loc 1 1851 30
 6520 0034 FFF7FEFF 		bl	dc_motor_GetState
 6521 0038 0346     		mov	r3, r0
 6522              		.loc 1 1851 7
 6523 003a 002B     		cmp	r3, #0
 6524 003c 0ED1     		bne	.L602
1852:../app/app.c  **** 				key_prohibit_setup(KEY_ONOFF_MASK, TRUE);
 6525              		.loc 1 1852 5
 6526 003e 0121     		movs	r1, #1
 6527 0040 0120     		movs	r0, #1
 6528 0042 FFF7FEFF 		bl	key_prohibit_setup
1853:../app/app.c  **** 				app_task_substep = SETUP_ENTER_STATE;
 6529              		.loc 1 1853 22
 6530 0046 4C4B     		ldr	r3, .L614
 6531 0048 0122     		movs	r2, #1
 6532 004a 1A70     		strb	r2, [r3]
1854:../app/app.c  **** 				if (FAIL == app_motor_ready()){
 6533              		.loc 1 1854 17
 6534 004c FFF7FEFF 		bl	app_motor_ready
 6535 0050 0346     		mov	r3, r0
 6536              		.loc 1 1854 8
 6537 0052 002B     		cmp	r3, #0
 6538 0054 02D1     		bne	.L602
1855:../app/app.c  **** 					app_task_substep = SETUP_RIGHT_READY_STATE;
 6539              		.loc 1 1855 23
 6540 0056 484B     		ldr	r3, .L614
 6541 0058 0322     		movs	r2, #3
 6542 005a 1A70     		strb	r2, [r3]
 6543              	.L602:
1856:../app/app.c  **** 				}
1857:../app/app.c  **** 			}
1858:../app/app.c  **** 			osal_lyh_delay_task(Ms_100);
 6544              		.loc 1 1858 4
 6545 005c 6420     		movs	r0, #100
 6546 005e FFF7FEFF 		bl	osal_lyh_delay_task
1859:../app/app.c  **** 			break;
 6547              		.loc 1 1859 4
 6548 0062 87E0     		b	.L603
 6549              	.L600:
1860:../app/app.c  **** 		case SETUP_ENTER_STATE:
1861:../app/app.c  **** 			dc_motor_Start(MOTOR_RIGHT);
 6550              		.loc 1 1861 4
 6551 0064 0120     		movs	r0, #1
 6552 0066 FFF7FEFF 		bl	dc_motor_Start
1862:../app/app.c  **** 			osal_lyh_delay_task(Ms_100);
 6553              		.loc 1 1862 4
 6554 006a 6420     		movs	r0, #100
 6555 006c FFF7FEFF 		bl	osal_lyh_delay_task
1863:../app/app.c  **** 			run_max_time = RIGHT_TIMER(Ms_1000, Ms_100);
 6556              		.loc 1 1863 17
 6557 0070 424B     		ldr	r3, .L614+4
 6558 0072 0A22     		movs	r2, #10
 6559 0074 1A80     		strh	r2, [r3]	@ movhi
1864:../app/app.c  **** 			app_task_substep = SETUP_ENTER_ING_STATE;
 6560              		.loc 1 1864 21
 6561 0076 404B     		ldr	r3, .L614
 6562 0078 0222     		movs	r2, #2
 6563 007a 1A70     		strb	r2, [r3]
1865:../app/app.c  **** 			break;
 6564              		.loc 1 1865 4
 6565 007c 7AE0     		b	.L603
 6566              	.L599:
1866:../app/app.c  **** 		case SETUP_ENTER_ING_STATE:
1867:../app/app.c  **** 			if ((FAIL == app_motor_ready())
 6567              		.loc 1 1867 17
 6568 007e FFF7FEFF 		bl	app_motor_ready
 6569 0082 0346     		mov	r3, r0
 6570              		.loc 1 1867 7
 6571 0084 002B     		cmp	r3, #0
 6572 0086 09D0     		beq	.L604
1868:../app/app.c  **** 				|| (--run_max_time == 0)){
 6573              		.loc 1 1868 9
 6574 0088 3C4B     		ldr	r3, .L614+4
 6575 008a 1B88     		ldrh	r3, [r3]
 6576 008c 013B     		subs	r3, r3, #1
 6577 008e 9AB2     		uxth	r2, r3
 6578              		.loc 1 1868 5
 6579 0090 3A4B     		ldr	r3, .L614+4
 6580 0092 1A80     		strh	r2, [r3]	@ movhi
 6581              		.loc 1 1868 9
 6582 0094 394B     		ldr	r3, .L614+4
 6583 0096 1B88     		ldrh	r3, [r3]
 6584              		.loc 1 1868 5
 6585 0098 002B     		cmp	r3, #0
 6586 009a 0AD1     		bne	.L605
 6587              	.L604:
1869:../app/app.c  **** 				dc_motor_Stop();
 6588              		.loc 1 1869 5
 6589 009c FFF7FEFF 		bl	dc_motor_Stop
1870:../app/app.c  **** 				app_task_substep = run_max_time? SETUP_RIGHT_READY_STATE:SETUP_LEFT_READY_STATE;
 6590              		.loc 1 1870 36
 6591 00a0 364B     		ldr	r3, .L614+4
 6592 00a2 1B88     		ldrh	r3, [r3]
 6593              		.loc 1 1870 22
 6594 00a4 002B     		cmp	r3, #0
 6595 00a6 01D0     		beq	.L606
 6596              		.loc 1 1870 22 is_stmt 0 discriminator 1
 6597 00a8 0322     		movs	r2, #3
 6598 00aa 00E0     		b	.L607
 6599              	.L606:
 6600              		.loc 1 1870 22 discriminator 2
 6601 00ac 0522     		movs	r2, #5
 6602              	.L607:
 6603              		.loc 1 1870 22 discriminator 4
 6604 00ae 324B     		ldr	r3, .L614
 6605 00b0 1A70     		strb	r2, [r3]
 6606              	.L605:
1871:../app/app.c  **** 			}
1872:../app/app.c  **** 			osal_lyh_delay_task(Ms_100);
 6607              		.loc 1 1872 4 is_stmt 1
 6608 00b2 6420     		movs	r0, #100
 6609 00b4 FFF7FEFF 		bl	osal_lyh_delay_task
1873:../app/app.c  **** 			break;
 6610              		.loc 1 1873 4
 6611 00b8 5CE0     		b	.L603
 6612              	.L598:
1874:../app/app.c  **** 		case SETUP_RIGHT_READY_STATE:
1875:../app/app.c  **** 			dc_motor_Start(MOTOR_RIGHT);
 6613              		.loc 1 1875 4
 6614 00ba 0120     		movs	r0, #1
 6615 00bc FFF7FEFF 		bl	dc_motor_Start
1876:../app/app.c  **** 			osal_lyh_delay_task(Ms_100);
 6616              		.loc 1 1876 4
 6617 00c0 6420     		movs	r0, #100
 6618 00c2 FFF7FEFF 		bl	osal_lyh_delay_task
1877:../app/app.c  **** 			app_task_substep = SETUP_RIGHT_ING_STATE;
 6619              		.loc 1 1877 21
 6620 00c6 2C4B     		ldr	r3, .L614
 6621 00c8 0422     		movs	r2, #4
 6622 00ca 1A70     		strb	r2, [r3]
1878:../app/app.c  **** 			run_max_time = RIGHT_TIMER(Ms_6000, Ms_100);
 6623              		.loc 1 1878 17
 6624 00cc 2B4B     		ldr	r3, .L614+4
 6625 00ce 3C22     		movs	r2, #60
 6626 00d0 1A80     		strh	r2, [r3]	@ movhi
1879:../app/app.c  **** 			break;
 6627              		.loc 1 1879 4
 6628 00d2 4FE0     		b	.L603
 6629              	.L597:
1880:../app/app.c  **** 		case SETUP_RIGHT_ING_STATE:
1881:../app/app.c  **** 			if ((MOTOR_STATE_STOPED == dc_motor_GetState())
 6630              		.loc 1 1881 31
 6631 00d4 FFF7FEFF 		bl	dc_motor_GetState
 6632 00d8 0346     		mov	r3, r0
 6633              		.loc 1 1881 7
 6634 00da 002B     		cmp	r3, #0
 6635 00dc 0ED0     		beq	.L608
1882:../app/app.c  **** 				|| (TRUE == app_motor_ready())
 6636              		.loc 1 1882 17
 6637 00de FFF7FEFF 		bl	app_motor_ready
 6638 00e2 0346     		mov	r3, r0
 6639              		.loc 1 1882 5
 6640 00e4 012B     		cmp	r3, #1
 6641 00e6 09D0     		beq	.L608
1883:../app/app.c  **** 				|| (--run_max_time == 0)){
 6642              		.loc 1 1883 9
 6643 00e8 244B     		ldr	r3, .L614+4
 6644 00ea 1B88     		ldrh	r3, [r3]
 6645 00ec 013B     		subs	r3, r3, #1
 6646 00ee 9AB2     		uxth	r2, r3
 6647              		.loc 1 1883 5
 6648 00f0 224B     		ldr	r3, .L614+4
 6649 00f2 1A80     		strh	r2, [r3]	@ movhi
 6650              		.loc 1 1883 9
 6651 00f4 214B     		ldr	r3, .L614+4
 6652 00f6 1B88     		ldrh	r3, [r3]
 6653              		.loc 1 1883 5
 6654 00f8 002B     		cmp	r3, #0
 6655 00fa 08D1     		bne	.L609
 6656              	.L608:
1884:../app/app.c  **** 				dc_motor_Stop();
 6657              		.loc 1 1884 5
 6658 00fc FFF7FEFF 		bl	dc_motor_Stop
1885:../app/app.c  **** 				osal_lyh_delay_task(Ms_200);
 6659              		.loc 1 1885 5
 6660 0100 C820     		movs	r0, #200
 6661 0102 FFF7FEFF 		bl	osal_lyh_delay_task
1886:../app/app.c  **** 				app_task_substep = SETUP_LEFT_READY_STATE;
 6662              		.loc 1 1886 22
 6663 0106 1C4B     		ldr	r3, .L614
 6664 0108 0522     		movs	r2, #5
 6665 010a 1A70     		strb	r2, [r3]
1887:../app/app.c  **** 			}
1888:../app/app.c  **** 			else {
1889:../app/app.c  **** 				osal_lyh_delay_task(Ms_100);
1890:../app/app.c  **** 			}
1891:../app/app.c  **** 			break;
 6666              		.loc 1 1891 4
 6667 010c 32E0     		b	.L603
 6668              	.L609:
1889:../app/app.c  **** 			}
 6669              		.loc 1 1889 5
 6670 010e 6420     		movs	r0, #100
 6671 0110 FFF7FEFF 		bl	osal_lyh_delay_task
 6672              		.loc 1 1891 4
 6673 0114 2EE0     		b	.L603
 6674              	.L596:
1892:../app/app.c  **** 		case SETUP_LEFT_READY_STATE:
1893:../app/app.c  **** 			dc_motor_Start(MOTOR_LEFT);
 6675              		.loc 1 1893 4
 6676 0116 0220     		movs	r0, #2
 6677 0118 FFF7FEFF 		bl	dc_motor_Start
1894:../app/app.c  **** 			osal_lyh_delay_task(Ms_100);
 6678              		.loc 1 1894 4
 6679 011c 6420     		movs	r0, #100
 6680 011e FFF7FEFF 		bl	osal_lyh_delay_task
1895:../app/app.c  **** 			run_max_time = LEFT_TIMER(MOTOR_FIX_TIME, Ms_100);
 6681              		.loc 1 1895 17
 6682 0122 164B     		ldr	r3, .L614+4
 6683 0124 0322     		movs	r2, #3
 6684 0126 1A80     		strh	r2, [r3]	@ movhi
1896:../app/app.c  **** 			app_task_substep = SETUP_LEFT_ING_STATE;
 6685              		.loc 1 1896 21
 6686 0128 134B     		ldr	r3, .L614
 6687 012a 0622     		movs	r2, #6
 6688 012c 1A70     		strb	r2, [r3]
1897:../app/app.c  **** 			break;
 6689              		.loc 1 1897 4
 6690 012e 21E0     		b	.L603
 6691              	.L595:
1898:../app/app.c  **** 		case SETUP_LEFT_ING_STATE:
1899:../app/app.c  **** 			if (1/*(FAIL == app_motor_ready())*/	// deleting point,(temp to cancel) 
1900:../app/app.c  **** 				&& ((MOTOR_STATE_STOPED == dc_motor_GetState())
 6692              		.loc 1 1900 32
 6693 0130 FFF7FEFF 		bl	dc_motor_GetState
 6694 0134 0346     		mov	r3, r0
1899:../app/app.c  **** 				&& ((MOTOR_STATE_STOPED == dc_motor_GetState())
 6695              		.loc 1 1899 7
 6696 0136 002B     		cmp	r3, #0
 6697 0138 09D0     		beq	.L611
1901:../app/app.c  **** 				|| (--run_max_time == 0))){
 6698              		.loc 1 1901 9
 6699 013a 104B     		ldr	r3, .L614+4
 6700 013c 1B88     		ldrh	r3, [r3]
 6701 013e 013B     		subs	r3, r3, #1
 6702 0140 9AB2     		uxth	r2, r3
1900:../app/app.c  **** 				|| (--run_max_time == 0))){
 6703              		.loc 1 1900 5
 6704 0142 0E4B     		ldr	r3, .L614+4
 6705 0144 1A80     		strh	r2, [r3]	@ movhi
 6706              		.loc 1 1901 9
 6707 0146 0D4B     		ldr	r3, .L614+4
 6708 0148 1B88     		ldrh	r3, [r3]
1900:../app/app.c  **** 				|| (--run_max_time == 0))){
 6709              		.loc 1 1900 5
 6710 014a 002B     		cmp	r3, #0
 6711 014c 04D1     		bne	.L612
 6712              	.L611:
1902:../app/app.c  **** 				dc_motor_Stop();
 6713              		.loc 1 1902 5
 6714 014e FFF7FEFF 		bl	dc_motor_Stop
1903:../app/app.c  **** 				app_task_substep = SETUP_COMPLETE_STATE;
 6715              		.loc 1 1903 22
 6716 0152 094B     		ldr	r3, .L614
 6717 0154 0722     		movs	r2, #7
 6718 0156 1A70     		strb	r2, [r3]
 6719              	.L612:
1904:../app/app.c  **** 			}
1905:../app/app.c  **** 			osal_lyh_delay_task(Ms_100);
 6720              		.loc 1 1905 4
 6721 0158 6420     		movs	r0, #100
 6722 015a FFF7FEFF 		bl	osal_lyh_delay_task
1906:../app/app.c  **** 			break;
 6723              		.loc 1 1906 4
 6724 015e 09E0     		b	.L603
 6725              	.L593:
1907:../app/app.c  **** 		case SETUP_COMPLETE_STATE:
1908:../app/app.c  **** 			key_prohibit_setup(KEY_ONOFF_MASK, FAIL);
 6726              		.loc 1 1908 4
 6727 0160 0021     		movs	r1, #0
 6728 0162 0120     		movs	r0, #1
 6729 0164 FFF7FEFF 		bl	key_prohibit_setup
1909:../app/app.c  **** 			app_task_nextstep(APP_IDLE_STATE, IDLE_INIT_STATE);
 6730              		.loc 1 1909 4
 6731 0168 0021     		movs	r1, #0
 6732 016a 0120     		movs	r0, #1
 6733 016c FFF7FEFF 		bl	app_task_nextstep
1910:../app/app.c  **** 			break;
 6734              		.loc 1 1910 4
 6735 0170 00E0     		b	.L603
 6736              	.L613:
1911:../app/app.c  **** 		default:
1912:../app/app.c  **** 			break;
 6737              		.loc 1 1912 4
 6738 0172 00BF     		nop
 6739              	.L603:
1913:../app/app.c  **** 	}
1914:../app/app.c  **** }
 6740              		.loc 1 1914 1
 6741 0174 00BF     		nop
 6742 0176 80BD     		pop	{r7, pc}
 6743              	.L615:
 6744              		.align	2
 6745              	.L614:
 6746 0178 00000000 		.word	app_task_substep
 6747 017c 00000000 		.word	run_max_time
 6748              		.cfi_endproc
 6749              	.LFE175:
 6751              		.section	.text.app_running_onoff_grind_handler,"ax",%progbits
 6752              		.align	1
 6753              		.global	app_running_onoff_grind_handler
 6754              		.syntax unified
 6755              		.thumb
 6756              		.thumb_func
 6757              		.fpu softvfp
 6759              	app_running_onoff_grind_handler:
 6760              	.LFB176:
1915:../app/app.c  **** 
1916:../app/app.c  **** 
1917:../app/app.c  **** /**************************************************************************
1918:../app/app.c  ****  * @brief Õ£©ńĀöńŻ©ńŖČµĆüõĖŗµīēõĖŗON/OFFķö«ńÜäÕżäńÉåÕćĮµĢ░
1919:../app/app.c  ****  * @return TRUE’╝ÜµĄüń©ŗń╗ōµØ¤’╝īĶÉāÕÅ¢ńöĄµ£║Õżäõ║ÄÕÄ¤õĮŹ’╝ī FAIL’╝ÜµĄüń©ŗµē¦ĶĪīõĖŁ
1920:../app/app.c  ****  * @note Ķ»źÕćĮµĢ░Õ£©espresso, americanońÜäńĀöńŻ©ńŖČµĆüõĖŗµīēõĖŗON/OFFķö«µŚČĶó½Ķ░āńö©
1921:../app/app.c  ****  *************************************************************************/
1922:../app/app.c  **** uint8_t app_running_onoff_grind_handler(void)
1923:../app/app.c  **** {
 6761              		.loc 1 1923 1
 6762              		.cfi_startproc
 6763              		@ args = 0, pretend = 0, frame = 0
 6764              		@ frame_needed = 1, uses_anonymous_args = 0
 6765 0000 80B5     		push	{r7, lr}
 6766              		.cfi_def_cfa_offset 8
 6767              		.cfi_offset 7, -8
 6768              		.cfi_offset 14, -4
 6769 0002 00AF     		add	r7, sp, #0
 6770              		.cfi_def_cfa_register 7
1924:../app/app.c  **** 	static uint8_t sta = 0;
1925:../app/app.c  **** 	switch (sta)
 6771              		.loc 1 1925 2
 6772 0004 694B     		ldr	r3, .L641
 6773 0006 1B78     		ldrb	r3, [r3]	@ zero_extendqisi2
 6774 0008 0A2B     		cmp	r3, #10
 6775 000a 00F2CB80 		bhi	.L640
 6776 000e 01A2     		adr	r2, .L619
 6777 0010 52F823F0 		ldr	pc, [r2, r3, lsl #2]
 6778              		.p2align 2
 6779              	.L619:
 6780 0014 41000000 		.word	.L629+1
 6781 0018 57000000 		.word	.L628+1
 6782 001c 71000000 		.word	.L627+1
 6783 0020 AD000000 		.word	.L626+1
 6784 0024 C3000000 		.word	.L625+1
 6785 0028 D7000000 		.word	.L624+1
 6786 002c ED000000 		.word	.L623+1
 6787 0030 01010000 		.word	.L622+1
 6788 0034 1B010000 		.word	.L621+1
 6789 0038 57010000 		.word	.L620+1
 6790 003c 71010000 		.word	.L618+1
 6791              		.p2align 1
 6792              	.L629:
1926:../app/app.c  **** 	{
1927:../app/app.c  **** 		/* Õü£µŁóńĀöńŻ©ŃĆüĶÉāÕÅ¢ńöĄµ£║ */
1928:../app/app.c  **** 		case 0:									
1929:../app/app.c  **** 			ac_grind_stop();
 6793              		.loc 1 1929 4
 6794 0040 FFF7FEFF 		bl	ac_grind_stop
1930:../app/app.c  **** 			dc_motor_Stop();
 6795              		.loc 1 1930 4
 6796 0044 FFF7FEFF 		bl	dc_motor_Stop
1931:../app/app.c  **** 			osal_lyh_delay_task(Ms_100);
 6797              		.loc 1 1931 4
 6798 0048 6420     		movs	r0, #100
 6799 004a FFF7FEFF 		bl	osal_lyh_delay_task
1932:../app/app.c  **** 			sta = 1;
 6800              		.loc 1 1932 8
 6801 004e 574B     		ldr	r3, .L641
 6802 0050 0122     		movs	r2, #1
 6803 0052 1A70     		strb	r2, [r3]
1933:../app/app.c  **** 			break;
 6804              		.loc 1 1933 4
 6805 0054 A7E0     		b	.L630
 6806              	.L628:
1934:../app/app.c  **** 		/* ĶÉāÕÅ¢ńöĄµ£║ĶĮ¼Õł░µÄźµ░┤õĮŹńĮ« */
1935:../app/app.c  **** 		case 1:										
1936:../app/app.c  **** 			dc_motor_Start(MOTOR_LEFT);		
 6807              		.loc 1 1936 4
 6808 0056 0220     		movs	r0, #2
 6809 0058 FFF7FEFF 		bl	dc_motor_Start
1937:../app/app.c  **** 			osal_lyh_delay_task(Ms_100);
 6810              		.loc 1 1937 4
 6811 005c 6420     		movs	r0, #100
 6812 005e FFF7FEFF 		bl	osal_lyh_delay_task
1938:../app/app.c  **** 			run_max_time = LEFT_TIMER(Ms_7000, Ms_100);
 6813              		.loc 1 1938 17
 6814 0062 534B     		ldr	r3, .L641+4
 6815 0064 4622     		movs	r2, #70
 6816 0066 1A80     		strh	r2, [r3]	@ movhi
1939:../app/app.c  **** 			sta = 2;
 6817              		.loc 1 1939 8
 6818 0068 504B     		ldr	r3, .L641
 6819 006a 0222     		movs	r2, #2
 6820 006c 1A70     		strb	r2, [r3]
1940:../app/app.c  **** 			break;
 6821              		.loc 1 1940 4
 6822 006e 9AE0     		b	.L630
 6823              	.L627:
1941:../app/app.c  **** 		/* Õłżµ¢ŁĶÉāÕÅ¢ńöĄµ£║µś»ÕÉ”Õł░µÄźµ░┤õĮŹńĮ« */
1942:../app/app.c  **** 		case 2:										
1943:../app/app.c  **** 			if ((MOTOR_STATE_STOPED ==dc_motor_GetState())
 6824              		.loc 1 1943 30
 6825 0070 FFF7FEFF 		bl	dc_motor_GetState
 6826 0074 0346     		mov	r3, r0
 6827              		.loc 1 1943 7
 6828 0076 002B     		cmp	r3, #0
 6829 0078 0ED0     		beq	.L631
1944:../app/app.c  **** 				|| (TRUE == app_motor_ready())
 6830              		.loc 1 1944 17
 6831 007a FFF7FEFF 		bl	app_motor_ready
 6832 007e 0346     		mov	r3, r0
 6833              		.loc 1 1944 5
 6834 0080 012B     		cmp	r3, #1
 6835 0082 09D0     		beq	.L631
1945:../app/app.c  **** 				|| (--run_max_time == 0)){
 6836              		.loc 1 1945 9
 6837 0084 4A4B     		ldr	r3, .L641+4
 6838 0086 1B88     		ldrh	r3, [r3]
 6839 0088 013B     		subs	r3, r3, #1
 6840 008a 9AB2     		uxth	r2, r3
 6841              		.loc 1 1945 5
 6842 008c 484B     		ldr	r3, .L641+4
 6843 008e 1A80     		strh	r2, [r3]	@ movhi
 6844              		.loc 1 1945 9
 6845 0090 474B     		ldr	r3, .L641+4
 6846 0092 1B88     		ldrh	r3, [r3]
 6847              		.loc 1 1945 5
 6848 0094 002B     		cmp	r3, #0
 6849 0096 05D1     		bne	.L632
 6850              	.L631:
1946:../app/app.c  **** 				dc_motor_Stop();
 6851              		.loc 1 1946 5
 6852 0098 FFF7FEFF 		bl	dc_motor_Stop
1947:../app/app.c  **** 				sta = 3;
 6853              		.loc 1 1947 9
 6854 009c 434B     		ldr	r3, .L641
 6855 009e 0322     		movs	r2, #3
 6856 00a0 1A70     		strb	r2, [r3]
1948:../app/app.c  **** 			}
1949:../app/app.c  **** 			else {
1950:../app/app.c  **** 				osal_lyh_delay_task(Ms_100);
1951:../app/app.c  **** 			}			
1952:../app/app.c  **** 			break;
 6857              		.loc 1 1952 4
 6858 00a2 80E0     		b	.L630
 6859              	.L632:
1950:../app/app.c  **** 			}			
 6860              		.loc 1 1950 5
 6861 00a4 6420     		movs	r0, #100
 6862 00a6 FFF7FEFF 		bl	osal_lyh_delay_task
 6863              		.loc 1 1952 4
 6864 00aa 7CE0     		b	.L630
 6865              	.L626:
1953:../app/app.c  **** 		/* Õ╝ĆÕ¦ŗµŖĮµ░┤’╝łń¤ŁµŚČķŚ┤’╝ē */
1954:../app/app.c  **** 		case 3:										
1955:../app/app.c  **** 			ac_pumb_start(CONTINUE_MODE);
 6866              		.loc 1 1955 4
 6867 00ac 0020     		movs	r0, #0
 6868 00ae FFF7FEFF 		bl	ac_pumb_start
1956:../app/app.c  **** 			osal_lyh_delay_task(Ms_2000 - Ms_100);	//µŁżÕżäµŚČķŚ┤ķ£ĆĶ”üµĀ╣µŹ«Õ«×ķÖģµāģÕåĄµĢ┤µö╣
 6869              		.loc 1 1956 4
 6870 00b2 40F26C70 		movw	r0, #1900
 6871 00b6 FFF7FEFF 		bl	osal_lyh_delay_task
1957:../app/app.c  **** 			sta = 4;
 6872              		.loc 1 1957 8
 6873 00ba 3C4B     		ldr	r3, .L641
 6874 00bc 0422     		movs	r2, #4
 6875 00be 1A70     		strb	r2, [r3]
1958:../app/app.c  **** 			break;
 6876              		.loc 1 1958 4
 6877 00c0 71E0     		b	.L630
 6878              	.L625:
1959:../app/app.c  **** 		/* Õü£µŁóµŖĮµ░┤ */
1960:../app/app.c  **** 		case 4:										
1961:../app/app.c  **** 			ac_pumb_stop();
 6879              		.loc 1 1961 4
 6880 00c2 FFF7FEFF 		bl	ac_pumb_stop
1962:../app/app.c  **** 			osal_lyh_delay_task(Ms_4000);	//µŁżÕżäµŚČķŚ┤ķ£ĆĶ”üµĀ╣µŹ«Õ«×ķÖģµāģÕåĄµĢ┤µö╣
 6881              		.loc 1 1962 4
 6882 00c6 4FF47A60 		mov	r0, #4000
 6883 00ca FFF7FEFF 		bl	osal_lyh_delay_task
1963:../app/app.c  **** 			sta = 5;
 6884              		.loc 1 1963 8
 6885 00ce 374B     		ldr	r3, .L641
 6886 00d0 0522     		movs	r2, #5
 6887 00d2 1A70     		strb	r2, [r3]
1964:../app/app.c  **** 			break;
 6888              		.loc 1 1964 4
 6889 00d4 67E0     		b	.L630
 6890              	.L624:
1965:../app/app.c  **** 		/* ĶÉāÕÅ¢ńöĄµ£║ĶĮ¼Õł░ÕĆÆń▓ēõĮŹńĮ« */
1966:../app/app.c  **** 		case 5:										
1967:../app/app.c  **** 			dc_motor_Start(MOTOR_RIGHT);
 6891              		.loc 1 1967 4
 6892 00d6 0120     		movs	r0, #1
 6893 00d8 FFF7FEFF 		bl	dc_motor_Start
1968:../app/app.c  **** 			osal_lyh_delay_task(Ms_3000 - Ms_100);
 6894              		.loc 1 1968 4
 6895 00dc 40F65430 		movw	r0, #2900
 6896 00e0 FFF7FEFF 		bl	osal_lyh_delay_task
1969:../app/app.c  **** 			sta = 6;
 6897              		.loc 1 1969 8
 6898 00e4 314B     		ldr	r3, .L641
 6899 00e6 0622     		movs	r2, #6
 6900 00e8 1A70     		strb	r2, [r3]
1970:../app/app.c  **** 			break;
 6901              		.loc 1 1970 4
 6902 00ea 5CE0     		b	.L630
 6903              	.L623:
1971:../app/app.c  **** 		/* ĶÉāÕÅ¢ńöĄµ£║Õü£µŁó’╝īÕĆÆÕć║ÕÆ¢ÕĢĪń▓ē */
1972:../app/app.c  **** 		case 6:									
1973:../app/app.c  **** 			dc_motor_Stop();
 6904              		.loc 1 1973 4
 6905 00ec FFF7FEFF 		bl	dc_motor_Stop
1974:../app/app.c  **** 			osal_lyh_delay_task(Ms_3000);
 6906              		.loc 1 1974 4
 6907 00f0 40F6B830 		movw	r0, #3000
 6908 00f4 FFF7FEFF 		bl	osal_lyh_delay_task
1975:../app/app.c  **** 			sta = 7;
 6909              		.loc 1 1975 8
 6910 00f8 2C4B     		ldr	r3, .L641
 6911 00fa 0722     		movs	r2, #7
 6912 00fc 1A70     		strb	r2, [r3]
1976:../app/app.c  **** 			break;
 6913              		.loc 1 1976 4
 6914 00fe 52E0     		b	.L630
 6915              	.L622:
1977:../app/app.c  **** 		/* ĶÉāÕÅ¢ńöĄµ£║Õø×Õł░ÕÄ¤õĮŹ */
1978:../app/app.c  **** 		case 7:										
1979:../app/app.c  **** 			dc_motor_Start(MOTOR_RIGHT);
 6916              		.loc 1 1979 4
 6917 0100 0120     		movs	r0, #1
 6918 0102 FFF7FEFF 		bl	dc_motor_Start
1980:../app/app.c  **** 			osal_lyh_delay_task(Ms_100);
 6919              		.loc 1 1980 4
 6920 0106 6420     		movs	r0, #100
 6921 0108 FFF7FEFF 		bl	osal_lyh_delay_task
1981:../app/app.c  **** 			run_max_time = RIGHT_TIMER(Ms_5000, Ms_100);
 6922              		.loc 1 1981 17
 6923 010c 284B     		ldr	r3, .L641+4
 6924 010e 3222     		movs	r2, #50
 6925 0110 1A80     		strh	r2, [r3]	@ movhi
1982:../app/app.c  **** 			sta = 8;
 6926              		.loc 1 1982 8
 6927 0112 264B     		ldr	r3, .L641
 6928 0114 0822     		movs	r2, #8
 6929 0116 1A70     		strb	r2, [r3]
1983:../app/app.c  **** 			break;
 6930              		.loc 1 1983 4
 6931 0118 45E0     		b	.L630
 6932              	.L621:
1984:../app/app.c  **** 		/* Õłżµ¢ŁĶÉāÕÅ¢ńöĄµ£║µś»ÕÉ”Õł░ÕÄ¤õĮŹÕ╝ĆÕģ│ */
1985:../app/app.c  **** 		case 8:									
1986:../app/app.c  **** 			if ((MOTOR_STATE_STOPED ==dc_motor_GetState())	
 6933              		.loc 1 1986 30
 6934 011a FFF7FEFF 		bl	dc_motor_GetState
 6935 011e 0346     		mov	r3, r0
 6936              		.loc 1 1986 7
 6937 0120 002B     		cmp	r3, #0
 6938 0122 0ED0     		beq	.L634
1987:../app/app.c  **** 				|| (TRUE == app_motor_ready())
 6939              		.loc 1 1987 17
 6940 0124 FFF7FEFF 		bl	app_motor_ready
 6941 0128 0346     		mov	r3, r0
 6942              		.loc 1 1987 5
 6943 012a 012B     		cmp	r3, #1
 6944 012c 09D0     		beq	.L634
1988:../app/app.c  **** 				|| (--run_max_time == 0)){
 6945              		.loc 1 1988 9
 6946 012e 204B     		ldr	r3, .L641+4
 6947 0130 1B88     		ldrh	r3, [r3]
 6948 0132 013B     		subs	r3, r3, #1
 6949 0134 9AB2     		uxth	r2, r3
 6950              		.loc 1 1988 5
 6951 0136 1E4B     		ldr	r3, .L641+4
 6952 0138 1A80     		strh	r2, [r3]	@ movhi
 6953              		.loc 1 1988 9
 6954 013a 1D4B     		ldr	r3, .L641+4
 6955 013c 1B88     		ldrh	r3, [r3]
 6956              		.loc 1 1988 5
 6957 013e 002B     		cmp	r3, #0
 6958 0140 05D1     		bne	.L635
 6959              	.L634:
1989:../app/app.c  **** 				dc_motor_Stop();
 6960              		.loc 1 1989 5
 6961 0142 FFF7FEFF 		bl	dc_motor_Stop
1990:../app/app.c  **** 				sta = 9;
 6962              		.loc 1 1990 9
 6963 0146 194B     		ldr	r3, .L641
 6964 0148 0922     		movs	r2, #9
 6965 014a 1A70     		strb	r2, [r3]
1991:../app/app.c  **** 			}
1992:../app/app.c  **** 			else {
1993:../app/app.c  **** 				osal_lyh_delay_task(Ms_100);
1994:../app/app.c  **** 			}
1995:../app/app.c  **** 			break;
 6966              		.loc 1 1995 4
 6967 014c 2BE0     		b	.L630
 6968              	.L635:
1993:../app/app.c  **** 			}
 6969              		.loc 1 1993 5
 6970 014e 6420     		movs	r0, #100
 6971 0150 FFF7FEFF 		bl	osal_lyh_delay_task
 6972              		.loc 1 1995 4
 6973 0154 27E0     		b	.L630
 6974              	.L620:
1996:../app/app.c  **** 		/* ĶÉāÕÅ¢ńöĄµ£║Õø×ĶĮ¼Õł░ÕÄ¤õĮŹ */
1997:../app/app.c  **** 		case 9:									
1998:../app/app.c  **** 			dc_motor_Start(MOTOR_LEFT);
 6975              		.loc 1 1998 4
 6976 0156 0220     		movs	r0, #2
 6977 0158 FFF7FEFF 		bl	dc_motor_Start
1999:../app/app.c  **** 			osal_lyh_delay_task(Ms_100);
 6978              		.loc 1 1999 4
 6979 015c 6420     		movs	r0, #100
 6980 015e FFF7FEFF 		bl	osal_lyh_delay_task
2000:../app/app.c  **** 			run_max_time = LEFT_TIMER(MOTOR_FIX_TIME, Ms_100);
 6981              		.loc 1 2000 17
 6982 0162 134B     		ldr	r3, .L641+4
 6983 0164 0322     		movs	r2, #3
 6984 0166 1A80     		strh	r2, [r3]	@ movhi
2001:../app/app.c  **** 			sta = 10;
 6985              		.loc 1 2001 8
 6986 0168 104B     		ldr	r3, .L641
 6987 016a 0A22     		movs	r2, #10
 6988 016c 1A70     		strb	r2, [r3]
2002:../app/app.c  **** 			break;
 6989              		.loc 1 2002 4
 6990 016e 1AE0     		b	.L630
 6991              	.L618:
2003:../app/app.c  **** 		/* Õłżµ¢ŁĶÉāÕÅ¢ńöĄµ£║Õø×ĶĮ¼µś»ÕÉ”Õ«īµłÉ */
2004:../app/app.c  **** 		case 10:									
2005:../app/app.c  **** 			if (1/*(FAIL == app_motor_ready())*/	// deleting point,(temp to cancel) 
2006:../app/app.c  **** 				&& ((MOTOR_STATE_STOPED ==dc_motor_GetState())
 6992              		.loc 1 2006 31
 6993 0170 FFF7FEFF 		bl	dc_motor_GetState
 6994 0174 0346     		mov	r3, r0
2005:../app/app.c  **** 				&& ((MOTOR_STATE_STOPED ==dc_motor_GetState())
 6995              		.loc 1 2005 7
 6996 0176 002B     		cmp	r3, #0
 6997 0178 09D0     		beq	.L637
2007:../app/app.c  **** 				|| (--run_max_time == 0))){
 6998              		.loc 1 2007 9
 6999 017a 0D4B     		ldr	r3, .L641+4
 7000 017c 1B88     		ldrh	r3, [r3]
 7001 017e 013B     		subs	r3, r3, #1
 7002 0180 9AB2     		uxth	r2, r3
2006:../app/app.c  **** 				|| (--run_max_time == 0))){
 7003              		.loc 1 2006 5
 7004 0182 0B4B     		ldr	r3, .L641+4
 7005 0184 1A80     		strh	r2, [r3]	@ movhi
 7006              		.loc 1 2007 9
 7007 0186 0A4B     		ldr	r3, .L641+4
 7008 0188 1B88     		ldrh	r3, [r3]
2006:../app/app.c  **** 				|| (--run_max_time == 0))){
 7009              		.loc 1 2006 5
 7010 018a 002B     		cmp	r3, #0
 7011 018c 06D1     		bne	.L638
 7012              	.L637:
2008:../app/app.c  **** 				dc_motor_Stop();												
 7013              		.loc 1 2008 5
 7014 018e FFF7FEFF 		bl	dc_motor_Stop
2009:../app/app.c  **** 				sta = 0;
 7015              		.loc 1 2009 9
 7016 0192 064B     		ldr	r3, .L641
 7017 0194 0022     		movs	r2, #0
 7018 0196 1A70     		strb	r2, [r3]
2010:../app/app.c  **** 				return TRUE;
 7019              		.loc 1 2010 12
 7020 0198 0123     		movs	r3, #1
 7021 019a 05E0     		b	.L639
 7022              	.L638:
2011:../app/app.c  **** 			}
2012:../app/app.c  **** 			else {
2013:../app/app.c  **** 				osal_lyh_delay_task(Ms_100);
 7023              		.loc 1 2013 5
 7024 019c 6420     		movs	r0, #100
 7025 019e FFF7FEFF 		bl	osal_lyh_delay_task
2014:../app/app.c  **** 			}
2015:../app/app.c  **** 			break;
 7026              		.loc 1 2015 4
 7027 01a2 00E0     		b	.L630
 7028              	.L640:
2016:../app/app.c  **** 		default:
2017:../app/app.c  **** 			break;
 7029              		.loc 1 2017 4
 7030 01a4 00BF     		nop
 7031              	.L630:
2018:../app/app.c  **** 	}
2019:../app/app.c  **** 	return FAIL;
 7032              		.loc 1 2019 9
 7033 01a6 0023     		movs	r3, #0
 7034              	.L639:
2020:../app/app.c  **** }
 7035              		.loc 1 2020 1
 7036 01a8 1846     		mov	r0, r3
 7037 01aa 80BD     		pop	{r7, pc}
 7038              	.L642:
 7039              		.align	2
 7040              	.L641:
 7041 01ac 00000000 		.word	sta.8845
 7042 01b0 00000000 		.word	run_max_time
 7043              		.cfi_endproc
 7044              	.LFE176:
 7046              		.section	.text.app_running_onoff_go_water_handler,"ax",%progbits
 7047              		.align	1
 7048              		.global	app_running_onoff_go_water_handler
 7049              		.syntax unified
 7050              		.thumb
 7051              		.thumb_func
 7052              		.fpu softvfp
 7054              	app_running_onoff_go_water_handler:
 7055              	.LFB177:
2021:../app/app.c  **** 
2022:../app/app.c  **** /**************************************************************************
2023:../app/app.c  ****  * @brief Õ£©ĶÉāÕÅ¢ńöĄµ£║ÕÄ╗µÄźµ░┤ńŖČµĆüõĖŗµīēõĖŗON/OFFķö«ńÜäÕżäńÉåÕćĮµĢ░
2024:../app/app.c  ****  * @return TRUE’╝ÜµĄüń©ŗń╗ōµØ¤’╝īĶÉāÕÅ¢ńöĄµ£║Õżäõ║ÄÕÄ¤õĮŹ’╝ī FAIL’╝ÜµĄüń©ŗµē¦ĶĪīõĖŁ
2025:../app/app.c  ****  * @note Ķ»źÕćĮµĢ░Õ£©espresso, americanońÜäÕÄ╗µÄźµ░┤ńŖČµĆüõĖŗµīēõĖŗON/OFFķö«µŚČĶó½Ķ░āńö©
2026:../app/app.c  ****  *************************************************************************/
2027:../app/app.c  **** uint8_t app_running_onoff_go_water_handler(void)
2028:../app/app.c  **** {
 7056              		.loc 1 2028 1
 7057              		.cfi_startproc
 7058              		@ args = 0, pretend = 0, frame = 0
 7059              		@ frame_needed = 1, uses_anonymous_args = 0
 7060 0000 80B5     		push	{r7, lr}
 7061              		.cfi_def_cfa_offset 8
 7062              		.cfi_offset 7, -8
 7063              		.cfi_offset 14, -4
 7064 0002 00AF     		add	r7, sp, #0
 7065              		.cfi_def_cfa_register 7
2029:../app/app.c  **** 	static uint8_t sta = 0;
2030:../app/app.c  **** 	switch (sta)
 7066              		.loc 1 2030 2
 7067 0004 694B     		ldr	r3, .L668
 7068 0006 1B78     		ldrb	r3, [r3]	@ zero_extendqisi2
 7069 0008 0A2B     		cmp	r3, #10
 7070 000a 00F2CA80 		bhi	.L667
 7071 000e 01A2     		adr	r2, .L646
 7072 0010 52F823F0 		ldr	pc, [r2, r3, lsl #2]
 7073              		.p2align 2
 7074              	.L646:
 7075 0014 41000000 		.word	.L656+1
 7076 0018 55000000 		.word	.L655+1
 7077 001c 6F000000 		.word	.L654+1
 7078 0020 AB000000 		.word	.L653+1
 7079 0024 C1000000 		.word	.L652+1
 7080 0028 D5000000 		.word	.L651+1
 7081 002c EB000000 		.word	.L650+1
 7082 0030 FF000000 		.word	.L649+1
 7083 0034 19010000 		.word	.L648+1
 7084 0038 55010000 		.word	.L647+1
 7085 003c 6F010000 		.word	.L645+1
 7086              		.p2align 1
 7087              	.L656:
2031:../app/app.c  **** 	{
2032:../app/app.c  **** 		/* Õü£µŁóĶÉāÕÅ¢ńöĄµ£║ */
2033:../app/app.c  **** 		case 0:					
2034:../app/app.c  **** 			dc_motor_Stop();
 7088              		.loc 1 2034 4
 7089 0040 FFF7FEFF 		bl	dc_motor_Stop
2035:../app/app.c  **** 			osal_lyh_delay_task(Ms_300);
 7090              		.loc 1 2035 4
 7091 0044 4FF49670 		mov	r0, #300
 7092 0048 FFF7FEFF 		bl	osal_lyh_delay_task
2036:../app/app.c  **** 			sta = 1;
 7093              		.loc 1 2036 8
 7094 004c 574B     		ldr	r3, .L668
 7095 004e 0122     		movs	r2, #1
 7096 0050 1A70     		strb	r2, [r3]
2037:../app/app.c  **** 			break;
 7097              		.loc 1 2037 4
 7098 0052 A7E0     		b	.L657
 7099              	.L655:
2038:../app/app.c  **** 		/* ĶÉāÕÅ¢ńöĄµ£║ĶĮ¼Õł░µÄźµ░┤õĮŹńĮ« */
2039:../app/app.c  **** 		case 1:										
2040:../app/app.c  **** 			dc_motor_Start(MOTOR_LEFT);		
 7100              		.loc 1 2040 4
 7101 0054 0220     		movs	r0, #2
 7102 0056 FFF7FEFF 		bl	dc_motor_Start
2041:../app/app.c  **** 			osal_lyh_delay_task(Ms_100);
 7103              		.loc 1 2041 4
 7104 005a 6420     		movs	r0, #100
 7105 005c FFF7FEFF 		bl	osal_lyh_delay_task
2042:../app/app.c  **** 			run_max_time = LEFT_TIMER(Ms_7000, Ms_100);
 7106              		.loc 1 2042 17
 7107 0060 534B     		ldr	r3, .L668+4
 7108 0062 4622     		movs	r2, #70
 7109 0064 1A80     		strh	r2, [r3]	@ movhi
2043:../app/app.c  **** 			sta = 2;
 7110              		.loc 1 2043 8
 7111 0066 514B     		ldr	r3, .L668
 7112 0068 0222     		movs	r2, #2
 7113 006a 1A70     		strb	r2, [r3]
2044:../app/app.c  **** 			break;
 7114              		.loc 1 2044 4
 7115 006c 9AE0     		b	.L657
 7116              	.L654:
2045:../app/app.c  **** 		/* Õłżµ¢ŁĶÉāÕÅ¢ńöĄµ£║µś»ÕÉ”Õł░µÄźµ░┤õĮŹńĮ« */
2046:../app/app.c  **** 		case 2:										
2047:../app/app.c  **** 			if ((MOTOR_STATE_STOPED ==dc_motor_GetState())
 7117              		.loc 1 2047 30
 7118 006e FFF7FEFF 		bl	dc_motor_GetState
 7119 0072 0346     		mov	r3, r0
 7120              		.loc 1 2047 7
 7121 0074 002B     		cmp	r3, #0
 7122 0076 0ED0     		beq	.L658
2048:../app/app.c  **** 				|| (TRUE == app_motor_ready())
 7123              		.loc 1 2048 17
 7124 0078 FFF7FEFF 		bl	app_motor_ready
 7125 007c 0346     		mov	r3, r0
 7126              		.loc 1 2048 5
 7127 007e 012B     		cmp	r3, #1
 7128 0080 09D0     		beq	.L658
2049:../app/app.c  **** 				|| (--run_max_time == 0)){
 7129              		.loc 1 2049 9
 7130 0082 4B4B     		ldr	r3, .L668+4
 7131 0084 1B88     		ldrh	r3, [r3]
 7132 0086 013B     		subs	r3, r3, #1
 7133 0088 9AB2     		uxth	r2, r3
 7134              		.loc 1 2049 5
 7135 008a 494B     		ldr	r3, .L668+4
 7136 008c 1A80     		strh	r2, [r3]	@ movhi
 7137              		.loc 1 2049 9
 7138 008e 484B     		ldr	r3, .L668+4
 7139 0090 1B88     		ldrh	r3, [r3]
 7140              		.loc 1 2049 5
 7141 0092 002B     		cmp	r3, #0
 7142 0094 05D1     		bne	.L659
 7143              	.L658:
2050:../app/app.c  **** 				dc_motor_Stop();
 7144              		.loc 1 2050 5
 7145 0096 FFF7FEFF 		bl	dc_motor_Stop
2051:../app/app.c  **** 				sta = 3;
 7146              		.loc 1 2051 9
 7147 009a 444B     		ldr	r3, .L668
 7148 009c 0322     		movs	r2, #3
 7149 009e 1A70     		strb	r2, [r3]
2052:../app/app.c  **** 			}
2053:../app/app.c  **** 			else {
2054:../app/app.c  **** 				osal_lyh_delay_task(Ms_100);
2055:../app/app.c  **** 			}			
2056:../app/app.c  **** 			break;
 7150              		.loc 1 2056 4
 7151 00a0 80E0     		b	.L657
 7152              	.L659:
2054:../app/app.c  **** 			}			
 7153              		.loc 1 2054 5
 7154 00a2 6420     		movs	r0, #100
 7155 00a4 FFF7FEFF 		bl	osal_lyh_delay_task
 7156              		.loc 1 2056 4
 7157 00a8 7CE0     		b	.L657
 7158              	.L653:
2057:../app/app.c  **** 		/* Õ╝ĆÕÉ»µ░┤µ│Ą’╝łń¤ŁµŚČķŚ┤’╝ē */
2058:../app/app.c  **** 		case 3:										
2059:../app/app.c  **** 			ac_pumb_start(CONTINUE_MODE);
 7159              		.loc 1 2059 4
 7160 00aa 0020     		movs	r0, #0
 7161 00ac FFF7FEFF 		bl	ac_pumb_start
2060:../app/app.c  **** 			osal_lyh_delay_task(Ms_2000 - Ms_100);		//µŁżÕżäµŚČķŚ┤ķ£ĆĶ”üµĀ╣µŹ«Õ«×ķÖģµāģÕåĄµĢ┤µö╣
 7162              		.loc 1 2060 4
 7163 00b0 40F26C70 		movw	r0, #1900
 7164 00b4 FFF7FEFF 		bl	osal_lyh_delay_task
2061:../app/app.c  **** 			sta = 4;
 7165              		.loc 1 2061 8
 7166 00b8 3C4B     		ldr	r3, .L668
 7167 00ba 0422     		movs	r2, #4
 7168 00bc 1A70     		strb	r2, [r3]
2062:../app/app.c  **** 			break;
 7169              		.loc 1 2062 4
 7170 00be 71E0     		b	.L657
 7171              	.L652:
2063:../app/app.c  **** 		 /* Õü£µŁóµ░┤µ│Ą */
2064:../app/app.c  **** 		case 4:									
2065:../app/app.c  **** 			ac_pumb_stop();
 7172              		.loc 1 2065 4
 7173 00c0 FFF7FEFF 		bl	ac_pumb_stop
2066:../app/app.c  **** 			osal_lyh_delay_task(Ms_4000);	//µŁżÕżäµŚČķŚ┤ķ£ĆĶ”üµĀ╣µŹ«Õ«×ķÖģµāģÕåĄµĢ┤µö╣
 7174              		.loc 1 2066 4
 7175 00c4 4FF47A60 		mov	r0, #4000
 7176 00c8 FFF7FEFF 		bl	osal_lyh_delay_task
2067:../app/app.c  **** 			sta = 5;
 7177              		.loc 1 2067 8
 7178 00cc 374B     		ldr	r3, .L668
 7179 00ce 0522     		movs	r2, #5
 7180 00d0 1A70     		strb	r2, [r3]
2068:../app/app.c  **** 			break;
 7181              		.loc 1 2068 4
 7182 00d2 67E0     		b	.L657
 7183              	.L651:
2069:../app/app.c  **** 		/* ĶÉāÕÅ¢ńöĄµ£║ĶĮ¼Õł░ÕĆÆń▓ēõĮŹńĮ« */
2070:../app/app.c  **** 		case 5:										
2071:../app/app.c  **** 			dc_motor_Start(MOTOR_RIGHT);
 7184              		.loc 1 2071 4
 7185 00d4 0120     		movs	r0, #1
 7186 00d6 FFF7FEFF 		bl	dc_motor_Start
2072:../app/app.c  **** 			osal_lyh_delay_task(Ms_3000 - Ms_100);
 7187              		.loc 1 2072 4
 7188 00da 40F65430 		movw	r0, #2900
 7189 00de FFF7FEFF 		bl	osal_lyh_delay_task
2073:../app/app.c  **** 			sta = 6;
 7190              		.loc 1 2073 8
 7191 00e2 324B     		ldr	r3, .L668
 7192 00e4 0622     		movs	r2, #6
 7193 00e6 1A70     		strb	r2, [r3]
2074:../app/app.c  **** 			break;
 7194              		.loc 1 2074 4
 7195 00e8 5CE0     		b	.L657
 7196              	.L650:
2075:../app/app.c  **** 		 /* ĶÉāÕÅ¢ńöĄµ£║Õü£µŁó’╝īÕĆÆÕć║ÕÆ¢ÕĢĪń▓ē */
2076:../app/app.c  **** 		case 6:									
2077:../app/app.c  **** 			dc_motor_Stop();
 7197              		.loc 1 2077 4
 7198 00ea FFF7FEFF 		bl	dc_motor_Stop
2078:../app/app.c  **** 			osal_lyh_delay_task(Ms_3000);
 7199              		.loc 1 2078 4
 7200 00ee 40F6B830 		movw	r0, #3000
 7201 00f2 FFF7FEFF 		bl	osal_lyh_delay_task
2079:../app/app.c  **** 			sta = 7;
 7202              		.loc 1 2079 8
 7203 00f6 2D4B     		ldr	r3, .L668
 7204 00f8 0722     		movs	r2, #7
 7205 00fa 1A70     		strb	r2, [r3]
2080:../app/app.c  **** 			break;
 7206              		.loc 1 2080 4
 7207 00fc 52E0     		b	.L657
 7208              	.L649:
2081:../app/app.c  **** 		 /* ĶÉāÕÅ¢ńöĄµ£║Õø×ĶĮ¼Õł░ÕÄ¤õĮŹ */
2082:../app/app.c  **** 		case 7:										
2083:../app/app.c  **** 			dc_motor_Start(MOTOR_RIGHT);
 7209              		.loc 1 2083 4
 7210 00fe 0120     		movs	r0, #1
 7211 0100 FFF7FEFF 		bl	dc_motor_Start
2084:../app/app.c  **** 			osal_lyh_delay_task(Ms_100);
 7212              		.loc 1 2084 4
 7213 0104 6420     		movs	r0, #100
 7214 0106 FFF7FEFF 		bl	osal_lyh_delay_task
2085:../app/app.c  **** 			run_max_time = RIGHT_TIMER(Ms_5000, Ms_100);
 7215              		.loc 1 2085 17
 7216 010a 294B     		ldr	r3, .L668+4
 7217 010c 3222     		movs	r2, #50
 7218 010e 1A80     		strh	r2, [r3]	@ movhi
2086:../app/app.c  **** 			sta = 8;
 7219              		.loc 1 2086 8
 7220 0110 264B     		ldr	r3, .L668
 7221 0112 0822     		movs	r2, #8
 7222 0114 1A70     		strb	r2, [r3]
2087:../app/app.c  **** 			break;
 7223              		.loc 1 2087 4
 7224 0116 45E0     		b	.L657
 7225              	.L648:
2088:../app/app.c  **** 		 /* Õłżµ¢ŁĶÉāÕÅ¢ńöĄµ£║Õø×ĶĮ¼µś»ÕÉ”Ķ¦”ńó░ÕÄ¤õĮŹÕ╝ĆÕģ│ */
2089:../app/app.c  **** 		case 8:										
2090:../app/app.c  **** 			if ((MOTOR_STATE_STOPED ==dc_motor_GetState())
 7226              		.loc 1 2090 30
 7227 0118 FFF7FEFF 		bl	dc_motor_GetState
 7228 011c 0346     		mov	r3, r0
 7229              		.loc 1 2090 7
 7230 011e 002B     		cmp	r3, #0
 7231 0120 0ED0     		beq	.L661
2091:../app/app.c  **** 				|| (TRUE == app_motor_ready())
 7232              		.loc 1 2091 17
 7233 0122 FFF7FEFF 		bl	app_motor_ready
 7234 0126 0346     		mov	r3, r0
 7235              		.loc 1 2091 5
 7236 0128 012B     		cmp	r3, #1
 7237 012a 09D0     		beq	.L661
2092:../app/app.c  **** 				|| (--run_max_time == 0)){
 7238              		.loc 1 2092 9
 7239 012c 204B     		ldr	r3, .L668+4
 7240 012e 1B88     		ldrh	r3, [r3]
 7241 0130 013B     		subs	r3, r3, #1
 7242 0132 9AB2     		uxth	r2, r3
 7243              		.loc 1 2092 5
 7244 0134 1E4B     		ldr	r3, .L668+4
 7245 0136 1A80     		strh	r2, [r3]	@ movhi
 7246              		.loc 1 2092 9
 7247 0138 1D4B     		ldr	r3, .L668+4
 7248 013a 1B88     		ldrh	r3, [r3]
 7249              		.loc 1 2092 5
 7250 013c 002B     		cmp	r3, #0
 7251 013e 05D1     		bne	.L662
 7252              	.L661:
2093:../app/app.c  **** 				dc_motor_Stop();
 7253              		.loc 1 2093 5
 7254 0140 FFF7FEFF 		bl	dc_motor_Stop
2094:../app/app.c  **** 				sta = 9;
 7255              		.loc 1 2094 9
 7256 0144 194B     		ldr	r3, .L668
 7257 0146 0922     		movs	r2, #9
 7258 0148 1A70     		strb	r2, [r3]
2095:../app/app.c  **** 			}
2096:../app/app.c  **** 			else {
2097:../app/app.c  **** 				osal_lyh_delay_task(Ms_100);
2098:../app/app.c  **** 			}
2099:../app/app.c  **** 			break;
 7259              		.loc 1 2099 4
 7260 014a 2BE0     		b	.L657
 7261              	.L662:
2097:../app/app.c  **** 			}
 7262              		.loc 1 2097 5
 7263 014c 6420     		movs	r0, #100
 7264 014e FFF7FEFF 		bl	osal_lyh_delay_task
 7265              		.loc 1 2099 4
 7266 0152 27E0     		b	.L657
 7267              	.L647:
2100:../app/app.c  **** 		/* ĶÉāÕÅ¢ńöĄµ£║Õø×ĶĮ¼Õł░ÕÄ¤õĮŹ */	
2101:../app/app.c  **** 		case 9:										
2102:../app/app.c  **** 			dc_motor_Start(MOTOR_LEFT);
 7268              		.loc 1 2102 4
 7269 0154 0220     		movs	r0, #2
 7270 0156 FFF7FEFF 		bl	dc_motor_Start
2103:../app/app.c  **** 			osal_lyh_delay_task(Ms_100);
 7271              		.loc 1 2103 4
 7272 015a 6420     		movs	r0, #100
 7273 015c FFF7FEFF 		bl	osal_lyh_delay_task
2104:../app/app.c  **** 			run_max_time = LEFT_TIMER(MOTOR_FIX_TIME, Ms_100);
 7274              		.loc 1 2104 17
 7275 0160 134B     		ldr	r3, .L668+4
 7276 0162 0322     		movs	r2, #3
 7277 0164 1A80     		strh	r2, [r3]	@ movhi
2105:../app/app.c  **** 			sta = 10;
 7278              		.loc 1 2105 8
 7279 0166 114B     		ldr	r3, .L668
 7280 0168 0A22     		movs	r2, #10
 7281 016a 1A70     		strb	r2, [r3]
2106:../app/app.c  **** 			break;
 7282              		.loc 1 2106 4
 7283 016c 1AE0     		b	.L657
 7284              	.L645:
2107:../app/app.c  **** 		 /* Õłżµ¢ŁĶÉāÕÅ¢ńöĄµ£║Õø×ĶĮ¼µś»ÕÉ”Õ«īµłÉ */
2108:../app/app.c  **** 		case 10:									
2109:../app/app.c  **** 			if (1/*(FAIL == app_motor_ready())*/	// deleting point,(temp to cancel) 
2110:../app/app.c  **** 				&& ((MOTOR_STATE_STOPED ==dc_motor_GetState())
 7285              		.loc 1 2110 31
 7286 016e FFF7FEFF 		bl	dc_motor_GetState
 7287 0172 0346     		mov	r3, r0
2109:../app/app.c  **** 				&& ((MOTOR_STATE_STOPED ==dc_motor_GetState())
 7288              		.loc 1 2109 7
 7289 0174 002B     		cmp	r3, #0
 7290 0176 09D0     		beq	.L664
2111:../app/app.c  **** 				|| (--run_max_time == 0))){
 7291              		.loc 1 2111 9
 7292 0178 0D4B     		ldr	r3, .L668+4
 7293 017a 1B88     		ldrh	r3, [r3]
 7294 017c 013B     		subs	r3, r3, #1
 7295 017e 9AB2     		uxth	r2, r3
2110:../app/app.c  **** 				|| (--run_max_time == 0))){
 7296              		.loc 1 2110 5
 7297 0180 0B4B     		ldr	r3, .L668+4
 7298 0182 1A80     		strh	r2, [r3]	@ movhi
 7299              		.loc 1 2111 9
 7300 0184 0A4B     		ldr	r3, .L668+4
 7301 0186 1B88     		ldrh	r3, [r3]
2110:../app/app.c  **** 				|| (--run_max_time == 0))){
 7302              		.loc 1 2110 5
 7303 0188 002B     		cmp	r3, #0
 7304 018a 06D1     		bne	.L665
 7305              	.L664:
2112:../app/app.c  **** 				dc_motor_Stop();
 7306              		.loc 1 2112 5
 7307 018c FFF7FEFF 		bl	dc_motor_Stop
2113:../app/app.c  **** 				sta = 0;
 7308              		.loc 1 2113 9
 7309 0190 064B     		ldr	r3, .L668
 7310 0192 0022     		movs	r2, #0
 7311 0194 1A70     		strb	r2, [r3]
2114:../app/app.c  **** 				return TRUE;
 7312              		.loc 1 2114 12
 7313 0196 0123     		movs	r3, #1
 7314 0198 05E0     		b	.L666
 7315              	.L665:
2115:../app/app.c  **** 			}
2116:../app/app.c  **** 			else {
2117:../app/app.c  **** 				osal_lyh_delay_task(Ms_100);
 7316              		.loc 1 2117 5
 7317 019a 6420     		movs	r0, #100
 7318 019c FFF7FEFF 		bl	osal_lyh_delay_task
2118:../app/app.c  **** 			}
2119:../app/app.c  **** 			break;
 7319              		.loc 1 2119 4
 7320 01a0 00E0     		b	.L657
 7321              	.L667:
2120:../app/app.c  **** 		default:
2121:../app/app.c  **** 			break;
 7322              		.loc 1 2121 4
 7323 01a2 00BF     		nop
 7324              	.L657:
2122:../app/app.c  **** 	}
2123:../app/app.c  **** 	return FAIL;
 7325              		.loc 1 2123 9
 7326 01a4 0023     		movs	r3, #0
 7327              	.L666:
2124:../app/app.c  **** }
 7328              		.loc 1 2124 1
 7329 01a6 1846     		mov	r0, r3
 7330 01a8 80BD     		pop	{r7, pc}
 7331              	.L669:
 7332 01aa 00BF     		.align	2
 7333              	.L668:
 7334 01ac 00000000 		.word	sta.8862
 7335 01b0 00000000 		.word	run_max_time
 7336              		.cfi_endproc
 7337              	.LFE177:
 7339              		.section	.text.app_running_onoff_pre_brew_handler,"ax",%progbits
 7340              		.align	1
 7341              		.global	app_running_onoff_pre_brew_handler
 7342              		.syntax unified
 7343              		.thumb
 7344              		.thumb_func
 7345              		.fpu softvfp
 7347              	app_running_onoff_pre_brew_handler:
 7348              	.LFB178:
2125:../app/app.c  **** 
2126:../app/app.c  **** /**************************************************************************
2127:../app/app.c  ****  * @brief Õ£©ĶÉāÕÅ¢ńöĄµ£║ķóäÕå▓ńģ«ńŖČµĆüõĖŗµīēõĖŗON/OFFķö«ńÜäÕżäńÉåÕćĮµĢ░
2128:../app/app.c  ****  * @return TRUE’╝ÜµĄüń©ŗń╗ōµØ¤’╝īĶÉāÕÅ¢ńöĄµ£║Õżäõ║ÄÕÄ¤õĮŹ’╝ī FAIL’╝ÜµĄüń©ŗµē¦ĶĪīõĖŁ
2129:../app/app.c  ****  * @note Ķ»źÕćĮµĢ░Õ£©espresso, americanońÜäķóäÕå▓ńģ«ńŖČµĆüõĖŗµīēõĖŗON/OFFķö«µŚČĶó½Ķ░āńö©
2130:../app/app.c  ****  *************************************************************************/
2131:../app/app.c  **** uint8_t app_running_onoff_pre_brew_handler(void)
2132:../app/app.c  **** {
 7349              		.loc 1 2132 1
 7350              		.cfi_startproc
 7351              		@ args = 0, pretend = 0, frame = 0
 7352              		@ frame_needed = 1, uses_anonymous_args = 0
 7353 0000 80B5     		push	{r7, lr}
 7354              		.cfi_def_cfa_offset 8
 7355              		.cfi_offset 7, -8
 7356              		.cfi_offset 14, -4
 7357 0002 00AF     		add	r7, sp, #0
 7358              		.cfi_def_cfa_register 7
2133:../app/app.c  **** 	static uint8_t sta = 0;
2134:../app/app.c  **** 	switch (sta)
 7359              		.loc 1 2134 2
 7360 0004 514B     		ldr	r3, .L690
 7361 0006 1B78     		ldrb	r3, [r3]	@ zero_extendqisi2
 7362 0008 082B     		cmp	r3, #8
 7363 000a 00F29B80 		bhi	.L689
 7364 000e 01A2     		adr	r2, .L673
 7365 0010 52F823F0 		ldr	pc, [r2, r3, lsl #2]
 7366              		.p2align 2
 7367              	.L673:
 7368 0014 39000000 		.word	.L681+1
 7369 0018 4D000000 		.word	.L680+1
 7370 001c 63000000 		.word	.L679+1
 7371 0020 77000000 		.word	.L678+1
 7372 0024 8D000000 		.word	.L677+1
 7373 0028 A1000000 		.word	.L676+1
 7374 002c BB000000 		.word	.L675+1
 7375 0030 F7000000 		.word	.L674+1
 7376 0034 11010000 		.word	.L672+1
 7377              		.p2align 1
 7378              	.L681:
2135:../app/app.c  **** 	{
2136:../app/app.c  **** 		/* Õü£µŁóµ░┤µ│Ą */
2137:../app/app.c  **** 		case 0:		
2138:../app/app.c  **** 			ac_pumb_stop();
 7379              		.loc 1 2138 4
 7380 0038 FFF7FEFF 		bl	ac_pumb_stop
2139:../app/app.c  **** 			osal_lyh_delay_task(Ms_1000);
 7381              		.loc 1 2139 4
 7382 003c 4FF47A70 		mov	r0, #1000
 7383 0040 FFF7FEFF 		bl	osal_lyh_delay_task
2140:../app/app.c  **** 			sta = 1;
 7384              		.loc 1 2140 8
 7385 0044 414B     		ldr	r3, .L690
 7386 0046 0122     		movs	r2, #1
 7387 0048 1A70     		strb	r2, [r3]
2141:../app/app.c  **** 			break;
 7388              		.loc 1 2141 4
 7389 004a 7CE0     		b	.L682
 7390              	.L680:
2142:../app/app.c  **** 		/* ÕÉ»ÕŖ©µ░┤µ│Ą’╝łń¤ŁµŚČķŚ┤’╝ē */			
2143:../app/app.c  **** 		case 1:										
2144:../app/app.c  **** 			ac_pumb_start(CONTINUE_MODE);
 7391              		.loc 1 2144 4
 7392 004c 0020     		movs	r0, #0
 7393 004e FFF7FEFF 		bl	ac_pumb_start
2145:../app/app.c  **** 			osal_lyh_delay_task(Ms_2000 - Ms_100);		//µŁżÕżäµŚČķŚ┤ķ£ĆĶ”üµĀ╣µŹ«Õ«×ķÖģµāģÕåĄµĢ┤µö╣
 7394              		.loc 1 2145 4
 7395 0052 40F26C70 		movw	r0, #1900
 7396 0056 FFF7FEFF 		bl	osal_lyh_delay_task
2146:../app/app.c  **** 			sta = 2;
 7397              		.loc 1 2146 8
 7398 005a 3C4B     		ldr	r3, .L690
 7399 005c 0222     		movs	r2, #2
 7400 005e 1A70     		strb	r2, [r3]
2147:../app/app.c  **** 			break;
 7401              		.loc 1 2147 4
 7402 0060 71E0     		b	.L682
 7403              	.L679:
2148:../app/app.c  **** 		/* Õü£µŁóµ░┤µ│Ą */
2149:../app/app.c  **** 		case 2:										
2150:../app/app.c  **** 			ac_pumb_stop();
 7404              		.loc 1 2150 4
 7405 0062 FFF7FEFF 		bl	ac_pumb_stop
2151:../app/app.c  **** 			osal_lyh_delay_task(Ms_4000);	//µŁżÕżäµŚČķŚ┤ķ£ĆĶ”üµĀ╣µŹ«Õ«×ķÖģµāģÕåĄµĢ┤µö╣
 7406              		.loc 1 2151 4
 7407 0066 4FF47A60 		mov	r0, #4000
 7408 006a FFF7FEFF 		bl	osal_lyh_delay_task
2152:../app/app.c  **** 			sta = 3;
 7409              		.loc 1 2152 8
 7410 006e 374B     		ldr	r3, .L690
 7411 0070 0322     		movs	r2, #3
 7412 0072 1A70     		strb	r2, [r3]
2153:../app/app.c  **** 			break;
 7413              		.loc 1 2153 4
 7414 0074 67E0     		b	.L682
 7415              	.L678:
2154:../app/app.c  **** 		 /* ĶÉāÕÅ¢ńöĄµ£║ĶĮ¼Õł░ÕĆÆń▓ēõĮŹńĮ« */
2155:../app/app.c  **** 		case 3:										
2156:../app/app.c  **** 			dc_motor_Start(MOTOR_RIGHT);
 7416              		.loc 1 2156 4
 7417 0076 0120     		movs	r0, #1
 7418 0078 FFF7FEFF 		bl	dc_motor_Start
2157:../app/app.c  **** 			osal_lyh_delay_task(Ms_3000 - Ms_100);
 7419              		.loc 1 2157 4
 7420 007c 40F65430 		movw	r0, #2900
 7421 0080 FFF7FEFF 		bl	osal_lyh_delay_task
2158:../app/app.c  **** 			sta = 4;
 7422              		.loc 1 2158 8
 7423 0084 314B     		ldr	r3, .L690
 7424 0086 0422     		movs	r2, #4
 7425 0088 1A70     		strb	r2, [r3]
2159:../app/app.c  **** 			break;
 7426              		.loc 1 2159 4
 7427 008a 5CE0     		b	.L682
 7428              	.L677:
2160:../app/app.c  **** 		 /* ĶÉāÕÅ¢ńöĄµ£║Õü£µŁó’╝īÕĆÆÕć║ÕÆ¢ÕĢĪń▓ē */
2161:../app/app.c  **** 		case 4:										
2162:../app/app.c  **** 			dc_motor_Stop();
 7429              		.loc 1 2162 4
 7430 008c FFF7FEFF 		bl	dc_motor_Stop
2163:../app/app.c  **** 			osal_lyh_delay_task(Ms_3000);
 7431              		.loc 1 2163 4
 7432 0090 40F6B830 		movw	r0, #3000
 7433 0094 FFF7FEFF 		bl	osal_lyh_delay_task
2164:../app/app.c  **** 			sta = 5;
 7434              		.loc 1 2164 8
 7435 0098 2C4B     		ldr	r3, .L690
 7436 009a 0522     		movs	r2, #5
 7437 009c 1A70     		strb	r2, [r3]
2165:../app/app.c  **** 			break;
 7438              		.loc 1 2165 4
 7439 009e 52E0     		b	.L682
 7440              	.L676:
2166:../app/app.c  **** 		 /* ĶÉāÕÅ¢ńöĄµ£║ÕÉæÕÄ¤õĮŹĶĮ¼ÕŖ© */
2167:../app/app.c  **** 		case 5:										
2168:../app/app.c  **** 			dc_motor_Start(MOTOR_RIGHT);
 7441              		.loc 1 2168 4
 7442 00a0 0120     		movs	r0, #1
 7443 00a2 FFF7FEFF 		bl	dc_motor_Start
2169:../app/app.c  **** 			osal_lyh_delay_task(Ms_100);
 7444              		.loc 1 2169 4
 7445 00a6 6420     		movs	r0, #100
 7446 00a8 FFF7FEFF 		bl	osal_lyh_delay_task
2170:../app/app.c  **** 			run_max_time = RIGHT_TIMER(Ms_5000, Ms_100);
 7447              		.loc 1 2170 17
 7448 00ac 284B     		ldr	r3, .L690+4
 7449 00ae 3222     		movs	r2, #50
 7450 00b0 1A80     		strh	r2, [r3]	@ movhi
2171:../app/app.c  **** 			sta = 6;
 7451              		.loc 1 2171 8
 7452 00b2 264B     		ldr	r3, .L690
 7453 00b4 0622     		movs	r2, #6
 7454 00b6 1A70     		strb	r2, [r3]
2172:../app/app.c  **** 			break;
 7455              		.loc 1 2172 4
 7456 00b8 45E0     		b	.L682
 7457              	.L675:
2173:../app/app.c  **** 		 /* Õłżµ¢ŁĶÉāÕÅ¢ńöĄµ£║µś»ÕÉ”Ķ¦”ńó░ÕÄ¤õĮŹĶ¦”ńé╣Õ╝ĆÕģ│ */
2174:../app/app.c  **** 		case 6:										
2175:../app/app.c  **** 			if ((MOTOR_STATE_STOPED ==dc_motor_GetState())
 7458              		.loc 1 2175 30
 7459 00ba FFF7FEFF 		bl	dc_motor_GetState
 7460 00be 0346     		mov	r3, r0
 7461              		.loc 1 2175 7
 7462 00c0 002B     		cmp	r3, #0
 7463 00c2 0ED0     		beq	.L683
2176:../app/app.c  **** 				|| (TRUE == app_motor_ready())
 7464              		.loc 1 2176 17
 7465 00c4 FFF7FEFF 		bl	app_motor_ready
 7466 00c8 0346     		mov	r3, r0
 7467              		.loc 1 2176 5
 7468 00ca 012B     		cmp	r3, #1
 7469 00cc 09D0     		beq	.L683
2177:../app/app.c  **** 				|| (--run_max_time == 0)){
 7470              		.loc 1 2177 9
 7471 00ce 204B     		ldr	r3, .L690+4
 7472 00d0 1B88     		ldrh	r3, [r3]
 7473 00d2 013B     		subs	r3, r3, #1
 7474 00d4 9AB2     		uxth	r2, r3
 7475              		.loc 1 2177 5
 7476 00d6 1E4B     		ldr	r3, .L690+4
 7477 00d8 1A80     		strh	r2, [r3]	@ movhi
 7478              		.loc 1 2177 9
 7479 00da 1D4B     		ldr	r3, .L690+4
 7480 00dc 1B88     		ldrh	r3, [r3]
 7481              		.loc 1 2177 5
 7482 00de 002B     		cmp	r3, #0
 7483 00e0 05D1     		bne	.L684
 7484              	.L683:
2178:../app/app.c  **** 				dc_motor_Stop();
 7485              		.loc 1 2178 5
 7486 00e2 FFF7FEFF 		bl	dc_motor_Stop
2179:../app/app.c  **** 				sta = 7;
 7487              		.loc 1 2179 9
 7488 00e6 194B     		ldr	r3, .L690
 7489 00e8 0722     		movs	r2, #7
 7490 00ea 1A70     		strb	r2, [r3]
2180:../app/app.c  **** 			}
2181:../app/app.c  **** 			else {
2182:../app/app.c  **** 				osal_lyh_delay_task(Ms_100);
2183:../app/app.c  **** 			}
2184:../app/app.c  **** 			break;
 7491              		.loc 1 2184 4
 7492 00ec 2BE0     		b	.L682
 7493              	.L684:
2182:../app/app.c  **** 			}
 7494              		.loc 1 2182 5
 7495 00ee 6420     		movs	r0, #100
 7496 00f0 FFF7FEFF 		bl	osal_lyh_delay_task
 7497              		.loc 1 2184 4
 7498 00f4 27E0     		b	.L682
 7499              	.L674:
2185:../app/app.c  **** 		 /* ĶÉāÕÅ¢ńöĄµ£║Õø×ĶĮ¼Õł░ÕÄ¤õĮŹ */
2186:../app/app.c  **** 		case 7:										
2187:../app/app.c  **** 			dc_motor_Start(MOTOR_LEFT);
 7500              		.loc 1 2187 4
 7501 00f6 0220     		movs	r0, #2
 7502 00f8 FFF7FEFF 		bl	dc_motor_Start
2188:../app/app.c  **** 			osal_lyh_delay_task(Ms_100);
 7503              		.loc 1 2188 4
 7504 00fc 6420     		movs	r0, #100
 7505 00fe FFF7FEFF 		bl	osal_lyh_delay_task
2189:../app/app.c  **** 			run_max_time = LEFT_TIMER(MOTOR_FIX_TIME, Ms_100);
 7506              		.loc 1 2189 17
 7507 0102 134B     		ldr	r3, .L690+4
 7508 0104 0322     		movs	r2, #3
 7509 0106 1A80     		strh	r2, [r3]	@ movhi
2190:../app/app.c  **** 			sta = 8;
 7510              		.loc 1 2190 8
 7511 0108 104B     		ldr	r3, .L690
 7512 010a 0822     		movs	r2, #8
 7513 010c 1A70     		strb	r2, [r3]
2191:../app/app.c  **** 			break;
 7514              		.loc 1 2191 4
 7515 010e 1AE0     		b	.L682
 7516              	.L672:
2192:../app/app.c  **** 		 /* Õłżµ¢ŁĶÉāÕÅ¢ńöĄµ£║Õø×ĶĮ¼µś»ÕÉ”Õ«īµłÉ */
2193:../app/app.c  **** 		case 8:									
2194:../app/app.c  **** 			if (1/*(FAIL == app_motor_ready())*/	// deleting point,(temp to cancel) 
2195:../app/app.c  **** 				&& ((MOTOR_STATE_STOPED ==dc_motor_GetState())
 7517              		.loc 1 2195 31
 7518 0110 FFF7FEFF 		bl	dc_motor_GetState
 7519 0114 0346     		mov	r3, r0
2194:../app/app.c  **** 				&& ((MOTOR_STATE_STOPED ==dc_motor_GetState())
 7520              		.loc 1 2194 7
 7521 0116 002B     		cmp	r3, #0
 7522 0118 09D0     		beq	.L686
2196:../app/app.c  **** 				|| (--run_max_time == 0))){
 7523              		.loc 1 2196 9
 7524 011a 0D4B     		ldr	r3, .L690+4
 7525 011c 1B88     		ldrh	r3, [r3]
 7526 011e 013B     		subs	r3, r3, #1
 7527 0120 9AB2     		uxth	r2, r3
2195:../app/app.c  **** 				|| (--run_max_time == 0))){
 7528              		.loc 1 2195 5
 7529 0122 0B4B     		ldr	r3, .L690+4
 7530 0124 1A80     		strh	r2, [r3]	@ movhi
 7531              		.loc 1 2196 9
 7532 0126 0A4B     		ldr	r3, .L690+4
 7533 0128 1B88     		ldrh	r3, [r3]
2195:../app/app.c  **** 				|| (--run_max_time == 0))){
 7534              		.loc 1 2195 5
 7535 012a 002B     		cmp	r3, #0
 7536 012c 06D1     		bne	.L687
 7537              	.L686:
2197:../app/app.c  **** 				dc_motor_Stop();
 7538              		.loc 1 2197 5
 7539 012e FFF7FEFF 		bl	dc_motor_Stop
2198:../app/app.c  **** 				sta = 0;
 7540              		.loc 1 2198 9
 7541 0132 064B     		ldr	r3, .L690
 7542 0134 0022     		movs	r2, #0
 7543 0136 1A70     		strb	r2, [r3]
2199:../app/app.c  **** 				return TRUE;
 7544              		.loc 1 2199 12
 7545 0138 0123     		movs	r3, #1
 7546 013a 05E0     		b	.L688
 7547              	.L687:
2200:../app/app.c  **** 			}
2201:../app/app.c  **** 			else {
2202:../app/app.c  **** 				osal_lyh_delay_task(Ms_100);
 7548              		.loc 1 2202 5
 7549 013c 6420     		movs	r0, #100
 7550 013e FFF7FEFF 		bl	osal_lyh_delay_task
2203:../app/app.c  **** 			}
2204:../app/app.c  **** 			break;
 7551              		.loc 1 2204 4
 7552 0142 00E0     		b	.L682
 7553              	.L689:
2205:../app/app.c  **** 		default:
2206:../app/app.c  **** 			break;
 7554              		.loc 1 2206 4
 7555 0144 00BF     		nop
 7556              	.L682:
2207:../app/app.c  **** 	}
2208:../app/app.c  **** 	return FAIL;
 7557              		.loc 1 2208 9
 7558 0146 0023     		movs	r3, #0
 7559              	.L688:
2209:../app/app.c  **** }
 7560              		.loc 1 2209 1
 7561 0148 1846     		mov	r0, r3
 7562 014a 80BD     		pop	{r7, pc}
 7563              	.L691:
 7564              		.align	2
 7565              	.L690:
 7566 014c 00000000 		.word	sta.8879
 7567 0150 00000000 		.word	run_max_time
 7568              		.cfi_endproc
 7569              	.LFE178:
 7571              		.section	.text.app_running_onoff_brew_handler,"ax",%progbits
 7572              		.align	1
 7573              		.global	app_running_onoff_brew_handler
 7574              		.syntax unified
 7575              		.thumb
 7576              		.thumb_func
 7577              		.fpu softvfp
 7579              	app_running_onoff_brew_handler:
 7580              	.LFB179:
2210:../app/app.c  **** 
2211:../app/app.c  **** /**************************************************************************
2212:../app/app.c  ****  * @brief Õ£©Õå▓ńģ«ńŖČµĆüõĖŗµīēõĖŗON/OFFķö«ńÜäÕżäńÉåÕćĮµĢ░
2213:../app/app.c  ****  * @return TRUE’╝ÜµĄüń©ŗń╗ōµØ¤’╝īĶÉāÕÅ¢ńöĄµ£║Õżäõ║ÄÕÄ¤õĮŹ’╝ī FAIL’╝ÜµĄüń©ŗµē¦ĶĪīõĖŁ
2214:../app/app.c  ****  * @note Ķ»źÕćĮµĢ░Õ£©espresso, americanońÜäÕå▓ńģ«ńŖČµĆüõĖŗµīēõĖŗON/OFFķö«µŚČĶó½Ķ░āńö©
2215:../app/app.c  ****  *************************************************************************/
2216:../app/app.c  **** uint8_t app_running_onoff_brew_handler(void)
2217:../app/app.c  **** {
 7581              		.loc 1 2217 1
 7582              		.cfi_startproc
 7583              		@ args = 0, pretend = 0, frame = 0
 7584              		@ frame_needed = 1, uses_anonymous_args = 0
 7585 0000 80B5     		push	{r7, lr}
 7586              		.cfi_def_cfa_offset 8
 7587              		.cfi_offset 7, -8
 7588              		.cfi_offset 14, -4
 7589 0002 00AF     		add	r7, sp, #0
 7590              		.cfi_def_cfa_register 7
2218:../app/app.c  **** 	static uint8_t sta = 0;
2219:../app/app.c  **** 	switch (sta)
 7591              		.loc 1 2219 2
 7592 0004 454B     		ldr	r3, .L710
 7593 0006 1B78     		ldrb	r3, [r3]	@ zero_extendqisi2
 7594 0008 062B     		cmp	r3, #6
 7595 000a 00F28280 		bhi	.L709
 7596 000e 01A2     		adr	r2, .L695
 7597 0010 52F823F0 		ldr	pc, [r2, r3, lsl #2]
 7598              		.p2align 2
 7599              	.L695:
 7600 0014 31000000 		.word	.L701+1
 7601 0018 45000000 		.word	.L700+1
 7602 001c 5B000000 		.word	.L699+1
 7603 0020 6F000000 		.word	.L698+1
 7604 0024 89000000 		.word	.L697+1
 7605 0028 C5000000 		.word	.L696+1
 7606 002c DF000000 		.word	.L694+1
 7607              		.p2align 1
 7608              	.L701:
2220:../app/app.c  **** 	{
2221:../app/app.c  **** 		 /* Õü£µŁóµ░┤µ│Ą */
2222:../app/app.c  **** 		case 0:			
2223:../app/app.c  **** 			ac_pumb_stop();
 7609              		.loc 1 2223 4
 7610 0030 FFF7FEFF 		bl	ac_pumb_stop
2224:../app/app.c  **** 			osal_lyh_delay_task(Ms_4000);
 7611              		.loc 1 2224 4
 7612 0034 4FF47A60 		mov	r0, #4000
 7613 0038 FFF7FEFF 		bl	osal_lyh_delay_task
2225:../app/app.c  **** 			sta = 1;
 7614              		.loc 1 2225 8
 7615 003c 374B     		ldr	r3, .L710
 7616 003e 0122     		movs	r2, #1
 7617 0040 1A70     		strb	r2, [r3]
2226:../app/app.c  **** 			break;
 7618              		.loc 1 2226 4
 7619 0042 67E0     		b	.L702
 7620              	.L700:
2227:../app/app.c  **** 		 /* ĶÉāÕÅ¢ńöĄµ£║ĶĮ¼Õł░ÕĆÆń▓ēõĮŹńĮ« */
2228:../app/app.c  **** 		case 1:										
2229:../app/app.c  **** 			dc_motor_Start(MOTOR_RIGHT);
 7621              		.loc 1 2229 4
 7622 0044 0120     		movs	r0, #1
 7623 0046 FFF7FEFF 		bl	dc_motor_Start
2230:../app/app.c  **** 			osal_lyh_delay_task(Ms_3000 - Ms_100);
 7624              		.loc 1 2230 4
 7625 004a 40F65430 		movw	r0, #2900
 7626 004e FFF7FEFF 		bl	osal_lyh_delay_task
2231:../app/app.c  **** 			sta = 2;
 7627              		.loc 1 2231 8
 7628 0052 324B     		ldr	r3, .L710
 7629 0054 0222     		movs	r2, #2
 7630 0056 1A70     		strb	r2, [r3]
2232:../app/app.c  **** 			break;
 7631              		.loc 1 2232 4
 7632 0058 5CE0     		b	.L702
 7633              	.L699:
2233:../app/app.c  **** 		 /* ĶÉāÕÅ¢ńöĄµ£║Õü£µŁó’╝īÕĆÆÕć║ÕÆ¢ÕĢĪń▓ē */
2234:../app/app.c  **** 		case 2:										
2235:../app/app.c  **** 			dc_motor_Stop();
 7634              		.loc 1 2235 4
 7635 005a FFF7FEFF 		bl	dc_motor_Stop
2236:../app/app.c  **** 			osal_lyh_delay_task(Ms_3000);
 7636              		.loc 1 2236 4
 7637 005e 40F6B830 		movw	r0, #3000
 7638 0062 FFF7FEFF 		bl	osal_lyh_delay_task
2237:../app/app.c  **** 			sta = 3;
 7639              		.loc 1 2237 8
 7640 0066 2D4B     		ldr	r3, .L710
 7641 0068 0322     		movs	r2, #3
 7642 006a 1A70     		strb	r2, [r3]
2238:../app/app.c  **** 			break;
 7643              		.loc 1 2238 4
 7644 006c 52E0     		b	.L702
 7645              	.L698:
2239:../app/app.c  **** 		/* ĶÉāÕÅ¢ńöĄµ£║ÕÉæÕÄ¤ńé╣ĶĮ¼ÕŖ© */
2240:../app/app.c  **** 		case 3:										
2241:../app/app.c  **** 			dc_motor_Start(MOTOR_RIGHT);
 7646              		.loc 1 2241 4
 7647 006e 0120     		movs	r0, #1
 7648 0070 FFF7FEFF 		bl	dc_motor_Start
2242:../app/app.c  **** 			osal_lyh_delay_task(Ms_100);
 7649              		.loc 1 2242 4
 7650 0074 6420     		movs	r0, #100
 7651 0076 FFF7FEFF 		bl	osal_lyh_delay_task
2243:../app/app.c  **** 			run_max_time = RIGHT_TIMER(Ms_5000, Ms_100);
 7652              		.loc 1 2243 17
 7653 007a 294B     		ldr	r3, .L710+4
 7654 007c 3222     		movs	r2, #50
 7655 007e 1A80     		strh	r2, [r3]	@ movhi
2244:../app/app.c  **** 			sta = 4;
 7656              		.loc 1 2244 8
 7657 0080 264B     		ldr	r3, .L710
 7658 0082 0422     		movs	r2, #4
 7659 0084 1A70     		strb	r2, [r3]
2245:../app/app.c  **** 			break;
 7660              		.loc 1 2245 4
 7661 0086 45E0     		b	.L702
 7662              	.L697:
2246:../app/app.c  **** 		 /* Õłżµ¢ŁĶÉāÕÅ¢ńöĄµ£║µś»ÕÉ”Õł░ÕÄ¤ńé╣Ķ¦”ńé╣Õ╝ĆÕģ│ */
2247:../app/app.c  **** 		case 4:										
2248:../app/app.c  **** 			if ((MOTOR_STATE_STOPED ==dc_motor_GetState())
 7663              		.loc 1 2248 30
 7664 0088 FFF7FEFF 		bl	dc_motor_GetState
 7665 008c 0346     		mov	r3, r0
 7666              		.loc 1 2248 7
 7667 008e 002B     		cmp	r3, #0
 7668 0090 0ED0     		beq	.L703
2249:../app/app.c  **** 				|| (TRUE == app_motor_ready())
 7669              		.loc 1 2249 17
 7670 0092 FFF7FEFF 		bl	app_motor_ready
 7671 0096 0346     		mov	r3, r0
 7672              		.loc 1 2249 5
 7673 0098 012B     		cmp	r3, #1
 7674 009a 09D0     		beq	.L703
2250:../app/app.c  **** 				|| (--run_max_time == 0)){
 7675              		.loc 1 2250 9
 7676 009c 204B     		ldr	r3, .L710+4
 7677 009e 1B88     		ldrh	r3, [r3]
 7678 00a0 013B     		subs	r3, r3, #1
 7679 00a2 9AB2     		uxth	r2, r3
 7680              		.loc 1 2250 5
 7681 00a4 1E4B     		ldr	r3, .L710+4
 7682 00a6 1A80     		strh	r2, [r3]	@ movhi
 7683              		.loc 1 2250 9
 7684 00a8 1D4B     		ldr	r3, .L710+4
 7685 00aa 1B88     		ldrh	r3, [r3]
 7686              		.loc 1 2250 5
 7687 00ac 002B     		cmp	r3, #0
 7688 00ae 05D1     		bne	.L704
 7689              	.L703:
2251:../app/app.c  **** 				dc_motor_Stop();
 7690              		.loc 1 2251 5
 7691 00b0 FFF7FEFF 		bl	dc_motor_Stop
2252:../app/app.c  **** 				sta = 5;
 7692              		.loc 1 2252 9
 7693 00b4 194B     		ldr	r3, .L710
 7694 00b6 0522     		movs	r2, #5
 7695 00b8 1A70     		strb	r2, [r3]
2253:../app/app.c  **** 			}
2254:../app/app.c  **** 			else {
2255:../app/app.c  **** 				osal_lyh_delay_task(Ms_100);
2256:../app/app.c  **** 			}
2257:../app/app.c  **** 			break;
 7696              		.loc 1 2257 4
 7697 00ba 2BE0     		b	.L702
 7698              	.L704:
2255:../app/app.c  **** 			}
 7699              		.loc 1 2255 5
 7700 00bc 6420     		movs	r0, #100
 7701 00be FFF7FEFF 		bl	osal_lyh_delay_task
 7702              		.loc 1 2257 4
 7703 00c2 27E0     		b	.L702
 7704              	.L696:
2258:../app/app.c  **** 		 /* ĶÉāÕÅ¢ńöĄµ£║Õø×ĶĮ¼Õł░ÕÄ¤õĮŹ */
2259:../app/app.c  **** 		case 5:										
2260:../app/app.c  **** 			dc_motor_Start(MOTOR_LEFT);
 7705              		.loc 1 2260 4
 7706 00c4 0220     		movs	r0, #2
 7707 00c6 FFF7FEFF 		bl	dc_motor_Start
2261:../app/app.c  **** 			osal_lyh_delay_task(Ms_100);
 7708              		.loc 1 2261 4
 7709 00ca 6420     		movs	r0, #100
 7710 00cc FFF7FEFF 		bl	osal_lyh_delay_task
2262:../app/app.c  **** 			run_max_time = LEFT_TIMER(MOTOR_FIX_TIME, Ms_100);
 7711              		.loc 1 2262 17
 7712 00d0 134B     		ldr	r3, .L710+4
 7713 00d2 0322     		movs	r2, #3
 7714 00d4 1A80     		strh	r2, [r3]	@ movhi
2263:../app/app.c  **** 			sta = 6;
 7715              		.loc 1 2263 8
 7716 00d6 114B     		ldr	r3, .L710
 7717 00d8 0622     		movs	r2, #6
 7718 00da 1A70     		strb	r2, [r3]
2264:../app/app.c  **** 			break;
 7719              		.loc 1 2264 4
 7720 00dc 1AE0     		b	.L702
 7721              	.L694:
2265:../app/app.c  **** 		 /* Õłżµ¢ŁĶÉāÕÅ¢ńöĄµ£║µś»ÕÉ”Õø×ĶĮ¼Õł░ÕÄ¤õĮŹ */
2266:../app/app.c  **** 		case 6:									
2267:../app/app.c  **** 			if (1/*(FAIL == app_motor_ready())*/	// deleting point,(temp to cancel) 
2268:../app/app.c  **** 				&& ((MOTOR_STATE_STOPED ==dc_motor_GetState())
 7722              		.loc 1 2268 31
 7723 00de FFF7FEFF 		bl	dc_motor_GetState
 7724 00e2 0346     		mov	r3, r0
2267:../app/app.c  **** 				&& ((MOTOR_STATE_STOPED ==dc_motor_GetState())
 7725              		.loc 1 2267 7
 7726 00e4 002B     		cmp	r3, #0
 7727 00e6 09D0     		beq	.L706
2269:../app/app.c  **** 				|| (--run_max_time == 0))){
 7728              		.loc 1 2269 9
 7729 00e8 0D4B     		ldr	r3, .L710+4
 7730 00ea 1B88     		ldrh	r3, [r3]
 7731 00ec 013B     		subs	r3, r3, #1
 7732 00ee 9AB2     		uxth	r2, r3
2268:../app/app.c  **** 				|| (--run_max_time == 0))){
 7733              		.loc 1 2268 5
 7734 00f0 0B4B     		ldr	r3, .L710+4
 7735 00f2 1A80     		strh	r2, [r3]	@ movhi
 7736              		.loc 1 2269 9
 7737 00f4 0A4B     		ldr	r3, .L710+4
 7738 00f6 1B88     		ldrh	r3, [r3]
2268:../app/app.c  **** 				|| (--run_max_time == 0))){
 7739              		.loc 1 2268 5
 7740 00f8 002B     		cmp	r3, #0
 7741 00fa 06D1     		bne	.L707
 7742              	.L706:
2270:../app/app.c  **** 				dc_motor_Stop();
 7743              		.loc 1 2270 5
 7744 00fc FFF7FEFF 		bl	dc_motor_Stop
2271:../app/app.c  **** 				sta = 0;
 7745              		.loc 1 2271 9
 7746 0100 064B     		ldr	r3, .L710
 7747 0102 0022     		movs	r2, #0
 7748 0104 1A70     		strb	r2, [r3]
2272:../app/app.c  **** 				return TRUE;
 7749              		.loc 1 2272 12
 7750 0106 0123     		movs	r3, #1
 7751 0108 05E0     		b	.L708
 7752              	.L707:
2273:../app/app.c  **** 			}
2274:../app/app.c  **** 			else {
2275:../app/app.c  **** 				osal_lyh_delay_task(Ms_100);
 7753              		.loc 1 2275 5
 7754 010a 6420     		movs	r0, #100
 7755 010c FFF7FEFF 		bl	osal_lyh_delay_task
2276:../app/app.c  **** 			}
2277:../app/app.c  **** 			break;
 7756              		.loc 1 2277 4
 7757 0110 00E0     		b	.L702
 7758              	.L709:
2278:../app/app.c  **** 		default:
2279:../app/app.c  **** 			break;
 7759              		.loc 1 2279 4
 7760 0112 00BF     		nop
 7761              	.L702:
2280:../app/app.c  **** 	}
2281:../app/app.c  **** 	return FAIL;
 7762              		.loc 1 2281 9
 7763 0114 0023     		movs	r3, #0
 7764              	.L708:
2282:../app/app.c  **** }
 7765              		.loc 1 2282 1
 7766 0116 1846     		mov	r0, r3
 7767 0118 80BD     		pop	{r7, pc}
 7768              	.L711:
 7769 011a 00BF     		.align	2
 7770              	.L710:
 7771 011c 00000000 		.word	sta.8894
 7772 0120 00000000 		.word	run_max_time
 7773              		.cfi_endproc
 7774              	.LFE179:
 7776              		.section	.text.app_running_onoff_drop_beans_handler,"ax",%progbits
 7777              		.align	1
 7778              		.global	app_running_onoff_drop_beans_handler
 7779              		.syntax unified
 7780              		.thumb
 7781              		.thumb_func
 7782              		.fpu softvfp
 7784              	app_running_onoff_drop_beans_handler:
 7785              	.LFB180:
2283:../app/app.c  **** 
2284:../app/app.c  **** /**************************************************************************
2285:../app/app.c  ****  * @brief Õ£©õĖóÕÆ¢ÕĢĪµĖŻńŖČµĆüõĖŗµīēõĖŗON/OFFķö«ńÜäÕżäńÉåÕćĮµĢ░
2286:../app/app.c  ****  * @return TRUE’╝ÜµĄüń©ŗń╗ōµØ¤’╝īĶÉāÕÅ¢ńöĄµ£║Õżäõ║ÄÕÄ¤õĮŹ’╝ī FAIL’╝ÜµĄüń©ŗµē¦ĶĪīõĖŁ
2287:../app/app.c  ****  * @note Ķ»źÕćĮµĢ░Õ£©espresso, americanońÜäõĖóÕÆ¢ÕĢĪµĖŻńŖČµĆüõĖŗµīēõĖŗON/OFFķö«µŚČĶó½Ķ░āńö©
2288:../app/app.c  ****  *************************************************************************/
2289:../app/app.c  **** uint8_t app_running_onoff_drop_beans_handler(void)
2290:../app/app.c  **** {
 7786              		.loc 1 2290 1
 7787              		.cfi_startproc
 7788              		@ args = 0, pretend = 0, frame = 0
 7789              		@ frame_needed = 1, uses_anonymous_args = 0
 7790 0000 80B5     		push	{r7, lr}
 7791              		.cfi_def_cfa_offset 8
 7792              		.cfi_offset 7, -8
 7793              		.cfi_offset 14, -4
 7794 0002 00AF     		add	r7, sp, #0
 7795              		.cfi_def_cfa_register 7
2291:../app/app.c  **** 	static uint8_t sta = 0;
2292:../app/app.c  **** 	switch (sta)
 7796              		.loc 1 2292 2
 7797 0004 4F4B     		ldr	r3, .L735
 7798 0006 1B78     		ldrb	r3, [r3]	@ zero_extendqisi2
 7799 0008 072B     		cmp	r3, #7
 7800 000a 00F29680 		bhi	.L734
 7801 000e 01A2     		adr	r2, .L715
 7802 0010 52F823F0 		ldr	pc, [r2, r3, lsl #2]
 7803              		.p2align 2
 7804              	.L715:
 7805 0014 35000000 		.word	.L722+1
 7806 0018 41000000 		.word	.L721+1
 7807 001c 5F000000 		.word	.L720+1
 7808 0020 87000000 		.word	.L719+1
 7809 0024 97000000 		.word	.L718+1
 7810 0028 B1000000 		.word	.L717+1
 7811 002c ED000000 		.word	.L716+1
 7812 0030 07010000 		.word	.L714+1
 7813              		.p2align 1
 7814              	.L722:
2293:../app/app.c  **** 	{
2294:../app/app.c  **** 		/* Ķ┐øÕģźÕĆÆń▓ēÕłØÕ¦ŗÕī¢ */
2295:../app/app.c  **** 		case 0:
2296:../app/app.c  **** 			dc_motor_Stop();
 7815              		.loc 1 2296 4
 7816 0034 FFF7FEFF 		bl	dc_motor_Stop
2297:../app/app.c  **** 			sta = 1;
 7817              		.loc 1 2297 8
 7818 0038 424B     		ldr	r3, .L735
 7819 003a 0122     		movs	r2, #1
 7820 003c 1A70     		strb	r2, [r3]
2298:../app/app.c  **** 			break;
 7821              		.loc 1 2298 4
 7822 003e 7DE0     		b	.L723
 7823              	.L721:
2299:../app/app.c  **** 		/* ĶĮ¼ÕŖ©ńöĄµ£║ń╗¦ń╗ŁÕēŹÕŠĆÕĆÆń▓ē */	
2300:../app/app.c  **** 		case 1:
2301:../app/app.c  **** 			if(drop_beans_time){
 7824              		.loc 1 2301 7
 7825 0040 414B     		ldr	r3, .L735+4
 7826 0042 1B88     		ldrh	r3, [r3]
 7827              		.loc 1 2301 6
 7828 0044 002B     		cmp	r3, #0
 7829 0046 06D0     		beq	.L724
2302:../app/app.c  **** 				dc_motor_Start(MOTOR_RIGHT);
 7830              		.loc 1 2302 5
 7831 0048 0120     		movs	r0, #1
 7832 004a FFF7FEFF 		bl	dc_motor_Start
2303:../app/app.c  **** 				sta = 2;
 7833              		.loc 1 2303 9
 7834 004e 3D4B     		ldr	r3, .L735
 7835 0050 0222     		movs	r2, #2
 7836 0052 1A70     		strb	r2, [r3]
2304:../app/app.c  **** 			}
2305:../app/app.c  **** 			else{
2306:../app/app.c  **** 				sta = 3;
2307:../app/app.c  **** 			}
2308:../app/app.c  **** 			break;
 7837              		.loc 1 2308 4
 7838 0054 72E0     		b	.L723
 7839              	.L724:
2306:../app/app.c  **** 			}
 7840              		.loc 1 2306 9
 7841 0056 3B4B     		ldr	r3, .L735
 7842 0058 0322     		movs	r2, #3
 7843 005a 1A70     		strb	r2, [r3]
 7844              		.loc 1 2308 4
 7845 005c 6EE0     		b	.L723
 7846              	.L720:
2309:../app/app.c  **** 		/* Õłżµ¢ŁÕē®õĮÖĶĮ¼ÕŖ©µŚČķŚ┤ */	
2310:../app/app.c  **** 		case 2:
2311:../app/app.c  **** 			if(--drop_beans_time == 0){
 7847              		.loc 1 2311 7
 7848 005e 3A4B     		ldr	r3, .L735+4
 7849 0060 1B88     		ldrh	r3, [r3]
 7850 0062 013B     		subs	r3, r3, #1
 7851 0064 9AB2     		uxth	r2, r3
 7852              		.loc 1 2311 6
 7853 0066 384B     		ldr	r3, .L735+4
 7854 0068 1A80     		strh	r2, [r3]	@ movhi
 7855              		.loc 1 2311 7
 7856 006a 374B     		ldr	r3, .L735+4
 7857 006c 1B88     		ldrh	r3, [r3]
 7858              		.loc 1 2311 6
 7859 006e 002B     		cmp	r3, #0
 7860 0070 05D1     		bne	.L726
2312:../app/app.c  **** 				dc_motor_Stop();
 7861              		.loc 1 2312 5
 7862 0072 FFF7FEFF 		bl	dc_motor_Stop
2313:../app/app.c  **** 				sta = 3;
 7863              		.loc 1 2313 9
 7864 0076 334B     		ldr	r3, .L735
 7865 0078 0322     		movs	r2, #3
 7866 007a 1A70     		strb	r2, [r3]
2314:../app/app.c  **** 			}
2315:../app/app.c  **** 			else{
2316:../app/app.c  **** 				osal_lyh_delay_task(Ms_100);
2317:../app/app.c  **** 			}
2318:../app/app.c  **** 			break;
 7867              		.loc 1 2318 4
 7868 007c 5EE0     		b	.L723
 7869              	.L726:
2316:../app/app.c  **** 			}
 7870              		.loc 1 2316 5
 7871 007e 6420     		movs	r0, #100
 7872 0080 FFF7FEFF 		bl	osal_lyh_delay_task
 7873              		.loc 1 2318 4
 7874 0084 5AE0     		b	.L723
 7875              	.L719:
2319:../app/app.c  **** 		/* ÕĆÆń▓ēING */	
2320:../app/app.c  **** 		case 3:
2321:../app/app.c  **** 			osal_lyh_delay_task(Ms_3000);
 7876              		.loc 1 2321 4
 7877 0086 40F6B830 		movw	r0, #3000
 7878 008a FFF7FEFF 		bl	osal_lyh_delay_task
2322:../app/app.c  **** 			sta = 4;
 7879              		.loc 1 2322 8
 7880 008e 2D4B     		ldr	r3, .L735
 7881 0090 0422     		movs	r2, #4
 7882 0092 1A70     		strb	r2, [r3]
2323:../app/app.c  **** 			break;
 7883              		.loc 1 2323 4
 7884 0094 52E0     		b	.L723
 7885              	.L718:
2324:../app/app.c  **** 		/* ńöĄµ£║ÕÉæÕÄ¤ńé╣ĶĮ¼ÕŖ© */	
2325:../app/app.c  **** 		case 4:		
2326:../app/app.c  **** 			dc_motor_Start(MOTOR_RIGHT);
 7886              		.loc 1 2326 4
 7887 0096 0120     		movs	r0, #1
 7888 0098 FFF7FEFF 		bl	dc_motor_Start
2327:../app/app.c  **** 			osal_lyh_delay_task(Ms_100);
 7889              		.loc 1 2327 4
 7890 009c 6420     		movs	r0, #100
 7891 009e FFF7FEFF 		bl	osal_lyh_delay_task
2328:../app/app.c  **** 			run_max_time = RIGHT_TIMER(Ms_5000, Ms_100);
 7892              		.loc 1 2328 17
 7893 00a2 2A4B     		ldr	r3, .L735+8
 7894 00a4 3222     		movs	r2, #50
 7895 00a6 1A80     		strh	r2, [r3]	@ movhi
2329:../app/app.c  **** 			sta = 5;
 7896              		.loc 1 2329 8
 7897 00a8 264B     		ldr	r3, .L735
 7898 00aa 0522     		movs	r2, #5
 7899 00ac 1A70     		strb	r2, [r3]
2330:../app/app.c  **** 			break;
 7900              		.loc 1 2330 4
 7901 00ae 45E0     		b	.L723
 7902              	.L717:
2331:../app/app.c  **** 		/* Õłżµ¢ŁńöĄµ£║µś»ÕÉ”Õł░ÕÄ¤ńé╣Ķ¦”ńé╣ */		
2332:../app/app.c  **** 		case 5:			
2333:../app/app.c  **** 			if ((MOTOR_STATE_STOPED ==dc_motor_GetState())
 7903              		.loc 1 2333 30
 7904 00b0 FFF7FEFF 		bl	dc_motor_GetState
 7905 00b4 0346     		mov	r3, r0
 7906              		.loc 1 2333 7
 7907 00b6 002B     		cmp	r3, #0
 7908 00b8 0ED0     		beq	.L728
2334:../app/app.c  **** 				|| (TRUE == app_motor_ready())
 7909              		.loc 1 2334 17
 7910 00ba FFF7FEFF 		bl	app_motor_ready
 7911 00be 0346     		mov	r3, r0
 7912              		.loc 1 2334 5
 7913 00c0 012B     		cmp	r3, #1
 7914 00c2 09D0     		beq	.L728
2335:../app/app.c  **** 				|| (--run_max_time == 0)){
 7915              		.loc 1 2335 9
 7916 00c4 214B     		ldr	r3, .L735+8
 7917 00c6 1B88     		ldrh	r3, [r3]
 7918 00c8 013B     		subs	r3, r3, #1
 7919 00ca 9AB2     		uxth	r2, r3
 7920              		.loc 1 2335 5
 7921 00cc 1F4B     		ldr	r3, .L735+8
 7922 00ce 1A80     		strh	r2, [r3]	@ movhi
 7923              		.loc 1 2335 9
 7924 00d0 1E4B     		ldr	r3, .L735+8
 7925 00d2 1B88     		ldrh	r3, [r3]
 7926              		.loc 1 2335 5
 7927 00d4 002B     		cmp	r3, #0
 7928 00d6 05D1     		bne	.L729
 7929              	.L728:
2336:../app/app.c  **** 				dc_motor_Stop();
 7930              		.loc 1 2336 5
 7931 00d8 FFF7FEFF 		bl	dc_motor_Stop
2337:../app/app.c  **** 				sta = 6;					
 7932              		.loc 1 2337 9
 7933 00dc 194B     		ldr	r3, .L735
 7934 00de 0622     		movs	r2, #6
 7935 00e0 1A70     		strb	r2, [r3]
2338:../app/app.c  **** 			}
2339:../app/app.c  **** 			else {
2340:../app/app.c  **** 				osal_lyh_delay_task(Ms_100);
2341:../app/app.c  **** 			}
2342:../app/app.c  **** 			break;
 7936              		.loc 1 2342 4
 7937 00e2 2BE0     		b	.L723
 7938              	.L729:
2340:../app/app.c  **** 			}
 7939              		.loc 1 2340 5
 7940 00e4 6420     		movs	r0, #100
 7941 00e6 FFF7FEFF 		bl	osal_lyh_delay_task
 7942              		.loc 1 2342 4
 7943 00ea 27E0     		b	.L723
 7944              	.L716:
2343:../app/app.c  **** 		/* ńöĄµ£║Õø×ĶĮ¼Õł░ÕÄ¤õĮŹ */	
2344:../app/app.c  **** 		case 6:			
2345:../app/app.c  **** 			dc_motor_Start(MOTOR_LEFT);
 7945              		.loc 1 2345 4
 7946 00ec 0220     		movs	r0, #2
 7947 00ee FFF7FEFF 		bl	dc_motor_Start
2346:../app/app.c  **** 			osal_lyh_delay_task(Ms_100);
 7948              		.loc 1 2346 4
 7949 00f2 6420     		movs	r0, #100
 7950 00f4 FFF7FEFF 		bl	osal_lyh_delay_task
2347:../app/app.c  **** 			run_max_time = LEFT_TIMER(MOTOR_FIX_TIME, Ms_100);
 7951              		.loc 1 2347 17
 7952 00f8 144B     		ldr	r3, .L735+8
 7953 00fa 0322     		movs	r2, #3
 7954 00fc 1A80     		strh	r2, [r3]	@ movhi
2348:../app/app.c  **** 			sta = 7;
 7955              		.loc 1 2348 8
 7956 00fe 114B     		ldr	r3, .L735
 7957 0100 0722     		movs	r2, #7
 7958 0102 1A70     		strb	r2, [r3]
2349:../app/app.c  **** 			break;	
 7959              		.loc 1 2349 4
 7960 0104 1AE0     		b	.L723
 7961              	.L714:
2350:../app/app.c  **** 		case 7:	//Õłżµ¢ŁńöĄµ£║µś»ÕÉ”Õø×ĶĮ¼Õł░ÕÄ¤õĮŹ
2351:../app/app.c  **** 			if (1/*(FAIL == app_motor_ready())*/	// deleting point,(temp to cancel)
2352:../app/app.c  **** 				&& ((MOTOR_STATE_STOPED ==dc_motor_GetState())
 7962              		.loc 1 2352 31
 7963 0106 FFF7FEFF 		bl	dc_motor_GetState
 7964 010a 0346     		mov	r3, r0
2351:../app/app.c  **** 				&& ((MOTOR_STATE_STOPED ==dc_motor_GetState())
 7965              		.loc 1 2351 7
 7966 010c 002B     		cmp	r3, #0
 7967 010e 09D0     		beq	.L731
2353:../app/app.c  **** 				|| (--run_max_time == 0))){
 7968              		.loc 1 2353 9
 7969 0110 0E4B     		ldr	r3, .L735+8
 7970 0112 1B88     		ldrh	r3, [r3]
 7971 0114 013B     		subs	r3, r3, #1
 7972 0116 9AB2     		uxth	r2, r3
2352:../app/app.c  **** 				|| (--run_max_time == 0))){
 7973              		.loc 1 2352 5
 7974 0118 0C4B     		ldr	r3, .L735+8
 7975 011a 1A80     		strh	r2, [r3]	@ movhi
 7976              		.loc 1 2353 9
 7977 011c 0B4B     		ldr	r3, .L735+8
 7978 011e 1B88     		ldrh	r3, [r3]
2352:../app/app.c  **** 				|| (--run_max_time == 0))){
 7979              		.loc 1 2352 5
 7980 0120 002B     		cmp	r3, #0
 7981 0122 06D1     		bne	.L732
 7982              	.L731:
2354:../app/app.c  **** 				dc_motor_Stop();
 7983              		.loc 1 2354 5
 7984 0124 FFF7FEFF 		bl	dc_motor_Stop
2355:../app/app.c  **** 				sta = 0;
 7985              		.loc 1 2355 9
 7986 0128 064B     		ldr	r3, .L735
 7987 012a 0022     		movs	r2, #0
 7988 012c 1A70     		strb	r2, [r3]
2356:../app/app.c  **** 				return TRUE;
 7989              		.loc 1 2356 12
 7990 012e 0123     		movs	r3, #1
 7991 0130 05E0     		b	.L733
 7992              	.L732:
2357:../app/app.c  **** 			}
2358:../app/app.c  **** 			else {
2359:../app/app.c  **** 				osal_lyh_delay_task(Ms_100);
 7993              		.loc 1 2359 5
 7994 0132 6420     		movs	r0, #100
 7995 0134 FFF7FEFF 		bl	osal_lyh_delay_task
2360:../app/app.c  **** 			}
2361:../app/app.c  **** 			break;			
 7996              		.loc 1 2361 4
 7997 0138 00E0     		b	.L723
 7998              	.L734:
2362:../app/app.c  **** 		default:
2363:../app/app.c  **** 			break;
 7999              		.loc 1 2363 4
 8000 013a 00BF     		nop
 8001              	.L723:
2364:../app/app.c  **** 	}	
2365:../app/app.c  **** 	return FAIL;
 8002              		.loc 1 2365 9
 8003 013c 0023     		movs	r3, #0
 8004              	.L733:
2366:../app/app.c  **** }
 8005              		.loc 1 2366 1
 8006 013e 1846     		mov	r0, r3
 8007 0140 80BD     		pop	{r7, pc}
 8008              	.L736:
 8009 0142 00BF     		.align	2
 8010              	.L735:
 8011 0144 00000000 		.word	sta.8907
 8012 0148 00000000 		.word	drop_beans_time
 8013 014c 00000000 		.word	run_max_time
 8014              		.cfi_endproc
 8015              	.LFE180:
 8017              		.section	.text.app_running_onoff_rst_handler,"ax",%progbits
 8018              		.align	1
 8019              		.global	app_running_onoff_rst_handler
 8020              		.syntax unified
 8021              		.thumb
 8022              		.thumb_func
 8023              		.fpu softvfp
 8025              	app_running_onoff_rst_handler:
 8026              	.LFB181:
2367:../app/app.c  **** 
2368:../app/app.c  **** /**************************************************************************
2369:../app/app.c  ****  * @brief Õ£©ĶÉāÕÅ¢ńöĄµ£║Õø×ÕÄ¤õĮŹńŖČµĆüõĖŗµīēõĖŗON/OFFķö«ńÜäÕżäńÉåÕćĮµĢ░
2370:../app/app.c  ****  * @return TRUE’╝ÜµĄüń©ŗń╗ōµØ¤’╝īĶÉāÕÅ¢ńöĄµ£║Õżäõ║ÄÕÄ¤õĮŹ’╝ī FAIL’╝ÜµĄüń©ŗµē¦ĶĪīõĖŁ
2371:../app/app.c  ****  * @note Ķ»źÕćĮµĢ░Õ£©espresso, americanońÜäĶÉāÕÅ¢ńöĄµ£║Õø×ÕÄ¤õĮŹńŖČµĆüõĖŗµīēõĖŗON/OFFķö«µŚČĶó½Ķ░āńö
2372:../app/app.c  ****  *************************************************************************/
2373:../app/app.c  **** uint8_t app_running_onoff_rst_handler(void)
2374:../app/app.c  **** {
 8027              		.loc 1 2374 1
 8028              		.cfi_startproc
 8029              		@ args = 0, pretend = 0, frame = 0
 8030              		@ frame_needed = 1, uses_anonymous_args = 0
 8031 0000 80B5     		push	{r7, lr}
 8032              		.cfi_def_cfa_offset 8
 8033              		.cfi_offset 7, -8
 8034              		.cfi_offset 14, -4
 8035 0002 00AF     		add	r7, sp, #0
 8036              		.cfi_def_cfa_register 7
2375:../app/app.c  **** 	static uint8_t sta = 0;
2376:../app/app.c  **** 	switch (sta)
 8037              		.loc 1 2376 2
 8038 0004 364B     		ldr	r3, .L753
 8039 0006 1B78     		ldrb	r3, [r3]	@ zero_extendqisi2
 8040 0008 042B     		cmp	r3, #4
 8041 000a 65D8     		bhi	.L752
 8042 000c 01A2     		adr	r2, .L740
 8043 000e 52F823F0 		ldr	pc, [r2, r3, lsl #2]
 8044 0012 00BF     		.p2align 2
 8045              	.L740:
 8046 0014 29000000 		.word	.L744+1
 8047 0018 35000000 		.word	.L743+1
 8048 001c 4F000000 		.word	.L742+1
 8049 0020 8B000000 		.word	.L741+1
 8050 0024 A5000000 		.word	.L739+1
 8051              		.p2align 1
 8052              	.L744:
2377:../app/app.c  **** 	{
2378:../app/app.c  **** 		/* ÕżŹõĮŹÕłØÕ¦ŗÕī¢ */
2379:../app/app.c  **** 		case 0:
2380:../app/app.c  **** 			dc_motor_Stop();
 8053              		.loc 1 2380 4
 8054 0028 FFF7FEFF 		bl	dc_motor_Stop
2381:../app/app.c  **** 			sta = 1;
 8055              		.loc 1 2381 8
 8056 002c 2C4B     		ldr	r3, .L753
 8057 002e 0122     		movs	r2, #1
 8058 0030 1A70     		strb	r2, [r3]
2382:../app/app.c  **** 			break;
 8059              		.loc 1 2382 4
 8060 0032 52E0     		b	.L745
 8061              	.L743:
2383:../app/app.c  **** 		/* ÕüÜÕø×ĶĮ¼Õł░ÕÄ¤õĮŹÕŖ©õĮ£ */	
2384:../app/app.c  **** 		case 1:
2385:../app/app.c  **** 			dc_motor_Start(MOTOR_RIGHT);
 8062              		.loc 1 2385 4
 8063 0034 0120     		movs	r0, #1
 8064 0036 FFF7FEFF 		bl	dc_motor_Start
2386:../app/app.c  **** 			osal_lyh_delay_task(Ms_100);
 8065              		.loc 1 2386 4
 8066 003a 6420     		movs	r0, #100
 8067 003c FFF7FEFF 		bl	osal_lyh_delay_task
2387:../app/app.c  **** 			run_max_time = RIGHT_TIMER(Ms_5000, Ms_100);
 8068              		.loc 1 2387 17
 8069 0040 284B     		ldr	r3, .L753+4
 8070 0042 3222     		movs	r2, #50
 8071 0044 1A80     		strh	r2, [r3]	@ movhi
2388:../app/app.c  **** 			sta = 2;
 8072              		.loc 1 2388 8
 8073 0046 264B     		ldr	r3, .L753
 8074 0048 0222     		movs	r2, #2
 8075 004a 1A70     		strb	r2, [r3]
2389:../app/app.c  **** 			break;
 8076              		.loc 1 2389 4
 8077 004c 45E0     		b	.L745
 8078              	.L742:
2390:../app/app.c  **** 		/* Õłżµ¢ŁńöĄµ£║µś»ÕÉ”Õł░ÕÄ¤ńé╣Ķ¦”ńé╣ */		
2391:../app/app.c  **** 		case 2:			
2392:../app/app.c  **** 			if ((MOTOR_STATE_STOPED ==dc_motor_GetState())
 8079              		.loc 1 2392 30
 8080 004e FFF7FEFF 		bl	dc_motor_GetState
 8081 0052 0346     		mov	r3, r0
 8082              		.loc 1 2392 7
 8083 0054 002B     		cmp	r3, #0
 8084 0056 0ED0     		beq	.L746
2393:../app/app.c  **** 				|| (TRUE == app_motor_ready())
 8085              		.loc 1 2393 17
 8086 0058 FFF7FEFF 		bl	app_motor_ready
 8087 005c 0346     		mov	r3, r0
 8088              		.loc 1 2393 5
 8089 005e 012B     		cmp	r3, #1
 8090 0060 09D0     		beq	.L746
2394:../app/app.c  **** 				|| (--run_max_time == 0)){
 8091              		.loc 1 2394 9
 8092 0062 204B     		ldr	r3, .L753+4
 8093 0064 1B88     		ldrh	r3, [r3]
 8094 0066 013B     		subs	r3, r3, #1
 8095 0068 9AB2     		uxth	r2, r3
 8096              		.loc 1 2394 5
 8097 006a 1E4B     		ldr	r3, .L753+4
 8098 006c 1A80     		strh	r2, [r3]	@ movhi
 8099              		.loc 1 2394 9
 8100 006e 1D4B     		ldr	r3, .L753+4
 8101 0070 1B88     		ldrh	r3, [r3]
 8102              		.loc 1 2394 5
 8103 0072 002B     		cmp	r3, #0
 8104 0074 05D1     		bne	.L747
 8105              	.L746:
2395:../app/app.c  **** 				dc_motor_Stop();
 8106              		.loc 1 2395 5
 8107 0076 FFF7FEFF 		bl	dc_motor_Stop
2396:../app/app.c  **** 				sta = 3;					
 8108              		.loc 1 2396 9
 8109 007a 194B     		ldr	r3, .L753
 8110 007c 0322     		movs	r2, #3
 8111 007e 1A70     		strb	r2, [r3]
2397:../app/app.c  **** 			}
2398:../app/app.c  **** 			else {
2399:../app/app.c  **** 				osal_lyh_delay_task(Ms_100);
2400:../app/app.c  **** 			}
2401:../app/app.c  **** 			break;
 8112              		.loc 1 2401 4
 8113 0080 2BE0     		b	.L745
 8114              	.L747:
2399:../app/app.c  **** 			}
 8115              		.loc 1 2399 5
 8116 0082 6420     		movs	r0, #100
 8117 0084 FFF7FEFF 		bl	osal_lyh_delay_task
 8118              		.loc 1 2401 4
 8119 0088 27E0     		b	.L745
 8120              	.L741:
2402:../app/app.c  **** 		/* ńöĄµ£║Õø×ĶĮ¼Õł░ÕÄ¤õĮŹ */	
2403:../app/app.c  **** 		case 3:			
2404:../app/app.c  **** 			dc_motor_Start(MOTOR_LEFT);
 8121              		.loc 1 2404 4
 8122 008a 0220     		movs	r0, #2
 8123 008c FFF7FEFF 		bl	dc_motor_Start
2405:../app/app.c  **** 			osal_lyh_delay_task(Ms_100);
 8124              		.loc 1 2405 4
 8125 0090 6420     		movs	r0, #100
 8126 0092 FFF7FEFF 		bl	osal_lyh_delay_task
2406:../app/app.c  **** 			run_max_time = LEFT_TIMER(MOTOR_FIX_TIME, Ms_100);
 8127              		.loc 1 2406 17
 8128 0096 134B     		ldr	r3, .L753+4
 8129 0098 0322     		movs	r2, #3
 8130 009a 1A80     		strh	r2, [r3]	@ movhi
2407:../app/app.c  **** 			sta = 4;
 8131              		.loc 1 2407 8
 8132 009c 104B     		ldr	r3, .L753
 8133 009e 0422     		movs	r2, #4
 8134 00a0 1A70     		strb	r2, [r3]
2408:../app/app.c  **** 			break;	
 8135              		.loc 1 2408 4
 8136 00a2 1AE0     		b	.L745
 8137              	.L739:
2409:../app/app.c  **** 		case 4:	//Õłżµ¢ŁńöĄµ£║µś»ÕÉ”Õø×ĶĮ¼Õł░ÕÄ¤õĮŹ
2410:../app/app.c  **** 			if (1/*(FAIL == app_motor_ready())*/	// deleting point,(temp to cancel)
2411:../app/app.c  **** 				&& ((MOTOR_STATE_STOPED ==dc_motor_GetState())
 8138              		.loc 1 2411 31
 8139 00a4 FFF7FEFF 		bl	dc_motor_GetState
 8140 00a8 0346     		mov	r3, r0
2410:../app/app.c  **** 				&& ((MOTOR_STATE_STOPED ==dc_motor_GetState())
 8141              		.loc 1 2410 7
 8142 00aa 002B     		cmp	r3, #0
 8143 00ac 09D0     		beq	.L749
2412:../app/app.c  **** 				|| (--run_max_time == 0))){
 8144              		.loc 1 2412 9
 8145 00ae 0D4B     		ldr	r3, .L753+4
 8146 00b0 1B88     		ldrh	r3, [r3]
 8147 00b2 013B     		subs	r3, r3, #1
 8148 00b4 9AB2     		uxth	r2, r3
2411:../app/app.c  **** 				|| (--run_max_time == 0))){
 8149              		.loc 1 2411 5
 8150 00b6 0B4B     		ldr	r3, .L753+4
 8151 00b8 1A80     		strh	r2, [r3]	@ movhi
 8152              		.loc 1 2412 9
 8153 00ba 0A4B     		ldr	r3, .L753+4
 8154 00bc 1B88     		ldrh	r3, [r3]
2411:../app/app.c  **** 				|| (--run_max_time == 0))){
 8155              		.loc 1 2411 5
 8156 00be 002B     		cmp	r3, #0
 8157 00c0 06D1     		bne	.L750
 8158              	.L749:
2413:../app/app.c  **** 				dc_motor_Stop();
 8159              		.loc 1 2413 5
 8160 00c2 FFF7FEFF 		bl	dc_motor_Stop
2414:../app/app.c  **** 				sta = 0;
 8161              		.loc 1 2414 9
 8162 00c6 064B     		ldr	r3, .L753
 8163 00c8 0022     		movs	r2, #0
 8164 00ca 1A70     		strb	r2, [r3]
2415:../app/app.c  **** 				return TRUE;
 8165              		.loc 1 2415 12
 8166 00cc 0123     		movs	r3, #1
 8167 00ce 05E0     		b	.L751
 8168              	.L750:
2416:../app/app.c  **** 			}
2417:../app/app.c  **** 			else {
2418:../app/app.c  **** 				osal_lyh_delay_task(Ms_100);
 8169              		.loc 1 2418 5
 8170 00d0 6420     		movs	r0, #100
 8171 00d2 FFF7FEFF 		bl	osal_lyh_delay_task
2419:../app/app.c  **** 			}
2420:../app/app.c  **** 			break;			
 8172              		.loc 1 2420 4
 8173 00d6 00E0     		b	.L745
 8174              	.L752:
2421:../app/app.c  **** 		default:
2422:../app/app.c  **** 			break;
 8175              		.loc 1 2422 4
 8176 00d8 00BF     		nop
 8177              	.L745:
2423:../app/app.c  **** 	}
2424:../app/app.c  **** 	return FAIL;
 8178              		.loc 1 2424 9
 8179 00da 0023     		movs	r3, #0
 8180              	.L751:
2425:../app/app.c  **** }
 8181              		.loc 1 2425 1
 8182 00dc 1846     		mov	r0, r3
 8183 00de 80BD     		pop	{r7, pc}
 8184              	.L754:
 8185              		.align	2
 8186              	.L753:
 8187 00e0 00000000 		.word	sta.8921
 8188 00e4 00000000 		.word	run_max_time
 8189              		.cfi_endproc
 8190              	.LFE181:
 8192              		.section	.text.app_running_onoff_flush_handler,"ax",%progbits
 8193              		.align	1
 8194              		.global	app_running_onoff_flush_handler
 8195              		.syntax unified
 8196              		.thumb
 8197              		.thumb_func
 8198              		.fpu softvfp
 8200              	app_running_onoff_flush_handler:
 8201              	.LFB182:
2426:../app/app.c  **** 
2427:../app/app.c  **** /**************************************************************************
2428:../app/app.c  ****  * @brief Õå▓µ┤Śń«ĪĶĘ»ÕćĮµĢ░ÕżäńÉåµĄüń©ŗ
2429:../app/app.c  ****  * @return TRUE’╝ÜµĄüń©ŗń╗ōµØ¤’╝īĶÉāÕÅ¢ńöĄµ£║Õżäõ║ÄÕÄ¤õĮŹ’╝ī FAIL’╝ÜµĄüń©ŗµē¦ĶĪīõĖŁ
2430:../app/app.c  ****  * @note Ķ┐øÕģźµŁżÕćĮµĢ░ÕÉÄõ╝ÜµŻĆµĄŗĶÉāÕÅ¢ńöĄµ£║ńÜäõĮŹńĮ«’╝īÕåŹÕÄ╗µÄźµ░┤Õå▓µ┤Ś
2431:../app/app.c  ****  *************************************************************************/
2432:../app/app.c  **** uint8_t app_running_onoff_flush_handler(void)
2433:../app/app.c  **** {
 8202              		.loc 1 2433 1
 8203              		.cfi_startproc
 8204              		@ args = 0, pretend = 0, frame = 0
 8205              		@ frame_needed = 1, uses_anonymous_args = 0
 8206 0000 80B5     		push	{r7, lr}
 8207              		.cfi_def_cfa_offset 8
 8208              		.cfi_offset 7, -8
 8209              		.cfi_offset 14, -4
 8210 0002 00AF     		add	r7, sp, #0
 8211              		.cfi_def_cfa_register 7
2434:../app/app.c  **** 	static uint8_t sta = 0;
2435:../app/app.c  **** 	switch (sta)
 8212              		.loc 1 2435 2
 8213 0004 8E4B     		ldr	r3, .L788
 8214 0006 1B78     		ldrb	r3, [r3]	@ zero_extendqisi2
 8215 0008 0C2B     		cmp	r3, #12
 8216 000a 00F21481 		bhi	.L787
 8217 000e 01A2     		adr	r2, .L758
 8218 0010 52F823F0 		ldr	pc, [r2, r3, lsl #2]
 8219              		.p2align 2
 8220              	.L758:
 8221 0014 49000000 		.word	.L770+1
 8222 0018 63000000 		.word	.L769+1
 8223 001c 7D000000 		.word	.L768+1
 8224 0020 B9000000 		.word	.L767+1
 8225 0024 D3000000 		.word	.L766+1
 8226 0028 0D010000 		.word	.L765+1
 8227 002c 27010000 		.word	.L764+1
 8228 0030 63010000 		.word	.L763+1
 8229 0034 79010000 		.word	.L762+1
 8230 0038 8D010000 		.word	.L761+1
 8231 003c A9010000 		.word	.L760+1
 8232 0040 E5010000 		.word	.L759+1
 8233 0044 FF010000 		.word	.L757+1
 8234              		.p2align 1
 8235              	.L770:
2436:../app/app.c  **** 	{	
2437:../app/app.c  **** 		/* Ķ┐øÕģźµĖģµ┤ŚÕłØÕ¦ŗÕī¢ */
2438:../app/app.c  **** 		case 0:
2439:../app/app.c  **** 			dc_motor_Stop();
 8236              		.loc 1 2439 4
 8237 0048 FFF7FEFF 		bl	dc_motor_Stop
2440:../app/app.c  **** 			app_turn_heat_on(TARGET_TEMP_HOTWATER);
 8238              		.loc 1 2440 4
 8239 004c 40F61520 		movw	r0, #2581
 8240 0050 FFF7FEFF 		bl	app_turn_heat_on
2441:../app/app.c  **** 			osal_lyh_delay_task(Ms_100);
 8241              		.loc 1 2441 4
 8242 0054 6420     		movs	r0, #100
 8243 0056 FFF7FEFF 		bl	osal_lyh_delay_task
2442:../app/app.c  **** 			sta = 1;
 8244              		.loc 1 2442 8
 8245 005a 794B     		ldr	r3, .L788
 8246 005c 0122     		movs	r2, #1
 8247 005e 1A70     		strb	r2, [r3]
2443:../app/app.c  **** 			break;
 8248              		.loc 1 2443 4
 8249 0060 EAE0     		b	.L771
 8250              	.L769:
2444:../app/app.c  **** 		/* µŻĆµ¤źĶÉāÕÅ¢ńöĄµ£║õĮŹńĮ« */
2445:../app/app.c  **** 		case 1:
2446:../app/app.c  **** 			dc_motor_Start(MOTOR_RIGHT);
 8251              		.loc 1 2446 4
 8252 0062 0120     		movs	r0, #1
 8253 0064 FFF7FEFF 		bl	dc_motor_Start
2447:../app/app.c  **** 			osal_lyh_delay_task(Ms_100);
 8254              		.loc 1 2447 4
 8255 0068 6420     		movs	r0, #100
 8256 006a FFF7FEFF 		bl	osal_lyh_delay_task
2448:../app/app.c  **** 			run_max_time = RIGHT_TIMER(Ms_3000, Ms_100);
 8257              		.loc 1 2448 17
 8258 006e 754B     		ldr	r3, .L788+4
 8259 0070 1E22     		movs	r2, #30
 8260 0072 1A80     		strh	r2, [r3]	@ movhi
2449:../app/app.c  **** 			sta = 2;
 8261              		.loc 1 2449 8
 8262 0074 724B     		ldr	r3, .L788
 8263 0076 0222     		movs	r2, #2
 8264 0078 1A70     		strb	r2, [r3]
2450:../app/app.c  **** 			break;
 8265              		.loc 1 2450 4
 8266 007a DDE0     		b	.L771
 8267              	.L768:
2451:../app/app.c  **** 		/* Õłżµ¢ŁĶÉāÕÅ¢ńöĄµ£║µś»ÕÉ”Ķ¦”ńó░ÕÄ¤ńé╣Ķ¦”ńé╣ */
2452:../app/app.c  **** 		case 2:
2453:../app/app.c  **** 			if ((MOTOR_STATE_STOPED ==dc_motor_GetState())
 8268              		.loc 1 2453 30
 8269 007c FFF7FEFF 		bl	dc_motor_GetState
 8270 0080 0346     		mov	r3, r0
 8271              		.loc 1 2453 7
 8272 0082 002B     		cmp	r3, #0
 8273 0084 0ED0     		beq	.L772
2454:../app/app.c  **** 				|| (TRUE == app_motor_ready())
 8274              		.loc 1 2454 17
 8275 0086 FFF7FEFF 		bl	app_motor_ready
 8276 008a 0346     		mov	r3, r0
 8277              		.loc 1 2454 5
 8278 008c 012B     		cmp	r3, #1
 8279 008e 09D0     		beq	.L772
2455:../app/app.c  **** 				|| (--run_max_time == 0)){
 8280              		.loc 1 2455 9
 8281 0090 6C4B     		ldr	r3, .L788+4
 8282 0092 1B88     		ldrh	r3, [r3]
 8283 0094 013B     		subs	r3, r3, #1
 8284 0096 9AB2     		uxth	r2, r3
 8285              		.loc 1 2455 5
 8286 0098 6A4B     		ldr	r3, .L788+4
 8287 009a 1A80     		strh	r2, [r3]	@ movhi
 8288              		.loc 1 2455 9
 8289 009c 694B     		ldr	r3, .L788+4
 8290 009e 1B88     		ldrh	r3, [r3]
 8291              		.loc 1 2455 5
 8292 00a0 002B     		cmp	r3, #0
 8293 00a2 05D1     		bne	.L773
 8294              	.L772:
2456:../app/app.c  **** 				dc_motor_Stop();
 8295              		.loc 1 2456 5
 8296 00a4 FFF7FEFF 		bl	dc_motor_Stop
2457:../app/app.c  **** 				sta = 3;					
 8297              		.loc 1 2457 9
 8298 00a8 654B     		ldr	r3, .L788
 8299 00aa 0322     		movs	r2, #3
 8300 00ac 1A70     		strb	r2, [r3]
2458:../app/app.c  **** 			}
2459:../app/app.c  **** 			else {
2460:../app/app.c  **** 				osal_lyh_delay_task(Ms_100);
2461:../app/app.c  **** 			}
2462:../app/app.c  **** 			break;
 8301              		.loc 1 2462 4
 8302 00ae C3E0     		b	.L771
 8303              	.L773:
2460:../app/app.c  **** 			}
 8304              		.loc 1 2460 5
 8305 00b0 6420     		movs	r0, #100
 8306 00b2 FFF7FEFF 		bl	osal_lyh_delay_task
 8307              		.loc 1 2462 4
 8308 00b6 BFE0     		b	.L771
 8309              	.L767:
2463:../app/app.c  **** 		/* ĶÉāÕÅ¢ńöĄµ£║ÕÉæÕø×ĶĮ¼Õł░ÕÄ¤ńé╣ */
2464:../app/app.c  **** 		case 3:
2465:../app/app.c  **** 			dc_motor_Start(MOTOR_LEFT);
 8310              		.loc 1 2465 4
 8311 00b8 0220     		movs	r0, #2
 8312 00ba FFF7FEFF 		bl	dc_motor_Start
2466:../app/app.c  **** 			osal_lyh_delay_task(Ms_100);
 8313              		.loc 1 2466 4
 8314 00be 6420     		movs	r0, #100
 8315 00c0 FFF7FEFF 		bl	osal_lyh_delay_task
2467:../app/app.c  **** 			run_max_time = LEFT_TIMER(MOTOR_FIX_TIME, Ms_100);
 8316              		.loc 1 2467 17
 8317 00c4 5F4B     		ldr	r3, .L788+4
 8318 00c6 0322     		movs	r2, #3
 8319 00c8 1A80     		strh	r2, [r3]	@ movhi
2468:../app/app.c  **** 			sta = 4;
 8320              		.loc 1 2468 8
 8321 00ca 5D4B     		ldr	r3, .L788
 8322 00cc 0422     		movs	r2, #4
 8323 00ce 1A70     		strb	r2, [r3]
2469:../app/app.c  **** 			break;
 8324              		.loc 1 2469 4
 8325 00d0 B2E0     		b	.L771
 8326              	.L766:
2470:../app/app.c  **** 		/* Õłżµ¢ŁĶÉāÕÅ¢ńöĄµ£║µś»ÕÉ”Õ«īµłÉÕø×ĶĮ¼ */
2471:../app/app.c  **** 		case 4:
2472:../app/app.c  **** 			if (1/*(FAIL == app_motor_ready())*/	// deleting point,(temp to cancel)
2473:../app/app.c  **** 				&& ((MOTOR_STATE_STOPED ==dc_motor_GetState())
 8327              		.loc 1 2473 31
 8328 00d2 FFF7FEFF 		bl	dc_motor_GetState
 8329 00d6 0346     		mov	r3, r0
2472:../app/app.c  **** 				&& ((MOTOR_STATE_STOPED ==dc_motor_GetState())
 8330              		.loc 1 2472 7
 8331 00d8 002B     		cmp	r3, #0
 8332 00da 09D0     		beq	.L775
2474:../app/app.c  **** 				|| (--run_max_time == 0))){
 8333              		.loc 1 2474 9
 8334 00dc 594B     		ldr	r3, .L788+4
 8335 00de 1B88     		ldrh	r3, [r3]
 8336 00e0 013B     		subs	r3, r3, #1
 8337 00e2 9AB2     		uxth	r2, r3
2473:../app/app.c  **** 				|| (--run_max_time == 0))){
 8338              		.loc 1 2473 5
 8339 00e4 574B     		ldr	r3, .L788+4
 8340 00e6 1A80     		strh	r2, [r3]	@ movhi
 8341              		.loc 1 2474 9
 8342 00e8 564B     		ldr	r3, .L788+4
 8343 00ea 1B88     		ldrh	r3, [r3]
2473:../app/app.c  **** 				|| (--run_max_time == 0))){
 8344              		.loc 1 2473 5
 8345 00ec 002B     		cmp	r3, #0
 8346 00ee 09D1     		bne	.L776
 8347              	.L775:
2475:../app/app.c  **** 				dc_motor_Stop();
 8348              		.loc 1 2475 5
 8349 00f0 FFF7FEFF 		bl	dc_motor_Stop
2476:../app/app.c  **** 				osal_lyh_delay_task(Ms_1500);
 8350              		.loc 1 2476 5
 8351 00f4 40F2DC50 		movw	r0, #1500
 8352 00f8 FFF7FEFF 		bl	osal_lyh_delay_task
2477:../app/app.c  **** 				sta = 5;				
 8353              		.loc 1 2477 9
 8354 00fc 504B     		ldr	r3, .L788
 8355 00fe 0522     		movs	r2, #5
 8356 0100 1A70     		strb	r2, [r3]
2478:../app/app.c  **** 			}
2479:../app/app.c  **** 			else {
2480:../app/app.c  **** 				osal_lyh_delay_task(Ms_100);
2481:../app/app.c  **** 			}
2482:../app/app.c  **** 			break;				
 8357              		.loc 1 2482 4
 8358 0102 99E0     		b	.L771
 8359              	.L776:
2480:../app/app.c  **** 			}
 8360              		.loc 1 2480 5
 8361 0104 6420     		movs	r0, #100
 8362 0106 FFF7FEFF 		bl	osal_lyh_delay_task
 8363              		.loc 1 2482 4
 8364 010a 95E0     		b	.L771
 8365              	.L765:
2483:../app/app.c  **** 		/* ĶÉāÕÅ¢ńöĄµ£║ÕēŹÕŠĆĶÉāÕÅ¢õĮŹńĮ« */
2484:../app/app.c  **** 		case 5:
2485:../app/app.c  **** 			dc_motor_Start(MOTOR_LEFT);		
 8366              		.loc 1 2485 4
 8367 010c 0220     		movs	r0, #2
 8368 010e FFF7FEFF 		bl	dc_motor_Start
2486:../app/app.c  **** 			osal_lyh_delay_task(Ms_100);
 8369              		.loc 1 2486 4
 8370 0112 6420     		movs	r0, #100
 8371 0114 FFF7FEFF 		bl	osal_lyh_delay_task
2487:../app/app.c  **** 			run_max_time = LEFT_TIMER(Ms_7000, Ms_100);		//µŁżÕżäµŚČķŚ┤ķ£ĆĶ”üµĀ╣µŹ«Õ«×ķÖģµāģÕåĄµĢ┤µö╣
 8372              		.loc 1 2487 17
 8373 0118 4A4B     		ldr	r3, .L788+4
 8374 011a 4622     		movs	r2, #70
 8375 011c 1A80     		strh	r2, [r3]	@ movhi
2488:../app/app.c  **** 			sta = 6;
 8376              		.loc 1 2488 8
 8377 011e 484B     		ldr	r3, .L788
 8378 0120 0622     		movs	r2, #6
 8379 0122 1A70     		strb	r2, [r3]
2489:../app/app.c  **** 			break;
 8380              		.loc 1 2489 4
 8381 0124 88E0     		b	.L771
 8382              	.L764:
2490:../app/app.c  **** 		/* Õłżµ¢ŁĶÉāÕÅ¢ńöĄµ£║µś»ÕÉ”Õł░ĶŠŠĶÉāÕÅ¢õĮŹńĮ« */
2491:../app/app.c  **** 		case 6:
2492:../app/app.c  **** 			if ((MOTOR_STATE_STOPED ==dc_motor_GetState())
 8383              		.loc 1 2492 30
 8384 0126 FFF7FEFF 		bl	dc_motor_GetState
 8385 012a 0346     		mov	r3, r0
 8386              		.loc 1 2492 7
 8387 012c 002B     		cmp	r3, #0
 8388 012e 0ED0     		beq	.L778
2493:../app/app.c  **** 				|| (TRUE == app_motor_ready())
 8389              		.loc 1 2493 17
 8390 0130 FFF7FEFF 		bl	app_motor_ready
 8391 0134 0346     		mov	r3, r0
 8392              		.loc 1 2493 5
 8393 0136 012B     		cmp	r3, #1
 8394 0138 09D0     		beq	.L778
2494:../app/app.c  **** 				|| (--run_max_time == 0)){
 8395              		.loc 1 2494 9
 8396 013a 424B     		ldr	r3, .L788+4
 8397 013c 1B88     		ldrh	r3, [r3]
 8398 013e 013B     		subs	r3, r3, #1
 8399 0140 9AB2     		uxth	r2, r3
 8400              		.loc 1 2494 5
 8401 0142 404B     		ldr	r3, .L788+4
 8402 0144 1A80     		strh	r2, [r3]	@ movhi
 8403              		.loc 1 2494 9
 8404 0146 3F4B     		ldr	r3, .L788+4
 8405 0148 1B88     		ldrh	r3, [r3]
 8406              		.loc 1 2494 5
 8407 014a 002B     		cmp	r3, #0
 8408 014c 05D1     		bne	.L779
 8409              	.L778:
2495:../app/app.c  **** 				dc_motor_Stop();
 8410              		.loc 1 2495 5
 8411 014e FFF7FEFF 		bl	dc_motor_Stop
2496:../app/app.c  **** 				sta = 7;	
 8412              		.loc 1 2496 9
 8413 0152 3B4B     		ldr	r3, .L788
 8414 0154 0722     		movs	r2, #7
 8415 0156 1A70     		strb	r2, [r3]
2497:../app/app.c  **** 			}
2498:../app/app.c  **** 			else {
2499:../app/app.c  **** 				osal_lyh_delay_task(Ms_100);
2500:../app/app.c  **** 			}			
2501:../app/app.c  **** 			break;
 8416              		.loc 1 2501 4
 8417 0158 6EE0     		b	.L771
 8418              	.L779:
2499:../app/app.c  **** 			}			
 8419              		.loc 1 2499 5
 8420 015a 6420     		movs	r0, #100
 8421 015c FFF7FEFF 		bl	osal_lyh_delay_task
 8422              		.loc 1 2501 4
 8423 0160 6AE0     		b	.L771
 8424              	.L763:
2502:../app/app.c  **** 		/* ÕÉ»ÕŖ©µ░┤µ│ĄÕå▓µ┤Śń«ĪĶĘ» */
2503:../app/app.c  **** 		case 7:
2504:../app/app.c  **** 			ac_pumb_start(CONTINUE_MODE);		//ÕÉ»ÕŖ©µ░┤µ│Ą
 8425              		.loc 1 2504 4
 8426 0162 0020     		movs	r0, #0
 8427 0164 FFF7FEFF 		bl	ac_pumb_start
2505:../app/app.c  **** 			osal_lyh_delay_task(Ms_10000);		
 8428              		.loc 1 2505 4
 8429 0168 42F21070 		movw	r0, #10000
 8430 016c FFF7FEFF 		bl	osal_lyh_delay_task
2506:../app/app.c  **** 			sta = 8;
 8431              		.loc 1 2506 8
 8432 0170 334B     		ldr	r3, .L788
 8433 0172 0822     		movs	r2, #8
 8434 0174 1A70     		strb	r2, [r3]
2507:../app/app.c  **** 			break;
 8435              		.loc 1 2507 4
 8436 0176 5FE0     		b	.L771
 8437              	.L762:
2508:../app/app.c  **** 		case 8:
2509:../app/app.c  **** 			ac_pumb_stop();						//Õģ│ķŚŁµ░┤µ│Ą
 8438              		.loc 1 2509 4
 8439 0178 FFF7FEFF 		bl	ac_pumb_stop
2510:../app/app.c  **** 			osal_lyh_delay_task(Ms_6000);		
 8440              		.loc 1 2510 4
 8441 017c 41F27070 		movw	r0, #6000
 8442 0180 FFF7FEFF 		bl	osal_lyh_delay_task
2511:../app/app.c  **** 			sta = 9;
 8443              		.loc 1 2511 8
 8444 0184 2E4B     		ldr	r3, .L788
 8445 0186 0922     		movs	r2, #9
 8446 0188 1A70     		strb	r2, [r3]
2512:../app/app.c  **** 			break;
 8447              		.loc 1 2512 4
 8448 018a 55E0     		b	.L771
 8449              	.L761:
2513:../app/app.c  **** 		/* ĶÉāÕÅ¢ńöĄµ£║ÕÉæÕÄ¤ńé╣ĶĮ¼ÕŖ© */
2514:../app/app.c  **** 		case 9:
2515:../app/app.c  **** 			dc_motor_Start(MOTOR_RIGHT);
 8450              		.loc 1 2515 4
 8451 018c 0120     		movs	r0, #1
 8452 018e FFF7FEFF 		bl	dc_motor_Start
2516:../app/app.c  **** 			osal_lyh_delay_task(Ms_1000);			//µŁżÕżädelayÕ║öõ┐ØµīüĶŠāÕż¦ńÜäµĢ░’╝ł>500ms’╝ē’╝īÕÉ”ÕłÖńöĄµ£║Ķ┐ś
 8453              		.loc 1 2516 4
 8454 0192 4FF47A70 		mov	r0, #1000
 8455 0196 FFF7FEFF 		bl	osal_lyh_delay_task
2517:../app/app.c  **** 													//Õ«╣µśōĶ»»ÕłżõĖ║ÕĘ▓ń╗ÅĶ¦”ńó░Õł░ÕÄ¤ńé╣Õ╝ĆÕģ│’╝īÕ»╝Ķć┤ńöĄµ£║µŚĀµ│ĢÕø×ĶĮ¼Õł░ÕÄ¤õĮŹ
2518:../app/app.c  **** 			run_max_time = RIGHT_TIMER(Ms_6000, Ms_100);		
 8456              		.loc 1 2518 17
 8457 019a 2A4B     		ldr	r3, .L788+4
 8458 019c 3C22     		movs	r2, #60
 8459 019e 1A80     		strh	r2, [r3]	@ movhi
2519:../app/app.c  **** 			sta = 10;
 8460              		.loc 1 2519 8
 8461 01a0 274B     		ldr	r3, .L788
 8462 01a2 0A22     		movs	r2, #10
 8463 01a4 1A70     		strb	r2, [r3]
2520:../app/app.c  **** 			break;	
 8464              		.loc 1 2520 4
 8465 01a6 47E0     		b	.L771
 8466              	.L760:
2521:../app/app.c  **** 		/* Õłżµ¢ŁńöĄµ£║µś»ÕÉ”Õł░ÕÄ¤ńé╣Ķ¦”ńé╣ */	
2522:../app/app.c  **** 		case 10:													
2523:../app/app.c  **** 			if ((MOTOR_STATE_STOPED ==dc_motor_GetState())
 8467              		.loc 1 2523 30
 8468 01a8 FFF7FEFF 		bl	dc_motor_GetState
 8469 01ac 0346     		mov	r3, r0
 8470              		.loc 1 2523 7
 8471 01ae 002B     		cmp	r3, #0
 8472 01b0 0ED0     		beq	.L781
2524:../app/app.c  **** 				|| (TRUE == app_motor_ready())
 8473              		.loc 1 2524 17
 8474 01b2 FFF7FEFF 		bl	app_motor_ready
 8475 01b6 0346     		mov	r3, r0
 8476              		.loc 1 2524 5
 8477 01b8 012B     		cmp	r3, #1
 8478 01ba 09D0     		beq	.L781
2525:../app/app.c  **** 				|| (--run_max_time == 0)){
 8479              		.loc 1 2525 9
 8480 01bc 214B     		ldr	r3, .L788+4
 8481 01be 1B88     		ldrh	r3, [r3]
 8482 01c0 013B     		subs	r3, r3, #1
 8483 01c2 9AB2     		uxth	r2, r3
 8484              		.loc 1 2525 5
 8485 01c4 1F4B     		ldr	r3, .L788+4
 8486 01c6 1A80     		strh	r2, [r3]	@ movhi
 8487              		.loc 1 2525 9
 8488 01c8 1E4B     		ldr	r3, .L788+4
 8489 01ca 1B88     		ldrh	r3, [r3]
 8490              		.loc 1 2525 5
 8491 01cc 002B     		cmp	r3, #0
 8492 01ce 05D1     		bne	.L782
 8493              	.L781:
2526:../app/app.c  **** 				dc_motor_Stop();
 8494              		.loc 1 2526 5
 8495 01d0 FFF7FEFF 		bl	dc_motor_Stop
2527:../app/app.c  **** 				sta = 11;				
 8496              		.loc 1 2527 9
 8497 01d4 1A4B     		ldr	r3, .L788
 8498 01d6 0B22     		movs	r2, #11
 8499 01d8 1A70     		strb	r2, [r3]
2528:../app/app.c  **** 			}
2529:../app/app.c  **** 			else {
2530:../app/app.c  **** 				osal_lyh_delay_task(Ms_100);
2531:../app/app.c  **** 			}
2532:../app/app.c  **** 			break;
 8500              		.loc 1 2532 4
 8501 01da 2DE0     		b	.L771
 8502              	.L782:
2530:../app/app.c  **** 			}
 8503              		.loc 1 2530 5
 8504 01dc 6420     		movs	r0, #100
 8505 01de FFF7FEFF 		bl	osal_lyh_delay_task
 8506              		.loc 1 2532 4
 8507 01e2 29E0     		b	.L771
 8508              	.L759:
2533:../app/app.c  **** 		/* ńöĄµ£║Õø×ĶĮ¼Õł░ÕÄ¤õĮŹ */
2534:../app/app.c  **** 		case 11:												
2535:../app/app.c  **** 			dc_motor_Start(MOTOR_LEFT);
 8509              		.loc 1 2535 4
 8510 01e4 0220     		movs	r0, #2
 8511 01e6 FFF7FEFF 		bl	dc_motor_Start
2536:../app/app.c  **** 			osal_lyh_delay_task(Ms_100);
 8512              		.loc 1 2536 4
 8513 01ea 6420     		movs	r0, #100
 8514 01ec FFF7FEFF 		bl	osal_lyh_delay_task
2537:../app/app.c  **** 			run_max_time = LEFT_TIMER(MOTOR_FIX_TIME, Ms_100);
 8515              		.loc 1 2537 17
 8516 01f0 144B     		ldr	r3, .L788+4
 8517 01f2 0322     		movs	r2, #3
 8518 01f4 1A80     		strh	r2, [r3]	@ movhi
2538:../app/app.c  **** 			sta = 12;
 8519              		.loc 1 2538 8
 8520 01f6 124B     		ldr	r3, .L788
 8521 01f8 0C22     		movs	r2, #12
 8522 01fa 1A70     		strb	r2, [r3]
2539:../app/app.c  **** 			break;	
 8523              		.loc 1 2539 4
 8524 01fc 1CE0     		b	.L771
 8525              	.L757:
2540:../app/app.c  **** 		/* Õłżµ¢ŁńöĄµ£║µś»ÕÉ”Õø×ĶĮ¼Õł░ÕÄ¤õĮŹ */	
2541:../app/app.c  **** 		case 12:													
2542:../app/app.c  **** 			if (1/*(FAIL == app_motor_ready())*/	// deleting point,(temp to cancel)
2543:../app/app.c  **** 				&& ((MOTOR_STATE_STOPED ==dc_motor_GetState())
 8526              		.loc 1 2543 31
 8527 01fe FFF7FEFF 		bl	dc_motor_GetState
 8528 0202 0346     		mov	r3, r0
2542:../app/app.c  **** 				&& ((MOTOR_STATE_STOPED ==dc_motor_GetState())
 8529              		.loc 1 2542 7
 8530 0204 002B     		cmp	r3, #0
 8531 0206 09D0     		beq	.L784
2544:../app/app.c  **** 				|| (--run_max_time == 0))){
 8532              		.loc 1 2544 9
 8533 0208 0E4B     		ldr	r3, .L788+4
 8534 020a 1B88     		ldrh	r3, [r3]
 8535 020c 013B     		subs	r3, r3, #1
 8536 020e 9AB2     		uxth	r2, r3
2543:../app/app.c  **** 				|| (--run_max_time == 0))){
 8537              		.loc 1 2543 5
 8538 0210 0C4B     		ldr	r3, .L788+4
 8539 0212 1A80     		strh	r2, [r3]	@ movhi
 8540              		.loc 1 2544 9
 8541 0214 0B4B     		ldr	r3, .L788+4
 8542 0216 1B88     		ldrh	r3, [r3]
2543:../app/app.c  **** 				|| (--run_max_time == 0))){
 8543              		.loc 1 2543 5
 8544 0218 002B     		cmp	r3, #0
 8545 021a 08D1     		bne	.L785
 8546              	.L784:
2545:../app/app.c  **** 				dc_motor_Stop();
 8547              		.loc 1 2545 5
 8548 021c FFF7FEFF 		bl	dc_motor_Stop
2546:../app/app.c  **** 				app_turn_heat_off();
 8549              		.loc 1 2546 5
 8550 0220 FFF7FEFF 		bl	app_turn_heat_off
2547:../app/app.c  **** 				sta = 0;
 8551              		.loc 1 2547 9
 8552 0224 064B     		ldr	r3, .L788
 8553 0226 0022     		movs	r2, #0
 8554 0228 1A70     		strb	r2, [r3]
2548:../app/app.c  **** 				return TRUE;
 8555              		.loc 1 2548 12
 8556 022a 0123     		movs	r3, #1
 8557 022c 05E0     		b	.L786
 8558              	.L785:
2549:../app/app.c  **** 			}
2550:../app/app.c  **** 			else {
2551:../app/app.c  **** 				osal_lyh_delay_task(Ms_100);
 8559              		.loc 1 2551 5
 8560 022e 6420     		movs	r0, #100
 8561 0230 FFF7FEFF 		bl	osal_lyh_delay_task
2552:../app/app.c  **** 			}
2553:../app/app.c  **** 			break;
 8562              		.loc 1 2553 4
 8563 0234 00E0     		b	.L771
 8564              	.L787:
2554:../app/app.c  **** 		default:
2555:../app/app.c  **** 			break;
 8565              		.loc 1 2555 4
 8566 0236 00BF     		nop
 8567              	.L771:
2556:../app/app.c  **** 	}
2557:../app/app.c  **** 	return FAIL;
 8568              		.loc 1 2557 9
 8569 0238 0023     		movs	r3, #0
 8570              	.L786:
2558:../app/app.c  **** }
 8571              		.loc 1 2558 1
 8572 023a 1846     		mov	r0, r3
 8573 023c 80BD     		pop	{r7, pc}
 8574              	.L789:
 8575 023e 00BF     		.align	2
 8576              	.L788:
 8577 0240 00000000 		.word	sta.8932
 8578 0244 00000000 		.word	run_max_time
 8579              		.cfi_endproc
 8580              	.LFE182:
 8582              		.section	.text.app_running_onoff_handler,"ax",%progbits
 8583              		.align	1
 8584              		.global	app_running_onoff_handler
 8585              		.syntax unified
 8586              		.thumb
 8587              		.thumb_func
 8588              		.fpu softvfp
 8590              	app_running_onoff_handler:
 8591              	.LFB183:
2559:../app/app.c  **** 
2560:../app/app.c  **** /**************************************************************************
2561:../app/app.c  ****  * @brief Õ£©espresso, americanońÜäĶ┐ÉĶĪīńŖČµĆüõĖŗ’╝īµīēõĖŗON/OFFķö«ńÜäÕżäńÉåÕćĮµĢ░
2562:../app/app.c  ****  * @return none
2563:../app/app.c  ****  * @note 1.µĀ╣µŹ«app_onoff_key_dealyÕćĮµĢ░õĖŁńÜäńŖČµĆü’╝īÕå│Õ«ÜĶ┐øÕģźµŁżÕćĮµĢ░ńÜäapp_task_substep’╝
2564:../app/app.c  ****  * 		 2.americanońÜäńĀöńŻ©ńŖČµĆüÕÆīespressońÜäńĀöńŻ©ńŖČµĆüĶ░āńö©ÕÉīõĖĆõĖ¬ÕćĮµĢ░ÕżäńÉå’╝īÕģČõ╗¢ńŖČµĆ
2565:../app/app.c  ****  * 		  Õ£©Americanoń¼¼õĖĆµ¼ĪĶÉāÕÅ¢ÕÉÄ’╝īÕē®õĮÖńÜäńŖČµĆüõĖÄespressońÜäÕżäńÉåµ¢╣Õ╝ÅõĖĆĶć┤’╝īķāĮµś»ÕÅ¢
2566:../app/app.c  ****  *************************************************************************/
2567:../app/app.c  **** void app_running_onoff_handler(void)
2568:../app/app.c  **** {
 8592              		.loc 1 2568 1
 8593              		.cfi_startproc
 8594              		@ args = 0, pretend = 0, frame = 0
 8595              		@ frame_needed = 1, uses_anonymous_args = 0
 8596 0000 80B5     		push	{r7, lr}
 8597              		.cfi_def_cfa_offset 8
 8598              		.cfi_offset 7, -8
 8599              		.cfi_offset 14, -4
 8600 0002 00AF     		add	r7, sp, #0
 8601              		.cfi_def_cfa_register 7
2569:../app/app.c  **** 	switch(app_task_substep)
 8602              		.loc 1 2569 2
 8603 0004 5F4B     		ldr	r3, .L832
 8604 0006 1B78     		ldrb	r3, [r3]	@ zero_extendqisi2
 8605 0008 082B     		cmp	r3, #8
 8606 000a 00F2A980 		bhi	.L822
 8607 000e 01A2     		adr	r2, .L793
 8608 0010 52F823F0 		ldr	pc, [r2, r3, lsl #2]
 8609              		.p2align 2
 8610              	.L793:
 8611 0014 39000000 		.word	.L801+1
 8612 0018 CB000000 		.word	.L800+1
 8613 001c DD000000 		.word	.L799+1
 8614 0020 EF000000 		.word	.L798+1
 8615 0024 01010000 		.word	.L797+1
 8616 0028 13010000 		.word	.L796+1
 8617 002c 25010000 		.word	.L795+1
 8618 0030 37010000 		.word	.L794+1
 8619 0034 49010000 		.word	.L792+1
 8620              		.p2align 1
 8621              	.L801:
2570:../app/app.c  **** 	{
2571:../app/app.c  **** 		/* Ķ┐øÕģźON/OFFÕżäńÉåÕćĮµĢ░ÕłØÕ¦ŗÕī¢ */
2572:../app/app.c  **** 		case RUNNING_ONOFF_INIT_STATE:			
2573:../app/app.c  **** 			key_prohibit_setup(KEY_ONOFF_MASK, TRUE);	//Õ▒ÅĶöĮON/OFFµīēķö«			
 8622              		.loc 1 2573 4
 8623 0038 0121     		movs	r1, #1
 8624 003a 0120     		movs	r0, #1
 8625 003c FFF7FEFF 		bl	key_prohibit_setup
2574:../app/app.c  **** 			app_led_show_init();	//ÕłØÕ¦ŗÕī¢µĄüµ░┤ńü»		
 8626              		.loc 1 2574 4
 8627 0040 FFF7FEFF 		bl	app_led_show_init
2575:../app/app.c  **** 			switch(CERRNT_STATE)	//Õłżµ¢ŁÕĮōÕēŹĶ┐ÉĶĪīńÜäńŖČµĆü’╝īÕ╣ČĶ┐øÕģźÕ»╣Õ║öńÜäÕżäńÉåµĄüń©ŗ
 8628              		.loc 1 2575 4
 8629 0044 504B     		ldr	r3, .L832+4
 8630 0046 1B78     		ldrb	r3, [r3]	@ zero_extendqisi2
 8631 0048 062B     		cmp	r3, #6
 8632 004a 3CD8     		bhi	.L823
 8633 004c 01A2     		adr	r2, .L804
 8634 004e 52F823F0 		ldr	pc, [r2, r3, lsl #2]
 8635 0052 00BF     		.p2align 2
 8636              	.L804:
 8637 0054 71000000 		.word	.L810+1
 8638 0058 8F000000 		.word	.L809+1
 8639 005c 97000000 		.word	.L808+1
 8640 0060 9F000000 		.word	.L807+1
 8641 0064 A7000000 		.word	.L806+1
 8642 0068 AF000000 		.word	.L805+1
 8643 006c BF000000 		.word	.L803+1
 8644              		.p2align 1
 8645              	.L810:
2576:../app/app.c  **** 			{
2577:../app/app.c  **** 				/* ń®║Ķ┐ÉĶĪīńŖČµĆü */	
2578:../app/app.c  **** 				case NULL_STATE:
2579:../app/app.c  **** 					if(1 == flush_flag){
 8646              		.loc 1 2579 11
 8647 0070 464B     		ldr	r3, .L832+8
 8648 0072 1B78     		ldrb	r3, [r3]	@ zero_extendqisi2
 8649              		.loc 1 2579 8
 8650 0074 012B     		cmp	r3, #1
 8651 0076 06D1     		bne	.L811
2580:../app/app.c  **** 						flush_flag = 0;
 8652              		.loc 1 2580 18
 8653 0078 444B     		ldr	r3, .L832+8
 8654 007a 0022     		movs	r2, #0
 8655 007c 1A70     		strb	r2, [r3]
2581:../app/app.c  **** 						app_task_substep = RUNNING_ONOFF_FLUSH;
 8656              		.loc 1 2581 24
 8657 007e 414B     		ldr	r3, .L832
 8658 0080 0722     		movs	r2, #7
 8659 0082 1A70     		strb	r2, [r3]
2582:../app/app.c  **** 					}
2583:../app/app.c  **** 					else{
2584:../app/app.c  **** 						app_task_substep = RUNNING_ONOFF_COMPLETE;
2585:../app/app.c  **** 					}
2586:../app/app.c  **** 					break;			
 8660              		.loc 1 2586 6
 8661 0084 20E0     		b	.L813
 8662              	.L811:
2584:../app/app.c  **** 					}
 8663              		.loc 1 2584 24
 8664 0086 3F4B     		ldr	r3, .L832
 8665 0088 0822     		movs	r2, #8
 8666 008a 1A70     		strb	r2, [r3]
 8667              		.loc 1 2586 6
 8668 008c 1CE0     		b	.L813
 8669              	.L809:
2587:../app/app.c  **** 				/* ÕłØÕ¦ŗÕī¢ÕÆīńĀöńŻ© */
2588:../app/app.c  **** 				case INIT_AND_GRIND_STATE:
2589:../app/app.c  **** 					app_task_substep = RUNNING_ONOFF_GRIND_STATE;
 8670              		.loc 1 2589 23
 8671 008e 3D4B     		ldr	r3, .L832
 8672 0090 0122     		movs	r2, #1
 8673 0092 1A70     		strb	r2, [r3]
2590:../app/app.c  **** 					break;
 8674              		.loc 1 2590 6
 8675 0094 18E0     		b	.L813
 8676              	.L808:
2591:../app/app.c  **** 				/* ÕēŹÕŠĆĶÉāÕÅ¢õĖŁ */	
2592:../app/app.c  **** 				case GO_BREW_STATE:
2593:../app/app.c  **** 					app_task_substep = RUNNING_ONOFF_GO_BREW_STATE;				
 8677              		.loc 1 2593 23
 8678 0096 3B4B     		ldr	r3, .L832
 8679 0098 0222     		movs	r2, #2
 8680 009a 1A70     		strb	r2, [r3]
2594:../app/app.c  **** 					break;
 8681              		.loc 1 2594 6
 8682 009c 14E0     		b	.L813
 8683              	.L807:
2595:../app/app.c  **** 				/* ķóäÕå▓ńģ« */	
2596:../app/app.c  **** 				case PRE_BREW_STATE:
2597:../app/app.c  **** 					app_task_substep = RUNNING_ONOFF_PRE_BREW_STATE;				
 8684              		.loc 1 2597 23
 8685 009e 394B     		ldr	r3, .L832
 8686 00a0 0322     		movs	r2, #3
 8687 00a2 1A70     		strb	r2, [r3]
2598:../app/app.c  **** 					break;
 8688              		.loc 1 2598 6
 8689 00a4 10E0     		b	.L813
 8690              	.L806:
2599:../app/app.c  **** 				/* Õå▓ńģ« */	
2600:../app/app.c  **** 				case BREW_STATE:
2601:../app/app.c  **** 					app_task_substep = RUNNING_ONOFF_BREW_STATE;				
 8691              		.loc 1 2601 23
 8692 00a6 374B     		ldr	r3, .L832
 8693 00a8 0422     		movs	r2, #4
 8694 00aa 1A70     		strb	r2, [r3]
2602:../app/app.c  **** 					break;
 8695              		.loc 1 2602 6
 8696 00ac 0CE0     		b	.L813
 8697              	.L805:
2603:../app/app.c  **** 				/* õĖóÕÆ¢ÕĢĪµĖŻ */		
2604:../app/app.c  **** 				case DROP_BEANS_STATE:
2605:../app/app.c  **** 					drop_beans_time = run_max_time;
 8698              		.loc 1 2605 22
 8699 00ae 384B     		ldr	r3, .L832+12
 8700 00b0 1A88     		ldrh	r2, [r3]
 8701 00b2 384B     		ldr	r3, .L832+16
 8702 00b4 1A80     		strh	r2, [r3]	@ movhi
2606:../app/app.c  **** 					app_task_substep = RUNNING_ONOFF_DROP_BEANS_STATE;				
 8703              		.loc 1 2606 23
 8704 00b6 334B     		ldr	r3, .L832
 8705 00b8 0522     		movs	r2, #5
 8706 00ba 1A70     		strb	r2, [r3]
2607:../app/app.c  **** 					break;
 8707              		.loc 1 2607 6
 8708 00bc 04E0     		b	.L813
 8709              	.L803:
2608:../app/app.c  **** 				case RST_STATE:
2609:../app/app.c  **** 					app_task_substep = RUNNING_ONOFF_RST_STATE;
 8710              		.loc 1 2609 23
 8711 00be 314B     		ldr	r3, .L832
 8712 00c0 0622     		movs	r2, #6
 8713 00c2 1A70     		strb	r2, [r3]
2610:../app/app.c  **** 					break;
 8714              		.loc 1 2610 6
 8715 00c4 00E0     		b	.L813
 8716              	.L823:
2611:../app/app.c  **** 				default:
2612:../app/app.c  **** 					break;
 8717              		.loc 1 2612 6
 8718 00c6 00BF     		nop
 8719              	.L813:
2613:../app/app.c  **** 			}			
2614:../app/app.c  **** 			break;
 8720              		.loc 1 2614 4
 8721 00c8 59E0     		b	.L814
 8722              	.L800:
2615:../app/app.c  **** 		/* ńĀöńŻ©µŚČÕżäńÉå */	
2616:../app/app.c  **** 		case RUNNING_ONOFF_GRIND_STATE:		
2617:../app/app.c  **** 			if(TRUE == app_running_onoff_grind_handler()){
 8723              		.loc 1 2617 15
 8724 00ca FFF7FEFF 		bl	app_running_onoff_grind_handler
 8725 00ce 0346     		mov	r3, r0
 8726              		.loc 1 2617 6
 8727 00d0 012B     		cmp	r3, #1
 8728 00d2 47D1     		bne	.L824
2618:../app/app.c  **** 				app_task_substep = RUNNING_ONOFF_FLUSH;
 8729              		.loc 1 2618 22
 8730 00d4 2B4B     		ldr	r3, .L832
 8731 00d6 0722     		movs	r2, #7
 8732 00d8 1A70     		strb	r2, [r3]
2619:../app/app.c  **** 			}
2620:../app/app.c  **** 			break;
 8733              		.loc 1 2620 4
 8734 00da 43E0     		b	.L824
 8735              	.L799:
2621:../app/app.c  **** 		/* ÕÄ╗ĶÉāÕÅ¢µŚČÕżäńÉå */	
2622:../app/app.c  **** 		case RUNNING_ONOFF_GO_BREW_STATE:		
2623:../app/app.c  **** 			if(TRUE == app_running_onoff_go_water_handler()){
 8736              		.loc 1 2623 15
 8737 00dc FFF7FEFF 		bl	app_running_onoff_go_water_handler
 8738 00e0 0346     		mov	r3, r0
 8739              		.loc 1 2623 6
 8740 00e2 012B     		cmp	r3, #1
 8741 00e4 40D1     		bne	.L825
2624:../app/app.c  **** 				app_task_substep = RUNNING_ONOFF_FLUSH;
 8742              		.loc 1 2624 22
 8743 00e6 274B     		ldr	r3, .L832
 8744 00e8 0722     		movs	r2, #7
 8745 00ea 1A70     		strb	r2, [r3]
2625:../app/app.c  **** 			}
2626:../app/app.c  **** 			break;
 8746              		.loc 1 2626 4
 8747 00ec 3CE0     		b	.L825
 8748              	.L798:
2627:../app/app.c  **** 		/* ķóäÕå▓ńģ«µŚČÕżäńÉå */
2628:../app/app.c  **** 		case RUNNING_ONOFF_PRE_BREW_STATE:		
2629:../app/app.c  **** 			if(TRUE == app_running_onoff_pre_brew_handler()){	
 8749              		.loc 1 2629 15
 8750 00ee FFF7FEFF 		bl	app_running_onoff_pre_brew_handler
 8751 00f2 0346     		mov	r3, r0
 8752              		.loc 1 2629 6
 8753 00f4 012B     		cmp	r3, #1
 8754 00f6 39D1     		bne	.L826
2630:../app/app.c  **** 				app_task_substep = RUNNING_ONOFF_FLUSH;
 8755              		.loc 1 2630 22
 8756 00f8 224B     		ldr	r3, .L832
 8757 00fa 0722     		movs	r2, #7
 8758 00fc 1A70     		strb	r2, [r3]
2631:../app/app.c  **** 			}		
2632:../app/app.c  **** 			break;
 8759              		.loc 1 2632 4
 8760 00fe 35E0     		b	.L826
 8761              	.L797:
2633:../app/app.c  **** 		/* Õå▓ńģ«µŚČÕżäńÉå */
2634:../app/app.c  **** 		case RUNNING_ONOFF_BREW_STATE:		
2635:../app/app.c  **** 			if(TRUE == app_running_onoff_brew_handler()){
 8762              		.loc 1 2635 15
 8763 0100 FFF7FEFF 		bl	app_running_onoff_brew_handler
 8764 0104 0346     		mov	r3, r0
 8765              		.loc 1 2635 6
 8766 0106 012B     		cmp	r3, #1
 8767 0108 32D1     		bne	.L827
2636:../app/app.c  **** 				app_task_substep = RUNNING_ONOFF_FLUSH;
 8768              		.loc 1 2636 22
 8769 010a 1E4B     		ldr	r3, .L832
 8770 010c 0722     		movs	r2, #7
 8771 010e 1A70     		strb	r2, [r3]
2637:../app/app.c  **** 			}
2638:../app/app.c  **** 			break;
 8772              		.loc 1 2638 4
 8773 0110 2EE0     		b	.L827
 8774              	.L796:
2639:../app/app.c  **** 		/* õĖóÕÆ¢ÕĢĪµĖŻµŚČÕżäńÉå */	
2640:../app/app.c  **** 		case RUNNING_ONOFF_DROP_BEANS_STATE:
2641:../app/app.c  **** 			if(TRUE == app_running_onoff_drop_beans_handler()){
 8775              		.loc 1 2641 15
 8776 0112 FFF7FEFF 		bl	app_running_onoff_drop_beans_handler
 8777 0116 0346     		mov	r3, r0
 8778              		.loc 1 2641 6
 8779 0118 012B     		cmp	r3, #1
 8780 011a 2BD1     		bne	.L828
2642:../app/app.c  **** 				app_task_substep = RUNNING_ONOFF_FLUSH;
 8781              		.loc 1 2642 22
 8782 011c 194B     		ldr	r3, .L832
 8783 011e 0722     		movs	r2, #7
 8784 0120 1A70     		strb	r2, [r3]
2643:../app/app.c  **** 			}
2644:../app/app.c  **** 			break;
 8785              		.loc 1 2644 4
 8786 0122 27E0     		b	.L828
 8787              	.L795:
2645:../app/app.c  **** 		/* ÕżŹõĮŹµŚČÕżäńÉå */
2646:../app/app.c  **** 		case RUNNING_ONOFF_RST_STATE:
2647:../app/app.c  **** 			if(TRUE == app_running_onoff_rst_handler()){
 8788              		.loc 1 2647 15
 8789 0124 FFF7FEFF 		bl	app_running_onoff_rst_handler
 8790 0128 0346     		mov	r3, r0
 8791              		.loc 1 2647 6
 8792 012a 012B     		cmp	r3, #1
 8793 012c 24D1     		bne	.L829
2648:../app/app.c  **** 				app_task_substep = RUNNING_ONOFF_FLUSH;
 8794              		.loc 1 2648 22
 8795 012e 154B     		ldr	r3, .L832
 8796 0130 0722     		movs	r2, #7
 8797 0132 1A70     		strb	r2, [r3]
2649:../app/app.c  **** 			}
2650:../app/app.c  **** 			break;
 8798              		.loc 1 2650 4
 8799 0134 20E0     		b	.L829
 8800              	.L794:
2651:../app/app.c  **** 		/* Õå▓µ┤ŚµĄüń©ŗ */	
2652:../app/app.c  **** 		case RUNNING_ONOFF_FLUSH:
2653:../app/app.c  **** 			if(TRUE == app_running_onoff_flush_handler()){
 8801              		.loc 1 2653 15
 8802 0136 FFF7FEFF 		bl	app_running_onoff_flush_handler
 8803 013a 0346     		mov	r3, r0
 8804              		.loc 1 2653 6
 8805 013c 012B     		cmp	r3, #1
 8806 013e 1DD1     		bne	.L830
2654:../app/app.c  **** 				app_task_substep = RUNNING_ONOFF_COMPLETE;
 8807              		.loc 1 2654 22
 8808 0140 104B     		ldr	r3, .L832
 8809 0142 0822     		movs	r2, #8
 8810 0144 1A70     		strb	r2, [r3]
2655:../app/app.c  **** 			}												
2656:../app/app.c  **** 			break;
 8811              		.loc 1 2656 4
 8812 0146 19E0     		b	.L830
 8813              	.L792:
2657:../app/app.c  **** 		/* Õ«īµłÉON/OFFµĄüń©ŗ’╝īĶ┐øÕģźIDLEńŖČµĆü */	
2658:../app/app.c  **** 		case RUNNING_ONOFF_COMPLETE:
2659:../app/app.c  **** 			key_prohibit_setup(KEY_ONOFF_MASK, FAIL);
 8814              		.loc 1 2659 4
 8815 0148 0021     		movs	r1, #0
 8816 014a 0120     		movs	r0, #1
 8817 014c FFF7FEFF 		bl	key_prohibit_setup
2660:../app/app.c  **** 			osal_lyh_kill_over_timer(OS_LED_TIME);
 8818              		.loc 1 2660 4
 8819 0150 0220     		movs	r0, #2
 8820 0152 FFF7FEFF 		bl	osal_lyh_kill_over_timer
2661:../app/app.c  **** 			app_task_nextstep(APP_IDLE_STATE, IDLE_INIT_STATE);
 8821              		.loc 1 2661 4
 8822 0156 0021     		movs	r1, #0
 8823 0158 0120     		movs	r0, #1
 8824 015a FFF7FEFF 		bl	app_task_nextstep
2662:../app/app.c  **** 			break;
 8825              		.loc 1 2662 4
 8826 015e 0EE0     		b	.L814
 8827              	.L822:
2663:../app/app.c  **** 		default:
2664:../app/app.c  **** 			break;
 8828              		.loc 1 2664 4
 8829 0160 00BF     		nop
 8830 0162 0CE0     		b	.L831
 8831              	.L824:
2620:../app/app.c  **** 		/* ÕÄ╗ĶÉāÕÅ¢µŚČÕżäńÉå */	
 8832              		.loc 1 2620 4
 8833 0164 00BF     		nop
 8834 0166 0AE0     		b	.L831
 8835              	.L825:
2626:../app/app.c  **** 		/* ķóäÕå▓ńģ«µŚČÕżäńÉå */
 8836              		.loc 1 2626 4
 8837 0168 00BF     		nop
 8838 016a 08E0     		b	.L831
 8839              	.L826:
2632:../app/app.c  **** 		/* Õå▓ńģ«µŚČÕżäńÉå */
 8840              		.loc 1 2632 4
 8841 016c 00BF     		nop
 8842 016e 06E0     		b	.L831
 8843              	.L827:
2638:../app/app.c  **** 		/* õĖóÕÆ¢ÕĢĪµĖŻµŚČÕżäńÉå */	
 8844              		.loc 1 2638 4
 8845 0170 00BF     		nop
 8846 0172 04E0     		b	.L831
 8847              	.L828:
2644:../app/app.c  **** 		/* ÕżŹõĮŹµŚČÕżäńÉå */
 8848              		.loc 1 2644 4
 8849 0174 00BF     		nop
 8850 0176 02E0     		b	.L831
 8851              	.L829:
2650:../app/app.c  **** 		/* Õå▓µ┤ŚµĄüń©ŗ */	
 8852              		.loc 1 2650 4
 8853 0178 00BF     		nop
 8854 017a 00E0     		b	.L831
 8855              	.L830:
2656:../app/app.c  **** 		/* Õ«īµłÉON/OFFµĄüń©ŗ’╝īĶ┐øÕģźIDLEńŖČµĆü */	
 8856              		.loc 1 2656 4
 8857 017c 00BF     		nop
 8858              	.L814:
 8859              	.L831:
2665:../app/app.c  **** 	}
2666:../app/app.c  **** }
 8860              		.loc 1 2666 1
 8861 017e 00BF     		nop
 8862 0180 80BD     		pop	{r7, pc}
 8863              	.L833:
 8864 0182 00BF     		.align	2
 8865              	.L832:
 8866 0184 00000000 		.word	app_task_substep
 8867 0188 00000000 		.word	CERRNT_STATE
 8868 018c 00000000 		.word	flush_flag
 8869 0190 00000000 		.word	run_max_time
 8870 0194 00000000 		.word	drop_beans_time
 8871              		.cfi_endproc
 8872              	.LFE183:
 8874              		.section	.text.init_app_task,"ax",%progbits
 8875              		.align	1
 8876              		.global	init_app_task
 8877              		.syntax unified
 8878              		.thumb
 8879              		.thumb_func
 8880              		.fpu softvfp
 8882              	init_app_task:
 8883              	.LFB184:
2667:../app/app.c  **** 
2668:../app/app.c  **** /************************************************************************
2669:../app/app.c  **** * function name: init_app
2670:../app/app.c  **** * input: non
2671:../app/app.c  **** * output: non
2672:../app/app.c  **** * description: object thread
2673:../app/app.c  **** *************************************************************************/
2674:../app/app.c  **** void init_app_task(uint8_t id)
2675:../app/app.c  **** {
 8884              		.loc 1 2675 1
 8885              		.cfi_startproc
 8886              		@ args = 0, pretend = 0, frame = 8
 8887              		@ frame_needed = 1, uses_anonymous_args = 0
 8888              		@ link register save eliminated.
 8889 0000 80B4     		push	{r7}
 8890              		.cfi_def_cfa_offset 4
 8891              		.cfi_offset 7, -4
 8892 0002 83B0     		sub	sp, sp, #12
 8893              		.cfi_def_cfa_offset 16
 8894 0004 00AF     		add	r7, sp, #0
 8895              		.cfi_def_cfa_register 7
 8896 0006 0346     		mov	r3, r0
 8897 0008 FB71     		strb	r3, [r7, #7]
2676:../app/app.c  **** 	app_id = id;
 8898              		.loc 1 2676 9
 8899 000a 074A     		ldr	r2, .L835
 8900 000c FB79     		ldrb	r3, [r7, #7]
 8901 000e 1370     		strb	r3, [r2]
2677:../app/app.c  **** 	app_task_step = APP_INIT_STATE;
 8902              		.loc 1 2677 16
 8903 0010 064B     		ldr	r3, .L835+4
 8904 0012 0022     		movs	r2, #0
 8905 0014 1A70     		strb	r2, [r3]
2678:../app/app.c  **** 	app_task_substep = INIT_STATE;
 8906              		.loc 1 2678 19
 8907 0016 064B     		ldr	r3, .L835+8
 8908 0018 0022     		movs	r2, #0
 8909 001a 1A70     		strb	r2, [r3]
2679:../app/app.c  **** }
 8910              		.loc 1 2679 1
 8911 001c 00BF     		nop
 8912 001e 0C37     		adds	r7, r7, #12
 8913              		.cfi_def_cfa_offset 4
 8914 0020 BD46     		mov	sp, r7
 8915              		.cfi_def_cfa_register 13
 8916              		@ sp needed
 8917 0022 80BC     		pop	{r7}
 8918              		.cfi_restore 7
 8919              		.cfi_def_cfa_offset 0
 8920 0024 7047     		bx	lr
 8921              	.L836:
 8922 0026 00BF     		.align	2
 8923              	.L835:
 8924 0028 00000000 		.word	app_id
 8925 002c 00000000 		.word	app_task_step
 8926 0030 00000000 		.word	app_task_substep
 8927              		.cfi_endproc
 8928              	.LFE184:
 8930              		.section	.text.app_task_handler,"ax",%progbits
 8931              		.align	1
 8932              		.global	app_task_handler
 8933              		.syntax unified
 8934              		.thumb
 8935              		.thumb_func
 8936              		.fpu softvfp
 8938              	app_task_handler:
 8939              	.LFB185:
2680:../app/app.c  **** 
2681:../app/app.c  **** /************************************************************************
2682:../app/app.c  **** * function name: app_task_handler
2683:../app/app.c  **** * input: non
2684:../app/app.c  **** * output: non
2685:../app/app.c  **** * description: object thread
2686:../app/app.c  **** *************************************************************************/
2687:../app/app.c  **** void app_task_handler(void)
2688:../app/app.c  **** {
 8940              		.loc 1 2688 1
 8941              		.cfi_startproc
 8942              		@ args = 0, pretend = 0, frame = 0
 8943              		@ frame_needed = 1, uses_anonymous_args = 0
 8944 0000 80B5     		push	{r7, lr}
 8945              		.cfi_def_cfa_offset 8
 8946              		.cfi_offset 7, -8
 8947              		.cfi_offset 14, -4
 8948 0002 00AF     		add	r7, sp, #0
 8949              		.cfi_def_cfa_register 7
2689:../app/app.c  **** 	switch(app_task_step){
 8950              		.loc 1 2689 2
 8951 0004 234B     		ldr	r3, .L854
 8952 0006 1B78     		ldrb	r3, [r3]	@ zero_extendqisi2
 8953 0008 0B2B     		cmp	r3, #11
 8954 000a 3FD8     		bhi	.L853
 8955 000c 01A2     		adr	r2, .L840
 8956 000e 52F823F0 		ldr	pc, [r2, r3, lsl #2]
 8957 0012 00BF     		.p2align 2
 8958              	.L840:
 8959 0014 45000000 		.word	.L851+1
 8960 0018 4B000000 		.word	.L850+1
 8961 001c 51000000 		.word	.L849+1
 8962 0020 57000000 		.word	.L848+1
 8963 0024 5D000000 		.word	.L847+1
 8964 0028 63000000 		.word	.L846+1
 8965 002c 69000000 		.word	.L845+1
 8966 0030 6F000000 		.word	.L844+1
 8967 0034 75000000 		.word	.L843+1
 8968 0038 7B000000 		.word	.L842+1
 8969 003c 81000000 		.word	.L841+1
 8970 0040 87000000 		.word	.L839+1
 8971              		.p2align 1
 8972              	.L851:
2690:../app/app.c  **** 	case APP_INIT_STATE:
2691:../app/app.c  **** 		app_init_handler();
 8973              		.loc 1 2691 3
 8974 0044 FFF7FEFF 		bl	app_init_handler
2692:../app/app.c  **** 		break;
 8975              		.loc 1 2692 3
 8976 0048 21E0     		b	.L852
 8977              	.L850:
2693:../app/app.c  **** 	case APP_IDLE_STATE:
2694:../app/app.c  **** 		app_idle_handler();
 8978              		.loc 1 2694 3
 8979 004a FFF7FEFF 		bl	app_idle_handler
2695:../app/app.c  **** 			break;
 8980              		.loc 1 2695 4
 8981 004e 1EE0     		b	.L852
 8982              	.L849:
2696:../app/app.c  **** 	case APP_STARTUP_STATE:
2697:../app/app.c  **** 		app_startup_handler();
 8983              		.loc 1 2697 3
 8984 0050 FFF7FEFF 		bl	app_startup_handler
2698:../app/app.c  **** 			break;
 8985              		.loc 1 2698 4
 8986 0054 1BE0     		b	.L852
 8987              	.L848:
2699:../app/app.c  **** 	case APP_NORMAL_STATE:
2700:../app/app.c  **** 		app_normal_handler();
 8988              		.loc 1 2700 3
 8989 0056 FFF7FEFF 		bl	app_normal_handler
2701:../app/app.c  **** 			break;
 8990              		.loc 1 2701 4
 8991 005a 18E0     		b	.L852
 8992              	.L847:
2702:../app/app.c  **** 	case APP_ESPRESSO_STATE:
2703:../app/app.c  **** 		app_espresso_handler();
 8993              		.loc 1 2703 3
 8994 005c FFF7FEFF 		bl	app_espresso_handler
2704:../app/app.c  **** 			break;
 8995              		.loc 1 2704 4
 8996 0060 15E0     		b	.L852
 8997              	.L846:
2705:../app/app.c  **** 	case APP_AMERICAN_STATE:
2706:../app/app.c  **** 		app_american_handler();
 8998              		.loc 1 2706 3
 8999 0062 FFF7FEFF 		bl	app_american_handler
2707:../app/app.c  **** 			break;
 9000              		.loc 1 2707 4
 9001 0066 12E0     		b	.L852
 9002              	.L845:
2708:../app/app.c  **** 	case APP_HOTWATER_STATE:
2709:../app/app.c  **** 		app_hotwater_handler();
 9003              		.loc 1 2709 3
 9004 0068 FFF7FEFF 		bl	app_hotwater_handler
2710:../app/app.c  **** 			break;
 9005              		.loc 1 2710 4
 9006 006c 0FE0     		b	.L852
 9007              	.L844:
2711:../app/app.c  **** 	case APP_STEAM_STATE:
2712:../app/app.c  **** 		app_steam_handler();
 9008              		.loc 1 2712 3
 9009 006e FFF7FEFF 		bl	app_steam_handler
2713:../app/app.c  **** 			break;
 9010              		.loc 1 2713 4
 9011 0072 0CE0     		b	.L852
 9012              	.L843:
2714:../app/app.c  **** 	case APP_AQUA_STATE:
2715:../app/app.c  **** 		app_aqua_handler();
 9013              		.loc 1 2715 3
 9014 0074 FFF7FEFF 		bl	app_aqua_handler
2716:../app/app.c  **** 			break;
 9015              		.loc 1 2716 4
 9016 0078 09E0     		b	.L852
 9017              	.L842:
2717:../app/app.c  **** 	case APP_CALC_STATE:
2718:../app/app.c  **** 		app_calc_handler();
 9018              		.loc 1 2718 3
 9019 007a FFF7FEFF 		bl	app_calc_handler
2719:../app/app.c  **** 			break;
 9020              		.loc 1 2719 4
 9021 007e 06E0     		b	.L852
 9022              	.L841:
2720:../app/app.c  **** 	case APP_SETUP_STATE:
2721:../app/app.c  **** 		app_setup_handler();
 9023              		.loc 1 2721 3
 9024 0080 FFF7FEFF 		bl	app_setup_handler
2722:../app/app.c  **** 			break;
 9025              		.loc 1 2722 4
 9026 0084 03E0     		b	.L852
 9027              	.L839:
2723:../app/app.c  **** 	case APP_RUNNING_ONOFF_STATE:
2724:../app/app.c  **** 		app_running_onoff_handler();
 9028              		.loc 1 2724 3
 9029 0086 FFF7FEFF 		bl	app_running_onoff_handler
2725:../app/app.c  **** 			break;
 9030              		.loc 1 2725 4
 9031 008a 00E0     		b	.L852
 9032              	.L853:
2726:../app/app.c  **** 	default:
2727:../app/app.c  **** 		break;
 9033              		.loc 1 2727 3
 9034 008c 00BF     		nop
 9035              	.L852:
2728:../app/app.c  **** 	}
2729:../app/app.c  **** }
 9036              		.loc 1 2729 1
 9037 008e 00BF     		nop
 9038 0090 80BD     		pop	{r7, pc}
 9039              	.L855:
 9040 0092 00BF     		.align	2
 9041              	.L854:
 9042 0094 00000000 		.word	app_task_step
 9043              		.cfi_endproc
 9044              	.LFE185:
 9046              		.section	.text.app_event_handler,"ax",%progbits
 9047              		.align	1
 9048              		.global	app_event_handler
 9049              		.syntax unified
 9050              		.thumb
 9051              		.thumb_func
 9052              		.fpu softvfp
 9054              	app_event_handler:
 9055              	.LFB186:
2730:../app/app.c  **** 
2731:../app/app.c  **** /************************************************************************
2732:../app/app.c  **** * function name: app_processEvent
2733:../app/app.c  **** * input: non
2734:../app/app.c  **** * output: non
2735:../app/app.c  **** * description: this object's message loop
2736:../app/app.c  **** *************************************************************************/
2737:../app/app.c  **** uint32_t app_event_handler( uint8_t task_id, uint32_t events)
2738:../app/app.c  **** {
 9056              		.loc 1 2738 1
 9057              		.cfi_startproc
 9058              		@ args = 0, pretend = 0, frame = 8
 9059              		@ frame_needed = 1, uses_anonymous_args = 0
 9060 0000 80B5     		push	{r7, lr}
 9061              		.cfi_def_cfa_offset 8
 9062              		.cfi_offset 7, -8
 9063              		.cfi_offset 14, -4
 9064 0002 82B0     		sub	sp, sp, #8
 9065              		.cfi_def_cfa_offset 16
 9066 0004 00AF     		add	r7, sp, #0
 9067              		.cfi_def_cfa_register 7
 9068 0006 0346     		mov	r3, r0
 9069 0008 3960     		str	r1, [r7]
 9070 000a FB71     		strb	r3, [r7, #7]
2739:../app/app.c  **** 	if (app_id != task_id){
 9071              		.loc 1 2739 13
 9072 000c 094B     		ldr	r3, .L860
 9073 000e 1B78     		ldrb	r3, [r3]	@ zero_extendqisi2
 9074              		.loc 1 2739 5
 9075 0010 FA79     		ldrb	r2, [r7, #7]	@ zero_extendqisi2
 9076 0012 9A42     		cmp	r2, r3
 9077 0014 01D0     		beq	.L857
2740:../app/app.c  **** 		return events;
 9078              		.loc 1 2740 10
 9079 0016 3B68     		ldr	r3, [r7]
 9080 0018 08E0     		b	.L858
 9081              	.L857:
2741:../app/app.c  **** 	}
2742:../app/app.c  **** 	if (APP_KEY_CHANGE_EVENT & events)
 9082              		.loc 1 2742 27
 9083 001a 3B68     		ldr	r3, [r7]
 9084 001c 03F00103 		and	r3, r3, #1
 9085              		.loc 1 2742 5
 9086 0020 002B     		cmp	r3, #0
 9087 0022 02D0     		beq	.L859
2743:../app/app.c  **** 	{
2744:../app/app.c  **** 		app_key_handler(&keyinfo);
 9088              		.loc 1 2744 3
 9089 0024 0448     		ldr	r0, .L860+4
 9090 0026 FFF7FEFF 		bl	app_key_handler
 9091              	.L859:
2745:../app/app.c  **** 	}
2746:../app/app.c  **** 
2747:../app/app.c  **** 	return events;
 9092              		.loc 1 2747 9
 9093 002a 3B68     		ldr	r3, [r7]
 9094              	.L858:
2748:../app/app.c  **** }
 9095              		.loc 1 2748 1
 9096 002c 1846     		mov	r0, r3
 9097 002e 0837     		adds	r7, r7, #8
 9098              		.cfi_def_cfa_offset 8
 9099 0030 BD46     		mov	sp, r7
 9100              		.cfi_def_cfa_register 13
 9101              		@ sp needed
 9102 0032 80BD     		pop	{r7, pc}
 9103              	.L861:
 9104              		.align	2
 9105              	.L860:
 9106 0034 00000000 		.word	app_id
 9107 0038 00000000 		.word	keyinfo
 9108              		.cfi_endproc
 9109              	.LFE186:
 9111              		.section	.bss.sta.8845,"aw",%nobits
 9114              	sta.8845:
 9115 0000 00       		.space	1
 9116              		.section	.bss.sta.8862,"aw",%nobits
 9119              	sta.8862:
 9120 0000 00       		.space	1
 9121              		.section	.bss.sta.8879,"aw",%nobits
 9124              	sta.8879:
 9125 0000 00       		.space	1
 9126              		.section	.bss.sta.8894,"aw",%nobits
 9129              	sta.8894:
 9130 0000 00       		.space	1
 9131              		.section	.bss.sta.8907,"aw",%nobits
 9134              	sta.8907:
 9135 0000 00       		.space	1
 9136              		.section	.bss.sta.8921,"aw",%nobits
 9139              	sta.8921:
 9140 0000 00       		.space	1
 9141              		.section	.bss.sta.8932,"aw",%nobits
 9144              	sta.8932:
 9145 0000 00       		.space	1
 9146              		.text
 9147              	.Letext0:
 9148              		.file 2 "d:\\project\\coffee\\ide\\tools\\gnu tools arm embedded\\xpack-arm-none-eabi-gcc\\9.2.1-1
 9149              		.file 3 "d:\\project\\coffee\\ide\\tools\\gnu tools arm embedded\\xpack-arm-none-eabi-gcc\\9.2.1-1
 9150              		.file 4 "d:\\project\\coffee\\ide\\tools\\gnu tools arm embedded\\xpack-arm-none-eabi-gcc\\9.2.1-1
 9151              		.file 5 "d:\\project\\coffee\\ide\\tools\\gnu tools arm embedded\\xpack-arm-none-eabi-gcc\\9.2.1-1
 9152              		.file 6 "d:\\project\\coffee\\ide\\tools\\gnu tools arm embedded\\xpack-arm-none-eabi-gcc\\9.2.1-1
 9153              		.file 7 "d:\\project\\coffee\\ide\\tools\\gnu tools arm embedded\\xpack-arm-none-eabi-gcc\\9.2.1-1
 9154              		.file 8 "../Firmware/CMSIS/core_cm4.h"
 9155              		.file 9 "../Firmware/CMSIS/GD/GD32F30x/Include/system_gd32f30x.h"
 9156              		.file 10 "../Firmware/CMSIS/GD/GD32F30x/Include/gd32f30x.h"
 9157              		.file 11 "../Firmware/GD32F30x_standard_peripheral/Include/gd32f30x_gpio.h"
 9158              		.file 12 "../osal/os_lyh_core.h"
 9159              		.file 13 "../app/keyboard.h"
 9160              		.file 14 "../app/acmotor.h"
 9161              		.file 15 "../app/dcmotor.h"
 9162              		.file 16 "../app/display.h"
 9163              		.file 17 "../app/usart.h"
 9164              		.file 18 "../app/heat.h"
 9165              		.file 19 "../app/adc.h"
 9166              		.file 20 "../Firmware/GD32F30x_standard_peripheral/Include/gd32f30x_dbg.h"
 9167              		.file 21 "../app/app.h"
 9168              		.file 22 "../app/bus.h"
 9169              		.file 23 "../app/relay.h"
DEFINED SYMBOLS
                            *ABS*:00000000 app.c
                            *COM*:00000001 app_id
                            *COM*:00000001 app_task_step
                            *COM*:00000001 app_task_substep
                            *COM*:00000003 manual_setup
                            *COM*:00000002 run_max_time
                            *COM*:00000001 Buzzer_times
                            *COM*:00000001 Leds_loop_run
                            *COM*:00000001 cup_loop
                            *COM*:00000001 turn_off_flag
                            *COM*:00000001 flush_flag
                            *COM*:00000001 CERRNT_STATE
                            *COM*:00000002 drop_beans_time
C:\Users\user001\AppData\Local\Temp\cc5tfbXV.s:28     .text.app_virtual_croszero_cbfunc:00000000 $t
C:\Users\user001\AppData\Local\Temp\cc5tfbXV.s:36     .text.app_virtual_croszero_cbfunc:00000000 app_virtual_croszero_cbfunc
C:\Users\user001\AppData\Local\Temp\cc5tfbXV.s:71     .text.app_virtual_croszero_cbfunc:00000034 $d
C:\Users\user001\AppData\Local\Temp\cc5tfbXV.s:77     .text.app_buzon_cbfunc:00000000 $t
C:\Users\user001\AppData\Local\Temp\cc5tfbXV.s:84     .text.app_buzon_cbfunc:00000000 app_buzon_cbfunc
C:\Users\user001\AppData\Local\Temp\cc5tfbXV.s:125    .text.app_buzon_cbfunc:0000002c $d
C:\Users\user001\AppData\Local\Temp\cc5tfbXV.s:138    .text.app_buzoff_cbfunc:00000000 app_buzoff_cbfunc
C:\Users\user001\AppData\Local\Temp\cc5tfbXV.s:131    .text.app_buzoff_cbfunc:00000000 $t
C:\Users\user001\AppData\Local\Temp\cc5tfbXV.s:164    .text.app_buzoff_cbfunc:00000018 $d
C:\Users\user001\AppData\Local\Temp\cc5tfbXV.s:169    .text.app_buzzer_on:00000000 $t
C:\Users\user001\AppData\Local\Temp\cc5tfbXV.s:176    .text.app_buzzer_on:00000000 app_buzzer_on
C:\Users\user001\AppData\Local\Temp\cc5tfbXV.s:229    .text.app_buzzer_on:0000003c $d
C:\Users\user001\AppData\Local\Temp\cc5tfbXV.s:235    .text.app_resource_init:00000000 $t
C:\Users\user001\AppData\Local\Temp\cc5tfbXV.s:242    .text.app_resource_init:00000000 app_resource_init
C:\Users\user001\AppData\Local\Temp\cc5tfbXV.s:267    .text.app_resource_init:00000018 $d
C:\Users\user001\AppData\Local\Temp\cc5tfbXV.s:278    .text.app_resource_init:00000044 $t
C:\Users\user001\AppData\Local\Temp\cc5tfbXV.s:297    .text.app_resource_free:00000000 $t
C:\Users\user001\AppData\Local\Temp\cc5tfbXV.s:304    .text.app_resource_free:00000000 app_resource_free
C:\Users\user001\AppData\Local\Temp\cc5tfbXV.s:329    .text.app_resource_free:00000018 $d
C:\Users\user001\AppData\Local\Temp\cc5tfbXV.s:340    .text.app_resource_free:00000044 $t
C:\Users\user001\AppData\Local\Temp\cc5tfbXV.s:363    .text.app_task_nextstep:00000000 $t
C:\Users\user001\AppData\Local\Temp\cc5tfbXV.s:370    .text.app_task_nextstep:00000000 app_task_nextstep
C:\Users\user001\AppData\Local\Temp\cc5tfbXV.s:422    .text.app_task_nextstep:00000040 $d
C:\Users\user001\AppData\Local\Temp\cc5tfbXV.s:429    .text.app_task_nextsubstep:00000000 $t
C:\Users\user001\AppData\Local\Temp\cc5tfbXV.s:436    .text.app_task_nextsubstep:00000000 app_task_nextsubstep
C:\Users\user001\AppData\Local\Temp\cc5tfbXV.s:472    .text.app_task_nextsubstep:00000024 $d
C:\Users\user001\AppData\Local\Temp\cc5tfbXV.s:478    .text.app_water_ready:00000000 $t
C:\Users\user001\AppData\Local\Temp\cc5tfbXV.s:485    .text.app_water_ready:00000000 app_water_ready
C:\Users\user001\AppData\Local\Temp\cc5tfbXV.s:517    .text.app_water_ready:0000001c $d
C:\Users\user001\AppData\Local\Temp\cc5tfbXV.s:522    .text.app_pallet_ready:00000000 $t
C:\Users\user001\AppData\Local\Temp\cc5tfbXV.s:529    .text.app_pallet_ready:00000000 app_pallet_ready
C:\Users\user001\AppData\Local\Temp\cc5tfbXV.s:561    .text.app_pallet_ready:0000001c $d
C:\Users\user001\AppData\Local\Temp\cc5tfbXV.s:566    .text.app_meter_ready:00000000 $t
C:\Users\user001\AppData\Local\Temp\cc5tfbXV.s:573    .text.app_meter_ready:00000000 app_meter_ready
C:\Users\user001\AppData\Local\Temp\cc5tfbXV.s:605    .text.app_meter_ready:0000001c $d
C:\Users\user001\AppData\Local\Temp\cc5tfbXV.s:610    .text.app_motor_ready:00000000 $t
C:\Users\user001\AppData\Local\Temp\cc5tfbXV.s:617    .text.app_motor_ready:00000000 app_motor_ready
C:\Users\user001\AppData\Local\Temp\cc5tfbXV.s:652    .text.app_motor_ready:00000020 $d
C:\Users\user001\AppData\Local\Temp\cc5tfbXV.s:657    .text.app_turn_heat_off:00000000 $t
C:\Users\user001\AppData\Local\Temp\cc5tfbXV.s:664    .text.app_turn_heat_off:00000000 app_turn_heat_off
C:\Users\user001\AppData\Local\Temp\cc5tfbXV.s:700    .text.app_turn_heat_off:00000028 $d
C:\Users\user001\AppData\Local\Temp\cc5tfbXV.s:706    .text.app_turn_heat_on:00000000 $t
C:\Users\user001\AppData\Local\Temp\cc5tfbXV.s:713    .text.app_turn_heat_on:00000000 app_turn_heat_on
C:\Users\user001\AppData\Local\Temp\cc5tfbXV.s:759    .text.app_turn_heat_on:00000038 $d
C:\Users\user001\AppData\Local\Temp\cc5tfbXV.s:766    .text.app_temperature_state:00000000 $t
C:\Users\user001\AppData\Local\Temp\cc5tfbXV.s:773    .text.app_temperature_state:00000000 app_temperature_state
C:\Users\user001\AppData\Local\Temp\cc5tfbXV.s:806    .text.app_relay_set:00000000 $t
C:\Users\user001\AppData\Local\Temp\cc5tfbXV.s:813    .text.app_relay_set:00000000 app_relay_set
C:\Users\user001\AppData\Local\Temp\cc5tfbXV.s:857    .text.app_step_state:00000000 $t
C:\Users\user001\AppData\Local\Temp\cc5tfbXV.s:864    .text.app_step_state:00000000 app_step_state
C:\Users\user001\AppData\Local\Temp\cc5tfbXV.s:903    .text.app_step_state:00000024 $d
C:\Users\user001\AppData\Local\Temp\cc5tfbXV.s:908    .text.app_led_heat_cbfunc:00000000 $t
C:\Users\user001\AppData\Local\Temp\cc5tfbXV.s:915    .text.app_led_heat_cbfunc:00000000 app_led_heat_cbfunc
C:\Users\user001\AppData\Local\Temp\cc5tfbXV.s:1007   .text.app_led_heat_cbfunc:00000084 $d
C:\Users\user001\AppData\Local\Temp\cc5tfbXV.s:1014   .text.app_led_show_init:00000000 $t
C:\Users\user001\AppData\Local\Temp\cc5tfbXV.s:1021   .text.app_led_show_init:00000000 app_led_show_init
C:\Users\user001\AppData\Local\Temp\cc5tfbXV.s:1694   .text.app_leds_all_fun:00000000 app_leds_all_fun
C:\Users\user001\AppData\Local\Temp\cc5tfbXV.s:1055   .text.app_led_show_init:00000028 $d
C:\Users\user001\AppData\Local\Temp\cc5tfbXV.s:1061   .text.app_led_start_cbfunc:00000000 $t
C:\Users\user001\AppData\Local\Temp\cc5tfbXV.s:1068   .text.app_led_start_cbfunc:00000000 app_led_start_cbfunc
C:\Users\user001\AppData\Local\Temp\cc5tfbXV.s:1095   .text.app_led_start_cbfunc:0000001c $d
C:\Users\user001\AppData\Local\Temp\cc5tfbXV.s:1100   .text.app_led_start_init:00000000 $t
C:\Users\user001\AppData\Local\Temp\cc5tfbXV.s:1107   .text.app_led_start_init:00000000 app_led_start_init
C:\Users\user001\AppData\Local\Temp\cc5tfbXV.s:1134   .text.app_led_start_init:0000001c $d
C:\Users\user001\AppData\Local\Temp\cc5tfbXV.s:1139   .text.app_led_espresso_cbfunc:00000000 $t
C:\Users\user001\AppData\Local\Temp\cc5tfbXV.s:1146   .text.app_led_espresso_cbfunc:00000000 app_led_espresso_cbfunc
C:\Users\user001\AppData\Local\Temp\cc5tfbXV.s:1192   .text.app_led_espresso_cbfunc:00000038 $d
C:\Users\user001\AppData\Local\Temp\cc5tfbXV.s:1198   .text.app_led_espresso_init:00000000 $t
C:\Users\user001\AppData\Local\Temp\cc5tfbXV.s:1205   .text.app_led_espresso_init:00000000 app_led_espresso_init
C:\Users\user001\AppData\Local\Temp\cc5tfbXV.s:1251   .text.app_led_espresso_init:00000038 $d
C:\Users\user001\AppData\Local\Temp\cc5tfbXV.s:1257   .text.app_led_americano_cbfunc:00000000 $t
C:\Users\user001\AppData\Local\Temp\cc5tfbXV.s:1264   .text.app_led_americano_cbfunc:00000000 app_led_americano_cbfunc
C:\Users\user001\AppData\Local\Temp\cc5tfbXV.s:1310   .text.app_led_americano_cbfunc:00000038 $d
C:\Users\user001\AppData\Local\Temp\cc5tfbXV.s:1316   .text.app_led_americano_init:00000000 $t
C:\Users\user001\AppData\Local\Temp\cc5tfbXV.s:1323   .text.app_led_americano_init:00000000 app_led_americano_init
C:\Users\user001\AppData\Local\Temp\cc5tfbXV.s:1369   .text.app_led_americano_init:00000038 $d
C:\Users\user001\AppData\Local\Temp\cc5tfbXV.s:1375   .text.app_led_hotwater_cbfunc:00000000 $t
C:\Users\user001\AppData\Local\Temp\cc5tfbXV.s:1382   .text.app_led_hotwater_cbfunc:00000000 app_led_hotwater_cbfunc
C:\Users\user001\AppData\Local\Temp\cc5tfbXV.s:1409   .text.app_led_hotwater_cbfunc:0000001c $d
C:\Users\user001\AppData\Local\Temp\cc5tfbXV.s:1414   .text.app_led_hotwater_init:00000000 $t
C:\Users\user001\AppData\Local\Temp\cc5tfbXV.s:1421   .text.app_led_hotwater_init:00000000 app_led_hotwater_init
C:\Users\user001\AppData\Local\Temp\cc5tfbXV.s:1448   .text.app_led_hotwater_init:0000001c $d
C:\Users\user001\AppData\Local\Temp\cc5tfbXV.s:1453   .text.app_led_steam_cbfunc:00000000 $t
C:\Users\user001\AppData\Local\Temp\cc5tfbXV.s:1460   .text.app_led_steam_cbfunc:00000000 app_led_steam_cbfunc
C:\Users\user001\AppData\Local\Temp\cc5tfbXV.s:1487   .text.app_led_steam_cbfunc:0000001c $d
C:\Users\user001\AppData\Local\Temp\cc5tfbXV.s:1492   .text.app_led_steam_init:00000000 $t
C:\Users\user001\AppData\Local\Temp\cc5tfbXV.s:1499   .text.app_led_steam_init:00000000 app_led_steam_init
C:\Users\user001\AppData\Local\Temp\cc5tfbXV.s:1526   .text.app_led_steam_init:0000001c $d
C:\Users\user001\AppData\Local\Temp\cc5tfbXV.s:1531   .text.app_led_aqua_cbfunc:00000000 $t
C:\Users\user001\AppData\Local\Temp\cc5tfbXV.s:1538   .text.app_led_aqua_cbfunc:00000000 app_led_aqua_cbfunc
C:\Users\user001\AppData\Local\Temp\cc5tfbXV.s:1565   .text.app_led_aqua_cbfunc:0000001c $d
C:\Users\user001\AppData\Local\Temp\cc5tfbXV.s:1570   .text.app_led_aqua_init:00000000 $t
C:\Users\user001\AppData\Local\Temp\cc5tfbXV.s:1577   .text.app_led_aqua_init:00000000 app_led_aqua_init
C:\Users\user001\AppData\Local\Temp\cc5tfbXV.s:1604   .text.app_led_aqua_init:0000001c $d
C:\Users\user001\AppData\Local\Temp\cc5tfbXV.s:1609   .text.app_led_calc_cbfunc:00000000 $t
C:\Users\user001\AppData\Local\Temp\cc5tfbXV.s:1616   .text.app_led_calc_cbfunc:00000000 app_led_calc_cbfunc
C:\Users\user001\AppData\Local\Temp\cc5tfbXV.s:1643   .text.app_led_calc_cbfunc:0000001c $d
C:\Users\user001\AppData\Local\Temp\cc5tfbXV.s:1648   .text.app_led_calc_init:00000000 $t
C:\Users\user001\AppData\Local\Temp\cc5tfbXV.s:1655   .text.app_led_calc_init:00000000 app_led_calc_init
C:\Users\user001\AppData\Local\Temp\cc5tfbXV.s:1682   .text.app_led_calc_init:0000001c $d
C:\Users\user001\AppData\Local\Temp\cc5tfbXV.s:1687   .text.app_leds_all_fun:00000000 $t
C:\Users\user001\AppData\Local\Temp\cc5tfbXV.s:1772   .text.app_leds_all_ind:00000000 $t
C:\Users\user001\AppData\Local\Temp\cc5tfbXV.s:1779   .text.app_leds_all_ind:00000000 app_leds_all_ind
C:\Users\user001\AppData\Local\Temp\cc5tfbXV.s:1842   .text.app_led_oneloop:00000000 $t
C:\Users\user001\AppData\Local\Temp\cc5tfbXV.s:1849   .text.app_led_oneloop:00000000 app_led_oneloop
C:\Users\user001\AppData\Local\Temp\cc5tfbXV.s:1889   .text.app_led_finish_step:00000000 $t
C:\Users\user001\AppData\Local\Temp\cc5tfbXV.s:1896   .text.app_led_finish_step:00000000 app_led_finish_step
C:\Users\user001\AppData\Local\Temp\cc5tfbXV.s:1928   .text.app_onoff_key_deal:00000000 $t
C:\Users\user001\AppData\Local\Temp\cc5tfbXV.s:1935   .text.app_onoff_key_deal:00000000 app_onoff_key_deal
C:\Users\user001\AppData\Local\Temp\cc5tfbXV.s:1995   .text.app_onoff_key_deal:00000040 $d
C:\Users\user001\AppData\Local\Temp\cc5tfbXV.s:2000   .text.app_start_key_deal:00000000 $t
C:\Users\user001\AppData\Local\Temp\cc5tfbXV.s:2007   .text.app_start_key_deal:00000000 app_start_key_deal
C:\Users\user001\AppData\Local\Temp\cc5tfbXV.s:2034   .text.app_start_key_deal:0000001c $d
C:\Users\user001\AppData\Local\Temp\cc5tfbXV.s:2039   .text.app_start_key_deal:00000030 $t
C:\Users\user001\AppData\Local\Temp\cc5tfbXV.s:2051   .text.app_start_key_deal:00000040 $d
C:\Users\user001\AppData\Local\Temp\cc5tfbXV.s:2062   .text.app_start_key_deal:0000006c $t
C:\Users\user001\AppData\Local\Temp\cc5tfbXV.s:2167   .text.app_start_key_deal:000000ec $d
C:\Users\user001\AppData\Local\Temp\cc5tfbXV.s:2174   .text.app_hotwater_key_deal:00000000 $t
C:\Users\user001\AppData\Local\Temp\cc5tfbXV.s:2181   .text.app_hotwater_key_deal:00000000 app_hotwater_key_deal
C:\Users\user001\AppData\Local\Temp\cc5tfbXV.s:2240   .text.app_hotwater_key_deal:00000038 $d
C:\Users\user001\AppData\Local\Temp\cc5tfbXV.s:2246   .text.app_espresso_key_deal:00000000 $t
C:\Users\user001\AppData\Local\Temp\cc5tfbXV.s:2253   .text.app_espresso_key_deal:00000000 app_espresso_key_deal
C:\Users\user001\AppData\Local\Temp\cc5tfbXV.s:2352   .text.app_espresso_key_deal:0000007c $d
C:\Users\user001\AppData\Local\Temp\cc5tfbXV.s:2359   .text.app_steam_key_deal:00000000 $t
C:\Users\user001\AppData\Local\Temp\cc5tfbXV.s:2366   .text.app_steam_key_deal:00000000 app_steam_key_deal
C:\Users\user001\AppData\Local\Temp\cc5tfbXV.s:2425   .text.app_steam_key_deal:00000038 $d
C:\Users\user001\AppData\Local\Temp\cc5tfbXV.s:2431   .text.app_ame_key_deal:00000000 $t
C:\Users\user001\AppData\Local\Temp\cc5tfbXV.s:2438   .text.app_ame_key_deal:00000000 app_ame_key_deal
C:\Users\user001\AppData\Local\Temp\cc5tfbXV.s:2537   .text.app_ame_key_deal:0000007c $d
C:\Users\user001\AppData\Local\Temp\cc5tfbXV.s:2544   .text.app_coffee_key_deal:00000000 $t
C:\Users\user001\AppData\Local\Temp\cc5tfbXV.s:2551   .text.app_coffee_key_deal:00000000 app_coffee_key_deal
C:\Users\user001\AppData\Local\Temp\cc5tfbXV.s:2661   .text.app_coffee_key_deal:00000084 $d
C:\Users\user001\AppData\Local\Temp\cc5tfbXV.s:2668   .text.app_water_key_deal:00000000 $t
C:\Users\user001\AppData\Local\Temp\cc5tfbXV.s:2675   .text.app_water_key_deal:00000000 app_water_key_deal
C:\Users\user001\AppData\Local\Temp\cc5tfbXV.s:2797   .text.app_water_key_deal:000000a0 $d
C:\Users\user001\AppData\Local\Temp\cc5tfbXV.s:2804   .text.app_calc_key_deal:00000000 $t
C:\Users\user001\AppData\Local\Temp\cc5tfbXV.s:2811   .text.app_calc_key_deal:00000000 app_calc_key_deal
C:\Users\user001\AppData\Local\Temp\cc5tfbXV.s:2870   .text.app_calc_key_deal:00000038 $d
C:\Users\user001\AppData\Local\Temp\cc5tfbXV.s:2876   .text.app_aqua_key_deal:00000000 $t
C:\Users\user001\AppData\Local\Temp\cc5tfbXV.s:2883   .text.app_aqua_key_deal:00000000 app_aqua_key_deal
C:\Users\user001\AppData\Local\Temp\cc5tfbXV.s:2942   .text.app_aqua_key_deal:00000038 $d
C:\Users\user001\AppData\Local\Temp\cc5tfbXV.s:2948   .text.app_pad_key_deal:00000000 $t
C:\Users\user001\AppData\Local\Temp\cc5tfbXV.s:2955   .text.app_pad_key_deal:00000000 app_pad_key_deal
C:\Users\user001\AppData\Local\Temp\cc5tfbXV.s:2985   .text.app_pad_key_deal:00000014 $d
C:\Users\user001\AppData\Local\Temp\cc5tfbXV.s:2990   .text.app_key_handler:00000000 $t
C:\Users\user001\AppData\Local\Temp\cc5tfbXV.s:2997   .text.app_key_handler:00000000 app_key_handler
C:\Users\user001\AppData\Local\Temp\cc5tfbXV.s:3249   .text.app_init_handler:00000000 $t
C:\Users\user001\AppData\Local\Temp\cc5tfbXV.s:3256   .text.app_init_handler:00000000 app_init_handler
C:\Users\user001\AppData\Local\Temp\cc5tfbXV.s:3320   .text.app_init_handler:0000004c $d
C:\Users\user001\AppData\Local\Temp\cc5tfbXV.s:3326   .text.app_idle_handler:00000000 $t
C:\Users\user001\AppData\Local\Temp\cc5tfbXV.s:3333   .text.app_idle_handler:00000000 app_idle_handler
C:\Users\user001\AppData\Local\Temp\cc5tfbXV.s:3378   .text.app_idle_handler:00000030 $d
C:\Users\user001\AppData\Local\Temp\cc5tfbXV.s:3383   .text.app_startup_handler:00000000 $t
C:\Users\user001\AppData\Local\Temp\cc5tfbXV.s:3390   .text.app_startup_handler:00000000 app_startup_handler
C:\Users\user001\AppData\Local\Temp\cc5tfbXV.s:3411   .text.app_startup_handler:00000014 $d
C:\Users\user001\AppData\Local\Temp\cc5tfbXV.s:3428   .text.app_startup_handler:00000058 $t
C:\Users\user001\AppData\Local\Temp\cc5tfbXV.s:3878   .text.app_startup_handler:000002fc $d
C:\Users\user001\AppData\Local\Temp\cc5tfbXV.s:3882   .text.app_startup_handler:00000304 $t
C:\Users\user001\AppData\Local\Temp\cc5tfbXV.s:3960   .text.app_startup_handler:00000378 $d
C:\Users\user001\AppData\Local\Temp\cc5tfbXV.s:3965   .text.app_normal_handler:00000000 $t
C:\Users\user001\AppData\Local\Temp\cc5tfbXV.s:3972   .text.app_normal_handler:00000000 app_normal_handler
C:\Users\user001\AppData\Local\Temp\cc5tfbXV.s:3993   .text.app_normal_handler:00000014 $d
C:\Users\user001\AppData\Local\Temp\cc5tfbXV.s:4006   .text.app_normal_handler:00000048 $t
C:\Users\user001\AppData\Local\Temp\cc5tfbXV.s:4225   .text.app_normal_handler:000001ac $d
C:\Users\user001\AppData\Local\Temp\cc5tfbXV.s:4231   .text.app_espresso_handler:00000000 $t
C:\Users\user001\AppData\Local\Temp\cc5tfbXV.s:4238   .text.app_espresso_handler:00000000 app_espresso_handler
C:\Users\user001\AppData\Local\Temp\cc5tfbXV.s:4259   .text.app_espresso_handler:00000014 $d
C:\Users\user001\AppData\Local\Temp\cc5tfbXV.s:4280   .text.app_espresso_handler:00000068 $t
C:\Users\user001\AppData\Local\Temp\cc5tfbXV.s:4716   .text.app_espresso_handler:000002fc $d
C:\Users\user001\AppData\Local\Temp\cc5tfbXV.s:4723   .text.app_espresso_handler:00000310 $t
C:\Users\user001\AppData\Local\Temp\cc5tfbXV.s:4934   .text.app_espresso_handler:0000043c $d
C:\Users\user001\AppData\Local\Temp\cc5tfbXV.s:4943   .text.app_american_handler:00000000 $t
C:\Users\user001\AppData\Local\Temp\cc5tfbXV.s:4950   .text.app_american_handler:00000000 app_american_handler
C:\Users\user001\AppData\Local\Temp\cc5tfbXV.s:4971   .text.app_american_handler:00000014 $d
C:\Users\user001\AppData\Local\Temp\cc5tfbXV.s:5005   .text.app_american_handler:0000009c $t
C:\Users\user001\AppData\Local\Temp\cc5tfbXV.s:5406   .text.app_american_handler:000002fc $d
C:\Users\user001\AppData\Local\Temp\cc5tfbXV.s:5413   .text.app_american_handler:00000310 $t
C:\Users\user001\AppData\Local\Temp\cc5tfbXV.s:5879   .text.app_american_handler:000005c4 $d
C:\Users\user001\AppData\Local\Temp\cc5tfbXV.s:5889   .text.app_american_handler:000005e4 $t
C:\Users\user001\AppData\Local\Temp\cc5tfbXV.s:6020   .text.app_american_handler:00000698 $d
C:\Users\user001\AppData\Local\Temp\cc5tfbXV.s:6028   .text.app_hotwater_handler:00000000 $t
C:\Users\user001\AppData\Local\Temp\cc5tfbXV.s:6035   .text.app_hotwater_handler:00000000 app_hotwater_handler
C:\Users\user001\AppData\Local\Temp\cc5tfbXV.s:6056   .text.app_hotwater_handler:00000014 $d
C:\Users\user001\AppData\Local\Temp\cc5tfbXV.s:6062   .text.app_hotwater_handler:0000002c $t
C:\Users\user001\AppData\Local\Temp\cc5tfbXV.s:6222   .text.app_hotwater_handler:00000118 $d
C:\Users\user001\AppData\Local\Temp\cc5tfbXV.s:6230   .text.app_steam_handler:00000000 $t
C:\Users\user001\AppData\Local\Temp\cc5tfbXV.s:6237   .text.app_steam_handler:00000000 app_steam_handler
C:\Users\user001\AppData\Local\Temp\cc5tfbXV.s:6258   .text.app_steam_handler:00000014 $d
C:\Users\user001\AppData\Local\Temp\cc5tfbXV.s:6262   .text.app_steam_handler:00000024 $t
C:\Users\user001\AppData\Local\Temp\cc5tfbXV.s:6357   .text.app_steam_handler:000000b4 $d
C:\Users\user001\AppData\Local\Temp\cc5tfbXV.s:6363   .text.app_aqua_handler:00000000 $t
C:\Users\user001\AppData\Local\Temp\cc5tfbXV.s:6370   .text.app_aqua_handler:00000000 app_aqua_handler
C:\Users\user001\AppData\Local\Temp\cc5tfbXV.s:6417   .text.app_aqua_handler:00000034 $d
C:\Users\user001\AppData\Local\Temp\cc5tfbXV.s:6422   .text.app_calc_handler:00000000 $t
C:\Users\user001\AppData\Local\Temp\cc5tfbXV.s:6429   .text.app_calc_handler:00000000 app_calc_handler
C:\Users\user001\AppData\Local\Temp\cc5tfbXV.s:6476   .text.app_calc_handler:00000034 $d
C:\Users\user001\AppData\Local\Temp\cc5tfbXV.s:6481   .text.app_setup_handler:00000000 $t
C:\Users\user001\AppData\Local\Temp\cc5tfbXV.s:6488   .text.app_setup_handler:00000000 app_setup_handler
C:\Users\user001\AppData\Local\Temp\cc5tfbXV.s:6509   .text.app_setup_handler:00000014 $d
C:\Users\user001\AppData\Local\Temp\cc5tfbXV.s:6517   .text.app_setup_handler:00000034 $t
C:\Users\user001\AppData\Local\Temp\cc5tfbXV.s:6746   .text.app_setup_handler:00000178 $d
C:\Users\user001\AppData\Local\Temp\cc5tfbXV.s:6752   .text.app_running_onoff_grind_handler:00000000 $t
C:\Users\user001\AppData\Local\Temp\cc5tfbXV.s:6759   .text.app_running_onoff_grind_handler:00000000 app_running_onoff_grind_handler
C:\Users\user001\AppData\Local\Temp\cc5tfbXV.s:6780   .text.app_running_onoff_grind_handler:00000014 $d
C:\Users\user001\AppData\Local\Temp\cc5tfbXV.s:6791   .text.app_running_onoff_grind_handler:00000040 $t
C:\Users\user001\AppData\Local\Temp\cc5tfbXV.s:7041   .text.app_running_onoff_grind_handler:000001ac $d
C:\Users\user001\AppData\Local\Temp\cc5tfbXV.s:9114   .bss.sta.8845:00000000 sta.8845
C:\Users\user001\AppData\Local\Temp\cc5tfbXV.s:7047   .text.app_running_onoff_go_water_handler:00000000 $t
C:\Users\user001\AppData\Local\Temp\cc5tfbXV.s:7054   .text.app_running_onoff_go_water_handler:00000000 app_running_onoff_go_water_handler
C:\Users\user001\AppData\Local\Temp\cc5tfbXV.s:7075   .text.app_running_onoff_go_water_handler:00000014 $d
C:\Users\user001\AppData\Local\Temp\cc5tfbXV.s:7086   .text.app_running_onoff_go_water_handler:00000040 $t
C:\Users\user001\AppData\Local\Temp\cc5tfbXV.s:7334   .text.app_running_onoff_go_water_handler:000001ac $d
C:\Users\user001\AppData\Local\Temp\cc5tfbXV.s:9119   .bss.sta.8862:00000000 sta.8862
C:\Users\user001\AppData\Local\Temp\cc5tfbXV.s:7340   .text.app_running_onoff_pre_brew_handler:00000000 $t
C:\Users\user001\AppData\Local\Temp\cc5tfbXV.s:7347   .text.app_running_onoff_pre_brew_handler:00000000 app_running_onoff_pre_brew_handler
C:\Users\user001\AppData\Local\Temp\cc5tfbXV.s:7368   .text.app_running_onoff_pre_brew_handler:00000014 $d
C:\Users\user001\AppData\Local\Temp\cc5tfbXV.s:7377   .text.app_running_onoff_pre_brew_handler:00000038 $t
C:\Users\user001\AppData\Local\Temp\cc5tfbXV.s:7566   .text.app_running_onoff_pre_brew_handler:0000014c $d
C:\Users\user001\AppData\Local\Temp\cc5tfbXV.s:9124   .bss.sta.8879:00000000 sta.8879
C:\Users\user001\AppData\Local\Temp\cc5tfbXV.s:7572   .text.app_running_onoff_brew_handler:00000000 $t
C:\Users\user001\AppData\Local\Temp\cc5tfbXV.s:7579   .text.app_running_onoff_brew_handler:00000000 app_running_onoff_brew_handler
C:\Users\user001\AppData\Local\Temp\cc5tfbXV.s:7600   .text.app_running_onoff_brew_handler:00000014 $d
C:\Users\user001\AppData\Local\Temp\cc5tfbXV.s:7607   .text.app_running_onoff_brew_handler:00000030 $t
C:\Users\user001\AppData\Local\Temp\cc5tfbXV.s:7771   .text.app_running_onoff_brew_handler:0000011c $d
C:\Users\user001\AppData\Local\Temp\cc5tfbXV.s:9129   .bss.sta.8894:00000000 sta.8894
C:\Users\user001\AppData\Local\Temp\cc5tfbXV.s:7777   .text.app_running_onoff_drop_beans_handler:00000000 $t
C:\Users\user001\AppData\Local\Temp\cc5tfbXV.s:7784   .text.app_running_onoff_drop_beans_handler:00000000 app_running_onoff_drop_beans_handler
C:\Users\user001\AppData\Local\Temp\cc5tfbXV.s:7805   .text.app_running_onoff_drop_beans_handler:00000014 $d
C:\Users\user001\AppData\Local\Temp\cc5tfbXV.s:7813   .text.app_running_onoff_drop_beans_handler:00000034 $t
C:\Users\user001\AppData\Local\Temp\cc5tfbXV.s:8011   .text.app_running_onoff_drop_beans_handler:00000144 $d
C:\Users\user001\AppData\Local\Temp\cc5tfbXV.s:9134   .bss.sta.8907:00000000 sta.8907
C:\Users\user001\AppData\Local\Temp\cc5tfbXV.s:8018   .text.app_running_onoff_rst_handler:00000000 $t
C:\Users\user001\AppData\Local\Temp\cc5tfbXV.s:8025   .text.app_running_onoff_rst_handler:00000000 app_running_onoff_rst_handler
C:\Users\user001\AppData\Local\Temp\cc5tfbXV.s:8046   .text.app_running_onoff_rst_handler:00000014 $d
C:\Users\user001\AppData\Local\Temp\cc5tfbXV.s:8051   .text.app_running_onoff_rst_handler:00000028 $t
C:\Users\user001\AppData\Local\Temp\cc5tfbXV.s:8187   .text.app_running_onoff_rst_handler:000000e0 $d
C:\Users\user001\AppData\Local\Temp\cc5tfbXV.s:9139   .bss.sta.8921:00000000 sta.8921
C:\Users\user001\AppData\Local\Temp\cc5tfbXV.s:8193   .text.app_running_onoff_flush_handler:00000000 $t
C:\Users\user001\AppData\Local\Temp\cc5tfbXV.s:8200   .text.app_running_onoff_flush_handler:00000000 app_running_onoff_flush_handler
C:\Users\user001\AppData\Local\Temp\cc5tfbXV.s:8221   .text.app_running_onoff_flush_handler:00000014 $d
C:\Users\user001\AppData\Local\Temp\cc5tfbXV.s:8234   .text.app_running_onoff_flush_handler:00000048 $t
C:\Users\user001\AppData\Local\Temp\cc5tfbXV.s:8577   .text.app_running_onoff_flush_handler:00000240 $d
C:\Users\user001\AppData\Local\Temp\cc5tfbXV.s:9144   .bss.sta.8932:00000000 sta.8932
C:\Users\user001\AppData\Local\Temp\cc5tfbXV.s:8583   .text.app_running_onoff_handler:00000000 $t
C:\Users\user001\AppData\Local\Temp\cc5tfbXV.s:8590   .text.app_running_onoff_handler:00000000 app_running_onoff_handler
C:\Users\user001\AppData\Local\Temp\cc5tfbXV.s:8611   .text.app_running_onoff_handler:00000014 $d
C:\Users\user001\AppData\Local\Temp\cc5tfbXV.s:8620   .text.app_running_onoff_handler:00000038 $t
C:\Users\user001\AppData\Local\Temp\cc5tfbXV.s:8637   .text.app_running_onoff_handler:00000054 $d
C:\Users\user001\AppData\Local\Temp\cc5tfbXV.s:8644   .text.app_running_onoff_handler:00000070 $t
C:\Users\user001\AppData\Local\Temp\cc5tfbXV.s:8866   .text.app_running_onoff_handler:00000184 $d
C:\Users\user001\AppData\Local\Temp\cc5tfbXV.s:8875   .text.init_app_task:00000000 $t
C:\Users\user001\AppData\Local\Temp\cc5tfbXV.s:8882   .text.init_app_task:00000000 init_app_task
C:\Users\user001\AppData\Local\Temp\cc5tfbXV.s:8924   .text.init_app_task:00000028 $d
C:\Users\user001\AppData\Local\Temp\cc5tfbXV.s:8931   .text.app_task_handler:00000000 $t
C:\Users\user001\AppData\Local\Temp\cc5tfbXV.s:8938   .text.app_task_handler:00000000 app_task_handler
C:\Users\user001\AppData\Local\Temp\cc5tfbXV.s:8959   .text.app_task_handler:00000014 $d
C:\Users\user001\AppData\Local\Temp\cc5tfbXV.s:8971   .text.app_task_handler:00000044 $t
C:\Users\user001\AppData\Local\Temp\cc5tfbXV.s:9042   .text.app_task_handler:00000094 $d
C:\Users\user001\AppData\Local\Temp\cc5tfbXV.s:9047   .text.app_event_handler:00000000 $t
C:\Users\user001\AppData\Local\Temp\cc5tfbXV.s:9054   .text.app_event_handler:00000000 app_event_handler
C:\Users\user001\AppData\Local\Temp\cc5tfbXV.s:9106   .text.app_event_handler:00000034 $d
C:\Users\user001\AppData\Local\Temp\cc5tfbXV.s:9115   .bss.sta.8845:00000000 $d
C:\Users\user001\AppData\Local\Temp\cc5tfbXV.s:9120   .bss.sta.8862:00000000 $d
C:\Users\user001\AppData\Local\Temp\cc5tfbXV.s:9125   .bss.sta.8879:00000000 $d
C:\Users\user001\AppData\Local\Temp\cc5tfbXV.s:9130   .bss.sta.8894:00000000 $d
C:\Users\user001\AppData\Local\Temp\cc5tfbXV.s:9135   .bss.sta.8907:00000000 $d
C:\Users\user001\AppData\Local\Temp\cc5tfbXV.s:9140   .bss.sta.8921:00000000 $d
C:\Users\user001\AppData\Local\Temp\cc5tfbXV.s:9145   .bss.sta.8932:00000000 $d
                           .group:00000000 wm4.0.0b2cbd0a579afdcbc37120f4ceb86892
                           .group:00000000 wm4._newlib_version.h.4.9ba035841e762c3308916a0ce96032e7
                           .group:00000000 wm4.newlib.h.18.ac66930cc5dc086504ebba5cc05ab7f1
                           .group:00000000 wm4.ieeefp.h.77.d5685ba212d3ed6e914898d045f873e3
                           .group:00000000 wm4.features.h.22.fad1cec3bc7ff06488171438dbdcfd02
                           .group:00000000 wm4.config.h.220.6cac6a9685cfce5e83c17784171638d9
                           .group:00000000 wm4._ansi.h.31.de524f58584151836e90d8620a16f8e8
                           .group:00000000 wm4.stddef.h.39.144cf5ddcd53cbfdac30259dc1a6c87f
                           .group:00000000 wm4._default_types.h.6.959254cf5f09734ea7516c89e8bb21bd
                           .group:00000000 wm4.lock.h.2.1461d1fff82dffe8bfddc23307f6484f
                           .group:00000000 wm4._types.h.125.5cf8a495f1f7ef36777ad868a1e32068
                           .group:00000000 wm4.stddef.h.155.3588ebfdd1e8c7ede80509bb9c3b8009
                           .group:00000000 wm4._types.h.184.03611d4f6b5bec9997bcf4279eceba07
                           .group:00000000 wm4.reent.h.17.90c2574d4acdcfce933db5cb09ff35fe
                           .group:00000000 wm4.cdefs.h.49.6260d97adb8d27534cbdc0f868b8ea87
                           .group:00000000 wm4.string.h.15.dab3980bf35408a4c507182805e2de3a
                           .group:00000000 wm4.stddef.h.155.ba788add86a0e365f264484f110c3c29
                           .group:00000000 wm4.gd32f30x.h.39.a203e36f89dbb1753b66e1e665732b11
                           .group:00000000 wm4.core_cm4.h.47.434d5634a5df7142236685d6945e71d7
                           .group:00000000 wm4._intsup.h.10.cce27fed8484c08a33f522034c30d2b5
                           .group:00000000 wm4._stdint.h.10.c24fa3af3bc1706662bb5593a907e841
                           .group:00000000 wm4.stdint.h.23.d53047a68f4a85177f80b422d52785ed
                           .group:00000000 wm4.core_cmInstr.h.25.d8165482ef3061013a2fc83e2d85f3d9
                           .group:00000000 wm4.core_cm4_simd.h.43.bf657009d9c246d6ac6e7b120cdd899a
                           .group:00000000 wm4.core_cm4.h.196.6f0a9ac4bbc7fecc10f22e6a71f29e52
                           .group:00000000 wm4.system_gd32f30x.h.38.120525a84dcd3d76a4734e6bcde7b49c
                           .group:00000000 wm4.gd32f30x.h.294.5e6753de52124d3e3ab34f8aafd628cc
                           .group:00000000 wm4.gd32f30x_rcu.h.41.eb7011467c51e1274d4ea5dfbe3b7403
                           .group:00000000 wm4.gd32f30x_adc.h.36.124b47377c29d63ea85a6515ff99e7d0
                           .group:00000000 wm4.gd32f30x_can.h.36.85eb2b9bdffce148e9f2cf53e35a47f8
                           .group:00000000 wm4.gd32f30x_crc.h.36.3e50e7397bf79ecca0d280169ab2b7e1
                           .group:00000000 wm4.gd32f30x_ctc.h.36.42aeab0e42f8a7b6cc58608cdc08a712
                           .group:00000000 wm4.gd32f30x_dac.h.36.f867e713911fc6770d5f38223b88a122
                           .group:00000000 wm4.gd32f30x_dbg.h.36.4d3777753862ded915f1f9e71f4c290a
                           .group:00000000 wm4.gd32f30x_dma.h.36.00aa3536820feed4ebeab0c0060e7723
                           .group:00000000 wm4.gd32f30x_exti.h.36.64affc4e75ae7f53393e90b0bfc38f38
                           .group:00000000 wm4.gd32f30x_fmc.h.37.17b3f65aacec1755989aca30031b6a7c
                           .group:00000000 wm4.gd32f30x_fwdgt.h.36.1e7c1bfe259ede52150f5b1c58591a95
                           .group:00000000 wm4.gd32f30x_gpio.h.36.faffc48a681d1163918cf519d3cc7454
                           .group:00000000 wm4.gd32f30x_i2c.h.36.5765e4fd7e67145781f52c3602fdf526
                           .group:00000000 wm4.gd32f30x_pmu.h.37.9dd0def5d1159a6e20d49fadc0da3d91
                           .group:00000000 wm4.gd32f30x_bkp.h.36.74dcfa31c344ae6ddc6f3a850e1b1f1c
                           .group:00000000 wm4.gd32f30x_rtc.h.37.6e2dc4b1c1143d8443b19d8b8578e187
                           .group:00000000 wm4.gd32f30x_sdio.h.36.6dde0ac1ffebc8ac87750ca48ebf5355
                           .group:00000000 wm4.gd32f30x_spi.h.36.761dbcfdf151612384a2a7e1dfbd70a2
                           .group:00000000 wm4.gd32f30x_timer.h.36.aa3a076608594e31d0be360d6248cd0c
                           .group:00000000 wm4.gd32f30x_usart.h.36.c16033d6419d9317c5e1d5c9a4db894a
                           .group:00000000 wm4.gd32f30x_wwdgt.h.37.074fc90df4806e0bcba242ad61cb154f
                           .group:00000000 wm4.gd32f30x_misc.h.36.ca5ec56efc9d42fdcdbc33fa419c4320
                           .group:00000000 wm4.gd32f30x_enet.h.36.7f39b2eaaae239e349e809a8bdf838ed
                           .group:00000000 wm4.gd32f30x_exmc.h.36.6a5eb51a45aba96edb0f318836bccfc7
                           .group:00000000 wm4.os_lyh_config.h.10.bc2c4655df284899727d3a1ab69fe55d
                           .group:00000000 wm4.os_msg.h.10.a94e4ae0955bd46ca3a4d1a43d60b65d
                           .group:00000000 wm4.os_lyh_core.h.21.da159c9c8e09d857b8c2a987141693aa
                           .group:00000000 wm4.configboard.h.3.5d7999deb151db360ef411cbf30581d9
                           .group:00000000 wm4.keyboard.h.3.89e82c2c5604c80a5d29f84b207feee3
                           .group:00000000 wm4.acmotor.h.19.e31b7283161a116b359300c51c0efda0
                           .group:00000000 wm4.dcmotor.h.2.f0e751b97a118431bbabf05c3c943b2b
                           .group:00000000 wm4.display.h.19.4afe06d8dfd6c2f3df25f7cc51049b44
                           .group:00000000 wm4.timer.h.19.a82f4ede3cad5645e78e3c71f10c984d
                           .group:00000000 wm4.usart.h.19.b0b7cc356d4f06c8ed965d5c47dabfa0
                           .group:00000000 wm4.heat.h.3.e369736d2e46d50970c9988935448f3e
                           .group:00000000 wm4.adc.h.19.b7b71ccc5b83f495b1d7f2c83649d46d
                           .group:00000000 wm4.app.h.3.de3fb0485dba87ef3d46498891a74944
                           .group:00000000 wm4.bus.h.3.006a12bb937063aa955474032db251cd
                           .group:00000000 wm4.relay.h.2.68d8ff0db7f3799b00c17eb83273c2f3

UNDEFINED SYMBOLS
gpio_output_bit_get
gpio_bit_write
osal_lyh_over_timer
gd_timer_buz
osal_lyh_kill_over_timer
osal_lyh_restore_task
keyinfo
heat_id
eventMap
target_temp
heat_get_temp
Relay2_OFF
Relay2_ON
display_led
display_get_led
osal_lyh_delay_task
display_init
key_prohibit_setup
dc_motor_ClearFault
dc_motor_Start
dc_motor_GetState
dc_motor_Stop
ac_pumb_start
ac_pumb_stop
memset
ac_grind_start
ac_grind_stop
