   1              		.cpu cortex-m4
   2              		.eabi_attribute 20, 1
   3              		.eabi_attribute 21, 1
   4              		.eabi_attribute 23, 3
   5              		.eabi_attribute 24, 1
   6              		.eabi_attribute 25, 1
   7              		.eabi_attribute 26, 1
   8              		.eabi_attribute 30, 6
   9              		.eabi_attribute 34, 1
  10              		.eabi_attribute 18, 4
  11              		.file	"app.c"
  12              		.text
  13              	.Ltext0:
  14              		.cfi_sections	.debug_frame
  15              		.comm	app_id,1,1
  16              		.comm	app_task_step,1,1
  17              		.comm	app_task_substep,1,1
  18              		.comm	manual_setup,3,4
  19              		.comm	run_max_time,2,2
  20              		.comm	Buzzer_times,1,1
  21              		.comm	Leds_loop_run,1,1
  22              		.comm	cup_loop,1,1
  23              		.comm	turn_off_flag,1,1
  24              		.comm	flush_flag,1,1
  25              		.comm	CERRNT_STATE,1,1
  26              		.comm	drop_beans_time,2,2
  27              		.section	.text.app_virtual_croszero_cbfunc,"ax",%progbits
  28              		.align	1
  29              		.global	app_virtual_croszero_cbfunc
  30              		.arch armv7e-m
  31              		.syntax unified
  32              		.thumb
  33              		.thumb_func
  34              		.fpu softvfp
  36              	app_virtual_croszero_cbfunc:
  37              	.LFB116:
  38              		.file 1 "../app/app.c"
   1:../app/app.c  **** /******************** (C) COPYRIGHT 2017 ST *******************************
   2:../app/app.c  **** * COMPANY:	ST
   3:../app/app.c  **** * DATE:		2024/5
   4:../app/app.c  **** * AUTHOR:	
   5:../app/app.c  **** * IC:		STM32G0B1
   6:../app/app.c  **** *____________________________________________________________________________
   7:../app/app.c  **** * REVISION       V0001		
   8:../app/app.c  **** * SDK Version    SDK_Release_V2.03_0428              
   9:../app/app.c  **** * Date					 		
  10:../app/app.c  **** * Description
  11:../app/app.c  **** *____________________________________________________________________________*/
  12:../app/app.c  **** 
  13:../app/app.c  **** /*_____ I N C L U D E S ____________________________________________________*/
  14:../app/app.c  **** #define _APP_C_
  15:../app/app.c  **** #include <string.h>
  16:../app/app.c  **** #include "gd32f30x.h"
  17:../app/app.c  **** #include "user_apiopt.h"
  18:../app/app.c  **** 
  19:../app/app.c  **** /*_____ M A C R O S ______________________________________________________*/
  20:../app/app.c  **** #define _ON_		1u
  21:../app/app.c  **** #define _OFF_		0u
  22:../app/app.c  **** 
  23:../app/app.c  **** #define MOTOR_FIX_TIME		Ms_300	
  24:../app/app.c  **** 
  25:../app/app.c  **** /*_____ D E F I N I T I O N S ________________________________________________*/
  26:../app/app.c  ****  uint16_t run_max_time;
  27:../app/app.c  ****  uint8_t Buzzer_times;
  28:../app/app.c  ****  uint8_t Leds_loop_run;
  29:../app/app.c  **** 
  30:../app/app.c  **** /************ µ¢░Õó× ***********/
  31:../app/app.c  ****  uint8_t cup_loop;			//µØ»µĢ░ÕŠ¬ńÄ»µ¼ĪµĢ░	0’╝Üx1’╝ī1’╝Üx2
  32:../app/app.c  ****  uint8_t turn_off_flag;		//Õģ│µ£║µĀćÕ┐ŚõĮŹ
  33:../app/app.c  ****  uint8_t flush_flag;		//Õå▓µ┤ŚµĀćÕ┐ŚõĮŹ
  34:../app/app.c  **** enum _RUNNING_STATE CERRNT_STATE;	//ÕĮōÕēŹĶ┐ÉĶĪīńŖČµĆü
  35:../app/app.c  **** uint16_t drop_beans_time;		//ÕēŹÕŠĆõĖóÕÆ¢ÕĢĪµĖŻÕē®õĮÖµŚČķŚ┤
  36:../app/app.c  **** /*_____ F U N C T I O N S __________________________________________________*/
  37:../app/app.c  **** void app_virtual_croszero_cbfunc(void)
  38:../app/app.c  **** {
  39              		.loc 1 38 1
  40              		.cfi_startproc
  41              		@ args = 0, pretend = 0, frame = 0
  42              		@ frame_needed = 1, uses_anonymous_args = 0
  43 0000 80B5     		push	{r7, lr}
  44              		.cfi_def_cfa_offset 8
  45              		.cfi_offset 7, -8
  46              		.cfi_offset 14, -4
  47 0002 00AF     		add	r7, sp, #0
  48              		.cfi_def_cfa_register 7
  39:../app/app.c  **** 	ToggleTest4();
  49              		.loc 1 39 2
  50 0004 4FF40041 		mov	r1, #32768
  51 0008 0A48     		ldr	r0, .L2
  52 000a FFF7FEFF 		bl	gpio_output_bit_get
  53 000e 0346     		mov	r3, r0
  54 0010 C3F10103 		rsb	r3, r3, #1
  55 0014 DBB2     		uxtb	r3, r3
  56 0016 1A46     		mov	r2, r3
  57 0018 4FF40041 		mov	r1, #32768
  58 001c 0548     		ldr	r0, .L2
  59 001e FFF7FEFF 		bl	gpio_bit_write
  40:../app/app.c  **** 	osal_lyh_over_timer(OS_VIRAC_50HZ, Ms_10, app_virtual_croszero_cbfunc);
  60              		.loc 1 40 2
  61 0022 054A     		ldr	r2, .L2+4
  62 0024 0A21     		movs	r1, #10
  63 0026 4FF40040 		mov	r0, #32768
  64 002a FFF7FEFF 		bl	osal_lyh_over_timer
  41:../app/app.c  **** }
  65              		.loc 1 41 1
  66 002e 00BF     		nop
  67 0030 80BD     		pop	{r7, pc}
  68              	.L3:
  69 0032 00BF     		.align	2
  70              	.L2:
  71 0034 00080140 		.word	1073809408
  72 0038 00000000 		.word	app_virtual_croszero_cbfunc
  73              		.cfi_endproc
  74              	.LFE116:
  76              		.section	.text.app_buzon_cbfunc,"ax",%progbits
  77              		.align	1
  78              		.global	app_buzon_cbfunc
  79              		.syntax unified
  80              		.thumb
  81              		.thumb_func
  82              		.fpu softvfp
  84              	app_buzon_cbfunc:
  85              	.LFB117:
  42:../app/app.c  **** 
  43:../app/app.c  **** void app_buzon_cbfunc(void)
  44:../app/app.c  **** {
  86              		.loc 1 44 1
  87              		.cfi_startproc
  88              		@ args = 0, pretend = 0, frame = 0
  89              		@ frame_needed = 1, uses_anonymous_args = 0
  90 0000 80B5     		push	{r7, lr}
  91              		.cfi_def_cfa_offset 8
  92              		.cfi_offset 7, -8
  93              		.cfi_offset 14, -4
  94 0002 00AF     		add	r7, sp, #0
  95              		.cfi_def_cfa_register 7
  45:../app/app.c  **** 	if (--Buzzer_times) {
  96              		.loc 1 45 6
  97 0004 094B     		ldr	r3, .L7
  98 0006 1B78     		ldrb	r3, [r3]	@ zero_extendqisi2
  99 0008 013B     		subs	r3, r3, #1
 100 000a DAB2     		uxtb	r2, r3
 101              		.loc 1 45 5
 102 000c 074B     		ldr	r3, .L7
 103 000e 1A70     		strb	r2, [r3]
 104              		.loc 1 45 6
 105 0010 064B     		ldr	r3, .L7
 106 0012 1B78     		ldrb	r3, [r3]	@ zero_extendqisi2
 107              		.loc 1 45 5
 108 0014 002B     		cmp	r3, #0
 109 0016 07D0     		beq	.L6
  46:../app/app.c  **** 		gd_timer_buz(_ON_);
 110              		.loc 1 46 3
 111 0018 0120     		movs	r0, #1
 112 001a FFF7FEFF 		bl	gd_timer_buz
  47:../app/app.c  **** 		osal_lyh_over_timer(OS_TONE_TIME, Ms_80, app_buzoff_cbfunc);
 113              		.loc 1 47 3
 114 001e 044A     		ldr	r2, .L7+4
 115 0020 5021     		movs	r1, #80
 116 0022 0120     		movs	r0, #1
 117 0024 FFF7FEFF 		bl	osal_lyh_over_timer
 118              	.L6:
  48:../app/app.c  **** 	}
  49:../app/app.c  **** }
 119              		.loc 1 49 1
 120 0028 00BF     		nop
 121 002a 80BD     		pop	{r7, pc}
 122              	.L8:
 123              		.align	2
 124              	.L7:
 125 002c 00000000 		.word	Buzzer_times
 126 0030 00000000 		.word	app_buzoff_cbfunc
 127              		.cfi_endproc
 128              	.LFE117:
 130              		.section	.text.app_buzoff_cbfunc,"ax",%progbits
 131              		.align	1
 132              		.global	app_buzoff_cbfunc
 133              		.syntax unified
 134              		.thumb
 135              		.thumb_func
 136              		.fpu softvfp
 138              	app_buzoff_cbfunc:
 139              	.LFB118:
  50:../app/app.c  **** 
  51:../app/app.c  **** void app_buzoff_cbfunc(void)
  52:../app/app.c  **** {
 140              		.loc 1 52 1
 141              		.cfi_startproc
 142              		@ args = 0, pretend = 0, frame = 0
 143              		@ frame_needed = 1, uses_anonymous_args = 0
 144 0000 80B5     		push	{r7, lr}
 145              		.cfi_def_cfa_offset 8
 146              		.cfi_offset 7, -8
 147              		.cfi_offset 14, -4
 148 0002 00AF     		add	r7, sp, #0
 149              		.cfi_def_cfa_register 7
  53:../app/app.c  **** 	gd_timer_buz(_OFF_);
 150              		.loc 1 53 2
 151 0004 0020     		movs	r0, #0
 152 0006 FFF7FEFF 		bl	gd_timer_buz
  54:../app/app.c  **** 	osal_lyh_over_timer(OS_TONE_TIME, Ms_80, app_buzon_cbfunc);
 153              		.loc 1 54 2
 154 000a 034A     		ldr	r2, .L10
 155 000c 5021     		movs	r1, #80
 156 000e 0120     		movs	r0, #1
 157 0010 FFF7FEFF 		bl	osal_lyh_over_timer
  55:../app/app.c  **** }
 158              		.loc 1 55 1
 159 0014 00BF     		nop
 160 0016 80BD     		pop	{r7, pc}
 161              	.L11:
 162              		.align	2
 163              	.L10:
 164 0018 00000000 		.word	app_buzon_cbfunc
 165              		.cfi_endproc
 166              	.LFE118:
 168              		.section	.text.app_buzzer_on,"ax",%progbits
 169              		.align	1
 170              		.global	app_buzzer_on
 171              		.syntax unified
 172              		.thumb
 173              		.thumb_func
 174              		.fpu softvfp
 176              	app_buzzer_on:
 177              	.LFB119:
  56:../app/app.c  **** 
  57:../app/app.c  **** void app_buzzer_on(uint8_t time)
  58:../app/app.c  **** {
 178              		.loc 1 58 1
 179              		.cfi_startproc
 180              		@ args = 0, pretend = 0, frame = 8
 181              		@ frame_needed = 1, uses_anonymous_args = 0
 182 0000 80B5     		push	{r7, lr}
 183              		.cfi_def_cfa_offset 8
 184              		.cfi_offset 7, -8
 185              		.cfi_offset 14, -4
 186 0002 82B0     		sub	sp, sp, #8
 187              		.cfi_def_cfa_offset 16
 188 0004 00AF     		add	r7, sp, #0
 189              		.cfi_def_cfa_register 7
 190 0006 0346     		mov	r3, r0
 191 0008 FB71     		strb	r3, [r7, #7]
  59:../app/app.c  **** 	if (time) {
 192              		.loc 1 59 5
 193 000a FB79     		ldrb	r3, [r7, #7]	@ zero_extendqisi2
 194 000c 002B     		cmp	r3, #0
 195 000e 0BD0     		beq	.L13
  60:../app/app.c  **** 		Buzzer_times = time;
 196              		.loc 1 60 16
 197 0010 0A4A     		ldr	r2, .L16
 198 0012 FB79     		ldrb	r3, [r7, #7]
 199 0014 1370     		strb	r3, [r2]
  61:../app/app.c  **** 		gd_timer_buz(_ON_);
 200              		.loc 1 61 3
 201 0016 0120     		movs	r0, #1
 202 0018 FFF7FEFF 		bl	gd_timer_buz
  62:../app/app.c  **** 		osal_lyh_over_timer(OS_TONE_TIME, Ms_80, app_buzoff_cbfunc);
 203              		.loc 1 62 3
 204 001c 084A     		ldr	r2, .L16+4
 205 001e 5021     		movs	r1, #80
 206 0020 0120     		movs	r0, #1
 207 0022 FFF7FEFF 		bl	osal_lyh_over_timer
  63:../app/app.c  **** 	}
  64:../app/app.c  **** 	else {
  65:../app/app.c  **** 		gd_timer_buz(_OFF_);
  66:../app/app.c  **** 		osal_lyh_kill_over_timer(OS_TONE_TIME);
  67:../app/app.c  **** 	}
  68:../app/app.c  **** }
 208              		.loc 1 68 1
 209 0026 05E0     		b	.L15
 210              	.L13:
  65:../app/app.c  **** 		osal_lyh_kill_over_timer(OS_TONE_TIME);
 211              		.loc 1 65 3
 212 0028 0020     		movs	r0, #0
 213 002a FFF7FEFF 		bl	gd_timer_buz
  66:../app/app.c  **** 	}
 214              		.loc 1 66 3
 215 002e 0120     		movs	r0, #1
 216 0030 FFF7FEFF 		bl	osal_lyh_kill_over_timer
 217              	.L15:
 218              		.loc 1 68 1
 219 0034 00BF     		nop
 220 0036 0837     		adds	r7, r7, #8
 221              		.cfi_def_cfa_offset 8
 222 0038 BD46     		mov	sp, r7
 223              		.cfi_def_cfa_register 13
 224              		@ sp needed
 225 003a 80BD     		pop	{r7, pc}
 226              	.L17:
 227              		.align	2
 228              	.L16:
 229 003c 00000000 		.word	Buzzer_times
 230 0040 00000000 		.word	app_buzoff_cbfunc
 231              		.cfi_endproc
 232              	.LFE119:
 234              		.section	.text.app_resource_init,"ax",%progbits
 235              		.align	1
 236              		.global	app_resource_init
 237              		.syntax unified
 238              		.thumb
 239              		.thumb_func
 240              		.fpu softvfp
 242              	app_resource_init:
 243              	.LFB120:
  69:../app/app.c  **** 
  70:../app/app.c  **** void app_resource_init(uint8_t Step)
  71:../app/app.c  **** {
 244              		.loc 1 71 1
 245              		.cfi_startproc
 246              		@ args = 0, pretend = 0, frame = 8
 247              		@ frame_needed = 1, uses_anonymous_args = 0
 248              		@ link register save eliminated.
 249 0000 80B4     		push	{r7}
 250              		.cfi_def_cfa_offset 4
 251              		.cfi_offset 7, -4
 252 0002 83B0     		sub	sp, sp, #12
 253              		.cfi_def_cfa_offset 16
 254 0004 00AF     		add	r7, sp, #0
 255              		.cfi_def_cfa_register 7
 256 0006 0346     		mov	r3, r0
 257 0008 FB71     		strb	r3, [r7, #7]
  72:../app/app.c  **** 	switch(Step){
 258              		.loc 1 72 2
 259 000a FB79     		ldrb	r3, [r7, #7]	@ zero_extendqisi2
 260 000c 013B     		subs	r3, r3, #1
 261 000e 0A2B     		cmp	r3, #10
 262 0010 18D8     		bhi	.L32
 263 0012 01A2     		adr	r2, .L21
 264 0014 52F823F0 		ldr	pc, [r2, r3, lsl #2]
 265              		.p2align 2
 266              	.L21:
 267 0018 45000000 		.word	.L32+1
 268 001c 45000000 		.word	.L32+1
 269 0020 45000000 		.word	.L32+1
 270 0024 45000000 		.word	.L32+1
 271 0028 45000000 		.word	.L32+1
 272 002c 45000000 		.word	.L32+1
 273 0030 45000000 		.word	.L32+1
 274 0034 45000000 		.word	.L32+1
 275 0038 45000000 		.word	.L32+1
 276 003c 45000000 		.word	.L32+1
 277 0040 45000000 		.word	.L32+1
 278              		.p2align 1
 279              	.L32:
  73:../app/app.c  **** 	case APP_IDLE_STATE:
  74:../app/app.c  **** 		break;
  75:../app/app.c  **** 	case APP_STARTUP_STATE:
  76:../app/app.c  **** 	case APP_NORMAL_STATE:
  77:../app/app.c  **** 		break;
  78:../app/app.c  **** 	case APP_ESPRESSO_STATE:
  79:../app/app.c  **** 		break;
  80:../app/app.c  **** 	case APP_AMERICAN_STATE:
  81:../app/app.c  **** 		break;
  82:../app/app.c  **** 	case APP_HOTWATER_STATE:
  83:../app/app.c  **** 		break;
  84:../app/app.c  **** 	case APP_STEAM_STATE:
  85:../app/app.c  **** 		break;
  86:../app/app.c  **** 	case APP_AQUA_STATE:
  87:../app/app.c  **** 		break;
  88:../app/app.c  **** 	case APP_CALC_STATE:
  89:../app/app.c  **** 		break;
  90:../app/app.c  **** 	case APP_SETUP_STATE:
  91:../app/app.c  **** 		break;
  92:../app/app.c  **** 	case APP_RUNNING_ONOFF_STATE:
  93:../app/app.c  **** 		break;
  94:../app/app.c  **** 	default:
  95:../app/app.c  **** 		break;
 280              		.loc 1 95 3
 281 0044 00BF     		nop
  96:../app/app.c  **** 	}
  97:../app/app.c  **** }
 282              		.loc 1 97 1
 283 0046 00BF     		nop
 284 0048 0C37     		adds	r7, r7, #12
 285              		.cfi_def_cfa_offset 4
 286 004a BD46     		mov	sp, r7
 287              		.cfi_def_cfa_register 13
 288              		@ sp needed
 289 004c 80BC     		pop	{r7}
 290              		.cfi_restore 7
 291              		.cfi_def_cfa_offset 0
 292 004e 7047     		bx	lr
 293              		.cfi_endproc
 294              	.LFE120:
 296              		.section	.text.app_resource_free,"ax",%progbits
 297              		.align	1
 298              		.global	app_resource_free
 299              		.syntax unified
 300              		.thumb
 301              		.thumb_func
 302              		.fpu softvfp
 304              	app_resource_free:
 305              	.LFB121:
  98:../app/app.c  **** 
  99:../app/app.c  **** void app_resource_free(uint8_t Step)
 100:../app/app.c  **** {
 306              		.loc 1 100 1
 307              		.cfi_startproc
 308              		@ args = 0, pretend = 0, frame = 8
 309              		@ frame_needed = 1, uses_anonymous_args = 0
 310 0000 80B5     		push	{r7, lr}
 311              		.cfi_def_cfa_offset 8
 312              		.cfi_offset 7, -8
 313              		.cfi_offset 14, -4
 314 0002 82B0     		sub	sp, sp, #8
 315              		.cfi_def_cfa_offset 16
 316 0004 00AF     		add	r7, sp, #0
 317              		.cfi_def_cfa_register 7
 318 0006 0346     		mov	r3, r0
 319 0008 FB71     		strb	r3, [r7, #7]
 101:../app/app.c  **** 	switch(Step){
 320              		.loc 1 101 2
 321 000a FB79     		ldrb	r3, [r7, #7]	@ zero_extendqisi2
 322 000c 013B     		subs	r3, r3, #1
 323 000e 0A2B     		cmp	r3, #10
 324 0010 1CD8     		bhi	.L41
 325 0012 01A2     		adr	r2, .L36
 326 0014 52F823F0 		ldr	pc, [r2, r3, lsl #2]
 327              		.p2align 2
 328              	.L36:
 329 0018 4D000000 		.word	.L41+1
 330 001c 45000000 		.word	.L38+1
 331 0020 45000000 		.word	.L38+1
 332 0024 45000000 		.word	.L38+1
 333 0028 45000000 		.word	.L38+1
 334 002c 45000000 		.word	.L38+1
 335 0030 45000000 		.word	.L38+1
 336 0034 45000000 		.word	.L38+1
 337 0038 45000000 		.word	.L38+1
 338 003c 4D000000 		.word	.L41+1
 339 0040 4D000000 		.word	.L41+1
 340              		.p2align 1
 341              	.L38:
 102:../app/app.c  **** 	case APP_IDLE_STATE:
 103:../app/app.c  **** 		break;
 104:../app/app.c  **** 	case APP_STARTUP_STATE:
 105:../app/app.c  **** 	case APP_NORMAL_STATE:
 106:../app/app.c  **** 	case APP_ESPRESSO_STATE:
 107:../app/app.c  **** 	case APP_AMERICAN_STATE:
 108:../app/app.c  **** 	case APP_HOTWATER_STATE:
 109:../app/app.c  **** 	case APP_STEAM_STATE:
 110:../app/app.c  **** 	case APP_AQUA_STATE:
 111:../app/app.c  **** 	case APP_CALC_STATE:
 112:../app/app.c  **** 		osal_lyh_kill_over_timer(OS_LED_TIME);
 342              		.loc 1 112 3
 343 0044 0220     		movs	r0, #2
 344 0046 FFF7FEFF 		bl	osal_lyh_kill_over_timer
 113:../app/app.c  **** 		break;
 345              		.loc 1 113 3
 346 004a 00E0     		b	.L40
 347              	.L41:
 114:../app/app.c  **** 	case APP_SETUP_STATE:
 115:../app/app.c  **** 		break;
 116:../app/app.c  **** 	case APP_RUNNING_ONOFF_STATE:
 117:../app/app.c  **** 		break;
 118:../app/app.c  **** 	default:
 119:../app/app.c  **** 		break;
 348              		.loc 1 119 3
 349 004c 00BF     		nop
 350              	.L40:
 120:../app/app.c  **** 	}
 121:../app/app.c  **** }
 351              		.loc 1 121 1
 352 004e 00BF     		nop
 353 0050 0837     		adds	r7, r7, #8
 354              		.cfi_def_cfa_offset 8
 355 0052 BD46     		mov	sp, r7
 356              		.cfi_def_cfa_register 13
 357              		@ sp needed
 358 0054 80BD     		pop	{r7, pc}
 359              		.cfi_endproc
 360              	.LFE121:
 362 0056 00BF     		.section	.text.app_task_nextstep,"ax",%progbits
 363              		.align	1
 364              		.global	app_task_nextstep
 365              		.syntax unified
 366              		.thumb
 367              		.thumb_func
 368              		.fpu softvfp
 370              	app_task_nextstep:
 371              	.LFB122:
 122:../app/app.c  **** 
 123:../app/app.c  **** void app_task_nextstep(uint8_t Step, uint8_t suStep)
 124:../app/app.c  **** {
 372              		.loc 1 124 1
 373              		.cfi_startproc
 374              		@ args = 0, pretend = 0, frame = 8
 375              		@ frame_needed = 1, uses_anonymous_args = 0
 376 0000 80B5     		push	{r7, lr}
 377              		.cfi_def_cfa_offset 8
 378              		.cfi_offset 7, -8
 379              		.cfi_offset 14, -4
 380 0002 82B0     		sub	sp, sp, #8
 381              		.cfi_def_cfa_offset 16
 382 0004 00AF     		add	r7, sp, #0
 383              		.cfi_def_cfa_register 7
 384 0006 0346     		mov	r3, r0
 385 0008 0A46     		mov	r2, r1
 386 000a FB71     		strb	r3, [r7, #7]
 387 000c 1346     		mov	r3, r2
 388 000e BB71     		strb	r3, [r7, #6]
 125:../app/app.c  **** 	app_resource_free(app_task_step);
 389              		.loc 1 125 2
 390 0010 0B4B     		ldr	r3, .L43
 391 0012 1B78     		ldrb	r3, [r3]	@ zero_extendqisi2
 392 0014 1846     		mov	r0, r3
 393 0016 FFF7FEFF 		bl	app_resource_free
 126:../app/app.c  **** 	app_resource_init(Step);
 394              		.loc 1 126 2
 395 001a FB79     		ldrb	r3, [r7, #7]	@ zero_extendqisi2
 396 001c 1846     		mov	r0, r3
 397 001e FFF7FEFF 		bl	app_resource_init
 127:../app/app.c  **** 	osal_lyh_restore_task(app_id);
 398              		.loc 1 127 2
 399 0022 084B     		ldr	r3, .L43+4
 400 0024 1B78     		ldrb	r3, [r3]	@ zero_extendqisi2
 401 0026 1846     		mov	r0, r3
 402 0028 FFF7FEFF 		bl	osal_lyh_restore_task
 128:../app/app.c  **** 	app_task_substep = suStep;
 403              		.loc 1 128 19
 404 002c 064A     		ldr	r2, .L43+8
 405 002e BB79     		ldrb	r3, [r7, #6]
 406 0030 1370     		strb	r3, [r2]
 129:../app/app.c  **** 	app_task_step = Step;
 407              		.loc 1 129 16
 408 0032 034A     		ldr	r2, .L43
 409 0034 FB79     		ldrb	r3, [r7, #7]
 410 0036 1370     		strb	r3, [r2]
 130:../app/app.c  **** }
 411              		.loc 1 130 1
 412 0038 00BF     		nop
 413 003a 0837     		adds	r7, r7, #8
 414              		.cfi_def_cfa_offset 8
 415 003c BD46     		mov	sp, r7
 416              		.cfi_def_cfa_register 13
 417              		@ sp needed
 418 003e 80BD     		pop	{r7, pc}
 419              	.L44:
 420              		.align	2
 421              	.L43:
 422 0040 00000000 		.word	app_task_step
 423 0044 00000000 		.word	app_id
 424 0048 00000000 		.word	app_task_substep
 425              		.cfi_endproc
 426              	.LFE122:
 428              		.section	.text.app_task_nextsubstep,"ax",%progbits
 429              		.align	1
 430              		.global	app_task_nextsubstep
 431              		.syntax unified
 432              		.thumb
 433              		.thumb_func
 434              		.fpu softvfp
 436              	app_task_nextsubstep:
 437              	.LFB123:
 131:../app/app.c  **** 
 132:../app/app.c  **** void app_task_nextsubstep(uint8_t suStep)
 133:../app/app.c  **** {
 438              		.loc 1 133 1
 439              		.cfi_startproc
 440              		@ args = 0, pretend = 0, frame = 8
 441              		@ frame_needed = 1, uses_anonymous_args = 0
 442 0000 80B5     		push	{r7, lr}
 443              		.cfi_def_cfa_offset 8
 444              		.cfi_offset 7, -8
 445              		.cfi_offset 14, -4
 446 0002 82B0     		sub	sp, sp, #8
 447              		.cfi_def_cfa_offset 16
 448 0004 00AF     		add	r7, sp, #0
 449              		.cfi_def_cfa_register 7
 450 0006 0346     		mov	r3, r0
 451 0008 FB71     		strb	r3, [r7, #7]
 134:../app/app.c  **** 	osal_lyh_restore_task(app_id);
 452              		.loc 1 134 2
 453 000a 064B     		ldr	r3, .L46
 454 000c 1B78     		ldrb	r3, [r3]	@ zero_extendqisi2
 455 000e 1846     		mov	r0, r3
 456 0010 FFF7FEFF 		bl	osal_lyh_restore_task
 135:../app/app.c  **** 	app_task_substep = suStep;
 457              		.loc 1 135 19
 458 0014 044A     		ldr	r2, .L46+4
 459 0016 FB79     		ldrb	r3, [r7, #7]
 460 0018 1370     		strb	r3, [r2]
 136:../app/app.c  **** }
 461              		.loc 1 136 1
 462 001a 00BF     		nop
 463 001c 0837     		adds	r7, r7, #8
 464              		.cfi_def_cfa_offset 8
 465 001e BD46     		mov	sp, r7
 466              		.cfi_def_cfa_register 13
 467              		@ sp needed
 468 0020 80BD     		pop	{r7, pc}
 469              	.L47:
 470 0022 00BF     		.align	2
 471              	.L46:
 472 0024 00000000 		.word	app_id
 473 0028 00000000 		.word	app_task_substep
 474              		.cfi_endproc
 475              	.LFE123:
 477              		.section	.text.app_water_ready,"ax",%progbits
 478              		.align	1
 479              		.global	app_water_ready
 480              		.syntax unified
 481              		.thumb
 482              		.thumb_func
 483              		.fpu softvfp
 485              	app_water_ready:
 486              	.LFB124:
 137:../app/app.c  **** 
 138:../app/app.c  **** uint8_t app_water_ready(void)
 139:../app/app.c  **** {
 487              		.loc 1 139 1
 488              		.cfi_startproc
 489              		@ args = 0, pretend = 0, frame = 0
 490              		@ frame_needed = 1, uses_anonymous_args = 0
 491              		@ link register save eliminated.
 492 0000 80B4     		push	{r7}
 493              		.cfi_def_cfa_offset 4
 494              		.cfi_offset 7, -4
 495 0002 00AF     		add	r7, sp, #0
 496              		.cfi_def_cfa_register 7
 140:../app/app.c  **** 	return (keyinfo.ulUIOnboardSwitches & WATER_DET_MASK)? TRUE:FAIL;
 497              		.loc 1 140 17
 498 0004 054B     		ldr	r3, .L50
 499 0006 DB69     		ldr	r3, [r3, #28]
 500              		.loc 1 140 61
 501 0008 1B0C     		lsrs	r3, r3, #16
 502 000a DBB2     		uxtb	r3, r3
 503 000c 03F00103 		and	r3, r3, #1
 504 0010 DBB2     		uxtb	r3, r3
 141:../app/app.c  **** }
 505              		.loc 1 141 1
 506 0012 1846     		mov	r0, r3
 507 0014 BD46     		mov	sp, r7
 508              		.cfi_def_cfa_register 13
 509              		@ sp needed
 510 0016 80BC     		pop	{r7}
 511              		.cfi_restore 7
 512              		.cfi_def_cfa_offset 0
 513 0018 7047     		bx	lr
 514              	.L51:
 515 001a 00BF     		.align	2
 516              	.L50:
 517 001c 00000000 		.word	keyinfo
 518              		.cfi_endproc
 519              	.LFE124:
 521              		.section	.text.app_pallet_ready,"ax",%progbits
 522              		.align	1
 523              		.global	app_pallet_ready
 524              		.syntax unified
 525              		.thumb
 526              		.thumb_func
 527              		.fpu softvfp
 529              	app_pallet_ready:
 530              	.LFB125:
 142:../app/app.c  **** 
 143:../app/app.c  **** uint8_t app_pallet_ready(void)
 144:../app/app.c  **** {
 531              		.loc 1 144 1
 532              		.cfi_startproc
 533              		@ args = 0, pretend = 0, frame = 0
 534              		@ frame_needed = 1, uses_anonymous_args = 0
 535              		@ link register save eliminated.
 536 0000 80B4     		push	{r7}
 537              		.cfi_def_cfa_offset 4
 538              		.cfi_offset 7, -4
 539 0002 00AF     		add	r7, sp, #0
 540              		.cfi_def_cfa_register 7
 145:../app/app.c  **** 	return (keyinfo.ulUIOnboardSwitches & PALLET_DET_MASK)? TRUE:FAIL;
 541              		.loc 1 145 17
 542 0004 054B     		ldr	r3, .L54
 543 0006 DB69     		ldr	r3, [r3, #28]
 544              		.loc 1 145 62
 545 0008 DB0A     		lsrs	r3, r3, #11
 546 000a DBB2     		uxtb	r3, r3
 547 000c 03F00103 		and	r3, r3, #1
 548 0010 DBB2     		uxtb	r3, r3
 146:../app/app.c  **** }
 549              		.loc 1 146 1
 550 0012 1846     		mov	r0, r3
 551 0014 BD46     		mov	sp, r7
 552              		.cfi_def_cfa_register 13
 553              		@ sp needed
 554 0016 80BC     		pop	{r7}
 555              		.cfi_restore 7
 556              		.cfi_def_cfa_offset 0
 557 0018 7047     		bx	lr
 558              	.L55:
 559 001a 00BF     		.align	2
 560              	.L54:
 561 001c 00000000 		.word	keyinfo
 562              		.cfi_endproc
 563              	.LFE125:
 565              		.section	.text.app_meter_ready,"ax",%progbits
 566              		.align	1
 567              		.global	app_meter_ready
 568              		.syntax unified
 569              		.thumb
 570              		.thumb_func
 571              		.fpu softvfp
 573              	app_meter_ready:
 574              	.LFB126:
 147:../app/app.c  **** 
 148:../app/app.c  **** uint8_t app_meter_ready(void)
 149:../app/app.c  **** {
 575              		.loc 1 149 1
 576              		.cfi_startproc
 577              		@ args = 0, pretend = 0, frame = 0
 578              		@ frame_needed = 1, uses_anonymous_args = 0
 579              		@ link register save eliminated.
 580 0000 80B4     		push	{r7}
 581              		.cfi_def_cfa_offset 4
 582              		.cfi_offset 7, -4
 583 0002 00AF     		add	r7, sp, #0
 584              		.cfi_def_cfa_register 7
 150:../app/app.c  **** 	return (keyinfo.ulUIOnboardSwitches & METER_DET_MASK)? TRUE:FAIL;
 585              		.loc 1 150 17
 586 0004 054B     		ldr	r3, .L58
 587 0006 DB69     		ldr	r3, [r3, #28]
 588              		.loc 1 150 61
 589 0008 9B0B     		lsrs	r3, r3, #14
 590 000a DBB2     		uxtb	r3, r3
 591 000c 03F00103 		and	r3, r3, #1
 592 0010 DBB2     		uxtb	r3, r3
 151:../app/app.c  **** }
 593              		.loc 1 151 1
 594 0012 1846     		mov	r0, r3
 595 0014 BD46     		mov	sp, r7
 596              		.cfi_def_cfa_register 13
 597              		@ sp needed
 598 0016 80BC     		pop	{r7}
 599              		.cfi_restore 7
 600              		.cfi_def_cfa_offset 0
 601 0018 7047     		bx	lr
 602              	.L59:
 603 001a 00BF     		.align	2
 604              	.L58:
 605 001c 00000000 		.word	keyinfo
 606              		.cfi_endproc
 607              	.LFE126:
 609              		.section	.text.app_motor_ready,"ax",%progbits
 610              		.align	1
 611              		.global	app_motor_ready
 612              		.syntax unified
 613              		.thumb
 614              		.thumb_func
 615              		.fpu softvfp
 617              	app_motor_ready:
 618              	.LFB127:
 152:../app/app.c  **** 
 153:../app/app.c  **** uint8_t app_motor_ready(void)
 154:../app/app.c  **** {
 619              		.loc 1 154 1
 620              		.cfi_startproc
 621              		@ args = 0, pretend = 0, frame = 0
 622              		@ frame_needed = 1, uses_anonymous_args = 0
 623              		@ link register save eliminated.
 624 0000 80B4     		push	{r7}
 625              		.cfi_def_cfa_offset 4
 626              		.cfi_offset 7, -4
 627 0002 00AF     		add	r7, sp, #0
 628              		.cfi_def_cfa_register 7
 155:../app/app.c  **** 	return (!(keyinfo.ulUIOnboardSwitches & MOTOR_DET_MASK))? TRUE:FAIL;
 629              		.loc 1 155 19
 630 0004 064B     		ldr	r3, .L62
 631 0006 DB69     		ldr	r3, [r3, #28]
 632              		.loc 1 155 40
 633 0008 03F40043 		and	r3, r3, #32768
 634              		.loc 1 155 64
 635 000c 002B     		cmp	r3, #0
 636 000e 0CBF     		ite	eq
 637 0010 0123     		moveq	r3, #1
 638 0012 0023     		movne	r3, #0
 639 0014 DBB2     		uxtb	r3, r3
 156:../app/app.c  **** }
 640              		.loc 1 156 1
 641 0016 1846     		mov	r0, r3
 642 0018 BD46     		mov	sp, r7
 643              		.cfi_def_cfa_register 13
 644              		@ sp needed
 645 001a 80BC     		pop	{r7}
 646              		.cfi_restore 7
 647              		.cfi_def_cfa_offset 0
 648 001c 7047     		bx	lr
 649              	.L63:
 650 001e 00BF     		.align	2
 651              	.L62:
 652 0020 00000000 		.word	keyinfo
 653              		.cfi_endproc
 654              	.LFE127:
 656              		.section	.text.app_turn_heat_off,"ax",%progbits
 657              		.align	1
 658              		.global	app_turn_heat_off
 659              		.syntax unified
 660              		.thumb
 661              		.thumb_func
 662              		.fpu softvfp
 664              	app_turn_heat_off:
 665              	.LFB128:
 157:../app/app.c  **** 
 158:../app/app.c  **** void app_turn_heat_off(void)
 159:../app/app.c  **** {
 666              		.loc 1 159 1
 667              		.cfi_startproc
 668              		@ args = 0, pretend = 0, frame = 0
 669              		@ frame_needed = 1, uses_anonymous_args = 0
 670              		@ link register save eliminated.
 671 0000 80B4     		push	{r7}
 672              		.cfi_def_cfa_offset 4
 673              		.cfi_offset 7, -4
 674 0002 00AF     		add	r7, sp, #0
 675              		.cfi_def_cfa_register 7
 160:../app/app.c  **** 	osal_lyh_set_event(heat_id, HEAT_STOP_EVENT);
 676              		.loc 1 160 2
 677 0004 084B     		ldr	r3, .L65
 678 0006 1B78     		ldrb	r3, [r3]	@ zero_extendqisi2
 679 0008 1A46     		mov	r2, r3
 680 000a 084B     		ldr	r3, .L65+4
 681 000c 53F82230 		ldr	r3, [r3, r2, lsl #2]
 682 0010 054A     		ldr	r2, .L65
 683 0012 1278     		ldrb	r2, [r2]	@ zero_extendqisi2
 684 0014 1146     		mov	r1, r2
 685 0016 43F00203 		orr	r3, r3, #2
 686 001a 044A     		ldr	r2, .L65+4
 687 001c 42F82130 		str	r3, [r2, r1, lsl #2]
 161:../app/app.c  **** }
 688              		.loc 1 161 1
 689 0020 00BF     		nop
 690 0022 BD46     		mov	sp, r7
 691              		.cfi_def_cfa_register 13
 692              		@ sp needed
 693 0024 80BC     		pop	{r7}
 694              		.cfi_restore 7
 695              		.cfi_def_cfa_offset 0
 696 0026 7047     		bx	lr
 697              	.L66:
 698              		.align	2
 699              	.L65:
 700 0028 00000000 		.word	heat_id
 701 002c 00000000 		.word	eventMap
 702              		.cfi_endproc
 703              	.LFE128:
 705              		.section	.text.app_turn_heat_on,"ax",%progbits
 706              		.align	1
 707              		.global	app_turn_heat_on
 708              		.syntax unified
 709              		.thumb
 710              		.thumb_func
 711              		.fpu softvfp
 713              	app_turn_heat_on:
 714              	.LFB129:
 162:../app/app.c  **** 
 163:../app/app.c  **** void app_turn_heat_on(uint16_t target)
 164:../app/app.c  **** {
 715              		.loc 1 164 1
 716              		.cfi_startproc
 717              		@ args = 0, pretend = 0, frame = 8
 718              		@ frame_needed = 1, uses_anonymous_args = 0
 719              		@ link register save eliminated.
 720 0000 80B4     		push	{r7}
 721              		.cfi_def_cfa_offset 4
 722              		.cfi_offset 7, -4
 723 0002 83B0     		sub	sp, sp, #12
 724              		.cfi_def_cfa_offset 16
 725 0004 00AF     		add	r7, sp, #0
 726              		.cfi_def_cfa_register 7
 727 0006 0346     		mov	r3, r0
 728 0008 FB80     		strh	r3, [r7, #6]	@ movhi
 165:../app/app.c  **** 	osal_lyh_set_event(heat_id, HEAT_START_EVENT);
 729              		.loc 1 165 2
 730 000a 0B4B     		ldr	r3, .L68
 731 000c 1B78     		ldrb	r3, [r3]	@ zero_extendqisi2
 732 000e 1A46     		mov	r2, r3
 733 0010 0A4B     		ldr	r3, .L68+4
 734 0012 53F82230 		ldr	r3, [r3, r2, lsl #2]
 735 0016 084A     		ldr	r2, .L68
 736 0018 1278     		ldrb	r2, [r2]	@ zero_extendqisi2
 737 001a 1146     		mov	r1, r2
 738 001c 43F00103 		orr	r3, r3, #1
 739 0020 064A     		ldr	r2, .L68+4
 740 0022 42F82130 		str	r3, [r2, r1, lsl #2]
 166:../app/app.c  **** 	target_temp = target;
 741              		.loc 1 166 14
 742 0026 064A     		ldr	r2, .L68+8
 743 0028 FB88     		ldrh	r3, [r7, #6]	@ movhi
 744 002a 1380     		strh	r3, [r2]	@ movhi
 167:../app/app.c  **** }
 745              		.loc 1 167 1
 746 002c 00BF     		nop
 747 002e 0C37     		adds	r7, r7, #12
 748              		.cfi_def_cfa_offset 4
 749 0030 BD46     		mov	sp, r7
 750              		.cfi_def_cfa_register 13
 751              		@ sp needed
 752 0032 80BC     		pop	{r7}
 753              		.cfi_restore 7
 754              		.cfi_def_cfa_offset 0
 755 0034 7047     		bx	lr
 756              	.L69:
 757 0036 00BF     		.align	2
 758              	.L68:
 759 0038 00000000 		.word	heat_id
 760 003c 00000000 		.word	eventMap
 761 0040 00000000 		.word	target_temp
 762              		.cfi_endproc
 763              	.LFE129:
 765              		.section	.text.app_temperature_state,"ax",%progbits
 766              		.align	1
 767              		.global	app_temperature_state
 768              		.syntax unified
 769              		.thumb
 770              		.thumb_func
 771              		.fpu softvfp
 773              	app_temperature_state:
 774              	.LFB130:
 168:../app/app.c  **** 
 169:../app/app.c  **** uint8_t app_temperature_state(uint16_t target)
 170:../app/app.c  **** {
 775              		.loc 1 170 1
 776              		.cfi_startproc
 777              		@ args = 0, pretend = 0, frame = 8
 778              		@ frame_needed = 1, uses_anonymous_args = 0
 779 0000 80B5     		push	{r7, lr}
 780              		.cfi_def_cfa_offset 8
 781              		.cfi_offset 7, -8
 782              		.cfi_offset 14, -4
 783 0002 82B0     		sub	sp, sp, #8
 784              		.cfi_def_cfa_offset 16
 785 0004 00AF     		add	r7, sp, #0
 786              		.cfi_def_cfa_register 7
 787 0006 0346     		mov	r3, r0
 788 0008 FB80     		strh	r3, [r7, #6]	@ movhi
 171:../app/app.c  **** 	return heat_get_temp(target);
 789              		.loc 1 171 9
 790 000a FB88     		ldrh	r3, [r7, #6]
 791 000c 1846     		mov	r0, r3
 792 000e FFF7FEFF 		bl	heat_get_temp
 793 0012 0346     		mov	r3, r0
 172:../app/app.c  **** }
 794              		.loc 1 172 1
 795 0014 1846     		mov	r0, r3
 796 0016 0837     		adds	r7, r7, #8
 797              		.cfi_def_cfa_offset 8
 798 0018 BD46     		mov	sp, r7
 799              		.cfi_def_cfa_register 13
 800              		@ sp needed
 801 001a 80BD     		pop	{r7, pc}
 802              		.cfi_endproc
 803              	.LFE130:
 805              		.section	.text.app_relay_set,"ax",%progbits
 806              		.align	1
 807              		.global	app_relay_set
 808              		.syntax unified
 809              		.thumb
 810              		.thumb_func
 811              		.fpu softvfp
 813              	app_relay_set:
 814              	.LFB131:
 173:../app/app.c  **** 
 174:../app/app.c  **** void app_relay_set(uint8_t MODE)
 175:../app/app.c  **** {
 815              		.loc 1 175 1
 816              		.cfi_startproc
 817              		@ args = 0, pretend = 0, frame = 8
 818              		@ frame_needed = 1, uses_anonymous_args = 0
 819 0000 80B5     		push	{r7, lr}
 820              		.cfi_def_cfa_offset 8
 821              		.cfi_offset 7, -8
 822              		.cfi_offset 14, -4
 823 0002 82B0     		sub	sp, sp, #8
 824              		.cfi_def_cfa_offset 16
 825 0004 00AF     		add	r7, sp, #0
 826              		.cfi_def_cfa_register 7
 827 0006 0346     		mov	r3, r0
 828 0008 FB71     		strb	r3, [r7, #7]
 176:../app/app.c  **** 	if(MODE == COFFEE_MODE){
 829              		.loc 1 176 4
 830 000a FB79     		ldrb	r3, [r7, #7]	@ zero_extendqisi2
 831 000c 002B     		cmp	r3, #0
 832 000e 02D1     		bne	.L73
 177:../app/app.c  **** 		Relay2_OFF();
 833              		.loc 1 177 3
 834 0010 FFF7FEFF 		bl	Relay2_OFF
 178:../app/app.c  **** 	}
 179:../app/app.c  **** 	else if(MODE == WATER_MODE){
 180:../app/app.c  **** 		Relay2_ON();
 181:../app/app.c  **** 	}
 182:../app/app.c  **** }
 835              		.loc 1 182 1
 836 0014 04E0     		b	.L75
 837              	.L73:
 179:../app/app.c  **** 		Relay2_ON();
 838              		.loc 1 179 9
 839 0016 FB79     		ldrb	r3, [r7, #7]	@ zero_extendqisi2
 840 0018 012B     		cmp	r3, #1
 841 001a 01D1     		bne	.L75
 180:../app/app.c  **** 	}
 842              		.loc 1 180 3
 843 001c FFF7FEFF 		bl	Relay2_ON
 844              	.L75:
 845              		.loc 1 182 1
 846 0020 00BF     		nop
 847 0022 0837     		adds	r7, r7, #8
 848              		.cfi_def_cfa_offset 8
 849 0024 BD46     		mov	sp, r7
 850              		.cfi_def_cfa_register 13
 851              		@ sp needed
 852 0026 80BD     		pop	{r7, pc}
 853              		.cfi_endproc
 854              	.LFE131:
 856              		.section	.text.app_step_state,"ax",%progbits
 857              		.align	1
 858              		.global	app_step_state
 859              		.syntax unified
 860              		.thumb
 861              		.thumb_func
 862              		.fpu softvfp
 864              	app_step_state:
 865              	.LFB132:
 183:../app/app.c  **** 
 184:../app/app.c  **** uint8_t app_step_state(uint8_t step)
 185:../app/app.c  **** {
 866              		.loc 1 185 1
 867              		.cfi_startproc
 868              		@ args = 0, pretend = 0, frame = 8
 869              		@ frame_needed = 1, uses_anonymous_args = 0
 870              		@ link register save eliminated.
 871 0000 80B4     		push	{r7}
 872              		.cfi_def_cfa_offset 4
 873              		.cfi_offset 7, -4
 874 0002 83B0     		sub	sp, sp, #12
 875              		.cfi_def_cfa_offset 16
 876 0004 00AF     		add	r7, sp, #0
 877              		.cfi_def_cfa_register 7
 878 0006 0346     		mov	r3, r0
 879 0008 FB71     		strb	r3, [r7, #7]
 186:../app/app.c  **** 	return (app_task_step == step)? TRUE:FAIL;
 880              		.loc 1 186 38
 881 000a 064B     		ldr	r3, .L78
 882 000c 1B78     		ldrb	r3, [r3]	@ zero_extendqisi2
 883 000e FA79     		ldrb	r2, [r7, #7]	@ zero_extendqisi2
 884 0010 9A42     		cmp	r2, r3
 885 0012 0CBF     		ite	eq
 886 0014 0123     		moveq	r3, #1
 887 0016 0023     		movne	r3, #0
 888 0018 DBB2     		uxtb	r3, r3
 187:../app/app.c  **** }
 889              		.loc 1 187 1
 890 001a 1846     		mov	r0, r3
 891 001c 0C37     		adds	r7, r7, #12
 892              		.cfi_def_cfa_offset 4
 893 001e BD46     		mov	sp, r7
 894              		.cfi_def_cfa_register 13
 895              		@ sp needed
 896 0020 80BC     		pop	{r7}
 897              		.cfi_restore 7
 898              		.cfi_def_cfa_offset 0
 899 0022 7047     		bx	lr
 900              	.L79:
 901              		.align	2
 902              	.L78:
 903 0024 00000000 		.word	app_task_step
 904              		.cfi_endproc
 905              	.LFE132:
 907              		.section	.text.app_led_heat_cbfunc,"ax",%progbits
 908              		.align	1
 909              		.global	app_led_heat_cbfunc
 910              		.syntax unified
 911              		.thumb
 912              		.thumb_func
 913              		.fpu softvfp
 915              	app_led_heat_cbfunc:
 916              	.LFB133:
 188:../app/app.c  **** 
 189:../app/app.c  **** void app_led_heat_cbfunc(void)
 190:../app/app.c  **** {
 917              		.loc 1 190 1
 918              		.cfi_startproc
 919              		@ args = 0, pretend = 0, frame = 8
 920              		@ frame_needed = 1, uses_anonymous_args = 0
 921 0000 80B5     		push	{r7, lr}
 922              		.cfi_def_cfa_offset 8
 923              		.cfi_offset 7, -8
 924              		.cfi_offset 14, -4
 925 0002 82B0     		sub	sp, sp, #8
 926              		.cfi_def_cfa_offset 16
 927 0004 00AF     		add	r7, sp, #0
 928              		.cfi_def_cfa_register 7
 191:../app/app.c  **** 	uint8_t i, led_id[] = {ESPRESSO1_LED, AMERICANO1_LED, STEAM_LED, HOT_WATER};
 929              		.loc 1 191 13
 930 0006 1F4B     		ldr	r3, .L84
 931 0008 3B60     		str	r3, [r7]
 192:../app/app.c  **** 
 193:../app/app.c  **** 	for (i = 0; i<sizeof(led_id); i++){
 932              		.loc 1 193 9
 933 000a 0023     		movs	r3, #0
 934 000c FB71     		strb	r3, [r7, #7]
 935              		.loc 1 193 2
 936 000e 16E0     		b	.L81
 937              	.L82:
 194:../app/app.c  **** 		display_led(led_id[i], (Leds_loop_run & (1<<i))? LED_ON:LED_OFF);
 938              		.loc 1 194 3 discriminator 3
 939 0010 FB79     		ldrb	r3, [r7, #7]	@ zero_extendqisi2
 940 0012 07F10802 		add	r2, r7, #8
 941 0016 1344     		add	r3, r3, r2
 942 0018 13F8082C 		ldrb	r2, [r3, #-8]	@ zero_extendqisi2
 943              		.loc 1 194 50 discriminator 3
 944 001c 1A4B     		ldr	r3, .L84+4
 945 001e 1B78     		ldrb	r3, [r3]	@ zero_extendqisi2
 946 0020 1946     		mov	r1, r3
 947 0022 FB79     		ldrb	r3, [r7, #7]	@ zero_extendqisi2
 948 0024 41FA03F3 		asr	r3, r1, r3
 949              		.loc 1 194 58 discriminator 3
 950 0028 DBB2     		uxtb	r3, r3
 951              		.loc 1 194 3 discriminator 3
 952 002a 03F00103 		and	r3, r3, #1
 953 002e DBB2     		uxtb	r3, r3
 954 0030 1946     		mov	r1, r3
 955 0032 1046     		mov	r0, r2
 956 0034 FFF7FEFF 		bl	display_led
 193:../app/app.c  **** 		display_led(led_id[i], (Leds_loop_run & (1<<i))? LED_ON:LED_OFF);
 957              		.loc 1 193 33 discriminator 3
 958 0038 FB79     		ldrb	r3, [r7, #7]	@ zero_extendqisi2
 959 003a 0133     		adds	r3, r3, #1
 960 003c FB71     		strb	r3, [r7, #7]
 961              	.L81:
 193:../app/app.c  **** 		display_led(led_id[i], (Leds_loop_run & (1<<i))? LED_ON:LED_OFF);
 962              		.loc 1 193 2 discriminator 1
 963 003e FB79     		ldrb	r3, [r7, #7]	@ zero_extendqisi2
 964 0040 032B     		cmp	r3, #3
 965 0042 E5D9     		bls	.L82
 195:../app/app.c  **** 	}
 196:../app/app.c  **** 	Leds_loop_run <<= 1;
 966              		.loc 1 196 16
 967 0044 104B     		ldr	r3, .L84+4
 968 0046 1B78     		ldrb	r3, [r3]	@ zero_extendqisi2
 969 0048 5B00     		lsls	r3, r3, #1
 970 004a DAB2     		uxtb	r2, r3
 971 004c 0E4B     		ldr	r3, .L84+4
 972 004e 1A70     		strb	r2, [r3]
 197:../app/app.c  **** 	if (Leds_loop_run & (1<<i)) {
 973              		.loc 1 197 6
 974 0050 0D4B     		ldr	r3, .L84+4
 975 0052 1B78     		ldrb	r3, [r3]	@ zero_extendqisi2
 976 0054 1A46     		mov	r2, r3
 977 0056 FB79     		ldrb	r3, [r7, #7]	@ zero_extendqisi2
 978 0058 42FA03F3 		asr	r3, r2, r3
 979 005c 03F00103 		and	r3, r3, #1
 980              		.loc 1 197 5
 981 0060 002B     		cmp	r3, #0
 982 0062 05D0     		beq	.L83
 198:../app/app.c  **** 		Leds_loop_run++;
 983              		.loc 1 198 16
 984 0064 084B     		ldr	r3, .L84+4
 985 0066 1B78     		ldrb	r3, [r3]	@ zero_extendqisi2
 986 0068 0133     		adds	r3, r3, #1
 987 006a DAB2     		uxtb	r2, r3
 988 006c 064B     		ldr	r3, .L84+4
 989 006e 1A70     		strb	r2, [r3]
 990              	.L83:
 199:../app/app.c  **** 	}
 200:../app/app.c  **** 	osal_lyh_over_timer(OS_LED_TIME, Ms_500, app_led_heat_cbfunc);
 991              		.loc 1 200 2
 992 0070 064A     		ldr	r2, .L84+8
 993 0072 4FF4FA71 		mov	r1, #500
 994 0076 0220     		movs	r0, #2
 995 0078 FFF7FEFF 		bl	osal_lyh_over_timer
 201:../app/app.c  **** }
 996              		.loc 1 201 1
 997 007c 00BF     		nop
 998 007e 0837     		adds	r7, r7, #8
 999              		.cfi_def_cfa_offset 8
 1000 0080 BD46     		mov	sp, r7
 1001              		.cfi_def_cfa_register 13
 1002              		@ sp needed
 1003 0082 80BD     		pop	{r7, pc}
 1004              	.L85:
 1005              		.align	2
 1006              	.L84:
 1007 0084 0C0F1215 		.word	353505036
 1008 0088 00000000 		.word	Leds_loop_run
 1009 008c 00000000 		.word	app_led_heat_cbfunc
 1010              		.cfi_endproc
 1011              	.LFE133:
 1013              		.section	.text.app_led_show_init,"ax",%progbits
 1014              		.align	1
 1015              		.global	app_led_show_init
 1016              		.syntax unified
 1017              		.thumb
 1018              		.thumb_func
 1019              		.fpu softvfp
 1021              	app_led_show_init:
 1022              	.LFB134:
 202:../app/app.c  **** 
 203:../app/app.c  **** void app_led_show_init(void)
 204:../app/app.c  **** {
 1023              		.loc 1 204 1
 1024              		.cfi_startproc
 1025              		@ args = 0, pretend = 0, frame = 0
 1026              		@ frame_needed = 1, uses_anonymous_args = 0
 1027 0000 80B5     		push	{r7, lr}
 1028              		.cfi_def_cfa_offset 8
 1029              		.cfi_offset 7, -8
 1030              		.cfi_offset 14, -4
 1031 0002 00AF     		add	r7, sp, #0
 1032              		.cfi_def_cfa_register 7
 205:../app/app.c  **** 	Leds_loop_run = 0x03;
 1033              		.loc 1 205 16
 1034 0004 084B     		ldr	r3, .L87
 1035 0006 0322     		movs	r2, #3
 1036 0008 1A70     		strb	r2, [r3]
 206:../app/app.c  **** 	app_leds_all_fun(LED_OFF);
 1037              		.loc 1 206 2
 1038 000a 0020     		movs	r0, #0
 1039 000c FFF7FEFF 		bl	app_leds_all_fun
 207:../app/app.c  **** 	display_led(ESPRESSO1_LED, LED_ON);
 1040              		.loc 1 207 2
 1041 0010 0121     		movs	r1, #1
 1042 0012 0C20     		movs	r0, #12
 1043 0014 FFF7FEFF 		bl	display_led
 208:../app/app.c  **** 	osal_lyh_over_timer(OS_LED_TIME, Ms_500, app_led_heat_cbfunc);
 1044              		.loc 1 208 2
 1045 0018 044A     		ldr	r2, .L87+4
 1046 001a 4FF4FA71 		mov	r1, #500
 1047 001e 0220     		movs	r0, #2
 1048 0020 FFF7FEFF 		bl	osal_lyh_over_timer
 209:../app/app.c  **** }
 1049              		.loc 1 209 1
 1050 0024 00BF     		nop
 1051 0026 80BD     		pop	{r7, pc}
 1052              	.L88:
 1053              		.align	2
 1054              	.L87:
 1055 0028 00000000 		.word	Leds_loop_run
 1056 002c 00000000 		.word	app_led_heat_cbfunc
 1057              		.cfi_endproc
 1058              	.LFE134:
 1060              		.section	.text.app_led_start_cbfunc,"ax",%progbits
 1061              		.align	1
 1062              		.global	app_led_start_cbfunc
 1063              		.syntax unified
 1064              		.thumb
 1065              		.thumb_func
 1066              		.fpu softvfp
 1068              	app_led_start_cbfunc:
 1069              	.LFB135:
 210:../app/app.c  **** 
 211:../app/app.c  **** void app_led_start_cbfunc(void)
 212:../app/app.c  **** {
 1070              		.loc 1 212 1
 1071              		.cfi_startproc
 1072              		@ args = 0, pretend = 0, frame = 0
 1073              		@ frame_needed = 1, uses_anonymous_args = 0
 1074 0000 80B5     		push	{r7, lr}
 1075              		.cfi_def_cfa_offset 8
 1076              		.cfi_offset 7, -8
 1077              		.cfi_offset 14, -4
 1078 0002 00AF     		add	r7, sp, #0
 1079              		.cfi_def_cfa_register 7
 213:../app/app.c  **** 	display_led(START_LED, LED_TOGGLE);
 1080              		.loc 1 213 2
 1081 0004 0221     		movs	r1, #2
 1082 0006 0520     		movs	r0, #5
 1083 0008 FFF7FEFF 		bl	display_led
 214:../app/app.c  **** 	osal_lyh_over_timer(OS_LED_TIME, Ms_500, app_led_start_cbfunc);
 1084              		.loc 1 214 2
 1085 000c 034A     		ldr	r2, .L90
 1086 000e 4FF4FA71 		mov	r1, #500
 1087 0012 0220     		movs	r0, #2
 1088 0014 FFF7FEFF 		bl	osal_lyh_over_timer
 215:../app/app.c  **** }
 1089              		.loc 1 215 1
 1090 0018 00BF     		nop
 1091 001a 80BD     		pop	{r7, pc}
 1092              	.L91:
 1093              		.align	2
 1094              	.L90:
 1095 001c 00000000 		.word	app_led_start_cbfunc
 1096              		.cfi_endproc
 1097              	.LFE135:
 1099              		.section	.text.app_led_start_init,"ax",%progbits
 1100              		.align	1
 1101              		.global	app_led_start_init
 1102              		.syntax unified
 1103              		.thumb
 1104              		.thumb_func
 1105              		.fpu softvfp
 1107              	app_led_start_init:
 1108              	.LFB136:
 216:../app/app.c  **** 
 217:../app/app.c  **** void app_led_start_init(void)
 218:../app/app.c  **** {
 1109              		.loc 1 218 1
 1110              		.cfi_startproc
 1111              		@ args = 0, pretend = 0, frame = 0
 1112              		@ frame_needed = 1, uses_anonymous_args = 0
 1113 0000 80B5     		push	{r7, lr}
 1114              		.cfi_def_cfa_offset 8
 1115              		.cfi_offset 7, -8
 1116              		.cfi_offset 14, -4
 1117 0002 00AF     		add	r7, sp, #0
 1118              		.cfi_def_cfa_register 7
 219:../app/app.c  **** 	display_led(START_LED, LED_ON);
 1119              		.loc 1 219 2
 1120 0004 0121     		movs	r1, #1
 1121 0006 0520     		movs	r0, #5
 1122 0008 FFF7FEFF 		bl	display_led
 220:../app/app.c  **** 	osal_lyh_over_timer(OS_LED_TIME, Ms_500, app_led_start_cbfunc);
 1123              		.loc 1 220 2
 1124 000c 034A     		ldr	r2, .L93
 1125 000e 4FF4FA71 		mov	r1, #500
 1126 0012 0220     		movs	r0, #2
 1127 0014 FFF7FEFF 		bl	osal_lyh_over_timer
 221:../app/app.c  **** }
 1128              		.loc 1 221 1
 1129 0018 00BF     		nop
 1130 001a 80BD     		pop	{r7, pc}
 1131              	.L94:
 1132              		.align	2
 1133              	.L93:
 1134 001c 00000000 		.word	app_led_start_cbfunc
 1135              		.cfi_endproc
 1136              	.LFE136:
 1138              		.section	.text.app_led_espresso_cbfunc,"ax",%progbits
 1139              		.align	1
 1140              		.global	app_led_espresso_cbfunc
 1141              		.syntax unified
 1142              		.thumb
 1143              		.thumb_func
 1144              		.fpu softvfp
 1146              	app_led_espresso_cbfunc:
 1147              	.LFB137:
 222:../app/app.c  **** 
 223:../app/app.c  **** void app_led_espresso_cbfunc(void)
 224:../app/app.c  **** {
 1148              		.loc 1 224 1
 1149              		.cfi_startproc
 1150              		@ args = 0, pretend = 0, frame = 0
 1151              		@ frame_needed = 1, uses_anonymous_args = 0
 1152 0000 80B5     		push	{r7, lr}
 1153              		.cfi_def_cfa_offset 8
 1154              		.cfi_offset 7, -8
 1155              		.cfi_offset 14, -4
 1156 0002 00AF     		add	r7, sp, #0
 1157              		.cfi_def_cfa_register 7
 225:../app/app.c  **** 	//µĀ╣µŹ«µØ»µĢ░µśŠńż║Õ»╣Õ║öńÜäµīćńż║ńü»
 226:../app/app.c  **** 	if(0 == manual_setup.cup){
 1158              		.loc 1 226 22
 1159 0004 0C4B     		ldr	r3, .L98
 1160 0006 1B78     		ldrb	r3, [r3]	@ zero_extendqisi2
 1161              		.loc 1 226 4
 1162 0008 002B     		cmp	r3, #0
 1163 000a 04D1     		bne	.L96
 227:../app/app.c  **** 		display_led(ESPRESSO1_LED, LED_TOGGLE);
 1164              		.loc 1 227 3
 1165 000c 0221     		movs	r1, #2
 1166 000e 0C20     		movs	r0, #12
 1167 0010 FFF7FEFF 		bl	display_led
 1168 0014 07E0     		b	.L97
 1169              	.L96:
 228:../app/app.c  **** 	}
 229:../app/app.c  **** 	else if(1 == manual_setup.cup){
 1170              		.loc 1 229 27
 1171 0016 084B     		ldr	r3, .L98
 1172 0018 1B78     		ldrb	r3, [r3]	@ zero_extendqisi2
 1173              		.loc 1 229 9
 1174 001a 012B     		cmp	r3, #1
 1175 001c 03D1     		bne	.L97
 230:../app/app.c  **** 		display_led(ESPRESSO2_LED, LED_TOGGLE);
 1176              		.loc 1 230 3
 1177 001e 0221     		movs	r1, #2
 1178 0020 0920     		movs	r0, #9
 1179 0022 FFF7FEFF 		bl	display_led
 1180              	.L97:
 231:../app/app.c  **** 	}
 232:../app/app.c  **** 	osal_lyh_over_timer(OS_LED_TIME, Ms_500, app_led_espresso_cbfunc);
 1181              		.loc 1 232 2
 1182 0026 054A     		ldr	r2, .L98+4
 1183 0028 4FF4FA71 		mov	r1, #500
 1184 002c 0220     		movs	r0, #2
 1185 002e FFF7FEFF 		bl	osal_lyh_over_timer
 233:../app/app.c  **** }
 1186              		.loc 1 233 1
 1187 0032 00BF     		nop
 1188 0034 80BD     		pop	{r7, pc}
 1189              	.L99:
 1190 0036 00BF     		.align	2
 1191              	.L98:
 1192 0038 00000000 		.word	manual_setup
 1193 003c 00000000 		.word	app_led_espresso_cbfunc
 1194              		.cfi_endproc
 1195              	.LFE137:
 1197              		.section	.text.app_led_espresso_init,"ax",%progbits
 1198              		.align	1
 1199              		.global	app_led_espresso_init
 1200              		.syntax unified
 1201              		.thumb
 1202              		.thumb_func
 1203              		.fpu softvfp
 1205              	app_led_espresso_init:
 1206              	.LFB138:
 234:../app/app.c  **** 
 235:../app/app.c  **** void app_led_espresso_init(void)
 236:../app/app.c  **** {
 1207              		.loc 1 236 1
 1208              		.cfi_startproc
 1209              		@ args = 0, pretend = 0, frame = 0
 1210              		@ frame_needed = 1, uses_anonymous_args = 0
 1211 0000 80B5     		push	{r7, lr}
 1212              		.cfi_def_cfa_offset 8
 1213              		.cfi_offset 7, -8
 1214              		.cfi_offset 14, -4
 1215 0002 00AF     		add	r7, sp, #0
 1216              		.cfi_def_cfa_register 7
 237:../app/app.c  **** 	//µĀ╣µŹ«µØ»µĢ░µśŠńż║Õ»╣Õ║öńÜäµīćńż║ńü»
 238:../app/app.c  **** 	if(0 == manual_setup.cup){
 1217              		.loc 1 238 22
 1218 0004 0C4B     		ldr	r3, .L103
 1219 0006 1B78     		ldrb	r3, [r3]	@ zero_extendqisi2
 1220              		.loc 1 238 4
 1221 0008 002B     		cmp	r3, #0
 1222 000a 04D1     		bne	.L101
 239:../app/app.c  **** 		display_led(ESPRESSO1_LED, LED_ON);
 1223              		.loc 1 239 3
 1224 000c 0121     		movs	r1, #1
 1225 000e 0C20     		movs	r0, #12
 1226 0010 FFF7FEFF 		bl	display_led
 1227 0014 07E0     		b	.L102
 1228              	.L101:
 240:../app/app.c  **** 	}
 241:../app/app.c  **** 	else if(1 == manual_setup.cup){
 1229              		.loc 1 241 27
 1230 0016 084B     		ldr	r3, .L103
 1231 0018 1B78     		ldrb	r3, [r3]	@ zero_extendqisi2
 1232              		.loc 1 241 9
 1233 001a 012B     		cmp	r3, #1
 1234 001c 03D1     		bne	.L102
 242:../app/app.c  **** 		display_led(ESPRESSO2_LED, LED_ON);
 1235              		.loc 1 242 3
 1236 001e 0121     		movs	r1, #1
 1237 0020 0920     		movs	r0, #9
 1238 0022 FFF7FEFF 		bl	display_led
 1239              	.L102:
 243:../app/app.c  **** 	}
 244:../app/app.c  **** 	osal_lyh_over_timer(OS_LED_TIME, Ms_500, app_led_espresso_cbfunc);
 1240              		.loc 1 244 2
 1241 0026 054A     		ldr	r2, .L103+4
 1242 0028 4FF4FA71 		mov	r1, #500
 1243 002c 0220     		movs	r0, #2
 1244 002e FFF7FEFF 		bl	osal_lyh_over_timer
 245:../app/app.c  **** }
 1245              		.loc 1 245 1
 1246 0032 00BF     		nop
 1247 0034 80BD     		pop	{r7, pc}
 1248              	.L104:
 1249 0036 00BF     		.align	2
 1250              	.L103:
 1251 0038 00000000 		.word	manual_setup
 1252 003c 00000000 		.word	app_led_espresso_cbfunc
 1253              		.cfi_endproc
 1254              	.LFE138:
 1256              		.section	.text.app_led_americano_cbfunc,"ax",%progbits
 1257              		.align	1
 1258              		.global	app_led_americano_cbfunc
 1259              		.syntax unified
 1260              		.thumb
 1261              		.thumb_func
 1262              		.fpu softvfp
 1264              	app_led_americano_cbfunc:
 1265              	.LFB139:
 246:../app/app.c  **** 
 247:../app/app.c  **** void app_led_americano_cbfunc(void)
 248:../app/app.c  **** {
 1266              		.loc 1 248 1
 1267              		.cfi_startproc
 1268              		@ args = 0, pretend = 0, frame = 0
 1269              		@ frame_needed = 1, uses_anonymous_args = 0
 1270 0000 80B5     		push	{r7, lr}
 1271              		.cfi_def_cfa_offset 8
 1272              		.cfi_offset 7, -8
 1273              		.cfi_offset 14, -4
 1274 0002 00AF     		add	r7, sp, #0
 1275              		.cfi_def_cfa_register 7
 249:../app/app.c  **** 	//µĀ╣µŹ«µØ»µĢ░µśŠńż║Õ»╣Õ║öńÜäµīćńż║ńü»
 250:../app/app.c  **** 	if(0 == manual_setup.cup){
 1276              		.loc 1 250 22
 1277 0004 0C4B     		ldr	r3, .L108
 1278 0006 1B78     		ldrb	r3, [r3]	@ zero_extendqisi2
 1279              		.loc 1 250 4
 1280 0008 002B     		cmp	r3, #0
 1281 000a 04D1     		bne	.L106
 251:../app/app.c  **** 		display_led(AMERICANO1_LED, LED_TOGGLE);
 1282              		.loc 1 251 3
 1283 000c 0221     		movs	r1, #2
 1284 000e 0F20     		movs	r0, #15
 1285 0010 FFF7FEFF 		bl	display_led
 1286 0014 07E0     		b	.L107
 1287              	.L106:
 252:../app/app.c  **** 	}
 253:../app/app.c  **** 	else if(1 == manual_setup.cup){
 1288              		.loc 1 253 27
 1289 0016 084B     		ldr	r3, .L108
 1290 0018 1B78     		ldrb	r3, [r3]	@ zero_extendqisi2
 1291              		.loc 1 253 9
 1292 001a 012B     		cmp	r3, #1
 1293 001c 03D1     		bne	.L107
 254:../app/app.c  **** 		display_led(AMERICANO2_LED, LED_TOGGLE);
 1294              		.loc 1 254 3
 1295 001e 0221     		movs	r1, #2
 1296 0020 0620     		movs	r0, #6
 1297 0022 FFF7FEFF 		bl	display_led
 1298              	.L107:
 255:../app/app.c  **** 	}
 256:../app/app.c  **** 	osal_lyh_over_timer(OS_LED_TIME, Ms_500, app_led_americano_cbfunc);
 1299              		.loc 1 256 2
 1300 0026 054A     		ldr	r2, .L108+4
 1301 0028 4FF4FA71 		mov	r1, #500
 1302 002c 0220     		movs	r0, #2
 1303 002e FFF7FEFF 		bl	osal_lyh_over_timer
 257:../app/app.c  **** }
 1304              		.loc 1 257 1
 1305 0032 00BF     		nop
 1306 0034 80BD     		pop	{r7, pc}
 1307              	.L109:
 1308 0036 00BF     		.align	2
 1309              	.L108:
 1310 0038 00000000 		.word	manual_setup
 1311 003c 00000000 		.word	app_led_americano_cbfunc
 1312              		.cfi_endproc
 1313              	.LFE139:
 1315              		.section	.text.app_led_americano_init,"ax",%progbits
 1316              		.align	1
 1317              		.global	app_led_americano_init
 1318              		.syntax unified
 1319              		.thumb
 1320              		.thumb_func
 1321              		.fpu softvfp
 1323              	app_led_americano_init:
 1324              	.LFB140:
 258:../app/app.c  **** 
 259:../app/app.c  **** void app_led_americano_init(void)
 260:../app/app.c  **** {
 1325              		.loc 1 260 1
 1326              		.cfi_startproc
 1327              		@ args = 0, pretend = 0, frame = 0
 1328              		@ frame_needed = 1, uses_anonymous_args = 0
 1329 0000 80B5     		push	{r7, lr}
 1330              		.cfi_def_cfa_offset 8
 1331              		.cfi_offset 7, -8
 1332              		.cfi_offset 14, -4
 1333 0002 00AF     		add	r7, sp, #0
 1334              		.cfi_def_cfa_register 7
 261:../app/app.c  **** 	//µĀ╣µŹ«µØ»µĢ░µśŠńż║Õ»╣Õ║öńÜäµīćńż║ńü»
 262:../app/app.c  **** 	if(0 == manual_setup.cup){
 1335              		.loc 1 262 22
 1336 0004 0C4B     		ldr	r3, .L113
 1337 0006 1B78     		ldrb	r3, [r3]	@ zero_extendqisi2
 1338              		.loc 1 262 4
 1339 0008 002B     		cmp	r3, #0
 1340 000a 04D1     		bne	.L111
 263:../app/app.c  **** 		display_led(AMERICANO1_LED, LED_TOGGLE);
 1341              		.loc 1 263 3
 1342 000c 0221     		movs	r1, #2
 1343 000e 0F20     		movs	r0, #15
 1344 0010 FFF7FEFF 		bl	display_led
 1345 0014 07E0     		b	.L112
 1346              	.L111:
 264:../app/app.c  **** 	}
 265:../app/app.c  **** 	else if(1 == manual_setup.cup){
 1347              		.loc 1 265 27
 1348 0016 084B     		ldr	r3, .L113
 1349 0018 1B78     		ldrb	r3, [r3]	@ zero_extendqisi2
 1350              		.loc 1 265 9
 1351 001a 012B     		cmp	r3, #1
 1352 001c 03D1     		bne	.L112
 266:../app/app.c  **** 		display_led(AMERICANO2_LED, LED_TOGGLE);
 1353              		.loc 1 266 3
 1354 001e 0221     		movs	r1, #2
 1355 0020 0620     		movs	r0, #6
 1356 0022 FFF7FEFF 		bl	display_led
 1357              	.L112:
 267:../app/app.c  **** 	}
 268:../app/app.c  **** 	osal_lyh_over_timer(OS_LED_TIME, Ms_500, app_led_americano_cbfunc);
 1358              		.loc 1 268 2
 1359 0026 054A     		ldr	r2, .L113+4
 1360 0028 4FF4FA71 		mov	r1, #500
 1361 002c 0220     		movs	r0, #2
 1362 002e FFF7FEFF 		bl	osal_lyh_over_timer
 269:../app/app.c  **** }
 1363              		.loc 1 269 1
 1364 0032 00BF     		nop
 1365 0034 80BD     		pop	{r7, pc}
 1366              	.L114:
 1367 0036 00BF     		.align	2
 1368              	.L113:
 1369 0038 00000000 		.word	manual_setup
 1370 003c 00000000 		.word	app_led_americano_cbfunc
 1371              		.cfi_endproc
 1372              	.LFE140:
 1374              		.section	.text.app_led_hotwater_cbfunc,"ax",%progbits
 1375              		.align	1
 1376              		.global	app_led_hotwater_cbfunc
 1377              		.syntax unified
 1378              		.thumb
 1379              		.thumb_func
 1380              		.fpu softvfp
 1382              	app_led_hotwater_cbfunc:
 1383              	.LFB141:
 270:../app/app.c  **** 
 271:../app/app.c  **** void app_led_hotwater_cbfunc(void)
 272:../app/app.c  **** {
 1384              		.loc 1 272 1
 1385              		.cfi_startproc
 1386              		@ args = 0, pretend = 0, frame = 0
 1387              		@ frame_needed = 1, uses_anonymous_args = 0
 1388 0000 80B5     		push	{r7, lr}
 1389              		.cfi_def_cfa_offset 8
 1390              		.cfi_offset 7, -8
 1391              		.cfi_offset 14, -4
 1392 0002 00AF     		add	r7, sp, #0
 1393              		.cfi_def_cfa_register 7
 273:../app/app.c  **** 	display_led(HOT_WATER, LED_TOGGLE);
 1394              		.loc 1 273 2
 1395 0004 0221     		movs	r1, #2
 1396 0006 1520     		movs	r0, #21
 1397 0008 FFF7FEFF 		bl	display_led
 274:../app/app.c  **** 	osal_lyh_over_timer(OS_LED_TIME, Ms_500, app_led_hotwater_cbfunc);
 1398              		.loc 1 274 2
 1399 000c 034A     		ldr	r2, .L116
 1400 000e 4FF4FA71 		mov	r1, #500
 1401 0012 0220     		movs	r0, #2
 1402 0014 FFF7FEFF 		bl	osal_lyh_over_timer
 275:../app/app.c  **** }
 1403              		.loc 1 275 1
 1404 0018 00BF     		nop
 1405 001a 80BD     		pop	{r7, pc}
 1406              	.L117:
 1407              		.align	2
 1408              	.L116:
 1409 001c 00000000 		.word	app_led_hotwater_cbfunc
 1410              		.cfi_endproc
 1411              	.LFE141:
 1413              		.section	.text.app_led_hotwater_init,"ax",%progbits
 1414              		.align	1
 1415              		.global	app_led_hotwater_init
 1416              		.syntax unified
 1417              		.thumb
 1418              		.thumb_func
 1419              		.fpu softvfp
 1421              	app_led_hotwater_init:
 1422              	.LFB142:
 276:../app/app.c  **** 
 277:../app/app.c  **** void app_led_hotwater_init(void)
 278:../app/app.c  **** {
 1423              		.loc 1 278 1
 1424              		.cfi_startproc
 1425              		@ args = 0, pretend = 0, frame = 0
 1426              		@ frame_needed = 1, uses_anonymous_args = 0
 1427 0000 80B5     		push	{r7, lr}
 1428              		.cfi_def_cfa_offset 8
 1429              		.cfi_offset 7, -8
 1430              		.cfi_offset 14, -4
 1431 0002 00AF     		add	r7, sp, #0
 1432              		.cfi_def_cfa_register 7
 279:../app/app.c  **** 	display_led(HOT_WATER, LED_ON);
 1433              		.loc 1 279 2
 1434 0004 0121     		movs	r1, #1
 1435 0006 1520     		movs	r0, #21
 1436 0008 FFF7FEFF 		bl	display_led
 280:../app/app.c  **** 	osal_lyh_over_timer(OS_LED_TIME, Ms_500, app_led_hotwater_cbfunc);
 1437              		.loc 1 280 2
 1438 000c 034A     		ldr	r2, .L119
 1439 000e 4FF4FA71 		mov	r1, #500
 1440 0012 0220     		movs	r0, #2
 1441 0014 FFF7FEFF 		bl	osal_lyh_over_timer
 281:../app/app.c  **** }
 1442              		.loc 1 281 1
 1443 0018 00BF     		nop
 1444 001a 80BD     		pop	{r7, pc}
 1445              	.L120:
 1446              		.align	2
 1447              	.L119:
 1448 001c 00000000 		.word	app_led_hotwater_cbfunc
 1449              		.cfi_endproc
 1450              	.LFE142:
 1452              		.section	.text.app_led_steam_cbfunc,"ax",%progbits
 1453              		.align	1
 1454              		.global	app_led_steam_cbfunc
 1455              		.syntax unified
 1456              		.thumb
 1457              		.thumb_func
 1458              		.fpu softvfp
 1460              	app_led_steam_cbfunc:
 1461              	.LFB143:
 282:../app/app.c  **** 
 283:../app/app.c  **** void app_led_steam_cbfunc(void)
 284:../app/app.c  **** {
 1462              		.loc 1 284 1
 1463              		.cfi_startproc
 1464              		@ args = 0, pretend = 0, frame = 0
 1465              		@ frame_needed = 1, uses_anonymous_args = 0
 1466 0000 80B5     		push	{r7, lr}
 1467              		.cfi_def_cfa_offset 8
 1468              		.cfi_offset 7, -8
 1469              		.cfi_offset 14, -4
 1470 0002 00AF     		add	r7, sp, #0
 1471              		.cfi_def_cfa_register 7
 285:../app/app.c  **** 	display_led(STEAM_LED, LED_TOGGLE);
 1472              		.loc 1 285 2
 1473 0004 0221     		movs	r1, #2
 1474 0006 1220     		movs	r0, #18
 1475 0008 FFF7FEFF 		bl	display_led
 286:../app/app.c  **** 	osal_lyh_over_timer(OS_LED_TIME, Ms_500, app_led_steam_cbfunc);
 1476              		.loc 1 286 2
 1477 000c 034A     		ldr	r2, .L122
 1478 000e 4FF4FA71 		mov	r1, #500
 1479 0012 0220     		movs	r0, #2
 1480 0014 FFF7FEFF 		bl	osal_lyh_over_timer
 287:../app/app.c  **** }
 1481              		.loc 1 287 1
 1482 0018 00BF     		nop
 1483 001a 80BD     		pop	{r7, pc}
 1484              	.L123:
 1485              		.align	2
 1486              	.L122:
 1487 001c 00000000 		.word	app_led_steam_cbfunc
 1488              		.cfi_endproc
 1489              	.LFE143:
 1491              		.section	.text.app_led_steam_init,"ax",%progbits
 1492              		.align	1
 1493              		.global	app_led_steam_init
 1494              		.syntax unified
 1495              		.thumb
 1496              		.thumb_func
 1497              		.fpu softvfp
 1499              	app_led_steam_init:
 1500              	.LFB144:
 288:../app/app.c  **** 
 289:../app/app.c  **** void app_led_steam_init(void)
 290:../app/app.c  **** {
 1501              		.loc 1 290 1
 1502              		.cfi_startproc
 1503              		@ args = 0, pretend = 0, frame = 0
 1504              		@ frame_needed = 1, uses_anonymous_args = 0
 1505 0000 80B5     		push	{r7, lr}
 1506              		.cfi_def_cfa_offset 8
 1507              		.cfi_offset 7, -8
 1508              		.cfi_offset 14, -4
 1509 0002 00AF     		add	r7, sp, #0
 1510              		.cfi_def_cfa_register 7
 291:../app/app.c  **** 	display_led(STEAM_LED, LED_ON);
 1511              		.loc 1 291 2
 1512 0004 0121     		movs	r1, #1
 1513 0006 1220     		movs	r0, #18
 1514 0008 FFF7FEFF 		bl	display_led
 292:../app/app.c  **** 	osal_lyh_over_timer(OS_LED_TIME, Ms_500, app_led_steam_cbfunc);
 1515              		.loc 1 292 2
 1516 000c 034A     		ldr	r2, .L125
 1517 000e 4FF4FA71 		mov	r1, #500
 1518 0012 0220     		movs	r0, #2
 1519 0014 FFF7FEFF 		bl	osal_lyh_over_timer
 293:../app/app.c  **** }
 1520              		.loc 1 293 1
 1521 0018 00BF     		nop
 1522 001a 80BD     		pop	{r7, pc}
 1523              	.L126:
 1524              		.align	2
 1525              	.L125:
 1526 001c 00000000 		.word	app_led_steam_cbfunc
 1527              		.cfi_endproc
 1528              	.LFE144:
 1530              		.section	.text.app_led_aqua_cbfunc,"ax",%progbits
 1531              		.align	1
 1532              		.global	app_led_aqua_cbfunc
 1533              		.syntax unified
 1534              		.thumb
 1535              		.thumb_func
 1536              		.fpu softvfp
 1538              	app_led_aqua_cbfunc:
 1539              	.LFB145:
 294:../app/app.c  **** 
 295:../app/app.c  **** void app_led_aqua_cbfunc(void)
 296:../app/app.c  **** {
 1540              		.loc 1 296 1
 1541              		.cfi_startproc
 1542              		@ args = 0, pretend = 0, frame = 0
 1543              		@ frame_needed = 1, uses_anonymous_args = 0
 1544 0000 80B5     		push	{r7, lr}
 1545              		.cfi_def_cfa_offset 8
 1546              		.cfi_offset 7, -8
 1547              		.cfi_offset 14, -4
 1548 0002 00AF     		add	r7, sp, #0
 1549              		.cfi_def_cfa_register 7
 297:../app/app.c  **** 	display_led(AQUA_CLEAN_LED, LED_TOGGLE);
 1550              		.loc 1 297 2
 1551 0004 0221     		movs	r1, #2
 1552 0006 1120     		movs	r0, #17
 1553 0008 FFF7FEFF 		bl	display_led
 298:../app/app.c  **** 	osal_lyh_over_timer(OS_LED_TIME, Ms_1000, app_led_aqua_cbfunc);
 1554              		.loc 1 298 2
 1555 000c 034A     		ldr	r2, .L128
 1556 000e 4FF47A71 		mov	r1, #1000
 1557 0012 0220     		movs	r0, #2
 1558 0014 FFF7FEFF 		bl	osal_lyh_over_timer
 299:../app/app.c  **** }
 1559              		.loc 1 299 1
 1560 0018 00BF     		nop
 1561 001a 80BD     		pop	{r7, pc}
 1562              	.L129:
 1563              		.align	2
 1564              	.L128:
 1565 001c 00000000 		.word	app_led_aqua_cbfunc
 1566              		.cfi_endproc
 1567              	.LFE145:
 1569              		.section	.text.app_led_aqua_init,"ax",%progbits
 1570              		.align	1
 1571              		.global	app_led_aqua_init
 1572              		.syntax unified
 1573              		.thumb
 1574              		.thumb_func
 1575              		.fpu softvfp
 1577              	app_led_aqua_init:
 1578              	.LFB146:
 300:../app/app.c  **** 
 301:../app/app.c  **** void app_led_aqua_init(void)
 302:../app/app.c  **** {
 1579              		.loc 1 302 1
 1580              		.cfi_startproc
 1581              		@ args = 0, pretend = 0, frame = 0
 1582              		@ frame_needed = 1, uses_anonymous_args = 0
 1583 0000 80B5     		push	{r7, lr}
 1584              		.cfi_def_cfa_offset 8
 1585              		.cfi_offset 7, -8
 1586              		.cfi_offset 14, -4
 1587 0002 00AF     		add	r7, sp, #0
 1588              		.cfi_def_cfa_register 7
 303:../app/app.c  **** 	display_led(AQUA_CLEAN_LED, LED_ON);
 1589              		.loc 1 303 2
 1590 0004 0121     		movs	r1, #1
 1591 0006 1120     		movs	r0, #17
 1592 0008 FFF7FEFF 		bl	display_led
 304:../app/app.c  **** 	osal_lyh_over_timer(OS_LED_TIME, Ms_1000, app_led_aqua_cbfunc);
 1593              		.loc 1 304 2
 1594 000c 034A     		ldr	r2, .L131
 1595 000e 4FF47A71 		mov	r1, #1000
 1596 0012 0220     		movs	r0, #2
 1597 0014 FFF7FEFF 		bl	osal_lyh_over_timer
 305:../app/app.c  **** }
 1598              		.loc 1 305 1
 1599 0018 00BF     		nop
 1600 001a 80BD     		pop	{r7, pc}
 1601              	.L132:
 1602              		.align	2
 1603              	.L131:
 1604 001c 00000000 		.word	app_led_aqua_cbfunc
 1605              		.cfi_endproc
 1606              	.LFE146:
 1608              		.section	.text.app_led_calc_cbfunc,"ax",%progbits
 1609              		.align	1
 1610              		.global	app_led_calc_cbfunc
 1611              		.syntax unified
 1612              		.thumb
 1613              		.thumb_func
 1614              		.fpu softvfp
 1616              	app_led_calc_cbfunc:
 1617              	.LFB147:
 306:../app/app.c  **** 
 307:../app/app.c  **** void app_led_calc_cbfunc(void)
 308:../app/app.c  **** {
 1618              		.loc 1 308 1
 1619              		.cfi_startproc
 1620              		@ args = 0, pretend = 0, frame = 0
 1621              		@ frame_needed = 1, uses_anonymous_args = 0
 1622 0000 80B5     		push	{r7, lr}
 1623              		.cfi_def_cfa_offset 8
 1624              		.cfi_offset 7, -8
 1625              		.cfi_offset 14, -4
 1626 0002 00AF     		add	r7, sp, #0
 1627              		.cfi_def_cfa_register 7
 309:../app/app.c  **** 	display_led(CALC_CLEAN_LED, LED_TOGGLE);
 1628              		.loc 1 309 2
 1629 0004 0221     		movs	r1, #2
 1630 0006 0220     		movs	r0, #2
 1631 0008 FFF7FEFF 		bl	display_led
 310:../app/app.c  **** 	osal_lyh_over_timer(OS_LED_TIME, Ms_1000, app_led_calc_cbfunc);
 1632              		.loc 1 310 2
 1633 000c 034A     		ldr	r2, .L134
 1634 000e 4FF47A71 		mov	r1, #1000
 1635 0012 0220     		movs	r0, #2
 1636 0014 FFF7FEFF 		bl	osal_lyh_over_timer
 311:../app/app.c  **** }
 1637              		.loc 1 311 1
 1638 0018 00BF     		nop
 1639 001a 80BD     		pop	{r7, pc}
 1640              	.L135:
 1641              		.align	2
 1642              	.L134:
 1643 001c 00000000 		.word	app_led_calc_cbfunc
 1644              		.cfi_endproc
 1645              	.LFE147:
 1647              		.section	.text.app_led_calc_init,"ax",%progbits
 1648              		.align	1
 1649              		.global	app_led_calc_init
 1650              		.syntax unified
 1651              		.thumb
 1652              		.thumb_func
 1653              		.fpu softvfp
 1655              	app_led_calc_init:
 1656              	.LFB148:
 312:../app/app.c  **** 
 313:../app/app.c  **** void app_led_calc_init(void)
 314:../app/app.c  **** {
 1657              		.loc 1 314 1
 1658              		.cfi_startproc
 1659              		@ args = 0, pretend = 0, frame = 0
 1660              		@ frame_needed = 1, uses_anonymous_args = 0
 1661 0000 80B5     		push	{r7, lr}
 1662              		.cfi_def_cfa_offset 8
 1663              		.cfi_offset 7, -8
 1664              		.cfi_offset 14, -4
 1665 0002 00AF     		add	r7, sp, #0
 1666              		.cfi_def_cfa_register 7
 315:../app/app.c  **** 	display_led(CALC_CLEAN_LED, LED_ON);
 1667              		.loc 1 315 2
 1668 0004 0121     		movs	r1, #1
 1669 0006 0220     		movs	r0, #2
 1670 0008 FFF7FEFF 		bl	display_led
 316:../app/app.c  **** 	osal_lyh_over_timer(OS_LED_TIME, Ms_1000, app_led_calc_cbfunc);
 1671              		.loc 1 316 2
 1672 000c 034A     		ldr	r2, .L137
 1673 000e 4FF47A71 		mov	r1, #1000
 1674 0012 0220     		movs	r0, #2
 1675 0014 FFF7FEFF 		bl	osal_lyh_over_timer
 317:../app/app.c  **** }
 1676              		.loc 1 317 1
 1677 0018 00BF     		nop
 1678 001a 80BD     		pop	{r7, pc}
 1679              	.L138:
 1680              		.align	2
 1681              	.L137:
 1682 001c 00000000 		.word	app_led_calc_cbfunc
 1683              		.cfi_endproc
 1684              	.LFE148:
 1686              		.section	.text.app_leds_all_fun,"ax",%progbits
 1687              		.align	1
 1688              		.global	app_leds_all_fun
 1689              		.syntax unified
 1690              		.thumb
 1691              		.thumb_func
 1692              		.fpu softvfp
 1694              	app_leds_all_fun:
 1695              	.LFB149:
 318:../app/app.c  **** 
 319:../app/app.c  **** void app_leds_all_fun(uint8_t status)
 320:../app/app.c  **** {
 1696              		.loc 1 320 1
 1697              		.cfi_startproc
 1698              		@ args = 0, pretend = 0, frame = 8
 1699              		@ frame_needed = 1, uses_anonymous_args = 0
 1700 0000 80B5     		push	{r7, lr}
 1701              		.cfi_def_cfa_offset 8
 1702              		.cfi_offset 7, -8
 1703              		.cfi_offset 14, -4
 1704 0002 82B0     		sub	sp, sp, #8
 1705              		.cfi_def_cfa_offset 16
 1706 0004 00AF     		add	r7, sp, #0
 1707              		.cfi_def_cfa_register 7
 1708 0006 0346     		mov	r3, r0
 1709 0008 FB71     		strb	r3, [r7, #7]
 321:../app/app.c  **** 	display_led(STEAM_LED, status);
 1710              		.loc 1 321 2
 1711 000a FB79     		ldrb	r3, [r7, #7]	@ zero_extendqisi2
 1712 000c 1946     		mov	r1, r3
 1713 000e 1220     		movs	r0, #18
 1714 0010 FFF7FEFF 		bl	display_led
 322:../app/app.c  **** 	display_led(HOT_WATER, status);
 1715              		.loc 1 322 2
 1716 0014 FB79     		ldrb	r3, [r7, #7]	@ zero_extendqisi2
 1717 0016 1946     		mov	r1, r3
 1718 0018 1520     		movs	r0, #21
 1719 001a FFF7FEFF 		bl	display_led
 323:../app/app.c  **** 	display_led(ESPRESSO1_LED, status);
 1720              		.loc 1 323 2
 1721 001e FB79     		ldrb	r3, [r7, #7]	@ zero_extendqisi2
 1722 0020 1946     		mov	r1, r3
 1723 0022 0C20     		movs	r0, #12
 1724 0024 FFF7FEFF 		bl	display_led
 324:../app/app.c  **** 	display_led(AMERICANO1_LED, status);
 1725              		.loc 1 324 2
 1726 0028 FB79     		ldrb	r3, [r7, #7]	@ zero_extendqisi2
 1727 002a 1946     		mov	r1, r3
 1728 002c 0F20     		movs	r0, #15
 1729 002e FFF7FEFF 		bl	display_led
 325:../app/app.c  **** 	display_led(AQUA_GREEN_LED, status);
 1730              		.loc 1 325 2
 1731 0032 FB79     		ldrb	r3, [r7, #7]	@ zero_extendqisi2
 1732 0034 1946     		mov	r1, r3
 1733 0036 1A20     		movs	r0, #26
 1734 0038 FFF7FEFF 		bl	display_led
 326:../app/app.c  **** 	if (status == LED_OFF){
 1735              		.loc 1 326 5
 1736 003c FB79     		ldrb	r3, [r7, #7]	@ zero_extendqisi2
 1737 003e 002B     		cmp	r3, #0
 1738 0040 13D1     		bne	.L141
 327:../app/app.c  **** 		display_led(ESPRESSO2_LED, status);
 1739              		.loc 1 327 3
 1740 0042 FB79     		ldrb	r3, [r7, #7]	@ zero_extendqisi2
 1741 0044 1946     		mov	r1, r3
 1742 0046 0920     		movs	r0, #9
 1743 0048 FFF7FEFF 		bl	display_led
 328:../app/app.c  **** 		display_led(AMERICANO2_LED, status);
 1744              		.loc 1 328 3
 1745 004c FB79     		ldrb	r3, [r7, #7]	@ zero_extendqisi2
 1746 004e 1946     		mov	r1, r3
 1747 0050 0620     		movs	r0, #6
 1748 0052 FFF7FEFF 		bl	display_led
 329:../app/app.c  **** 		display_led(AQUA_CLEAN_LED, status);
 1749              		.loc 1 329 3
 1750 0056 FB79     		ldrb	r3, [r7, #7]	@ zero_extendqisi2
 1751 0058 1946     		mov	r1, r3
 1752 005a 1120     		movs	r0, #17
 1753 005c FFF7FEFF 		bl	display_led
 330:../app/app.c  **** 		display_led(CALC_CLEAN_LED, status);
 1754              		.loc 1 330 3
 1755 0060 FB79     		ldrb	r3, [r7, #7]	@ zero_extendqisi2
 1756 0062 1946     		mov	r1, r3
 1757 0064 0220     		movs	r0, #2
 1758 0066 FFF7FEFF 		bl	display_led
 1759              	.L141:
 331:../app/app.c  **** 	}
 332:../app/app.c  **** }
 1760              		.loc 1 332 1
 1761 006a 00BF     		nop
 1762 006c 0837     		adds	r7, r7, #8
 1763              		.cfi_def_cfa_offset 8
 1764 006e BD46     		mov	sp, r7
 1765              		.cfi_def_cfa_register 13
 1766              		@ sp needed
 1767 0070 80BD     		pop	{r7, pc}
 1768              		.cfi_endproc
 1769              	.LFE149:
 1771              		.section	.text.app_leds_all_ind,"ax",%progbits
 1772              		.align	1
 1773              		.global	app_leds_all_ind
 1774              		.syntax unified
 1775              		.thumb
 1776              		.thumb_func
 1777              		.fpu softvfp
 1779              	app_leds_all_ind:
 1780              	.LFB150:
 333:../app/app.c  **** 
 334:../app/app.c  **** void app_leds_all_ind(uint8_t status)
 335:../app/app.c  **** {
 1781              		.loc 1 335 1
 1782              		.cfi_startproc
 1783              		@ args = 0, pretend = 0, frame = 8
 1784              		@ frame_needed = 1, uses_anonymous_args = 0
 1785 0000 80B5     		push	{r7, lr}
 1786              		.cfi_def_cfa_offset 8
 1787              		.cfi_offset 7, -8
 1788              		.cfi_offset 14, -4
 1789 0002 82B0     		sub	sp, sp, #8
 1790              		.cfi_def_cfa_offset 16
 1791 0004 00AF     		add	r7, sp, #0
 1792              		.cfi_def_cfa_register 7
 1793 0006 0346     		mov	r3, r0
 1794 0008 FB71     		strb	r3, [r7, #7]
 336:../app/app.c  **** 	display_led(COFFEE1_LED, status);
 1795              		.loc 1 336 2
 1796 000a FB79     		ldrb	r3, [r7, #7]	@ zero_extendqisi2
 1797 000c 1946     		mov	r1, r3
 1798 000e 0120     		movs	r0, #1
 1799 0010 FFF7FEFF 		bl	display_led
 337:../app/app.c  **** 	display_led(COFFEE2_LED, status);
 1800              		.loc 1 337 2
 1801 0014 FB79     		ldrb	r3, [r7, #7]	@ zero_extendqisi2
 1802 0016 1946     		mov	r1, r3
 1803 0018 0A20     		movs	r0, #10
 1804 001a FFF7FEFF 		bl	display_led
 338:../app/app.c  **** 	display_led(COFFEE3_LED, status);
 1805              		.loc 1 338 2
 1806 001e FB79     		ldrb	r3, [r7, #7]	@ zero_extendqisi2
 1807 0020 1946     		mov	r1, r3
 1808 0022 0D20     		movs	r0, #13
 1809 0024 FFF7FEFF 		bl	display_led
 339:../app/app.c  **** 	display_led(COFFEE4_LED, status);
 1810              		.loc 1 339 2
 1811 0028 FB79     		ldrb	r3, [r7, #7]	@ zero_extendqisi2
 1812 002a 1946     		mov	r1, r3
 1813 002c 1320     		movs	r0, #19
 1814 002e FFF7FEFF 		bl	display_led
 340:../app/app.c  **** 	display_led(WATER1_LED, status);
 1815              		.loc 1 340 2
 1816 0032 FB79     		ldrb	r3, [r7, #7]	@ zero_extendqisi2
 1817 0034 1946     		mov	r1, r3
 1818 0036 0420     		movs	r0, #4
 1819 0038 FFF7FEFF 		bl	display_led
 341:../app/app.c  **** 	display_led(WATER2_LED, status);
 1820              		.loc 1 341 2
 1821 003c FB79     		ldrb	r3, [r7, #7]	@ zero_extendqisi2
 1822 003e 1946     		mov	r1, r3
 1823 0040 1920     		movs	r0, #25
 1824 0042 FFF7FEFF 		bl	display_led
 342:../app/app.c  **** 	display_led(WATER3_LED, status);
 1825              		.loc 1 342 2
 1826 0046 FB79     		ldrb	r3, [r7, #7]	@ zero_extendqisi2
 1827 0048 1946     		mov	r1, r3
 1828 004a 1020     		movs	r0, #16
 1829 004c FFF7FEFF 		bl	display_led
 343:../app/app.c  **** }
 1830              		.loc 1 343 1
 1831 0050 00BF     		nop
 1832 0052 0837     		adds	r7, r7, #8
 1833              		.cfi_def_cfa_offset 8
 1834 0054 BD46     		mov	sp, r7
 1835              		.cfi_def_cfa_register 13
 1836              		@ sp needed
 1837 0056 80BD     		pop	{r7, pc}
 1838              		.cfi_endproc
 1839              	.LFE150:
 1841              		.section	.text.app_led_oneloop,"ax",%progbits
 1842              		.align	1
 1843              		.global	app_led_oneloop
 1844              		.syntax unified
 1845              		.thumb
 1846              		.thumb_func
 1847              		.fpu softvfp
 1849              	app_led_oneloop:
 1850              	.LFB151:
 344:../app/app.c  **** 
 345:../app/app.c  **** uint8_t app_led_oneloop(void)
 346:../app/app.c  **** {
 1851              		.loc 1 346 1
 1852              		.cfi_startproc
 1853              		@ args = 0, pretend = 0, frame = 0
 1854              		@ frame_needed = 1, uses_anonymous_args = 0
 1855 0000 80B5     		push	{r7, lr}
 1856              		.cfi_def_cfa_offset 8
 1857              		.cfi_offset 7, -8
 1858              		.cfi_offset 14, -4
 1859 0002 00AF     		add	r7, sp, #0
 1860              		.cfi_def_cfa_register 7
 347:../app/app.c  **** 	if (display_get_led(ESPRESSO1_LED) && display_get_led(AMERICANO1_LED))
 1861              		.loc 1 347 6
 1862 0004 0C20     		movs	r0, #12
 1863 0006 FFF7FEFF 		bl	display_get_led
 1864 000a 0346     		mov	r3, r0
 1865              		.loc 1 347 5
 1866 000c 002B     		cmp	r3, #0
 1867 000e 07D0     		beq	.L144
 1868              		.loc 1 347 40 discriminator 1
 1869 0010 0F20     		movs	r0, #15
 1870 0012 FFF7FEFF 		bl	display_get_led
 1871 0016 0346     		mov	r3, r0
 1872              		.loc 1 347 37 discriminator 1
 1873 0018 002B     		cmp	r3, #0
 1874 001a 01D0     		beq	.L144
 348:../app/app.c  **** 	{
 349:../app/app.c  **** 		return TRUE;
 1875              		.loc 1 349 10
 1876 001c 0123     		movs	r3, #1
 1877 001e 00E0     		b	.L145
 1878              	.L144:
 350:../app/app.c  **** 	}
 351:../app/app.c  **** 	return FAIL;
 1879              		.loc 1 351 9
 1880 0020 0023     		movs	r3, #0
 1881              	.L145:
 352:../app/app.c  **** }
 1882              		.loc 1 352 1
 1883 0022 1846     		mov	r0, r3
 1884 0024 80BD     		pop	{r7, pc}
 1885              		.cfi_endproc
 1886              	.LFE151:
 1888              		.section	.text.app_led_finish_step,"ax",%progbits
 1889              		.align	1
 1890              		.global	app_led_finish_step
 1891              		.syntax unified
 1892              		.thumb
 1893              		.thumb_func
 1894              		.fpu softvfp
 1896              	app_led_finish_step:
 1897              	.LFB152:
 353:../app/app.c  **** 
 354:../app/app.c  **** /**************************************************************************
 355:../app/app.c  ****  * @brief Õå▓ńģ«µĄüń©ŗń╗ōµØ¤ÕÉÄLEDµśŠńż║ÕżäńÉåÕćĮµĢ░
 356:../app/app.c  ****  * @return none
 357:../app/app.c  ****  * @note µĄüµ░┤ńü»ÕĖĖķćÅ’╝īaquaõ║«ĶōØńü»’╝īstart_ledńåäńüŁ
 358:../app/app.c  ****  *************************************************************************/
 359:../app/app.c  **** void app_led_finish_step(void)
 360:../app/app.c  **** {
 1898              		.loc 1 360 1
 1899              		.cfi_startproc
 1900              		@ args = 0, pretend = 0, frame = 0
 1901              		@ frame_needed = 1, uses_anonymous_args = 0
 1902 0000 80B5     		push	{r7, lr}
 1903              		.cfi_def_cfa_offset 8
 1904              		.cfi_offset 7, -8
 1905              		.cfi_offset 14, -4
 1906 0002 00AF     		add	r7, sp, #0
 1907              		.cfi_def_cfa_register 7
 361:../app/app.c  **** 	app_leds_all_fun(LED_OFF);
 1908              		.loc 1 361 2
 1909 0004 0020     		movs	r0, #0
 1910 0006 FFF7FEFF 		bl	app_leds_all_fun
 362:../app/app.c  **** 	app_leds_all_ind(LED_OFF);
 1911              		.loc 1 362 2
 1912 000a 0020     		movs	r0, #0
 1913 000c FFF7FEFF 		bl	app_leds_all_ind
 363:../app/app.c  **** 	display_led(START_LED, LED_OFF);
 1914              		.loc 1 363 2
 1915 0010 0021     		movs	r1, #0
 1916 0012 0520     		movs	r0, #5
 1917 0014 FFF7FEFF 		bl	display_led
 364:../app/app.c  **** 
 365:../app/app.c  **** 	app_leds_all_fun(LED_ON);
 1918              		.loc 1 365 2
 1919 0018 0120     		movs	r0, #1
 1920 001a FFF7FEFF 		bl	app_leds_all_fun
 366:../app/app.c  **** }
 1921              		.loc 1 366 1
 1922 001e 00BF     		nop
 1923 0020 80BD     		pop	{r7, pc}
 1924              		.cfi_endproc
 1925              	.LFE152:
 1927              		.section	.text.app_onoff_key_deal,"ax",%progbits
 1928              		.align	1
 1929              		.global	app_onoff_key_deal
 1930              		.syntax unified
 1931              		.thumb
 1932              		.thumb_func
 1933              		.fpu softvfp
 1935              	app_onoff_key_deal:
 1936              	.LFB153:
 367:../app/app.c  **** 
 368:../app/app.c  **** /**************************************************************************
 369:../app/app.c  ****  * @brief on/offķö«ÕżäńÉåÕćĮµĢ░
 370:../app/app.c  ****  * @return none
 371:../app/app.c  ****  * @note none
 372:../app/app.c  ****  *************************************************************************/
 373:../app/app.c  **** void app_onoff_key_deal(void)
 374:../app/app.c  **** {
 1937              		.loc 1 374 1
 1938              		.cfi_startproc
 1939              		@ args = 0, pretend = 0, frame = 0
 1940              		@ frame_needed = 1, uses_anonymous_args = 0
 1941 0000 80B5     		push	{r7, lr}
 1942              		.cfi_def_cfa_offset 8
 1943              		.cfi_offset 7, -8
 1944              		.cfi_offset 14, -4
 1945 0002 00AF     		add	r7, sp, #0
 1946              		.cfi_def_cfa_register 7
 375:../app/app.c  **** 	switch(app_task_step)
 1947              		.loc 1 375 2
 1948 0004 0E4B     		ldr	r3, .L157
 1949 0006 1B78     		ldrb	r3, [r3]	@ zero_extendqisi2
 1950 0008 072B     		cmp	r3, #7
 1951 000a 13DC     		bgt	.L154
 1952 000c 032B     		cmp	r3, #3
 1953 000e 0CDA     		bge	.L149
 1954 0010 012B     		cmp	r3, #1
 1955 0012 02DC     		bgt	.L150
 1956 0014 002B     		cmp	r3, #0
 1957 0016 03DA     		bge	.L151
 376:../app/app.c  **** 	{
 377:../app/app.c  **** 	case APP_INIT_STATE:
 378:../app/app.c  **** 	case APP_IDLE_STATE:
 379:../app/app.c  **** 		app_task_nextstep(APP_STARTUP_STATE, STARTUP_INIT_STATE);
 380:../app/app.c  **** 		break;
 381:../app/app.c  **** 	case APP_STARTUP_STATE:
 382:../app/app.c  **** 		break;
 383:../app/app.c  **** 	case APP_NORMAL_STATE:
 384:../app/app.c  **** 	case APP_ESPRESSO_STATE:
 385:../app/app.c  **** 	case APP_AMERICAN_STATE:
 386:../app/app.c  **** 	case APP_HOTWATER_STATE:
 387:../app/app.c  **** 	case APP_STEAM_STATE:
 388:../app/app.c  **** 		app_task_nextstep(APP_RUNNING_ONOFF_STATE, RUNNING_ONOFF_INIT_STATE);		
 389:../app/app.c  **** 		break;	
 390:../app/app.c  **** 	default:
 391:../app/app.c  **** 		break;
 1958              		.loc 1 391 3
 1959 0018 0CE0     		b	.L154
 1960              	.L150:
 375:../app/app.c  **** 	switch(app_task_step)
 1961              		.loc 1 375 2
 1962 001a 022B     		cmp	r3, #2
 1963 001c 0CD0     		beq	.L155
 1964              		.loc 1 391 3
 1965 001e 09E0     		b	.L154
 1966              	.L151:
 379:../app/app.c  **** 		break;
 1967              		.loc 1 379 3
 1968 0020 0021     		movs	r1, #0
 1969 0022 0220     		movs	r0, #2
 1970 0024 FFF7FEFF 		bl	app_task_nextstep
 380:../app/app.c  **** 	case APP_STARTUP_STATE:
 1971              		.loc 1 380 3
 1972 0028 07E0     		b	.L153
 1973              	.L149:
 388:../app/app.c  **** 		break;	
 1974              		.loc 1 388 3
 1975 002a 0021     		movs	r1, #0
 1976 002c 0B20     		movs	r0, #11
 1977 002e FFF7FEFF 		bl	app_task_nextstep
 389:../app/app.c  **** 	default:
 1978              		.loc 1 389 3
 1979 0032 02E0     		b	.L153
 1980              	.L154:
 1981              		.loc 1 391 3
 1982 0034 00BF     		nop
 1983 0036 00E0     		b	.L156
 1984              	.L155:
 382:../app/app.c  **** 	case APP_NORMAL_STATE:
 1985              		.loc 1 382 3
 1986 0038 00BF     		nop
 1987              	.L153:
 1988              	.L156:
 392:../app/app.c  **** 	}
 393:../app/app.c  **** }
 1989              		.loc 1 393 1
 1990 003a 00BF     		nop
 1991 003c 80BD     		pop	{r7, pc}
 1992              	.L158:
 1993 003e 00BF     		.align	2
 1994              	.L157:
 1995 0040 00000000 		.word	app_task_step
 1996              		.cfi_endproc
 1997              	.LFE153:
 1999              		.section	.text.app_start_key_deal,"ax",%progbits
 2000              		.align	1
 2001              		.global	app_start_key_deal
 2002              		.syntax unified
 2003              		.thumb
 2004              		.thumb_func
 2005              		.fpu softvfp
 2007              	app_start_key_deal:
 2008              	.LFB154:
 394:../app/app.c  **** 
 395:../app/app.c  **** uint8_t app_start_key_deal(void)
 396:../app/app.c  **** {
 2009              		.loc 1 396 1
 2010              		.cfi_startproc
 2011              		@ args = 0, pretend = 0, frame = 8
 2012              		@ frame_needed = 1, uses_anonymous_args = 0
 2013 0000 80B5     		push	{r7, lr}
 2014              		.cfi_def_cfa_offset 8
 2015              		.cfi_offset 7, -8
 2016              		.cfi_offset 14, -4
 2017 0002 82B0     		sub	sp, sp, #8
 2018              		.cfi_def_cfa_offset 16
 2019 0004 00AF     		add	r7, sp, #0
 2020              		.cfi_def_cfa_register 7
 397:../app/app.c  **** 	uint8_t ret = 0;
 2021              		.loc 1 397 10
 2022 0006 0023     		movs	r3, #0
 2023 0008 FB71     		strb	r3, [r7, #7]
 398:../app/app.c  **** 
 399:../app/app.c  **** 	switch(app_task_step)
 2024              		.loc 1 399 2
 2025 000a 384B     		ldr	r3, .L179
 2026 000c 1B78     		ldrb	r3, [r3]	@ zero_extendqisi2
 2027 000e 033B     		subs	r3, r3, #3
 2028 0010 042B     		cmp	r3, #4
 2029 0012 65D8     		bhi	.L177
 2030 0014 01A2     		adr	r2, .L162
 2031 0016 52F823F0 		ldr	pc, [r2, r3, lsl #2]
 2032 001a 00BF     		.p2align 2
 2033              	.L162:
 2034 001c 31000000 		.word	.L165+1
 2035 0020 C5000000 		.word	.L164+1
 2036 0024 C5000000 		.word	.L164+1
 2037 0028 CD000000 		.word	.L163+1
 2038 002c D7000000 		.word	.L161+1
 2039              		.p2align 1
 2040              	.L165:
 400:../app/app.c  **** 	{
 401:../app/app.c  **** 		case APP_NORMAL_STATE:
 402:../app/app.c  **** 			switch(app_task_substep){
 2041              		.loc 1 402 4
 2042 0030 2F4B     		ldr	r3, .L179+4
 2043 0032 1B78     		ldrb	r3, [r3]	@ zero_extendqisi2
 2044 0034 023B     		subs	r3, r3, #2
 2045 0036 0A2B     		cmp	r3, #10
 2046 0038 42D8     		bhi	.L178
 2047 003a 01A2     		adr	r2, .L168
 2048 003c 52F823F0 		ldr	pc, [r2, r3, lsl #2]
 2049              		.p2align 2
 2050              	.L168:
 2051 0040 6D000000 		.word	.L173+1
 2052 0044 C1000000 		.word	.L178+1
 2053 0048 7B000000 		.word	.L172+1
 2054 004c C1000000 		.word	.L178+1
 2055 0050 89000000 		.word	.L171+1
 2056 0054 C1000000 		.word	.L178+1
 2057 0058 97000000 		.word	.L170+1
 2058 005c C1000000 		.word	.L178+1
 2059 0060 A5000000 		.word	.L169+1
 2060 0064 C1000000 		.word	.L178+1
 2061 0068 B3000000 		.word	.L167+1
 2062              		.p2align 1
 2063              	.L173:
 403:../app/app.c  **** 			case NORMAL_ESPRESSO_RUN_STATE:
 404:../app/app.c  **** 				app_task_nextstep(APP_ESPRESSO_STATE, ESPRESSO_INIT_STATE);
 2064              		.loc 1 404 5
 2065 006c 0021     		movs	r1, #0
 2066 006e 0420     		movs	r0, #4
 2067 0070 FFF7FEFF 		bl	app_task_nextstep
 405:../app/app.c  **** 				ret = 1;
 2068              		.loc 1 405 9
 2069 0074 0123     		movs	r3, #1
 2070 0076 FB71     		strb	r3, [r7, #7]
 406:../app/app.c  **** 				break;
 2071              		.loc 1 406 5
 2072 0078 23E0     		b	.L174
 2073              	.L172:
 407:../app/app.c  **** 			case NORMAL_AMERICANO_RUN_STATE:
 408:../app/app.c  **** 				app_task_nextstep(APP_AMERICAN_STATE, AMERICANO_INIT_STATE);
 2074              		.loc 1 408 5
 2075 007a 0021     		movs	r1, #0
 2076 007c 0520     		movs	r0, #5
 2077 007e FFF7FEFF 		bl	app_task_nextstep
 409:../app/app.c  **** 				ret = 1;
 2078              		.loc 1 409 9
 2079 0082 0123     		movs	r3, #1
 2080 0084 FB71     		strb	r3, [r7, #7]
 410:../app/app.c  **** 				break;
 2081              		.loc 1 410 5
 2082 0086 1CE0     		b	.L174
 2083              	.L171:
 411:../app/app.c  **** 			case NORMAL_HOTWATER_RUN_STATE:
 412:../app/app.c  **** 				app_task_nextstep(APP_HOTWATER_STATE, HOTWATER_INIT_STATE);
 2084              		.loc 1 412 5
 2085 0088 0021     		movs	r1, #0
 2086 008a 0620     		movs	r0, #6
 2087 008c FFF7FEFF 		bl	app_task_nextstep
 413:../app/app.c  **** 				ret = 1;
 2088              		.loc 1 413 9
 2089 0090 0123     		movs	r3, #1
 2090 0092 FB71     		strb	r3, [r7, #7]
 414:../app/app.c  **** 				break;
 2091              		.loc 1 414 5
 2092 0094 15E0     		b	.L174
 2093              	.L170:
 415:../app/app.c  **** 			case NORMAL_STEAM_RUN_STATE:
 416:../app/app.c  **** 				app_task_nextstep(APP_STEAM_STATE, STEAM_INIT_STATE);
 2094              		.loc 1 416 5
 2095 0096 0021     		movs	r1, #0
 2096 0098 0720     		movs	r0, #7
 2097 009a FFF7FEFF 		bl	app_task_nextstep
 417:../app/app.c  **** 				ret = 1;
 2098              		.loc 1 417 9
 2099 009e 0123     		movs	r3, #1
 2100 00a0 FB71     		strb	r3, [r7, #7]
 418:../app/app.c  **** 				break;
 2101              		.loc 1 418 5
 2102 00a2 0EE0     		b	.L174
 2103              	.L169:
 419:../app/app.c  **** 			case NORMAL_AQUA_RUN_STATE:
 420:../app/app.c  **** 				app_task_nextstep(APP_AQUA_STATE, AQUA_INIT_STATE);
 2104              		.loc 1 420 5
 2105 00a4 0021     		movs	r1, #0
 2106 00a6 0820     		movs	r0, #8
 2107 00a8 FFF7FEFF 		bl	app_task_nextstep
 421:../app/app.c  **** 				ret = 1;
 2108              		.loc 1 421 9
 2109 00ac 0123     		movs	r3, #1
 2110 00ae FB71     		strb	r3, [r7, #7]
 422:../app/app.c  **** 				break;
 2111              		.loc 1 422 5
 2112 00b0 07E0     		b	.L174
 2113              	.L167:
 423:../app/app.c  **** 			case NORMAL_CALC_RUN_STATE:
 424:../app/app.c  **** 				app_task_nextstep(APP_CALC_STATE, CALC_INIT_STATE);
 2114              		.loc 1 424 5
 2115 00b2 0021     		movs	r1, #0
 2116 00b4 0920     		movs	r0, #9
 2117 00b6 FFF7FEFF 		bl	app_task_nextstep
 425:../app/app.c  **** 				ret = 1;
 2118              		.loc 1 425 9
 2119 00ba 0123     		movs	r3, #1
 2120 00bc FB71     		strb	r3, [r7, #7]
 426:../app/app.c  **** 				break;
 2121              		.loc 1 426 5
 2122 00be 00E0     		b	.L174
 2123              	.L178:
 427:../app/app.c  **** 			default:
 428:../app/app.c  **** 				break;
 2124              		.loc 1 428 5
 2125 00c0 00BF     		nop
 2126              	.L174:
 429:../app/app.c  **** 			}
 430:../app/app.c  **** 			break;
 2127              		.loc 1 430 4
 2128 00c2 0EE0     		b	.L175
 2129              	.L164:
 431:../app/app.c  **** 	
 432:../app/app.c  **** 		case APP_ESPRESSO_STATE:
 433:../app/app.c  **** 		case APP_AMERICAN_STATE:
 434:../app/app.c  **** 			cup_loop = 0;	//Õ░åµØ»µĢ░ÕŠ¬ńÄ»µĖģķÖż’╝īÕÅ¬µē¦ĶĪīµ£¼µ¼ĪÕå▓ńģ«µĄüń©ŗ
 2130              		.loc 1 434 13
 2131 00c4 0B4B     		ldr	r3, .L179+8
 2132 00c6 0022     		movs	r2, #0
 2133 00c8 1A70     		strb	r2, [r3]
 435:../app/app.c  **** 			break;
 2134              		.loc 1 435 4
 2135 00ca 0AE0     		b	.L175
 2136              	.L163:
 436:../app/app.c  **** 		case APP_HOTWATER_STATE:
 437:../app/app.c  **** 			app_task_nextstep(APP_HOTWATER_STATE, HOTWATER_COMPLETE_STATE);		//Ķ┐øÕģźÕ«īµłÉńŖČµĆü
 2137              		.loc 1 437 4
 2138 00cc 0521     		movs	r1, #5
 2139 00ce 0620     		movs	r0, #6
 2140 00d0 FFF7FEFF 		bl	app_task_nextstep
 438:../app/app.c  **** 			break;
 2141              		.loc 1 438 4
 2142 00d4 05E0     		b	.L175
 2143              	.L161:
 439:../app/app.c  **** 		case APP_STEAM_STATE:
 440:../app/app.c  **** 			app_task_nextstep(APP_STEAM_STATE, STEAM_COMPLETE_STATE);		//Ķ┐øÕģźÕ«īµłÉńŖČµĆü
 2144              		.loc 1 440 4
 2145 00d6 0321     		movs	r1, #3
 2146 00d8 0720     		movs	r0, #7
 2147 00da FFF7FEFF 		bl	app_task_nextstep
 441:../app/app.c  **** 			break;
 2148              		.loc 1 441 4
 2149 00de 00E0     		b	.L175
 2150              	.L177:
 442:../app/app.c  **** 		default:
 443:../app/app.c  **** 			break;
 2151              		.loc 1 443 4
 2152 00e0 00BF     		nop
 2153              	.L175:
 444:../app/app.c  **** 	}
 445:../app/app.c  **** 	return ret;
 2154              		.loc 1 445 9
 2155 00e2 FB79     		ldrb	r3, [r7, #7]	@ zero_extendqisi2
 446:../app/app.c  **** }
 2156              		.loc 1 446 1
 2157 00e4 1846     		mov	r0, r3
 2158 00e6 0837     		adds	r7, r7, #8
 2159              		.cfi_def_cfa_offset 8
 2160 00e8 BD46     		mov	sp, r7
 2161              		.cfi_def_cfa_register 13
 2162              		@ sp needed
 2163 00ea 80BD     		pop	{r7, pc}
 2164              	.L180:
 2165              		.align	2
 2166              	.L179:
 2167 00ec 00000000 		.word	app_task_step
 2168 00f0 00000000 		.word	app_task_substep
 2169 00f4 00000000 		.word	cup_loop
 2170              		.cfi_endproc
 2171              	.LFE154:
 2173              		.section	.text.app_hotwater_key_deal,"ax",%progbits
 2174              		.align	1
 2175              		.global	app_hotwater_key_deal
 2176              		.syntax unified
 2177              		.thumb
 2178              		.thumb_func
 2179              		.fpu softvfp
 2181              	app_hotwater_key_deal:
 2182              	.LFB155:
 447:../app/app.c  **** 
 448:../app/app.c  **** uint8_t app_hotwater_key_deal(void)
 449:../app/app.c  **** {
 2183              		.loc 1 449 1
 2184              		.cfi_startproc
 2185              		@ args = 0, pretend = 0, frame = 8
 2186              		@ frame_needed = 1, uses_anonymous_args = 0
 2187 0000 80B5     		push	{r7, lr}
 2188              		.cfi_def_cfa_offset 8
 2189              		.cfi_offset 7, -8
 2190              		.cfi_offset 14, -4
 2191 0002 82B0     		sub	sp, sp, #8
 2192              		.cfi_def_cfa_offset 16
 2193 0004 00AF     		add	r7, sp, #0
 2194              		.cfi_def_cfa_register 7
 450:../app/app.c  **** 	uint8_t ret = 0;
 2195              		.loc 1 450 10
 2196 0006 0023     		movs	r3, #0
 2197 0008 FB71     		strb	r3, [r7, #7]
 451:../app/app.c  **** 
 452:../app/app.c  **** 	switch(app_task_step)
 2198              		.loc 1 452 2
 2199 000a 0B4B     		ldr	r3, .L189
 2200 000c 1B78     		ldrb	r3, [r3]	@ zero_extendqisi2
 2201 000e 032B     		cmp	r3, #3
 2202 0010 0CD1     		bne	.L187
 453:../app/app.c  **** 	{
 454:../app/app.c  **** 	case APP_NORMAL_STATE:
 455:../app/app.c  **** 		switch(app_task_substep){
 2203              		.loc 1 455 3
 2204 0012 0A4B     		ldr	r3, .L189+4
 2205 0014 1B78     		ldrb	r3, [r3]	@ zero_extendqisi2
 2206 0016 053B     		subs	r3, r3, #5
 2207 0018 012B     		cmp	r3, #1
 2208 001a 03D9     		bls	.L188
 456:../app/app.c  **** 		case NORMAL_HOTWATER_INIT_STATE:
 457:../app/app.c  **** 		case NORMAL_HOTWATER_RUN_STATE:
 458:../app/app.c  **** 			break;
 459:../app/app.c  **** 		default:
 460:../app/app.c  **** 			app_task_nextsubstep(NORMAL_HOTWATER_INIT_STATE);
 2209              		.loc 1 460 4
 2210 001c 0520     		movs	r0, #5
 2211 001e FFF7FEFF 		bl	app_task_nextsubstep
 461:../app/app.c  **** 			break;
 2212              		.loc 1 461 4
 2213 0022 00E0     		b	.L184
 2214              	.L188:
 458:../app/app.c  **** 		default:
 2215              		.loc 1 458 4
 2216 0024 00BF     		nop
 2217              	.L184:
 462:../app/app.c  **** 		}
 463:../app/app.c  **** 		ret = 1;
 2218              		.loc 1 463 7
 2219 0026 0123     		movs	r3, #1
 2220 0028 FB71     		strb	r3, [r7, #7]
 464:../app/app.c  **** 		break;
 2221              		.loc 1 464 3
 2222 002a 00E0     		b	.L185
 2223              	.L187:
 465:../app/app.c  **** 	default:
 466:../app/app.c  **** 		break;
 2224              		.loc 1 466 3
 2225 002c 00BF     		nop
 2226              	.L185:
 467:../app/app.c  **** 	}
 468:../app/app.c  **** 	return ret;
 2227              		.loc 1 468 9
 2228 002e FB79     		ldrb	r3, [r7, #7]	@ zero_extendqisi2
 469:../app/app.c  **** }
 2229              		.loc 1 469 1
 2230 0030 1846     		mov	r0, r3
 2231 0032 0837     		adds	r7, r7, #8
 2232              		.cfi_def_cfa_offset 8
 2233 0034 BD46     		mov	sp, r7
 2234              		.cfi_def_cfa_register 13
 2235              		@ sp needed
 2236 0036 80BD     		pop	{r7, pc}
 2237              	.L190:
 2238              		.align	2
 2239              	.L189:
 2240 0038 00000000 		.word	app_task_step
 2241 003c 00000000 		.word	app_task_substep
 2242              		.cfi_endproc
 2243              	.LFE155:
 2245              		.section	.text.app_espresso_key_deal,"ax",%progbits
 2246              		.align	1
 2247              		.global	app_espresso_key_deal
 2248              		.syntax unified
 2249              		.thumb
 2250              		.thumb_func
 2251              		.fpu softvfp
 2253              	app_espresso_key_deal:
 2254              	.LFB156:
 470:../app/app.c  **** 
 471:../app/app.c  **** uint8_t app_espresso_key_deal(void)
 472:../app/app.c  **** {
 2255              		.loc 1 472 1
 2256              		.cfi_startproc
 2257              		@ args = 0, pretend = 0, frame = 8
 2258              		@ frame_needed = 1, uses_anonymous_args = 0
 2259 0000 80B5     		push	{r7, lr}
 2260              		.cfi_def_cfa_offset 8
 2261              		.cfi_offset 7, -8
 2262              		.cfi_offset 14, -4
 2263 0002 82B0     		sub	sp, sp, #8
 2264              		.cfi_def_cfa_offset 16
 2265 0004 00AF     		add	r7, sp, #0
 2266              		.cfi_def_cfa_register 7
 473:../app/app.c  **** 	uint8_t ret = 0;
 2267              		.loc 1 473 10
 2268 0006 0023     		movs	r3, #0
 2269 0008 FB71     		strb	r3, [r7, #7]
 474:../app/app.c  **** 
 475:../app/app.c  **** 	switch(app_task_step)
 2270              		.loc 1 475 2
 2271 000a 1C4B     		ldr	r3, .L200
 2272 000c 1B78     		ldrb	r3, [r3]	@ zero_extendqisi2
 2273 000e 032B     		cmp	r3, #3
 2274 0010 2ED1     		bne	.L199
 476:../app/app.c  **** 	{
 477:../app/app.c  **** 	case APP_NORMAL_STATE:
 478:../app/app.c  **** 		switch(app_task_substep){
 2275              		.loc 1 478 3
 2276 0012 1B4B     		ldr	r3, .L200+4
 2277 0014 1B78     		ldrb	r3, [r3]	@ zero_extendqisi2
 2278 0016 013B     		subs	r3, r3, #1
 2279 0018 012B     		cmp	r3, #1
 2280 001a 22D8     		bhi	.L193
 479:../app/app.c  **** 		case NORMAL_ESPRESSO_INIT_STATE:
 480:../app/app.c  **** 		case NORMAL_ESPRESSO_RUN_STATE:
 481:../app/app.c  **** 			manual_setup.cup++;
 2281              		.loc 1 481 16
 2282 001c 194B     		ldr	r3, .L200+8
 2283 001e 1B78     		ldrb	r3, [r3]	@ zero_extendqisi2
 2284              		.loc 1 481 20
 2285 0020 0133     		adds	r3, r3, #1
 2286 0022 DAB2     		uxtb	r2, r3
 2287 0024 174B     		ldr	r3, .L200+8
 2288 0026 1A70     		strb	r2, [r3]
 482:../app/app.c  **** 			manual_setup.cup &= 0x01;
 2289              		.loc 1 482 21
 2290 0028 164B     		ldr	r3, .L200+8
 2291 002a 1B78     		ldrb	r3, [r3]	@ zero_extendqisi2
 2292 002c 03F00103 		and	r3, r3, #1
 2293 0030 DAB2     		uxtb	r2, r3
 2294 0032 144B     		ldr	r3, .L200+8
 2295 0034 1A70     		strb	r2, [r3]
 483:../app/app.c  **** 			display_led(ESPRESSO1_LED, LED_OFF);
 2296              		.loc 1 483 4
 2297 0036 0021     		movs	r1, #0
 2298 0038 0C20     		movs	r0, #12
 2299 003a FFF7FEFF 		bl	display_led
 484:../app/app.c  **** 			display_led(ESPRESSO2_LED, LED_OFF);
 2300              		.loc 1 484 4
 2301 003e 0021     		movs	r1, #0
 2302 0040 0920     		movs	r0, #9
 2303 0042 FFF7FEFF 		bl	display_led
 485:../app/app.c  **** 			if (manual_setup.cup){
 2304              		.loc 1 485 20
 2305 0046 0F4B     		ldr	r3, .L200+8
 2306 0048 1B78     		ldrb	r3, [r3]	@ zero_extendqisi2
 2307              		.loc 1 485 7
 2308 004a 002B     		cmp	r3, #0
 2309 004c 04D0     		beq	.L194
 486:../app/app.c  **** 				display_led(ESPRESSO2_LED, LED_ON);
 2310              		.loc 1 486 5
 2311 004e 0121     		movs	r1, #1
 2312 0050 0920     		movs	r0, #9
 2313 0052 FFF7FEFF 		bl	display_led
 487:../app/app.c  **** 			}
 488:../app/app.c  **** 			else{
 489:../app/app.c  **** 				display_led(ESPRESSO1_LED, LED_ON);
 490:../app/app.c  **** 			}
 491:../app/app.c  **** 			break;
 2314              		.loc 1 491 4
 2315 0056 08E0     		b	.L196
 2316              	.L194:
 489:../app/app.c  **** 			}
 2317              		.loc 1 489 5
 2318 0058 0121     		movs	r1, #1
 2319 005a 0C20     		movs	r0, #12
 2320 005c FFF7FEFF 		bl	display_led
 2321              		.loc 1 491 4
 2322 0060 03E0     		b	.L196
 2323              	.L193:
 492:../app/app.c  **** 		default:
 493:../app/app.c  **** 			app_task_nextsubstep(NORMAL_ESPRESSO_INIT_STATE);
 2324              		.loc 1 493 4
 2325 0062 0120     		movs	r0, #1
 2326 0064 FFF7FEFF 		bl	app_task_nextsubstep
 494:../app/app.c  **** 			break;
 2327              		.loc 1 494 4
 2328 0068 00BF     		nop
 2329              	.L196:
 495:../app/app.c  **** 		}
 496:../app/app.c  **** 		ret = 1;
 2330              		.loc 1 496 7
 2331 006a 0123     		movs	r3, #1
 2332 006c FB71     		strb	r3, [r7, #7]
 497:../app/app.c  **** 		break;
 2333              		.loc 1 497 3
 2334 006e 00E0     		b	.L197
 2335              	.L199:
 498:../app/app.c  **** 	default:
 499:../app/app.c  **** 		break;
 2336              		.loc 1 499 3
 2337 0070 00BF     		nop
 2338              	.L197:
 500:../app/app.c  **** 	}
 501:../app/app.c  **** 	return ret;
 2339              		.loc 1 501 9
 2340 0072 FB79     		ldrb	r3, [r7, #7]	@ zero_extendqisi2
 502:../app/app.c  **** }
 2341              		.loc 1 502 1
 2342 0074 1846     		mov	r0, r3
 2343 0076 0837     		adds	r7, r7, #8
 2344              		.cfi_def_cfa_offset 8
 2345 0078 BD46     		mov	sp, r7
 2346              		.cfi_def_cfa_register 13
 2347              		@ sp needed
 2348 007a 80BD     		pop	{r7, pc}
 2349              	.L201:
 2350              		.align	2
 2351              	.L200:
 2352 007c 00000000 		.word	app_task_step
 2353 0080 00000000 		.word	app_task_substep
 2354 0084 00000000 		.word	manual_setup
 2355              		.cfi_endproc
 2356              	.LFE156:
 2358              		.section	.text.app_steam_key_deal,"ax",%progbits
 2359              		.align	1
 2360              		.global	app_steam_key_deal
 2361              		.syntax unified
 2362              		.thumb
 2363              		.thumb_func
 2364              		.fpu softvfp
 2366              	app_steam_key_deal:
 2367              	.LFB157:
 503:../app/app.c  **** 
 504:../app/app.c  **** uint8_t app_steam_key_deal(void)
 505:../app/app.c  **** {
 2368              		.loc 1 505 1
 2369              		.cfi_startproc
 2370              		@ args = 0, pretend = 0, frame = 8
 2371              		@ frame_needed = 1, uses_anonymous_args = 0
 2372 0000 80B5     		push	{r7, lr}
 2373              		.cfi_def_cfa_offset 8
 2374              		.cfi_offset 7, -8
 2375              		.cfi_offset 14, -4
 2376 0002 82B0     		sub	sp, sp, #8
 2377              		.cfi_def_cfa_offset 16
 2378 0004 00AF     		add	r7, sp, #0
 2379              		.cfi_def_cfa_register 7
 506:../app/app.c  **** 	uint8_t ret = 0;
 2380              		.loc 1 506 10
 2381 0006 0023     		movs	r3, #0
 2382 0008 FB71     		strb	r3, [r7, #7]
 507:../app/app.c  **** 
 508:../app/app.c  **** 	switch(app_task_step)
 2383              		.loc 1 508 2
 2384 000a 0B4B     		ldr	r3, .L210
 2385 000c 1B78     		ldrb	r3, [r3]	@ zero_extendqisi2
 2386 000e 032B     		cmp	r3, #3
 2387 0010 0CD1     		bne	.L208
 509:../app/app.c  **** 	{
 510:../app/app.c  **** 	case APP_NORMAL_STATE:
 511:../app/app.c  **** 		switch(app_task_substep){
 2388              		.loc 1 511 3
 2389 0012 0A4B     		ldr	r3, .L210+4
 2390 0014 1B78     		ldrb	r3, [r3]	@ zero_extendqisi2
 2391 0016 073B     		subs	r3, r3, #7
 2392 0018 012B     		cmp	r3, #1
 2393 001a 03D9     		bls	.L209
 512:../app/app.c  **** 		case NORMAL_STEAM_INIT_STATE:
 513:../app/app.c  **** 		case NORMAL_STEAM_RUN_STATE:
 514:../app/app.c  **** 			break;
 515:../app/app.c  **** 		default:
 516:../app/app.c  **** 			app_task_nextsubstep(NORMAL_STEAM_INIT_STATE);
 2394              		.loc 1 516 4
 2395 001c 0720     		movs	r0, #7
 2396 001e FFF7FEFF 		bl	app_task_nextsubstep
 517:../app/app.c  **** 			break;
 2397              		.loc 1 517 4
 2398 0022 00E0     		b	.L205
 2399              	.L209:
 514:../app/app.c  **** 		default:
 2400              		.loc 1 514 4
 2401 0024 00BF     		nop
 2402              	.L205:
 518:../app/app.c  **** 		}
 519:../app/app.c  **** 		ret = 1;
 2403              		.loc 1 519 7
 2404 0026 0123     		movs	r3, #1
 2405 0028 FB71     		strb	r3, [r7, #7]
 520:../app/app.c  **** 		break;
 2406              		.loc 1 520 3
 2407 002a 00E0     		b	.L206
 2408              	.L208:
 521:../app/app.c  **** 	default:
 522:../app/app.c  **** 		break;
 2409              		.loc 1 522 3
 2410 002c 00BF     		nop
 2411              	.L206:
 523:../app/app.c  **** 	}
 524:../app/app.c  **** 	return ret;
 2412              		.loc 1 524 9
 2413 002e FB79     		ldrb	r3, [r7, #7]	@ zero_extendqisi2
 525:../app/app.c  **** }
 2414              		.loc 1 525 1
 2415 0030 1846     		mov	r0, r3
 2416 0032 0837     		adds	r7, r7, #8
 2417              		.cfi_def_cfa_offset 8
 2418 0034 BD46     		mov	sp, r7
 2419              		.cfi_def_cfa_register 13
 2420              		@ sp needed
 2421 0036 80BD     		pop	{r7, pc}
 2422              	.L211:
 2423              		.align	2
 2424              	.L210:
 2425 0038 00000000 		.word	app_task_step
 2426 003c 00000000 		.word	app_task_substep
 2427              		.cfi_endproc
 2428              	.LFE157:
 2430              		.section	.text.app_ame_key_deal,"ax",%progbits
 2431              		.align	1
 2432              		.global	app_ame_key_deal
 2433              		.syntax unified
 2434              		.thumb
 2435              		.thumb_func
 2436              		.fpu softvfp
 2438              	app_ame_key_deal:
 2439              	.LFB158:
 526:../app/app.c  **** 
 527:../app/app.c  **** uint8_t app_ame_key_deal(void)
 528:../app/app.c  **** {
 2440              		.loc 1 528 1
 2441              		.cfi_startproc
 2442              		@ args = 0, pretend = 0, frame = 8
 2443              		@ frame_needed = 1, uses_anonymous_args = 0
 2444 0000 80B5     		push	{r7, lr}
 2445              		.cfi_def_cfa_offset 8
 2446              		.cfi_offset 7, -8
 2447              		.cfi_offset 14, -4
 2448 0002 82B0     		sub	sp, sp, #8
 2449              		.cfi_def_cfa_offset 16
 2450 0004 00AF     		add	r7, sp, #0
 2451              		.cfi_def_cfa_register 7
 529:../app/app.c  **** 	uint8_t ret = 0;
 2452              		.loc 1 529 10
 2453 0006 0023     		movs	r3, #0
 2454 0008 FB71     		strb	r3, [r7, #7]
 530:../app/app.c  **** 
 531:../app/app.c  **** 	switch(app_task_step)
 2455              		.loc 1 531 2
 2456 000a 1C4B     		ldr	r3, .L221
 2457 000c 1B78     		ldrb	r3, [r3]	@ zero_extendqisi2
 2458 000e 032B     		cmp	r3, #3
 2459 0010 2ED1     		bne	.L220
 532:../app/app.c  **** 	{
 533:../app/app.c  **** 	case APP_NORMAL_STATE:
 534:../app/app.c  **** 		switch(app_task_substep){
 2460              		.loc 1 534 3
 2461 0012 1B4B     		ldr	r3, .L221+4
 2462 0014 1B78     		ldrb	r3, [r3]	@ zero_extendqisi2
 2463 0016 033B     		subs	r3, r3, #3
 2464 0018 012B     		cmp	r3, #1
 2465 001a 22D8     		bhi	.L214
 535:../app/app.c  **** 		case NORMAL_AMERICANO_INIT_STATE:
 536:../app/app.c  **** 		case NORMAL_AMERICANO_RUN_STATE:
 537:../app/app.c  **** 			manual_setup.cup++;
 2466              		.loc 1 537 16
 2467 001c 194B     		ldr	r3, .L221+8
 2468 001e 1B78     		ldrb	r3, [r3]	@ zero_extendqisi2
 2469              		.loc 1 537 20
 2470 0020 0133     		adds	r3, r3, #1
 2471 0022 DAB2     		uxtb	r2, r3
 2472 0024 174B     		ldr	r3, .L221+8
 2473 0026 1A70     		strb	r2, [r3]
 538:../app/app.c  **** 			manual_setup.cup &= 0x01;
 2474              		.loc 1 538 21
 2475 0028 164B     		ldr	r3, .L221+8
 2476 002a 1B78     		ldrb	r3, [r3]	@ zero_extendqisi2
 2477 002c 03F00103 		and	r3, r3, #1
 2478 0030 DAB2     		uxtb	r2, r3
 2479 0032 144B     		ldr	r3, .L221+8
 2480 0034 1A70     		strb	r2, [r3]
 539:../app/app.c  **** 			display_led(AMERICANO1_LED, LED_OFF);
 2481              		.loc 1 539 4
 2482 0036 0021     		movs	r1, #0
 2483 0038 0F20     		movs	r0, #15
 2484 003a FFF7FEFF 		bl	display_led
 540:../app/app.c  **** 			display_led(AMERICANO2_LED, LED_OFF);
 2485              		.loc 1 540 4
 2486 003e 0021     		movs	r1, #0
 2487 0040 0620     		movs	r0, #6
 2488 0042 FFF7FEFF 		bl	display_led
 541:../app/app.c  **** 			if (manual_setup.cup){
 2489              		.loc 1 541 20
 2490 0046 0F4B     		ldr	r3, .L221+8
 2491 0048 1B78     		ldrb	r3, [r3]	@ zero_extendqisi2
 2492              		.loc 1 541 7
 2493 004a 002B     		cmp	r3, #0
 2494 004c 04D0     		beq	.L215
 542:../app/app.c  **** 				display_led(AMERICANO2_LED, LED_ON);
 2495              		.loc 1 542 5
 2496 004e 0121     		movs	r1, #1
 2497 0050 0620     		movs	r0, #6
 2498 0052 FFF7FEFF 		bl	display_led
 543:../app/app.c  **** 			}
 544:../app/app.c  **** 			else{
 545:../app/app.c  **** 				display_led(AMERICANO1_LED, LED_ON);
 546:../app/app.c  **** 			}
 547:../app/app.c  **** 			break;
 2499              		.loc 1 547 4
 2500 0056 08E0     		b	.L217
 2501              	.L215:
 545:../app/app.c  **** 			}
 2502              		.loc 1 545 5
 2503 0058 0121     		movs	r1, #1
 2504 005a 0F20     		movs	r0, #15
 2505 005c FFF7FEFF 		bl	display_led
 2506              		.loc 1 547 4
 2507 0060 03E0     		b	.L217
 2508              	.L214:
 548:../app/app.c  **** 		default:
 549:../app/app.c  **** 			app_task_nextsubstep(NORMAL_AMERICANO_INIT_STATE);
 2509              		.loc 1 549 4
 2510 0062 0320     		movs	r0, #3
 2511 0064 FFF7FEFF 		bl	app_task_nextsubstep
 550:../app/app.c  **** 			break;
 2512              		.loc 1 550 4
 2513 0068 00BF     		nop
 2514              	.L217:
 551:../app/app.c  **** 		}
 552:../app/app.c  **** 		ret = 1;
 2515              		.loc 1 552 7
 2516 006a 0123     		movs	r3, #1
 2517 006c FB71     		strb	r3, [r7, #7]
 553:../app/app.c  **** 		break;
 2518              		.loc 1 553 3
 2519 006e 00E0     		b	.L218
 2520              	.L220:
 554:../app/app.c  **** 	default:
 555:../app/app.c  **** 		break;
 2521              		.loc 1 555 3
 2522 0070 00BF     		nop
 2523              	.L218:
 556:../app/app.c  **** 	}
 557:../app/app.c  **** 	return ret;
 2524              		.loc 1 557 9
 2525 0072 FB79     		ldrb	r3, [r7, #7]	@ zero_extendqisi2
 558:../app/app.c  **** }
 2526              		.loc 1 558 1
 2527 0074 1846     		mov	r0, r3
 2528 0076 0837     		adds	r7, r7, #8
 2529              		.cfi_def_cfa_offset 8
 2530 0078 BD46     		mov	sp, r7
 2531              		.cfi_def_cfa_register 13
 2532              		@ sp needed
 2533 007a 80BD     		pop	{r7, pc}
 2534              	.L222:
 2535              		.align	2
 2536              	.L221:
 2537 007c 00000000 		.word	app_task_step
 2538 0080 00000000 		.word	app_task_substep
 2539 0084 00000000 		.word	manual_setup
 2540              		.cfi_endproc
 2541              	.LFE158:
 2543              		.section	.text.app_coffee_key_deal,"ax",%progbits
 2544              		.align	1
 2545              		.global	app_coffee_key_deal
 2546              		.syntax unified
 2547              		.thumb
 2548              		.thumb_func
 2549              		.fpu softvfp
 2551              	app_coffee_key_deal:
 2552              	.LFB159:
 559:../app/app.c  **** 
 560:../app/app.c  **** uint8_t app_coffee_key_deal(void)
 561:../app/app.c  **** {
 2553              		.loc 1 561 1
 2554              		.cfi_startproc
 2555              		@ args = 0, pretend = 0, frame = 8
 2556              		@ frame_needed = 1, uses_anonymous_args = 0
 2557 0000 80B5     		push	{r7, lr}
 2558              		.cfi_def_cfa_offset 8
 2559              		.cfi_offset 7, -8
 2560              		.cfi_offset 14, -4
 2561 0002 82B0     		sub	sp, sp, #8
 2562              		.cfi_def_cfa_offset 16
 2563 0004 00AF     		add	r7, sp, #0
 2564              		.cfi_def_cfa_register 7
 562:../app/app.c  **** 	uint8_t ret = 0;
 2565              		.loc 1 562 10
 2566 0006 0023     		movs	r3, #0
 2567 0008 FB71     		strb	r3, [r7, #7]
 563:../app/app.c  **** 
 564:../app/app.c  **** 	switch(app_task_step)
 2568              		.loc 1 564 2
 2569 000a 1E4B     		ldr	r3, .L238
 2570 000c 1B78     		ldrb	r3, [r3]	@ zero_extendqisi2
 2571 000e 032B     		cmp	r3, #3
 2572 0010 31D1     		bne	.L235
 565:../app/app.c  **** 	{
 566:../app/app.c  **** 	case APP_NORMAL_STATE:
 567:../app/app.c  **** 		switch(app_task_substep){
 2573              		.loc 1 567 3
 2574 0012 1D4B     		ldr	r3, .L238+4
 2575 0014 1B78     		ldrb	r3, [r3]	@ zero_extendqisi2
 2576 0016 022B     		cmp	r3, #2
 2577 0018 01D0     		beq	.L225
 2578 001a 042B     		cmp	r3, #4
 2579 001c 29D1     		bne	.L236
 2580              	.L225:
 568:../app/app.c  **** 		case NORMAL_AMERICANO_RUN_STATE:
 569:../app/app.c  **** 		case NORMAL_ESPRESSO_RUN_STATE:
 570:../app/app.c  **** 			display_led(COFFEE4_LED, LED_OFF);
 2581              		.loc 1 570 4 discriminator 1
 2582 001e 0021     		movs	r1, #0
 2583 0020 1320     		movs	r0, #19
 2584 0022 FFF7FEFF 		bl	display_led
 571:../app/app.c  **** 			display_led(COFFEE3_LED, LED_OFF);
 2585              		.loc 1 571 4 discriminator 1
 2586 0026 0021     		movs	r1, #0
 2587 0028 0D20     		movs	r0, #13
 2588 002a FFF7FEFF 		bl	display_led
 572:../app/app.c  **** 			manual_setup.coffee++;
 2589              		.loc 1 572 16 discriminator 1
 2590 002e 174B     		ldr	r3, .L238+8
 2591 0030 5B78     		ldrb	r3, [r3, #1]	@ zero_extendqisi2
 2592              		.loc 1 572 23 discriminator 1
 2593 0032 0133     		adds	r3, r3, #1
 2594 0034 DAB2     		uxtb	r2, r3
 2595 0036 154B     		ldr	r3, .L238+8
 2596 0038 5A70     		strb	r2, [r3, #1]
 573:../app/app.c  **** 			switch(manual_setup.coffee){
 2597              		.loc 1 573 23 discriminator 1
 2598 003a 144B     		ldr	r3, .L238+8
 2599 003c 5B78     		ldrb	r3, [r3, #1]	@ zero_extendqisi2
 2600 003e 032B     		cmp	r3, #3
 2601 0040 06D0     		beq	.L227
 2602 0042 032B     		cmp	r3, #3
 2603 0044 11DC     		bgt	.L237
 2604 0046 012B     		cmp	r3, #1
 2605 0048 0AD0     		beq	.L229
 2606 004a 022B     		cmp	r3, #2
 2607 004c 04D0     		beq	.L230
 574:../app/app.c  **** 			case 3:
 575:../app/app.c  **** 				manual_setup.coffee = 0;
 576:../app/app.c  **** 				break;
 577:../app/app.c  **** 			case 2:
 578:../app/app.c  **** 				display_led(COFFEE4_LED, LED_ON);
 579:../app/app.c  **** 			case 1:
 580:../app/app.c  **** 				display_led(COFFEE3_LED, LED_ON);
 581:../app/app.c  **** 				break;
 582:../app/app.c  **** 			default:
 583:../app/app.c  **** 				break;
 2608              		.loc 1 583 5
 2609 004e 0CE0     		b	.L237
 2610              	.L227:
 575:../app/app.c  **** 				break;
 2611              		.loc 1 575 25
 2612 0050 0E4B     		ldr	r3, .L238+8
 2613 0052 0022     		movs	r2, #0
 2614 0054 5A70     		strb	r2, [r3, #1]
 576:../app/app.c  **** 			case 2:
 2615              		.loc 1 576 5
 2616 0056 09E0     		b	.L231
 2617              	.L230:
 578:../app/app.c  **** 			case 1:
 2618              		.loc 1 578 5
 2619 0058 0121     		movs	r1, #1
 2620 005a 1320     		movs	r0, #19
 2621 005c FFF7FEFF 		bl	display_led
 2622              	.L229:
 580:../app/app.c  **** 				break;
 2623              		.loc 1 580 5
 2624 0060 0121     		movs	r1, #1
 2625 0062 0D20     		movs	r0, #13
 2626 0064 FFF7FEFF 		bl	display_led
 581:../app/app.c  **** 			default:
 2627              		.loc 1 581 5
 2628 0068 00E0     		b	.L231
 2629              	.L237:
 2630              		.loc 1 583 5
 2631 006a 00BF     		nop
 2632              	.L231:
 584:../app/app.c  **** 			}
 585:../app/app.c  **** 			ret = 1;
 2633              		.loc 1 585 8
 2634 006c 0123     		movs	r3, #1
 2635 006e FB71     		strb	r3, [r7, #7]
 586:../app/app.c  **** 			break;
 2636              		.loc 1 586 4
 2637 0070 00E0     		b	.L232
 2638              	.L236:
 587:../app/app.c  **** 		default:
 588:../app/app.c  **** 			break;
 2639              		.loc 1 588 4
 2640 0072 00BF     		nop
 2641              	.L232:
 589:../app/app.c  **** 		}
 590:../app/app.c  **** 		break;
 2642              		.loc 1 590 3
 2643 0074 00E0     		b	.L233
 2644              	.L235:
 591:../app/app.c  **** 	default:
 592:../app/app.c  **** 		break;
 2645              		.loc 1 592 3
 2646 0076 00BF     		nop
 2647              	.L233:
 593:../app/app.c  **** 	}
 594:../app/app.c  **** 	return ret;
 2648              		.loc 1 594 9
 2649 0078 FB79     		ldrb	r3, [r7, #7]	@ zero_extendqisi2
 595:../app/app.c  **** }
 2650              		.loc 1 595 1
 2651 007a 1846     		mov	r0, r3
 2652 007c 0837     		adds	r7, r7, #8
 2653              		.cfi_def_cfa_offset 8
 2654 007e BD46     		mov	sp, r7
 2655              		.cfi_def_cfa_register 13
 2656              		@ sp needed
 2657 0080 80BD     		pop	{r7, pc}
 2658              	.L239:
 2659 0082 00BF     		.align	2
 2660              	.L238:
 2661 0084 00000000 		.word	app_task_step
 2662 0088 00000000 		.word	app_task_substep
 2663 008c 00000000 		.word	manual_setup
 2664              		.cfi_endproc
 2665              	.LFE159:
 2667              		.section	.text.app_water_key_deal,"ax",%progbits
 2668              		.align	1
 2669              		.global	app_water_key_deal
 2670              		.syntax unified
 2671              		.thumb
 2672              		.thumb_func
 2673              		.fpu softvfp
 2675              	app_water_key_deal:
 2676              	.LFB160:
 596:../app/app.c  **** 
 597:../app/app.c  **** uint8_t app_water_key_deal(void)
 598:../app/app.c  **** {
 2677              		.loc 1 598 1
 2678              		.cfi_startproc
 2679              		@ args = 0, pretend = 0, frame = 8
 2680              		@ frame_needed = 1, uses_anonymous_args = 0
 2681 0000 80B5     		push	{r7, lr}
 2682              		.cfi_def_cfa_offset 8
 2683              		.cfi_offset 7, -8
 2684              		.cfi_offset 14, -4
 2685 0002 82B0     		sub	sp, sp, #8
 2686              		.cfi_def_cfa_offset 16
 2687 0004 00AF     		add	r7, sp, #0
 2688              		.cfi_def_cfa_register 7
 599:../app/app.c  **** 	uint8_t ret = 0;
 2689              		.loc 1 599 10
 2690 0006 0023     		movs	r3, #0
 2691 0008 FB71     		strb	r3, [r7, #7]
 600:../app/app.c  **** 
 601:../app/app.c  **** 	switch(app_task_step)
 2692              		.loc 1 601 2
 2693 000a 254B     		ldr	r3, .L254
 2694 000c 1B78     		ldrb	r3, [r3]	@ zero_extendqisi2
 2695 000e 032B     		cmp	r3, #3
 2696 0010 40D1     		bne	.L251
 602:../app/app.c  **** 	{
 603:../app/app.c  **** 	case APP_NORMAL_STATE:
 604:../app/app.c  **** 		switch(app_task_substep){
 2697              		.loc 1 604 3
 2698 0012 244B     		ldr	r3, .L254+4
 2699 0014 1B78     		ldrb	r3, [r3]	@ zero_extendqisi2
 2700 0016 062B     		cmp	r3, #6
 2701 0018 8CBF     		ite	hi
 2702 001a 0122     		movhi	r2, #1
 2703 001c 0022     		movls	r2, #0
 2704 001e D2B2     		uxtb	r2, r2
 2705 0020 002A     		cmp	r2, #0
 2706 0022 35D1     		bne	.L252
 2707 0024 0122     		movs	r2, #1
 2708 0026 02FA03F3 		lsl	r3, r2, r3
 2709 002a 03F05403 		and	r3, r3, #84
 2710 002e 002B     		cmp	r3, #0
 2711 0030 14BF     		ite	ne
 2712 0032 0123     		movne	r3, #1
 2713 0034 0023     		moveq	r3, #0
 2714 0036 DBB2     		uxtb	r3, r3
 2715 0038 002B     		cmp	r3, #0
 2716 003a 29D0     		beq	.L252
 605:../app/app.c  **** 		case NORMAL_AMERICANO_RUN_STATE:
 606:../app/app.c  **** 		case NORMAL_ESPRESSO_RUN_STATE:
 607:../app/app.c  **** 		case NORMAL_HOTWATER_RUN_STATE:
 608:../app/app.c  **** 			display_led(WATER3_LED, LED_OFF);
 2717              		.loc 1 608 4 discriminator 1
 2718 003c 0021     		movs	r1, #0
 2719 003e 1020     		movs	r0, #16
 2720 0040 FFF7FEFF 		bl	display_led
 609:../app/app.c  **** 			display_led(WATER2_LED, LED_OFF);
 2721              		.loc 1 609 4 discriminator 1
 2722 0044 0021     		movs	r1, #0
 2723 0046 1920     		movs	r0, #25
 2724 0048 FFF7FEFF 		bl	display_led
 610:../app/app.c  **** 			manual_setup.water++;
 2725              		.loc 1 610 16 discriminator 1
 2726 004c 164B     		ldr	r3, .L254+8
 2727 004e 9B78     		ldrb	r3, [r3, #2]	@ zero_extendqisi2
 2728              		.loc 1 610 22 discriminator 1
 2729 0050 0133     		adds	r3, r3, #1
 2730 0052 DAB2     		uxtb	r2, r3
 2731 0054 144B     		ldr	r3, .L254+8
 2732 0056 9A70     		strb	r2, [r3, #2]
 611:../app/app.c  **** 			switch(manual_setup.water){
 2733              		.loc 1 611 23 discriminator 1
 2734 0058 134B     		ldr	r3, .L254+8
 2735 005a 9B78     		ldrb	r3, [r3, #2]	@ zero_extendqisi2
 2736 005c 032B     		cmp	r3, #3
 2737 005e 06D0     		beq	.L243
 2738 0060 032B     		cmp	r3, #3
 2739 0062 11DC     		bgt	.L253
 2740 0064 012B     		cmp	r3, #1
 2741 0066 0AD0     		beq	.L245
 2742 0068 022B     		cmp	r3, #2
 2743 006a 04D0     		beq	.L246
 612:../app/app.c  **** 			case 3:
 613:../app/app.c  **** 				manual_setup.water = 0;
 614:../app/app.c  **** 				break;
 615:../app/app.c  **** 			case 2:
 616:../app/app.c  **** 				display_led(WATER3_LED, LED_ON);
 617:../app/app.c  **** 			case 1:
 618:../app/app.c  **** 				display_led(WATER2_LED, LED_ON);
 619:../app/app.c  **** 				break;
 620:../app/app.c  **** 			default:
 621:../app/app.c  **** 				break;
 2744              		.loc 1 621 5
 2745 006c 0CE0     		b	.L253
 2746              	.L243:
 613:../app/app.c  **** 				break;
 2747              		.loc 1 613 24
 2748 006e 0E4B     		ldr	r3, .L254+8
 2749 0070 0022     		movs	r2, #0
 2750 0072 9A70     		strb	r2, [r3, #2]
 614:../app/app.c  **** 			case 2:
 2751              		.loc 1 614 5
 2752 0074 09E0     		b	.L247
 2753              	.L246:
 616:../app/app.c  **** 			case 1:
 2754              		.loc 1 616 5
 2755 0076 0121     		movs	r1, #1
 2756 0078 1020     		movs	r0, #16
 2757 007a FFF7FEFF 		bl	display_led
 2758              	.L245:
 618:../app/app.c  **** 				break;
 2759              		.loc 1 618 5
 2760 007e 0121     		movs	r1, #1
 2761 0080 1920     		movs	r0, #25
 2762 0082 FFF7FEFF 		bl	display_led
 619:../app/app.c  **** 			default:
 2763              		.loc 1 619 5
 2764 0086 00E0     		b	.L247
 2765              	.L253:
 2766              		.loc 1 621 5
 2767 0088 00BF     		nop
 2768              	.L247:
 622:../app/app.c  **** 			}
 623:../app/app.c  **** 			ret = 1;
 2769              		.loc 1 623 8
 2770 008a 0123     		movs	r3, #1
 2771 008c FB71     		strb	r3, [r7, #7]
 624:../app/app.c  **** 			break;
 2772              		.loc 1 624 4
 2773 008e 00E0     		b	.L248
 2774              	.L252:
 625:../app/app.c  **** 		default:
 626:../app/app.c  **** 			break;
 2775              		.loc 1 626 4
 2776 0090 00BF     		nop
 2777              	.L248:
 627:../app/app.c  **** 		}
 628:../app/app.c  **** 		break;
 2778              		.loc 1 628 3
 2779 0092 00E0     		b	.L249
 2780              	.L251:
 629:../app/app.c  **** 	default:
 630:../app/app.c  **** 		break;
 2781              		.loc 1 630 3
 2782 0094 00BF     		nop
 2783              	.L249:
 631:../app/app.c  **** 	}
 632:../app/app.c  **** 	return ret;
 2784              		.loc 1 632 9
 2785 0096 FB79     		ldrb	r3, [r7, #7]	@ zero_extendqisi2
 633:../app/app.c  **** }
 2786              		.loc 1 633 1
 2787 0098 1846     		mov	r0, r3
 2788 009a 0837     		adds	r7, r7, #8
 2789              		.cfi_def_cfa_offset 8
 2790 009c BD46     		mov	sp, r7
 2791              		.cfi_def_cfa_register 13
 2792              		@ sp needed
 2793 009e 80BD     		pop	{r7, pc}
 2794              	.L255:
 2795              		.align	2
 2796              	.L254:
 2797 00a0 00000000 		.word	app_task_step
 2798 00a4 00000000 		.word	app_task_substep
 2799 00a8 00000000 		.word	manual_setup
 2800              		.cfi_endproc
 2801              	.LFE160:
 2803              		.section	.text.app_calc_key_deal,"ax",%progbits
 2804              		.align	1
 2805              		.global	app_calc_key_deal
 2806              		.syntax unified
 2807              		.thumb
 2808              		.thumb_func
 2809              		.fpu softvfp
 2811              	app_calc_key_deal:
 2812              	.LFB161:
 634:../app/app.c  **** 
 635:../app/app.c  **** uint8_t app_calc_key_deal(void)
 636:../app/app.c  **** {
 2813              		.loc 1 636 1
 2814              		.cfi_startproc
 2815              		@ args = 0, pretend = 0, frame = 8
 2816              		@ frame_needed = 1, uses_anonymous_args = 0
 2817 0000 80B5     		push	{r7, lr}
 2818              		.cfi_def_cfa_offset 8
 2819              		.cfi_offset 7, -8
 2820              		.cfi_offset 14, -4
 2821 0002 82B0     		sub	sp, sp, #8
 2822              		.cfi_def_cfa_offset 16
 2823 0004 00AF     		add	r7, sp, #0
 2824              		.cfi_def_cfa_register 7
 637:../app/app.c  **** 	uint8_t ret = 0;
 2825              		.loc 1 637 10
 2826 0006 0023     		movs	r3, #0
 2827 0008 FB71     		strb	r3, [r7, #7]
 638:../app/app.c  **** 
 639:../app/app.c  **** 	switch(app_task_step)
 2828              		.loc 1 639 2
 2829 000a 0B4B     		ldr	r3, .L264
 2830 000c 1B78     		ldrb	r3, [r3]	@ zero_extendqisi2
 2831 000e 032B     		cmp	r3, #3
 2832 0010 0CD1     		bne	.L262
 640:../app/app.c  **** 	{
 641:../app/app.c  **** 	case APP_NORMAL_STATE:
 642:../app/app.c  **** 		switch(app_task_substep){
 2833              		.loc 1 642 3
 2834 0012 0A4B     		ldr	r3, .L264+4
 2835 0014 1B78     		ldrb	r3, [r3]	@ zero_extendqisi2
 2836 0016 0B3B     		subs	r3, r3, #11
 2837 0018 012B     		cmp	r3, #1
 2838 001a 03D9     		bls	.L263
 643:../app/app.c  **** 		case NORMAL_CALC_INIT_STATE:
 644:../app/app.c  **** 		case NORMAL_CALC_RUN_STATE:
 645:../app/app.c  **** 			break;
 646:../app/app.c  **** 		default:
 647:../app/app.c  **** 			app_task_nextsubstep(NORMAL_CALC_INIT_STATE);
 2839              		.loc 1 647 4
 2840 001c 0B20     		movs	r0, #11
 2841 001e FFF7FEFF 		bl	app_task_nextsubstep
 648:../app/app.c  **** 			break;
 2842              		.loc 1 648 4
 2843 0022 00E0     		b	.L259
 2844              	.L263:
 645:../app/app.c  **** 		default:
 2845              		.loc 1 645 4
 2846 0024 00BF     		nop
 2847              	.L259:
 649:../app/app.c  **** 		}
 650:../app/app.c  **** 		ret = 1;
 2848              		.loc 1 650 7
 2849 0026 0123     		movs	r3, #1
 2850 0028 FB71     		strb	r3, [r7, #7]
 651:../app/app.c  **** 		break;
 2851              		.loc 1 651 3
 2852 002a 00E0     		b	.L260
 2853              	.L262:
 652:../app/app.c  **** 	default:
 653:../app/app.c  **** 		break;
 2854              		.loc 1 653 3
 2855 002c 00BF     		nop
 2856              	.L260:
 654:../app/app.c  **** 	}
 655:../app/app.c  **** 	return ret;
 2857              		.loc 1 655 9
 2858 002e FB79     		ldrb	r3, [r7, #7]	@ zero_extendqisi2
 656:../app/app.c  **** }
 2859              		.loc 1 656 1
 2860 0030 1846     		mov	r0, r3
 2861 0032 0837     		adds	r7, r7, #8
 2862              		.cfi_def_cfa_offset 8
 2863 0034 BD46     		mov	sp, r7
 2864              		.cfi_def_cfa_register 13
 2865              		@ sp needed
 2866 0036 80BD     		pop	{r7, pc}
 2867              	.L265:
 2868              		.align	2
 2869              	.L264:
 2870 0038 00000000 		.word	app_task_step
 2871 003c 00000000 		.word	app_task_substep
 2872              		.cfi_endproc
 2873              	.LFE161:
 2875              		.section	.text.app_aqua_key_deal,"ax",%progbits
 2876              		.align	1
 2877              		.global	app_aqua_key_deal
 2878              		.syntax unified
 2879              		.thumb
 2880              		.thumb_func
 2881              		.fpu softvfp
 2883              	app_aqua_key_deal:
 2884              	.LFB162:
 657:../app/app.c  **** 
 658:../app/app.c  **** uint8_t app_aqua_key_deal(void)
 659:../app/app.c  **** {
 2885              		.loc 1 659 1
 2886              		.cfi_startproc
 2887              		@ args = 0, pretend = 0, frame = 8
 2888              		@ frame_needed = 1, uses_anonymous_args = 0
 2889 0000 80B5     		push	{r7, lr}
 2890              		.cfi_def_cfa_offset 8
 2891              		.cfi_offset 7, -8
 2892              		.cfi_offset 14, -4
 2893 0002 82B0     		sub	sp, sp, #8
 2894              		.cfi_def_cfa_offset 16
 2895 0004 00AF     		add	r7, sp, #0
 2896              		.cfi_def_cfa_register 7
 660:../app/app.c  **** 	uint8_t ret = 0;
 2897              		.loc 1 660 10
 2898 0006 0023     		movs	r3, #0
 2899 0008 FB71     		strb	r3, [r7, #7]
 661:../app/app.c  **** 
 662:../app/app.c  **** 	switch(app_task_step)
 2900              		.loc 1 662 2
 2901 000a 0B4B     		ldr	r3, .L274
 2902 000c 1B78     		ldrb	r3, [r3]	@ zero_extendqisi2
 2903 000e 032B     		cmp	r3, #3
 2904 0010 0CD1     		bne	.L272
 663:../app/app.c  **** 	{
 664:../app/app.c  **** 	case APP_NORMAL_STATE:
 665:../app/app.c  **** 		switch(app_task_substep){
 2905              		.loc 1 665 3
 2906 0012 0A4B     		ldr	r3, .L274+4
 2907 0014 1B78     		ldrb	r3, [r3]	@ zero_extendqisi2
 2908 0016 093B     		subs	r3, r3, #9
 2909 0018 012B     		cmp	r3, #1
 2910 001a 03D9     		bls	.L273
 666:../app/app.c  **** 		case NORMAL_AQUA_INIT_STATE:
 667:../app/app.c  **** 		case NORMAL_AQUA_RUN_STATE:
 668:../app/app.c  **** 			break;
 669:../app/app.c  **** 		default:
 670:../app/app.c  **** 			app_task_nextsubstep(NORMAL_AQUA_INIT_STATE);
 2911              		.loc 1 670 4
 2912 001c 0920     		movs	r0, #9
 2913 001e FFF7FEFF 		bl	app_task_nextsubstep
 671:../app/app.c  **** 			break;
 2914              		.loc 1 671 4
 2915 0022 00E0     		b	.L269
 2916              	.L273:
 668:../app/app.c  **** 		default:
 2917              		.loc 1 668 4
 2918 0024 00BF     		nop
 2919              	.L269:
 672:../app/app.c  **** 		}
 673:../app/app.c  **** 		ret = 1;
 2920              		.loc 1 673 7
 2921 0026 0123     		movs	r3, #1
 2922 0028 FB71     		strb	r3, [r7, #7]
 674:../app/app.c  **** 		break;
 2923              		.loc 1 674 3
 2924 002a 00E0     		b	.L270
 2925              	.L272:
 675:../app/app.c  **** 	default:
 676:../app/app.c  **** 		break;
 2926              		.loc 1 676 3
 2927 002c 00BF     		nop
 2928              	.L270:
 677:../app/app.c  **** 	}
 678:../app/app.c  **** 	return ret;
 2929              		.loc 1 678 9
 2930 002e FB79     		ldrb	r3, [r7, #7]	@ zero_extendqisi2
 679:../app/app.c  **** }
 2931              		.loc 1 679 1
 2932 0030 1846     		mov	r0, r3
 2933 0032 0837     		adds	r7, r7, #8
 2934              		.cfi_def_cfa_offset 8
 2935 0034 BD46     		mov	sp, r7
 2936              		.cfi_def_cfa_register 13
 2937              		@ sp needed
 2938 0036 80BD     		pop	{r7, pc}
 2939              	.L275:
 2940              		.align	2
 2941              	.L274:
 2942 0038 00000000 		.word	app_task_step
 2943 003c 00000000 		.word	app_task_substep
 2944              		.cfi_endproc
 2945              	.LFE162:
 2947              		.section	.text.app_pad_key_deal,"ax",%progbits
 2948              		.align	1
 2949              		.global	app_pad_key_deal
 2950              		.syntax unified
 2951              		.thumb
 2952              		.thumb_func
 2953              		.fpu softvfp
 2955              	app_pad_key_deal:
 2956              	.LFB163:
 680:../app/app.c  **** 
 681:../app/app.c  **** 
 682:../app/app.c  **** void app_pad_key_deal(void)
 683:../app/app.c  **** {
 2957              		.loc 1 683 1
 2958              		.cfi_startproc
 2959              		@ args = 0, pretend = 0, frame = 0
 2960              		@ frame_needed = 1, uses_anonymous_args = 0
 2961              		@ link register save eliminated.
 2962 0000 80B4     		push	{r7}
 2963              		.cfi_def_cfa_offset 4
 2964              		.cfi_offset 7, -4
 2965 0002 00AF     		add	r7, sp, #0
 2966              		.cfi_def_cfa_register 7
 684:../app/app.c  **** 	switch(app_task_step)
 2967              		.loc 1 684 2
 2968 0004 034B     		ldr	r3, .L279
 2969 0006 1B78     		ldrb	r3, [r3]	@ zero_extendqisi2
 2970 0008 032B     		cmp	r3, #3
 685:../app/app.c  **** 	{
 686:../app/app.c  **** 	case APP_NORMAL_STATE:
 687:../app/app.c  **** 		break;
 688:../app/app.c  **** 	default:
 689:../app/app.c  **** 		break;
 2971              		.loc 1 689 3
 2972 000a 00BF     		nop
 690:../app/app.c  **** 	}
 691:../app/app.c  **** }
 2973              		.loc 1 691 1
 2974 000c 00BF     		nop
 2975 000e BD46     		mov	sp, r7
 2976              		.cfi_def_cfa_register 13
 2977              		@ sp needed
 2978 0010 80BC     		pop	{r7}
 2979              		.cfi_restore 7
 2980              		.cfi_def_cfa_offset 0
 2981 0012 7047     		bx	lr
 2982              	.L280:
 2983              		.align	2
 2984              	.L279:
 2985 0014 00000000 		.word	app_task_step
 2986              		.cfi_endproc
 2987              	.LFE163:
 2989              		.section	.text.app_key_handler,"ax",%progbits
 2990              		.align	1
 2991              		.global	app_key_handler
 2992              		.syntax unified
 2993              		.thumb
 2994              		.thumb_func
 2995              		.fpu softvfp
 2997              	app_key_handler:
 2998              	.LFB164:
 692:../app/app.c  **** 
 693:../app/app.c  **** /************************************************************************
 694:../app/app.c  **** * function name: app_key_handler
 695:../app/app.c  **** * input: non
 696:../app/app.c  **** * output: non
 697:../app/app.c  **** * description: this object's message loop
 698:../app/app.c  **** *************************************************************************/
 699:../app/app.c  **** void app_key_handler(_keystruct* pkey)
 700:../app/app.c  **** {
 2999              		.loc 1 700 1
 3000              		.cfi_startproc
 3001              		@ args = 0, pretend = 0, frame = 8
 3002              		@ frame_needed = 1, uses_anonymous_args = 0
 3003 0000 80B5     		push	{r7, lr}
 3004              		.cfi_def_cfa_offset 8
 3005              		.cfi_offset 7, -8
 3006              		.cfi_offset 14, -4
 3007 0002 82B0     		sub	sp, sp, #8
 3008              		.cfi_def_cfa_offset 16
 3009 0004 00AF     		add	r7, sp, #0
 3010              		.cfi_def_cfa_register 7
 3011 0006 7860     		str	r0, [r7, #4]
 701:../app/app.c  **** 	if (pkey->ulLPressF & KEY_ONOFF_MASK){
 3012              		.loc 1 701 10
 3013 0008 7B68     		ldr	r3, [r7, #4]
 3014 000a 5B68     		ldr	r3, [r3, #4]
 3015              		.loc 1 701 22
 3016 000c 03F00103 		and	r3, r3, #1
 3017              		.loc 1 701 5
 3018 0010 002B     		cmp	r3, #0
 3019 0012 02D0     		beq	.L282
 702:../app/app.c  **** 		app_buzzer_on(1);
 3020              		.loc 1 702 3
 3021 0014 0120     		movs	r0, #1
 3022 0016 FFF7FEFF 		bl	app_buzzer_on
 3023              	.L282:
 703:../app/app.c  **** 	}
 704:../app/app.c  **** 	if (pkey->ulReleaseF & KEY_ONOFF_MASK){
 3024              		.loc 1 704 10
 3025 001a 7B68     		ldr	r3, [r7, #4]
 3026 001c 9B68     		ldr	r3, [r3, #8]
 3027              		.loc 1 704 23
 3028 001e 03F00103 		and	r3, r3, #1
 3029              		.loc 1 704 5
 3030 0022 002B     		cmp	r3, #0
 3031 0024 19D0     		beq	.L283
 705:../app/app.c  **** 		if (pkey->ulLPressMaskF & KEY_ONOFF_MASK){
 3032              		.loc 1 705 11
 3033 0026 7B68     		ldr	r3, [r7, #4]
 3034 0028 1B69     		ldr	r3, [r3, #16]
 3035              		.loc 1 705 27
 3036 002a 03F00103 		and	r3, r3, #1
 3037              		.loc 1 705 6
 3038 002e 002B     		cmp	r3, #0
 3039 0030 02D0     		beq	.L284
 706:../app/app.c  **** 			app_onoff_key_deal();
 3040              		.loc 1 706 4
 3041 0032 FFF7FEFF 		bl	app_onoff_key_deal
 3042 0036 0AE0     		b	.L285
 3043              	.L284:
 707:../app/app.c  **** 		}
 708:../app/app.c  **** 		else if (FAIL == app_step_state(APP_IDLE_STATE)){
 3044              		.loc 1 708 20
 3045 0038 0120     		movs	r0, #1
 3046 003a FFF7FEFF 		bl	app_step_state
 3047 003e 0346     		mov	r3, r0
 3048              		.loc 1 708 11
 3049 0040 002B     		cmp	r3, #0
 3050 0042 04D1     		bne	.L285
 709:../app/app.c  **** 			app_buzzer_on(1);
 3051              		.loc 1 709 4
 3052 0044 0120     		movs	r0, #1
 3053 0046 FFF7FEFF 		bl	app_buzzer_on
 710:../app/app.c  **** 			app_onoff_key_deal();
 3054              		.loc 1 710 4
 3055 004a FFF7FEFF 		bl	app_onoff_key_deal
 3056              	.L285:
 711:../app/app.c  **** 		}
 712:../app/app.c  **** 		pkey->ulLPressMaskF &= ~KEY_ONOFF_MASK;
 3057              		.loc 1 712 23
 3058 004e 7B68     		ldr	r3, [r7, #4]
 3059 0050 1B69     		ldr	r3, [r3, #16]
 3060 0052 23F00102 		bic	r2, r3, #1
 3061 0056 7B68     		ldr	r3, [r7, #4]
 3062 0058 1A61     		str	r2, [r3, #16]
 3063              	.L283:
 713:../app/app.c  **** 	}
 714:../app/app.c  **** 	
 715:../app/app.c  **** 	if (pkey->ulReleaseF & KEY_START_MASK) {
 3064              		.loc 1 715 10
 3065 005a 7B68     		ldr	r3, [r7, #4]
 3066 005c 9B68     		ldr	r3, [r3, #8]
 3067              		.loc 1 715 23
 3068 005e 03F01003 		and	r3, r3, #16
 3069              		.loc 1 715 5
 3070 0062 002B     		cmp	r3, #0
 3071 0064 07D0     		beq	.L286
 716:../app/app.c  **** 		if (app_start_key_deal()){
 3072              		.loc 1 716 7
 3073 0066 FFF7FEFF 		bl	app_start_key_deal
 3074 006a 0346     		mov	r3, r0
 3075              		.loc 1 716 6
 3076 006c 002B     		cmp	r3, #0
 3077 006e 02D0     		beq	.L286
 717:../app/app.c  **** 			app_buzzer_on(1);
 3078              		.loc 1 717 4
 3079 0070 0120     		movs	r0, #1
 3080 0072 FFF7FEFF 		bl	app_buzzer_on
 3081              	.L286:
 718:../app/app.c  **** 		}
 719:../app/app.c  **** 	}
 720:../app/app.c  **** 
 721:../app/app.c  **** 	if (pkey->ulReleaseF & KEY_ESPRESSO_MASK) {
 3082              		.loc 1 721 10
 3083 0076 7B68     		ldr	r3, [r7, #4]
 3084 0078 9B68     		ldr	r3, [r3, #8]
 3085              		.loc 1 721 23
 3086 007a 03F00403 		and	r3, r3, #4
 3087              		.loc 1 721 5
 3088 007e 002B     		cmp	r3, #0
 3089 0080 07D0     		beq	.L287
 722:../app/app.c  **** 		if (app_espresso_key_deal()){
 3090              		.loc 1 722 7
 3091 0082 FFF7FEFF 		bl	app_espresso_key_deal
 3092 0086 0346     		mov	r3, r0
 3093              		.loc 1 722 6
 3094 0088 002B     		cmp	r3, #0
 3095 008a 02D0     		beq	.L287
 723:../app/app.c  **** 			app_buzzer_on(1);
 3096              		.loc 1 723 4
 3097 008c 0120     		movs	r0, #1
 3098 008e FFF7FEFF 		bl	app_buzzer_on
 3099              	.L287:
 724:../app/app.c  **** 		}
 725:../app/app.c  **** 	}
 726:../app/app.c  **** 	
 727:../app/app.c  **** 	if (pkey->ulReleaseF & KEY_AMERICANO_MASK) {
 3100              		.loc 1 727 10
 3101 0092 7B68     		ldr	r3, [r7, #4]
 3102 0094 9B68     		ldr	r3, [r3, #8]
 3103              		.loc 1 727 23
 3104 0096 03F02003 		and	r3, r3, #32
 3105              		.loc 1 727 5
 3106 009a 002B     		cmp	r3, #0
 3107 009c 07D0     		beq	.L288
 728:../app/app.c  **** 		if (app_ame_key_deal()){
 3108              		.loc 1 728 7
 3109 009e FFF7FEFF 		bl	app_ame_key_deal
 3110 00a2 0346     		mov	r3, r0
 3111              		.loc 1 728 6
 3112 00a4 002B     		cmp	r3, #0
 3113 00a6 02D0     		beq	.L288
 729:../app/app.c  **** 			app_buzzer_on(1);
 3114              		.loc 1 729 4
 3115 00a8 0120     		movs	r0, #1
 3116 00aa FFF7FEFF 		bl	app_buzzer_on
 3117              	.L288:
 730:../app/app.c  **** 		}
 731:../app/app.c  **** 	}
 732:../app/app.c  **** 
 733:../app/app.c  **** 	if (pkey->ulReleaseF & KEY_HOTWATER_MASK) {
 3118              		.loc 1 733 10
 3119 00ae 7B68     		ldr	r3, [r7, #4]
 3120 00b0 9B68     		ldr	r3, [r3, #8]
 3121              		.loc 1 733 23
 3122 00b2 03F00203 		and	r3, r3, #2
 3123              		.loc 1 733 5
 3124 00b6 002B     		cmp	r3, #0
 3125 00b8 07D0     		beq	.L289
 734:../app/app.c  **** 		if (app_hotwater_key_deal()){
 3126              		.loc 1 734 7
 3127 00ba FFF7FEFF 		bl	app_hotwater_key_deal
 3128 00be 0346     		mov	r3, r0
 3129              		.loc 1 734 6
 3130 00c0 002B     		cmp	r3, #0
 3131 00c2 02D0     		beq	.L289
 735:../app/app.c  **** 			app_buzzer_on(1);
 3132              		.loc 1 735 4
 3133 00c4 0120     		movs	r0, #1
 3134 00c6 FFF7FEFF 		bl	app_buzzer_on
 3135              	.L289:
 736:../app/app.c  **** 		}
 737:../app/app.c  **** 	}
 738:../app/app.c  **** 
 739:../app/app.c  **** 	if (pkey->ulReleaseF & KEY_STEAM_MASK) {
 3136              		.loc 1 739 10
 3137 00ca 7B68     		ldr	r3, [r7, #4]
 3138 00cc 9B68     		ldr	r3, [r3, #8]
 3139              		.loc 1 739 23
 3140 00ce 03F00803 		and	r3, r3, #8
 3141              		.loc 1 739 5
 3142 00d2 002B     		cmp	r3, #0
 3143 00d4 07D0     		beq	.L290
 740:../app/app.c  **** 		if (app_steam_key_deal()){
 3144              		.loc 1 740 7
 3145 00d6 FFF7FEFF 		bl	app_steam_key_deal
 3146 00da 0346     		mov	r3, r0
 3147              		.loc 1 740 6
 3148 00dc 002B     		cmp	r3, #0
 3149 00de 02D0     		beq	.L290
 741:../app/app.c  **** 			app_buzzer_on(1);
 3150              		.loc 1 741 4
 3151 00e0 0120     		movs	r0, #1
 3152 00e2 FFF7FEFF 		bl	app_buzzer_on
 3153              	.L290:
 742:../app/app.c  **** 		}
 743:../app/app.c  **** 	}
 744:../app/app.c  **** 	
 745:../app/app.c  **** 	if (pkey->ulReleaseF & KEY_COFFE_MASK) {
 3154              		.loc 1 745 10
 3155 00e6 7B68     		ldr	r3, [r7, #4]
 3156 00e8 9B68     		ldr	r3, [r3, #8]
 3157              		.loc 1 745 23
 3158 00ea 03F04003 		and	r3, r3, #64
 3159              		.loc 1 745 5
 3160 00ee 002B     		cmp	r3, #0
 3161 00f0 07D0     		beq	.L291
 746:../app/app.c  **** 		if (app_coffee_key_deal()){
 3162              		.loc 1 746 7
 3163 00f2 FFF7FEFF 		bl	app_coffee_key_deal
 3164 00f6 0346     		mov	r3, r0
 3165              		.loc 1 746 6
 3166 00f8 002B     		cmp	r3, #0
 3167 00fa 02D0     		beq	.L291
 747:../app/app.c  **** 			app_buzzer_on(1);
 3168              		.loc 1 747 4
 3169 00fc 0120     		movs	r0, #1
 3170 00fe FFF7FEFF 		bl	app_buzzer_on
 3171              	.L291:
 748:../app/app.c  **** 		}
 749:../app/app.c  **** 	}
 750:../app/app.c  **** 	
 751:../app/app.c  **** 	if (pkey->ulReleaseF & KEY_WATER_MASK) {
 3172              		.loc 1 751 10
 3173 0102 7B68     		ldr	r3, [r7, #4]
 3174 0104 9B68     		ldr	r3, [r3, #8]
 3175              		.loc 1 751 23
 3176 0106 03F48063 		and	r3, r3, #1024
 3177              		.loc 1 751 5
 3178 010a 002B     		cmp	r3, #0
 3179 010c 07D0     		beq	.L292
 752:../app/app.c  **** 		if (app_water_key_deal()){
 3180              		.loc 1 752 7
 3181 010e FFF7FEFF 		bl	app_water_key_deal
 3182 0112 0346     		mov	r3, r0
 3183              		.loc 1 752 6
 3184 0114 002B     		cmp	r3, #0
 3185 0116 02D0     		beq	.L292
 753:../app/app.c  **** 			app_buzzer_on(1);
 3186              		.loc 1 753 4
 3187 0118 0120     		movs	r0, #1
 3188 011a FFF7FEFF 		bl	app_buzzer_on
 3189              	.L292:
 754:../app/app.c  **** 		}
 755:../app/app.c  **** 	}
 756:../app/app.c  **** 
 757:../app/app.c  **** 	if (pkey->ulLPressF & KEY_CALC_MASK) {
 3190              		.loc 1 757 10
 3191 011e 7B68     		ldr	r3, [r7, #4]
 3192 0120 5B68     		ldr	r3, [r3, #4]
 3193              		.loc 1 757 22
 3194 0122 03F40073 		and	r3, r3, #512
 3195              		.loc 1 757 5
 3196 0126 002B     		cmp	r3, #0
 3197 0128 07D0     		beq	.L293
 758:../app/app.c  **** 		if (app_calc_key_deal()){
 3198              		.loc 1 758 7
 3199 012a FFF7FEFF 		bl	app_calc_key_deal
 3200 012e 0346     		mov	r3, r0
 3201              		.loc 1 758 6
 3202 0130 002B     		cmp	r3, #0
 3203 0132 02D0     		beq	.L293
 759:../app/app.c  **** 			app_buzzer_on(1);
 3204              		.loc 1 759 4
 3205 0134 0120     		movs	r0, #1
 3206 0136 FFF7FEFF 		bl	app_buzzer_on
 3207              	.L293:
 760:../app/app.c  **** 		}
 761:../app/app.c  **** 	}
 762:../app/app.c  **** 
 763:../app/app.c  **** 	if (pkey->ulLPressF & KEY_AQUA_MASK) {
 3208              		.loc 1 763 10
 3209 013a 7B68     		ldr	r3, [r7, #4]
 3210 013c 5B68     		ldr	r3, [r3, #4]
 3211              		.loc 1 763 22
 3212 013e 03F48073 		and	r3, r3, #256
 3213              		.loc 1 763 5
 3214 0142 002B     		cmp	r3, #0
 3215 0144 07D0     		beq	.L294
 764:../app/app.c  **** 		if (app_aqua_key_deal()){
 3216              		.loc 1 764 7
 3217 0146 FFF7FEFF 		bl	app_aqua_key_deal
 3218 014a 0346     		mov	r3, r0
 3219              		.loc 1 764 6
 3220 014c 002B     		cmp	r3, #0
 3221 014e 02D0     		beq	.L294
 765:../app/app.c  **** 			app_buzzer_on(1);
 3222              		.loc 1 765 4
 3223 0150 0120     		movs	r0, #1
 3224 0152 FFF7FEFF 		bl	app_buzzer_on
 3225              	.L294:
 766:../app/app.c  **** 		}
 767:../app/app.c  **** 	}
 768:../app/app.c  **** 	
 769:../app/app.c  **** 	if (pkey->ulReleaseF & KEY_PAD_MASK) {
 3226              		.loc 1 769 10
 3227 0156 7B68     		ldr	r3, [r7, #4]
 3228 0158 9B68     		ldr	r3, [r3, #8]
 3229              		.loc 1 769 23
 3230 015a 03F08003 		and	r3, r3, #128
 3231              		.loc 1 769 5
 3232 015e 002B     		cmp	r3, #0
 3233 0160 01D0     		beq	.L296
 770:../app/app.c  **** 		app_pad_key_deal();
 3234              		.loc 1 770 3
 3235 0162 FFF7FEFF 		bl	app_pad_key_deal
 3236              	.L296:
 771:../app/app.c  **** 	}
 772:../app/app.c  **** }
 3237              		.loc 1 772 1
 3238 0166 00BF     		nop
 3239 0168 0837     		adds	r7, r7, #8
 3240              		.cfi_def_cfa_offset 8
 3241 016a BD46     		mov	sp, r7
 3242              		.cfi_def_cfa_register 13
 3243              		@ sp needed
 3244 016c 80BD     		pop	{r7, pc}
 3245              		.cfi_endproc
 3246              	.LFE164:
 3248              		.section	.text.app_init_handler,"ax",%progbits
 3249              		.align	1
 3250              		.global	app_init_handler
 3251              		.syntax unified
 3252              		.thumb
 3253              		.thumb_func
 3254              		.fpu softvfp
 3256              	app_init_handler:
 3257              	.LFB165:
 773:../app/app.c  **** 
 774:../app/app.c  **** /************************************************************************
 775:../app/app.c  **** * function name: app_init_handler
 776:../app/app.c  **** * input: non
 777:../app/app.c  **** * output: non
 778:../app/app.c  **** * description: object thread
 779:../app/app.c  **** *************************************************************************/
 780:../app/app.c  **** void app_init_handler(void)
 781:../app/app.c  **** {
 3258              		.loc 1 781 1
 3259              		.cfi_startproc
 3260              		@ args = 0, pretend = 0, frame = 0
 3261              		@ frame_needed = 1, uses_anonymous_args = 0
 3262 0000 80B5     		push	{r7, lr}
 3263              		.cfi_def_cfa_offset 8
 3264              		.cfi_offset 7, -8
 3265              		.cfi_offset 14, -4
 3266 0002 00AF     		add	r7, sp, #0
 3267              		.cfi_def_cfa_register 7
 782:../app/app.c  **** 	switch(app_task_substep)
 3268              		.loc 1 782 2
 3269 0004 114B     		ldr	r3, .L304
 3270 0006 1B78     		ldrb	r3, [r3]	@ zero_extendqisi2
 3271 0008 022B     		cmp	r3, #2
 3272 000a 17D0     		beq	.L298
 3273 000c 022B     		cmp	r3, #2
 3274 000e 1ADC     		bgt	.L303
 3275 0010 002B     		cmp	r3, #0
 3276 0012 02D0     		beq	.L300
 3277 0014 012B     		cmp	r3, #1
 3278 0016 0AD0     		beq	.L301
 783:../app/app.c  **** 	{
 784:../app/app.c  **** 		case INIT_STATE:
 785:../app/app.c  **** 			/* add init code here */
 786:../app/app.c  **** 			osal_lyh_over_timer(OS_VIRAC_50HZ, Ms_10, app_virtual_croszero_cbfunc);
 787:../app/app.c  **** 			app_task_substep = INIT_READY_STATE;
 788:../app/app.c  **** 			break;
 789:../app/app.c  **** 		case INIT_READY_STATE:
 790:../app/app.c  **** 			osal_lyh_delay_task(Ms_2);
 791:../app/app.c  **** 			app_task_substep = INIT_END_STATE;
 792:../app/app.c  **** 			break;
 793:../app/app.c  **** 		case INIT_END_STATE:
 794:../app/app.c  **** 			app_task_nextstep(APP_IDLE_STATE, IDLE_INIT_STATE);
 795:../app/app.c  **** 			break;
 796:../app/app.c  **** 		default:
 797:../app/app.c  **** 			break;
 3279              		.loc 1 797 4
 3280 0018 15E0     		b	.L303
 3281              	.L300:
 786:../app/app.c  **** 			app_task_substep = INIT_READY_STATE;
 3282              		.loc 1 786 4
 3283 001a 0D4A     		ldr	r2, .L304+4
 3284 001c 0A21     		movs	r1, #10
 3285 001e 4FF40040 		mov	r0, #32768
 3286 0022 FFF7FEFF 		bl	osal_lyh_over_timer
 787:../app/app.c  **** 			break;
 3287              		.loc 1 787 21
 3288 0026 094B     		ldr	r3, .L304
 3289 0028 0122     		movs	r2, #1
 3290 002a 1A70     		strb	r2, [r3]
 788:../app/app.c  **** 		case INIT_READY_STATE:
 3291              		.loc 1 788 4
 3292 002c 0CE0     		b	.L302
 3293              	.L301:
 790:../app/app.c  **** 			app_task_substep = INIT_END_STATE;
 3294              		.loc 1 790 4
 3295 002e 0220     		movs	r0, #2
 3296 0030 FFF7FEFF 		bl	osal_lyh_delay_task
 791:../app/app.c  **** 			break;
 3297              		.loc 1 791 21
 3298 0034 054B     		ldr	r3, .L304
 3299 0036 0222     		movs	r2, #2
 3300 0038 1A70     		strb	r2, [r3]
 792:../app/app.c  **** 		case INIT_END_STATE:
 3301              		.loc 1 792 4
 3302 003a 05E0     		b	.L302
 3303              	.L298:
 794:../app/app.c  **** 			break;
 3304              		.loc 1 794 4
 3305 003c 0021     		movs	r1, #0
 3306 003e 0120     		movs	r0, #1
 3307 0040 FFF7FEFF 		bl	app_task_nextstep
 795:../app/app.c  **** 		default:
 3308              		.loc 1 795 4
 3309 0044 00E0     		b	.L302
 3310              	.L303:
 3311              		.loc 1 797 4
 3312 0046 00BF     		nop
 3313              	.L302:
 798:../app/app.c  **** 	}
 799:../app/app.c  **** }
 3314              		.loc 1 799 1
 3315 0048 00BF     		nop
 3316 004a 80BD     		pop	{r7, pc}
 3317              	.L305:
 3318              		.align	2
 3319              	.L304:
 3320 004c 00000000 		.word	app_task_substep
 3321 0050 00000000 		.word	app_virtual_croszero_cbfunc
 3322              		.cfi_endproc
 3323              	.LFE165:
 3325              		.section	.text.app_idle_handler,"ax",%progbits
 3326              		.align	1
 3327              		.global	app_idle_handler
 3328              		.syntax unified
 3329              		.thumb
 3330              		.thumb_func
 3331              		.fpu softvfp
 3333              	app_idle_handler:
 3334              	.LFB166:
 800:../app/app.c  **** 
 801:../app/app.c  **** /************************************************************************
 802:../app/app.c  **** * function name: app_idle_handler
 803:../app/app.c  **** * input: non
 804:../app/app.c  **** * output: non
 805:../app/app.c  **** * description: object thread
 806:../app/app.c  **** *************************************************************************/
 807:../app/app.c  **** void app_idle_handler(void)
 808:../app/app.c  **** {
 3335              		.loc 1 808 1
 3336              		.cfi_startproc
 3337              		@ args = 0, pretend = 0, frame = 0
 3338              		@ frame_needed = 1, uses_anonymous_args = 0
 3339 0000 80B5     		push	{r7, lr}
 3340              		.cfi_def_cfa_offset 8
 3341              		.cfi_offset 7, -8
 3342              		.cfi_offset 14, -4
 3343 0002 00AF     		add	r7, sp, #0
 3344              		.cfi_def_cfa_register 7
 809:../app/app.c  **** 	switch(app_task_substep)
 3345              		.loc 1 809 2
 3346 0004 0A4B     		ldr	r3, .L311
 3347 0006 1B78     		ldrb	r3, [r3]	@ zero_extendqisi2
 3348 0008 002B     		cmp	r3, #0
 3349 000a 02D0     		beq	.L307
 3350 000c 012B     		cmp	r3, #1
 3351 000e 08D0     		beq	.L308
 810:../app/app.c  **** 	{
 811:../app/app.c  **** 		case IDLE_INIT_STATE:
 812:../app/app.c  **** 			display_init();
 813:../app/app.c  **** 			app_turn_heat_off();
 814:../app/app.c  **** 			app_task_substep = IDLE_RUN_STATE;
 815:../app/app.c  **** 			break;
 816:../app/app.c  **** 		case IDLE_RUN_STATE:
 817:../app/app.c  **** 			osal_lyh_delay_task(Ms_500);
 818:../app/app.c  **** 			break;
 819:../app/app.c  **** 		default:
 820:../app/app.c  **** 			break;
 3352              		.loc 1 820 4
 3353 0010 0CE0     		b	.L310
 3354              	.L307:
 812:../app/app.c  **** 			app_turn_heat_off();
 3355              		.loc 1 812 4
 3356 0012 FFF7FEFF 		bl	display_init
 813:../app/app.c  **** 			app_task_substep = IDLE_RUN_STATE;
 3357              		.loc 1 813 4
 3358 0016 FFF7FEFF 		bl	app_turn_heat_off
 814:../app/app.c  **** 			break;
 3359              		.loc 1 814 21
 3360 001a 054B     		ldr	r3, .L311
 3361 001c 0122     		movs	r2, #1
 3362 001e 1A70     		strb	r2, [r3]
 815:../app/app.c  **** 		case IDLE_RUN_STATE:
 3363              		.loc 1 815 4
 3364 0020 04E0     		b	.L310
 3365              	.L308:
 817:../app/app.c  **** 			break;
 3366              		.loc 1 817 4
 3367 0022 4FF4FA70 		mov	r0, #500
 3368 0026 FFF7FEFF 		bl	osal_lyh_delay_task
 818:../app/app.c  **** 		default:
 3369              		.loc 1 818 4
 3370 002a 00BF     		nop
 3371              	.L310:
 821:../app/app.c  **** 	}
 822:../app/app.c  **** }
 3372              		.loc 1 822 1
 3373 002c 00BF     		nop
 3374 002e 80BD     		pop	{r7, pc}
 3375              	.L312:
 3376              		.align	2
 3377              	.L311:
 3378 0030 00000000 		.word	app_task_substep
 3379              		.cfi_endproc
 3380              	.LFE166:
 3382              		.section	.text.app_startup_handler,"ax",%progbits
 3383              		.align	1
 3384              		.global	app_startup_handler
 3385              		.syntax unified
 3386              		.thumb
 3387              		.thumb_func
 3388              		.fpu softvfp
 3390              	app_startup_handler:
 3391              	.LFB167:
 823:../app/app.c  **** 
 824:../app/app.c  **** /************************************************************************
 825:../app/app.c  **** * function name: app_startup_handler
 826:../app/app.c  **** * input: non
 827:../app/app.c  **** * output: non
 828:../app/app.c  **** * description: object thread
 829:../app/app.c  **** *************************************************************************/
 830:../app/app.c  **** void app_startup_handler(void)
 831:../app/app.c  **** {
 3392              		.loc 1 831 1
 3393              		.cfi_startproc
 3394              		@ args = 0, pretend = 0, frame = 0
 3395              		@ frame_needed = 1, uses_anonymous_args = 0
 3396 0000 80B5     		push	{r7, lr}
 3397              		.cfi_def_cfa_offset 8
 3398              		.cfi_offset 7, -8
 3399              		.cfi_offset 14, -4
 3400 0002 00AF     		add	r7, sp, #0
 3401              		.cfi_def_cfa_register 7
 832:../app/app.c  **** 	switch(app_task_substep)
 3402              		.loc 1 832 2
 3403 0004 BD4B     		ldr	r3, .L361
 3404 0006 1B78     		ldrb	r3, [r3]	@ zero_extendqisi2
 3405 0008 102B     		cmp	r3, #16
 3406 000a 00F2AD81 		bhi	.L357
 3407 000e 01A2     		adr	r2, .L316
 3408 0010 52F823F0 		ldr	pc, [r2, r3, lsl #2]
 3409              		.p2align 2
 3410              	.L316:
 3411 0014 59000000 		.word	.L332+1
 3412 0018 9B000000 		.word	.L331+1
 3413 001c C5000000 		.word	.L330+1
 3414 0020 07010000 		.word	.L329+1
 3415 0024 21010000 		.word	.L328+1
 3416 0028 59010000 		.word	.L327+1
 3417 002c 83010000 		.word	.L326+1
 3418 0030 BB010000 		.word	.L325+1
 3419 0034 D5010000 		.word	.L324+1
 3420 0038 0F020000 		.word	.L323+1
 3421 003c 23020000 		.word	.L322+1
 3422 0040 53020000 		.word	.L321+1
 3423 0044 6F020000 		.word	.L320+1
 3424 0048 B1020000 		.word	.L319+1
 3425 004c CD020000 		.word	.L318+1
 3426 0050 05030000 		.word	.L317+1
 3427 0054 31030000 		.word	.L315+1
 3428              		.p2align 1
 3429              	.L332:
 833:../app/app.c  **** 	{
 834:../app/app.c  **** 		/* ÕÉ»ÕŖ©µĄüń©ŗÕłØÕ¦ŗÕī¢ */
 835:../app/app.c  **** 		case STARTUP_INIT_STATE:
 836:../app/app.c  **** 			key_prohibit_setup(KEY_ONOFF_MASK, TRUE);		//Õ▒ÅĶöĮon/off
 3430              		.loc 1 836 4
 3431 0058 0121     		movs	r1, #1
 3432 005a 0120     		movs	r0, #1
 3433 005c FFF7FEFF 		bl	key_prohibit_setup
 837:../app/app.c  **** 			app_task_substep = STARTUP_ENTRY_STATE;
 3434              		.loc 1 837 21
 3435 0060 A64B     		ldr	r3, .L361
 3436 0062 0122     		movs	r2, #1
 3437 0064 1A70     		strb	r2, [r3]
 838:../app/app.c  **** 			if (FAIL == app_pallet_ready()){
 3438              		.loc 1 838 16
 3439 0066 FFF7FEFF 		bl	app_pallet_ready
 3440 006a 0346     		mov	r3, r0
 3441              		.loc 1 838 7
 3442 006c 002B     		cmp	r3, #0
 3443 006e 06D1     		bne	.L333
 839:../app/app.c  **** 				display_led(PALLET_ERR_LED, LED_ON);
 3444              		.loc 1 839 5
 3445 0070 0121     		movs	r1, #1
 3446 0072 0820     		movs	r0, #8
 3447 0074 FFF7FEFF 		bl	display_led
 840:../app/app.c  **** 				app_task_substep = STARTUP_FAIL_STATE;
 3448              		.loc 1 840 22
 3449 0078 A04B     		ldr	r3, .L361
 3450 007a 1022     		movs	r2, #16
 3451 007c 1A70     		strb	r2, [r3]
 3452              	.L333:
 841:../app/app.c  **** 			}
 842:../app/app.c  **** 			if (FAIL == app_water_ready()){
 3453              		.loc 1 842 16
 3454 007e FFF7FEFF 		bl	app_water_ready
 3455 0082 0346     		mov	r3, r0
 3456              		.loc 1 842 7
 3457 0084 002B     		cmp	r3, #0
 3458 0086 40F07181 		bne	.L358
 843:../app/app.c  **** 				display_led(WATER_ERR_LED, LED_ON);
 3459              		.loc 1 843 5
 3460 008a 0121     		movs	r1, #1
 3461 008c 0E20     		movs	r0, #14
 3462 008e FFF7FEFF 		bl	display_led
 844:../app/app.c  **** 				app_task_substep = STARTUP_FAIL_STATE;
 3463              		.loc 1 844 22
 3464 0092 9A4B     		ldr	r3, .L361
 3465 0094 1022     		movs	r2, #16
 3466 0096 1A70     		strb	r2, [r3]
 845:../app/app.c  **** 			}
 846:../app/app.c  **** 			break;
 3467              		.loc 1 846 4
 3468 0098 68E1     		b	.L358
 3469              	.L331:
 847:../app/app.c  **** 		/* µĄüń©ŗÕ╝ĆÕ¦ŗ’╝ÜLEDµĄüµ░┤ńü»ŃĆüńöĄµ£║ÕŖ©õĮ£ŃĆüÕ╝ĆÕÉ»ÕŖĀńāŁ */	
 848:../app/app.c  **** 		case STARTUP_ENTRY_STATE:
 849:../app/app.c  **** 			app_led_show_init();
 3470              		.loc 1 849 4
 3471 009a FFF7FEFF 		bl	app_led_show_init
 850:../app/app.c  **** 			dc_motor_ClearFault();
 3472              		.loc 1 850 4
 3473 009e FFF7FEFF 		bl	dc_motor_ClearFault
 851:../app/app.c  **** 			dc_motor_Start(MOTOR_RIGHT);
 3474              		.loc 1 851 4
 3475 00a2 0120     		movs	r0, #1
 3476 00a4 FFF7FEFF 		bl	dc_motor_Start
 852:../app/app.c  **** 			app_turn_heat_on(TARGET_TEMP_STARTUP);
 3477              		.loc 1 852 4
 3478 00a8 40F6A230 		movw	r0, #2978
 3479 00ac FFF7FEFF 		bl	app_turn_heat_on
 853:../app/app.c  **** 			app_task_substep = STARTUP_RIGHT_RST_STATE;
 3480              		.loc 1 853 21
 3481 00b0 924B     		ldr	r3, .L361
 3482 00b2 0222     		movs	r2, #2
 3483 00b4 1A70     		strb	r2, [r3]
 854:../app/app.c  **** 			run_max_time = RIGHT_TIMER(Ms_2000, Ms_100);
 3484              		.loc 1 854 17
 3485 00b6 924B     		ldr	r3, .L361+4
 3486 00b8 1422     		movs	r2, #20
 3487 00ba 1A80     		strh	r2, [r3]	@ movhi
 855:../app/app.c  **** 			osal_lyh_delay_task(Ms_100);
 3488              		.loc 1 855 4
 3489 00bc 6420     		movs	r0, #100
 3490 00be FFF7FEFF 		bl	osal_lyh_delay_task
 856:../app/app.c  **** 			break;
 3491              		.loc 1 856 4
 3492 00c2 56E1     		b	.L335
 3493              	.L330:
 857:../app/app.c  **** 		/* Õłżµ¢ŁńöĄµ£║µś»ÕÉ”Õł░Ķ¦”ńé╣ */	
 858:../app/app.c  **** 		case STARTUP_RIGHT_RST_STATE:
 859:../app/app.c  **** 			if ((MOTOR_STATE_STOPED == dc_motor_GetState())
 3494              		.loc 1 859 31
 3495 00c4 FFF7FEFF 		bl	dc_motor_GetState
 3496 00c8 0346     		mov	r3, r0
 3497              		.loc 1 859 7
 3498 00ca 002B     		cmp	r3, #0
 3499 00cc 0ED0     		beq	.L336
 860:../app/app.c  **** 				|| (TRUE == app_motor_ready())
 3500              		.loc 1 860 17
 3501 00ce FFF7FEFF 		bl	app_motor_ready
 3502 00d2 0346     		mov	r3, r0
 3503              		.loc 1 860 5
 3504 00d4 012B     		cmp	r3, #1
 3505 00d6 09D0     		beq	.L336
 861:../app/app.c  **** 				|| (--run_max_time == 0)){
 3506              		.loc 1 861 9
 3507 00d8 894B     		ldr	r3, .L361+4
 3508 00da 1B88     		ldrh	r3, [r3]
 3509 00dc 013B     		subs	r3, r3, #1
 3510 00de 9AB2     		uxth	r2, r3
 3511              		.loc 1 861 5
 3512 00e0 874B     		ldr	r3, .L361+4
 3513 00e2 1A80     		strh	r2, [r3]	@ movhi
 3514              		.loc 1 861 9
 3515 00e4 864B     		ldr	r3, .L361+4
 3516 00e6 1B88     		ldrh	r3, [r3]
 3517              		.loc 1 861 5
 3518 00e8 002B     		cmp	r3, #0
 3519 00ea 08D1     		bne	.L337
 3520              	.L336:
 862:../app/app.c  **** 				dc_motor_Stop();
 3521              		.loc 1 862 5
 3522 00ec FFF7FEFF 		bl	dc_motor_Stop
 863:../app/app.c  **** 				osal_lyh_delay_task(Ms_200);
 3523              		.loc 1 863 5
 3524 00f0 C820     		movs	r0, #200
 3525 00f2 FFF7FEFF 		bl	osal_lyh_delay_task
 864:../app/app.c  **** 				app_task_substep = STARTUP_LEFT_STATE;
 3526              		.loc 1 864 22
 3527 00f6 814B     		ldr	r3, .L361
 3528 00f8 0322     		movs	r2, #3
 3529 00fa 1A70     		strb	r2, [r3]
 865:../app/app.c  **** 			}
 866:../app/app.c  **** 			else {
 867:../app/app.c  **** 				osal_lyh_delay_task(Ms_100);
 868:../app/app.c  **** 			}
 869:../app/app.c  **** 			break;
 3530              		.loc 1 869 4
 3531 00fc 39E1     		b	.L335
 3532              	.L337:
 867:../app/app.c  **** 			}
 3533              		.loc 1 867 5
 3534 00fe 6420     		movs	r0, #100
 3535 0100 FFF7FEFF 		bl	osal_lyh_delay_task
 3536              		.loc 1 869 4
 3537 0104 35E1     		b	.L335
 3538              	.L329:
 870:../app/app.c  **** 		/* ńöĄµ£║Õø×ĶĮ¼Õł░ÕÄ¤ńé╣ */	
 871:../app/app.c  **** 		case STARTUP_LEFT_STATE:
 872:../app/app.c  **** 			dc_motor_Start(MOTOR_LEFT);
 3539              		.loc 1 872 4
 3540 0106 0220     		movs	r0, #2
 3541 0108 FFF7FEFF 		bl	dc_motor_Start
 873:../app/app.c  **** 			osal_lyh_delay_task(Ms_100);
 3542              		.loc 1 873 4
 3543 010c 6420     		movs	r0, #100
 3544 010e FFF7FEFF 		bl	osal_lyh_delay_task
 874:../app/app.c  **** 			run_max_time = LEFT_TIMER(MOTOR_FIX_TIME, Ms_100);
 3545              		.loc 1 874 17
 3546 0112 7B4B     		ldr	r3, .L361+4
 3547 0114 0322     		movs	r2, #3
 3548 0116 1A80     		strh	r2, [r3]	@ movhi
 875:../app/app.c  **** 			app_task_substep = STARTUP_LEFT_RST_STATE;
 3549              		.loc 1 875 21
 3550 0118 784B     		ldr	r3, .L361
 3551 011a 0422     		movs	r2, #4
 3552 011c 1A70     		strb	r2, [r3]
 876:../app/app.c  **** 			break;
 3553              		.loc 1 876 4
 3554 011e 28E1     		b	.L335
 3555              	.L328:
 877:../app/app.c  **** 		/* Õłżµ¢ŁńöĄµ£║µś»ÕÉ”ĶĮ¼Õø×ÕÄ¤ńé╣ */	
 878:../app/app.c  **** 		case STARTUP_LEFT_RST_STATE:
 879:../app/app.c  **** 			if (1/*(FAIL == app_motor_ready())*/	// deleting point,(temp to cancel) 
 880:../app/app.c  **** 				&& ((MOTOR_STATE_STOPED == dc_motor_GetState())
 3556              		.loc 1 880 32
 3557 0120 FFF7FEFF 		bl	dc_motor_GetState
 3558 0124 0346     		mov	r3, r0
 879:../app/app.c  **** 				&& ((MOTOR_STATE_STOPED == dc_motor_GetState())
 3559              		.loc 1 879 7
 3560 0126 002B     		cmp	r3, #0
 3561 0128 09D0     		beq	.L339
 881:../app/app.c  **** 				|| (--run_max_time == 0))){
 3562              		.loc 1 881 9
 3563 012a 754B     		ldr	r3, .L361+4
 3564 012c 1B88     		ldrh	r3, [r3]
 3565 012e 013B     		subs	r3, r3, #1
 3566 0130 9AB2     		uxth	r2, r3
 880:../app/app.c  **** 				|| (--run_max_time == 0))){
 3567              		.loc 1 880 5
 3568 0132 734B     		ldr	r3, .L361+4
 3569 0134 1A80     		strh	r2, [r3]	@ movhi
 3570              		.loc 1 881 9
 3571 0136 724B     		ldr	r3, .L361+4
 3572 0138 1B88     		ldrh	r3, [r3]
 880:../app/app.c  **** 				|| (--run_max_time == 0))){
 3573              		.loc 1 880 5
 3574 013a 002B     		cmp	r3, #0
 3575 013c 08D1     		bne	.L340
 3576              	.L339:
 882:../app/app.c  **** 				dc_motor_Stop();
 3577              		.loc 1 882 5
 3578 013e FFF7FEFF 		bl	dc_motor_Stop
 883:../app/app.c  **** 				key_prohibit_setup(KEY_ONOFF_MASK, FAIL);
 3579              		.loc 1 883 5
 3580 0142 0021     		movs	r1, #0
 3581 0144 0120     		movs	r0, #1
 3582 0146 FFF7FEFF 		bl	key_prohibit_setup
 884:../app/app.c  **** 				app_task_substep = STARTUP_HEAT_RDY_STATE;
 3583              		.loc 1 884 22
 3584 014a 6C4B     		ldr	r3, .L361
 3585 014c 0522     		movs	r2, #5
 3586 014e 1A70     		strb	r2, [r3]
 3587              	.L340:
 885:../app/app.c  **** 			}
 886:../app/app.c  **** 			osal_lyh_delay_task(Ms_100);
 3588              		.loc 1 886 4
 3589 0150 6420     		movs	r0, #100
 3590 0152 FFF7FEFF 		bl	osal_lyh_delay_task
 887:../app/app.c  **** 			break;
 3591              		.loc 1 887 4
 3592 0156 0CE1     		b	.L335
 3593              	.L327:
 888:../app/app.c  **** 		/* Õłżµ¢ŁµĖ®Õ║”µś»ÕÉ”Õł░ĶŠŠ */	
 889:../app/app.c  **** 		case STARTUP_HEAT_RDY_STATE:
 890:../app/app.c  **** 			if (TRUE == app_temperature_state(TARGET_TEMP_107D)){
 3594              		.loc 1 890 16
 3595 0158 40F6BA00 		movw	r0, #2234
 3596 015c FFF7FEFF 		bl	app_temperature_state
 3597 0160 0346     		mov	r3, r0
 3598              		.loc 1 890 7
 3599 0162 012B     		cmp	r3, #1
 3600 0164 03D1     		bne	.L341
 891:../app/app.c  **** 				app_task_substep = STARTUP_COMPLETE_STATE;
 3601              		.loc 1 891 22
 3602 0166 654B     		ldr	r3, .L361
 3603 0168 0F22     		movs	r2, #15
 3604 016a 1A70     		strb	r2, [r3]
 3605 016c 05E0     		b	.L342
 3606              	.L341:
 892:../app/app.c  **** 			}
 893:../app/app.c  **** 			else {
 894:../app/app.c  **** 				run_max_time = HEAT_MAX_TIMER(Ms_100);
 3607              		.loc 1 894 18
 3608 016e 644B     		ldr	r3, .L361+4
 3609 0170 C822     		movs	r2, #200
 3610 0172 1A80     		strh	r2, [r3]	@ movhi
 895:../app/app.c  **** 				app_task_substep = STARTUP_HEAT_ING_STATE;
 3611              		.loc 1 895 22
 3612 0174 614B     		ldr	r3, .L361
 3613 0176 0622     		movs	r2, #6
 3614 0178 1A70     		strb	r2, [r3]
 3615              	.L342:
 896:../app/app.c  **** 			}
 897:../app/app.c  **** 			osal_lyh_delay_task(Ms_100);
 3616              		.loc 1 897 4
 3617 017a 6420     		movs	r0, #100
 3618 017c FFF7FEFF 		bl	osal_lyh_delay_task
 898:../app/app.c  **** 			break;	
 3619              		.loc 1 898 4
 3620 0180 F7E0     		b	.L335
 3621              	.L326:
 899:../app/app.c  **** 		case STARTUP_HEAT_ING_STATE:
 900:../app/app.c  **** 			if ((TRUE == app_temperature_state(TARGET_TEMP_107D))
 3622              		.loc 1 900 17
 3623 0182 40F6BA00 		movw	r0, #2234
 3624 0186 FFF7FEFF 		bl	app_temperature_state
 3625 018a 0346     		mov	r3, r0
 3626              		.loc 1 900 7
 3627 018c 012B     		cmp	r3, #1
 3628 018e 09D0     		beq	.L343
 901:../app/app.c  **** 				|| (--run_max_time == 0)){
 3629              		.loc 1 901 9
 3630 0190 5B4B     		ldr	r3, .L361+4
 3631 0192 1B88     		ldrh	r3, [r3]
 3632 0194 013B     		subs	r3, r3, #1
 3633 0196 9AB2     		uxth	r2, r3
 3634              		.loc 1 901 5
 3635 0198 594B     		ldr	r3, .L361+4
 3636 019a 1A80     		strh	r2, [r3]	@ movhi
 3637              		.loc 1 901 9
 3638 019c 584B     		ldr	r3, .L361+4
 3639 019e 1B88     		ldrh	r3, [r3]
 3640              		.loc 1 901 5
 3641 01a0 002B     		cmp	r3, #0
 3642 01a2 06D1     		bne	.L344
 3643              	.L343:
 902:../app/app.c  **** 				display_led(START_LED, LED_ON);
 3644              		.loc 1 902 5
 3645 01a4 0121     		movs	r1, #1
 3646 01a6 0520     		movs	r0, #5
 3647 01a8 FFF7FEFF 		bl	display_led
 903:../app/app.c  **** 				app_task_substep = STARTUP_HEAT_END_STATE;
 3648              		.loc 1 903 22
 3649 01ac 534B     		ldr	r3, .L361
 3650 01ae 0722     		movs	r2, #7
 3651 01b0 1A70     		strb	r2, [r3]
 3652              	.L344:
 904:../app/app.c  **** 			}
 905:../app/app.c  **** 			osal_lyh_delay_task(Ms_100);
 3653              		.loc 1 905 4
 3654 01b2 6420     		movs	r0, #100
 3655 01b4 FFF7FEFF 		bl	osal_lyh_delay_task
 906:../app/app.c  **** 			break;
 3656              		.loc 1 906 4
 3657 01b8 DBE0     		b	.L335
 3658              	.L325:
 907:../app/app.c  **** 		/* ńöĄµ£║ĶĮ¼ÕÉæĶÉāÕÅ¢õĮŹńĮ« */	
 908:../app/app.c  **** 		case STARTUP_HEAT_END_STATE:
 909:../app/app.c  **** 			dc_motor_Start(MOTOR_LEFT);
 3659              		.loc 1 909 4
 3660 01ba 0220     		movs	r0, #2
 3661 01bc FFF7FEFF 		bl	dc_motor_Start
 910:../app/app.c  **** 			osal_lyh_delay_task(Ms_100);
 3662              		.loc 1 910 4
 3663 01c0 6420     		movs	r0, #100
 3664 01c2 FFF7FEFF 		bl	osal_lyh_delay_task
 911:../app/app.c  **** 			run_max_time = LEFT_TIMER(Ms_6000, Ms_100);
 3665              		.loc 1 911 17
 3666 01c6 4E4B     		ldr	r3, .L361+4
 3667 01c8 3C22     		movs	r2, #60
 3668 01ca 1A80     		strh	r2, [r3]	@ movhi
 912:../app/app.c  **** 			app_task_substep = STARTUP_LEFT_MOVE_STATE;
 3669              		.loc 1 912 21
 3670 01cc 4B4B     		ldr	r3, .L361
 3671 01ce 0822     		movs	r2, #8
 3672 01d0 1A70     		strb	r2, [r3]
 913:../app/app.c  **** 			break;
 3673              		.loc 1 913 4
 3674 01d2 CEE0     		b	.L335
 3675              	.L324:
 914:../app/app.c  **** 		/* Õłżµ¢ŁńöĄµ£║µś»ÕÉ”Õł░ĶŠŠĶÉāÕÅ¢õĮŹńĮ« */	
 915:../app/app.c  **** 		case STARTUP_LEFT_MOVE_STATE:
 916:../app/app.c  **** 			if ((MOTOR_STATE_STOPED == dc_motor_GetState())
 3676              		.loc 1 916 31
 3677 01d4 FFF7FEFF 		bl	dc_motor_GetState
 3678 01d8 0346     		mov	r3, r0
 3679              		.loc 1 916 7
 3680 01da 002B     		cmp	r3, #0
 3681 01dc 0ED0     		beq	.L345
 917:../app/app.c  **** 				|| (TRUE == app_motor_ready())
 3682              		.loc 1 917 17
 3683 01de FFF7FEFF 		bl	app_motor_ready
 3684 01e2 0346     		mov	r3, r0
 3685              		.loc 1 917 5
 3686 01e4 012B     		cmp	r3, #1
 3687 01e6 09D0     		beq	.L345
 918:../app/app.c  **** 				|| (--run_max_time == 0)){
 3688              		.loc 1 918 9
 3689 01e8 454B     		ldr	r3, .L361+4
 3690 01ea 1B88     		ldrh	r3, [r3]
 3691 01ec 013B     		subs	r3, r3, #1
 3692 01ee 9AB2     		uxth	r2, r3
 3693              		.loc 1 918 5
 3694 01f0 434B     		ldr	r3, .L361+4
 3695 01f2 1A80     		strh	r2, [r3]	@ movhi
 3696              		.loc 1 918 9
 3697 01f4 424B     		ldr	r3, .L361+4
 3698 01f6 1B88     		ldrh	r3, [r3]
 3699              		.loc 1 918 5
 3700 01f8 002B     		cmp	r3, #0
 3701 01fa 04D1     		bne	.L346
 3702              	.L345:
 919:../app/app.c  **** 				dc_motor_Stop();
 3703              		.loc 1 919 5
 3704 01fc FFF7FEFF 		bl	dc_motor_Stop
 920:../app/app.c  **** 				app_task_substep = STARTUP_WATER_RDY_STATE;
 3705              		.loc 1 920 22
 3706 0200 3E4B     		ldr	r3, .L361
 3707 0202 0922     		movs	r2, #9
 3708 0204 1A70     		strb	r2, [r3]
 3709              	.L346:
 921:../app/app.c  **** 			}
 922:../app/app.c  **** 			osal_lyh_delay_task(Ms_100);
 3710              		.loc 1 922 4
 3711 0206 6420     		movs	r0, #100
 3712 0208 FFF7FEFF 		bl	osal_lyh_delay_task
 923:../app/app.c  **** 			break;
 3713              		.loc 1 923 4
 3714 020c B1E0     		b	.L335
 3715              	.L323:
 924:../app/app.c  **** 		/* µŖĮµ░┤Õå▓µ┤Ś */	
 925:../app/app.c  **** 		case STARTUP_WATER_RDY_STATE:
 926:../app/app.c  **** 			ac_pumb_start(CONTINUE_MODE);
 3716              		.loc 1 926 4
 3717 020e 0020     		movs	r0, #0
 3718 0210 FFF7FEFF 		bl	ac_pumb_start
 927:../app/app.c  **** 			run_max_time = WATER_MAX_TIMER(Ms_100);
 3719              		.loc 1 927 17
 3720 0214 3A4B     		ldr	r3, .L361+4
 3721 0216 6422     		movs	r2, #100
 3722 0218 1A80     		strh	r2, [r3]	@ movhi
 928:../app/app.c  **** 			app_task_substep = STARTUP_WATER_ING_STATE;
 3723              		.loc 1 928 21
 3724 021a 384B     		ldr	r3, .L361
 3725 021c 0A22     		movs	r2, #10
 3726 021e 1A70     		strb	r2, [r3]
 929:../app/app.c  **** 			break;	
 3727              		.loc 1 929 4
 3728 0220 A7E0     		b	.L335
 3729              	.L322:
 930:../app/app.c  **** 		case STARTUP_WATER_ING_STATE:
 931:../app/app.c  **** 			if (--run_max_time == 0){
 3730              		.loc 1 931 8
 3731 0222 374B     		ldr	r3, .L361+4
 3732 0224 1B88     		ldrh	r3, [r3]
 3733 0226 013B     		subs	r3, r3, #1
 3734 0228 9AB2     		uxth	r2, r3
 3735              		.loc 1 931 7
 3736 022a 354B     		ldr	r3, .L361+4
 3737 022c 1A80     		strh	r2, [r3]	@ movhi
 3738              		.loc 1 931 8
 3739 022e 344B     		ldr	r3, .L361+4
 3740 0230 1B88     		ldrh	r3, [r3]
 3741              		.loc 1 931 7
 3742 0232 002B     		cmp	r3, #0
 3743 0234 09D1     		bne	.L347
 932:../app/app.c  **** 				ac_pumb_stop();
 3744              		.loc 1 932 5
 3745 0236 FFF7FEFF 		bl	ac_pumb_stop
 933:../app/app.c  **** 				osal_lyh_delay_task(Ms_6000);
 3746              		.loc 1 933 5
 3747 023a 41F27070 		movw	r0, #6000
 3748 023e FFF7FEFF 		bl	osal_lyh_delay_task
 934:../app/app.c  **** 				app_task_substep = STARTUP_WATER_END_STATE;
 3749              		.loc 1 934 22
 3750 0242 2E4B     		ldr	r3, .L361
 3751 0244 0B22     		movs	r2, #11
 3752 0246 1A70     		strb	r2, [r3]
 935:../app/app.c  **** 			}
 936:../app/app.c  **** 			else {
 937:../app/app.c  **** 				osal_lyh_delay_task(Ms_100);
 938:../app/app.c  **** 			}
 939:../app/app.c  **** 			break;
 3753              		.loc 1 939 4
 3754 0248 93E0     		b	.L335
 3755              	.L347:
 937:../app/app.c  **** 			}
 3756              		.loc 1 937 5
 3757 024a 6420     		movs	r0, #100
 3758 024c FFF7FEFF 		bl	osal_lyh_delay_task
 3759              		.loc 1 939 4
 3760 0250 8FE0     		b	.L335
 3761              	.L321:
 940:../app/app.c  **** 		/* ńöĄµ£║ĶĮ¼Õø×ÕÄ¤õĮŹ */	
 941:../app/app.c  **** 		case STARTUP_WATER_END_STATE:
 942:../app/app.c  **** 			osal_lyh_delay_task(Ms_1500);	// wait motor to move the detecting point
 3762              		.loc 1 942 4
 3763 0252 40F2DC50 		movw	r0, #1500
 3764 0256 FFF7FEFF 		bl	osal_lyh_delay_task
 943:../app/app.c  **** 			dc_motor_Start(MOTOR_RIGHT);
 3765              		.loc 1 943 4
 3766 025a 0120     		movs	r0, #1
 3767 025c FFF7FEFF 		bl	dc_motor_Start
 944:../app/app.c  **** 			run_max_time = RIGHT_TIMER(Ms_6000, Ms_100);
 3768              		.loc 1 944 17
 3769 0260 274B     		ldr	r3, .L361+4
 3770 0262 3C22     		movs	r2, #60
 3771 0264 1A80     		strh	r2, [r3]	@ movhi
 945:../app/app.c  **** 			app_task_substep = STARTUP_RIGHT_MOVE_STATE;
 3772              		.loc 1 945 21
 3773 0266 254B     		ldr	r3, .L361
 3774 0268 0C22     		movs	r2, #12
 3775 026a 1A70     		strb	r2, [r3]
 946:../app/app.c  **** 			break;
 3776              		.loc 1 946 4
 3777 026c 81E0     		b	.L335
 3778              	.L320:
 947:../app/app.c  **** 		/* Õłżµ¢ŁńöĄµ£║µś»ÕÉ”Ķ¦”ńó░Ķ¦”ńé╣ */	
 948:../app/app.c  **** 		case STARTUP_RIGHT_MOVE_STATE:
 949:../app/app.c  **** 			if ((MOTOR_STATE_STOPED ==dc_motor_GetState())
 3779              		.loc 1 949 30
 3780 026e FFF7FEFF 		bl	dc_motor_GetState
 3781 0272 0346     		mov	r3, r0
 3782              		.loc 1 949 7
 3783 0274 002B     		cmp	r3, #0
 3784 0276 0ED0     		beq	.L349
 950:../app/app.c  **** 				|| (TRUE == app_motor_ready())
 3785              		.loc 1 950 17
 3786 0278 FFF7FEFF 		bl	app_motor_ready
 3787 027c 0346     		mov	r3, r0
 3788              		.loc 1 950 5
 3789 027e 012B     		cmp	r3, #1
 3790 0280 09D0     		beq	.L349
 951:../app/app.c  **** 				|| (--run_max_time == 0)){
 3791              		.loc 1 951 9
 3792 0282 1F4B     		ldr	r3, .L361+4
 3793 0284 1B88     		ldrh	r3, [r3]
 3794 0286 013B     		subs	r3, r3, #1
 3795 0288 9AB2     		uxth	r2, r3
 3796              		.loc 1 951 5
 3797 028a 1D4B     		ldr	r3, .L361+4
 3798 028c 1A80     		strh	r2, [r3]	@ movhi
 3799              		.loc 1 951 9
 3800 028e 1C4B     		ldr	r3, .L361+4
 3801 0290 1B88     		ldrh	r3, [r3]
 3802              		.loc 1 951 5
 3803 0292 002B     		cmp	r3, #0
 3804 0294 08D1     		bne	.L350
 3805              	.L349:
 952:../app/app.c  **** 				dc_motor_Stop();
 3806              		.loc 1 952 5
 3807 0296 FFF7FEFF 		bl	dc_motor_Stop
 953:../app/app.c  **** 				osal_lyh_delay_task(Ms_200);
 3808              		.loc 1 953 5
 3809 029a C820     		movs	r0, #200
 3810 029c FFF7FEFF 		bl	osal_lyh_delay_task
 954:../app/app.c  **** 				app_task_substep = STARTUP_LEFT_START_STATE;
 3811              		.loc 1 954 22
 3812 02a0 164B     		ldr	r3, .L361
 3813 02a2 0D22     		movs	r2, #13
 3814 02a4 1A70     		strb	r2, [r3]
 955:../app/app.c  **** 			}
 956:../app/app.c  **** 			else {
 957:../app/app.c  **** 				osal_lyh_delay_task(Ms_100);
 958:../app/app.c  **** 			}
 959:../app/app.c  **** 			break;
 3815              		.loc 1 959 4
 3816 02a6 64E0     		b	.L335
 3817              	.L350:
 957:../app/app.c  **** 			}
 3818              		.loc 1 957 5
 3819 02a8 6420     		movs	r0, #100
 3820 02aa FFF7FEFF 		bl	osal_lyh_delay_task
 3821              		.loc 1 959 4
 3822 02ae 60E0     		b	.L335
 3823              	.L319:
 960:../app/app.c  **** 		/* ńöĄµ£║Õø×ĶĮ¼ */	
 961:../app/app.c  **** 		case STARTUP_LEFT_START_STATE:
 962:../app/app.c  **** 			display_led(START_LED, LED_OFF);
 3824              		.loc 1 962 4
 3825 02b0 0021     		movs	r1, #0
 3826 02b2 0520     		movs	r0, #5
 3827 02b4 FFF7FEFF 		bl	display_led
 963:../app/app.c  **** 			dc_motor_Start(MOTOR_LEFT);
 3828              		.loc 1 963 4
 3829 02b8 0220     		movs	r0, #2
 3830 02ba FFF7FEFF 		bl	dc_motor_Start
 964:../app/app.c  **** 			run_max_time = LEFT_TIMER(MOTOR_FIX_TIME, Ms_100);
 3831              		.loc 1 964 17
 3832 02be 104B     		ldr	r3, .L361+4
 3833 02c0 0322     		movs	r2, #3
 3834 02c2 1A80     		strh	r2, [r3]	@ movhi
 965:../app/app.c  **** 			app_task_substep = STARTUP_LEFT_END_STATE;
 3835              		.loc 1 965 21
 3836 02c4 0D4B     		ldr	r3, .L361
 3837 02c6 0E22     		movs	r2, #14
 3838 02c8 1A70     		strb	r2, [r3]
 966:../app/app.c  **** 			break;
 3839              		.loc 1 966 4
 3840 02ca 52E0     		b	.L335
 3841              	.L318:
 967:../app/app.c  **** 		/* Õłżµ¢ŁńöĄµ£║µś»ÕÉ”Õø×ĶĮ¼Õ«īµłÉ */	
 968:../app/app.c  **** 		case STARTUP_LEFT_END_STATE:
 969:../app/app.c  **** 			if (1/*(FAIL == app_motor_ready())*/	// deleting point,(temp to cancel)
 970:../app/app.c  **** 				&& ((MOTOR_STATE_STOPED ==dc_motor_GetState())
 3842              		.loc 1 970 31
 3843 02cc FFF7FEFF 		bl	dc_motor_GetState
 3844 02d0 0346     		mov	r3, r0
 969:../app/app.c  **** 				&& ((MOTOR_STATE_STOPED ==dc_motor_GetState())
 3845              		.loc 1 969 7
 3846 02d2 002B     		cmp	r3, #0
 3847 02d4 09D0     		beq	.L352
 971:../app/app.c  **** 				|| (--run_max_time == 0))){
 3848              		.loc 1 971 9
 3849 02d6 0A4B     		ldr	r3, .L361+4
 3850 02d8 1B88     		ldrh	r3, [r3]
 3851 02da 013B     		subs	r3, r3, #1
 3852 02dc 9AB2     		uxth	r2, r3
 970:../app/app.c  **** 				|| (--run_max_time == 0))){
 3853              		.loc 1 970 5
 3854 02de 084B     		ldr	r3, .L361+4
 3855 02e0 1A80     		strh	r2, [r3]	@ movhi
 3856              		.loc 1 971 9
 3857 02e2 074B     		ldr	r3, .L361+4
 3858 02e4 1B88     		ldrh	r3, [r3]
 970:../app/app.c  **** 				|| (--run_max_time == 0))){
 3859              		.loc 1 970 5
 3860 02e6 002B     		cmp	r3, #0
 3861 02e8 04D1     		bne	.L353
 3862              	.L352:
 972:../app/app.c  **** 				dc_motor_Stop();
 3863              		.loc 1 972 5
 3864 02ea FFF7FEFF 		bl	dc_motor_Stop
 973:../app/app.c  **** 				app_task_substep = STARTUP_COMPLETE_STATE;
 3865              		.loc 1 973 22
 3866 02ee 034B     		ldr	r3, .L361
 3867 02f0 0F22     		movs	r2, #15
 3868 02f2 1A70     		strb	r2, [r3]
 3869              	.L353:
 974:../app/app.c  **** 			}
 975:../app/app.c  **** 			osal_lyh_delay_task(Ms_100);
 3870              		.loc 1 975 4
 3871 02f4 6420     		movs	r0, #100
 3872 02f6 FFF7FEFF 		bl	osal_lyh_delay_task
 976:../app/app.c  **** 			break;
 3873              		.loc 1 976 4
 3874 02fa 3AE0     		b	.L335
 3875              	.L362:
 3876              		.align	2
 3877              	.L361:
 3878 02fc 00000000 		.word	app_task_substep
 3879 0300 00000000 		.word	run_max_time
 3880              	.L317:
 977:../app/app.c  **** 		/* ÕÉ»ÕŖ©Õ«īµłÉ */	
 978:../app/app.c  **** 		case STARTUP_COMPLETE_STATE:
 979:../app/app.c  **** 			key_prohibit_setup(KEY_ONOFF_MASK, FAIL);
 3881              		.loc 1 979 4
 3882 0304 0021     		movs	r1, #0
 3883 0306 0120     		movs	r0, #1
 3884 0308 FFF7FEFF 		bl	key_prohibit_setup
 980:../app/app.c  **** 			app_turn_heat_off();
 3885              		.loc 1 980 4
 3886 030c FFF7FEFF 		bl	app_turn_heat_off
 981:../app/app.c  **** 			if (TRUE == app_led_oneloop()){
 3887              		.loc 1 981 16
 3888 0310 FFF7FEFF 		bl	app_led_oneloop
 3889 0314 0346     		mov	r3, r0
 3890              		.loc 1 981 7
 3891 0316 012B     		cmp	r3, #1
 3892 0318 2AD1     		bne	.L359
 982:../app/app.c  **** 				app_leds_all_fun(LED_ON);
 3893              		.loc 1 982 5
 3894 031a 0120     		movs	r0, #1
 3895 031c FFF7FEFF 		bl	app_leds_all_fun
 983:../app/app.c  **** 				osal_lyh_kill_over_timer(OS_LED_TIME);
 3896              		.loc 1 983 5
 3897 0320 0220     		movs	r0, #2
 3898 0322 FFF7FEFF 		bl	osal_lyh_kill_over_timer
 984:../app/app.c  **** 				app_task_nextstep(APP_NORMAL_STATE, NORMAL_INIT_STATE);
 3899              		.loc 1 984 5
 3900 0326 0021     		movs	r1, #0
 3901 0328 0320     		movs	r0, #3
 3902 032a FFF7FEFF 		bl	app_task_nextstep
 985:../app/app.c  **** 			}
 986:../app/app.c  **** 			break;
 3903              		.loc 1 986 4
 3904 032e 1FE0     		b	.L359
 3905              	.L315:
 987:../app/app.c  **** 		case STARTUP_FAIL_STATE:
 988:../app/app.c  **** 			if (TRUE == app_pallet_ready()){
 3906              		.loc 1 988 16
 3907 0330 FFF7FEFF 		bl	app_pallet_ready
 3908 0334 0346     		mov	r3, r0
 3909              		.loc 1 988 7
 3910 0336 012B     		cmp	r3, #1
 3911 0338 06D1     		bne	.L355
 989:../app/app.c  **** 				display_led(PALLET_ERR_LED, LED_OFF);
 3912              		.loc 1 989 5
 3913 033a 0021     		movs	r1, #0
 3914 033c 0820     		movs	r0, #8
 3915 033e FFF7FEFF 		bl	display_led
 990:../app/app.c  **** 				app_task_substep = STARTUP_INIT_STATE;
 3916              		.loc 1 990 22
 3917 0342 0D4B     		ldr	r3, .L363
 3918 0344 0022     		movs	r2, #0
 3919 0346 1A70     		strb	r2, [r3]
 3920              	.L355:
 991:../app/app.c  **** 			}
 992:../app/app.c  **** 			if (TRUE == app_water_ready()){
 3921              		.loc 1 992 16
 3922 0348 FFF7FEFF 		bl	app_water_ready
 3923 034c 0346     		mov	r3, r0
 3924              		.loc 1 992 7
 3925 034e 012B     		cmp	r3, #1
 3926 0350 06D1     		bne	.L356
 993:../app/app.c  **** 				display_led(WATER_ERR_LED, LED_OFF);
 3927              		.loc 1 993 5
 3928 0352 0021     		movs	r1, #0
 3929 0354 0E20     		movs	r0, #14
 3930 0356 FFF7FEFF 		bl	display_led
 994:../app/app.c  **** 				app_task_substep = STARTUP_INIT_STATE;
 3931              		.loc 1 994 22
 3932 035a 074B     		ldr	r3, .L363
 3933 035c 0022     		movs	r2, #0
 3934 035e 1A70     		strb	r2, [r3]
 3935              	.L356:
 995:../app/app.c  **** 			}
 996:../app/app.c  **** 			osal_lyh_delay_task(Ms_50);
 3936              		.loc 1 996 4
 3937 0360 3220     		movs	r0, #50
 3938 0362 FFF7FEFF 		bl	osal_lyh_delay_task
 997:../app/app.c  **** 			break;
 3939              		.loc 1 997 4
 3940 0366 04E0     		b	.L335
 3941              	.L357:
 998:../app/app.c  **** 		default:
 999:../app/app.c  **** 			break;
 3942              		.loc 1 999 4
 3943 0368 00BF     		nop
 3944 036a 02E0     		b	.L360
 3945              	.L358:
 846:../app/app.c  **** 		/* µĄüń©ŗÕ╝ĆÕ¦ŗ’╝ÜLEDµĄüµ░┤ńü»ŃĆüńöĄµ£║ÕŖ©õĮ£ŃĆüÕ╝ĆÕÉ»ÕŖĀńāŁ */	
 3946              		.loc 1 846 4
 3947 036c 00BF     		nop
 3948 036e 00E0     		b	.L360
 3949              	.L359:
 986:../app/app.c  **** 		case STARTUP_FAIL_STATE:
 3950              		.loc 1 986 4
 3951 0370 00BF     		nop
 3952              	.L335:
 3953              	.L360:
1000:../app/app.c  **** 	}
1001:../app/app.c  **** }
 3954              		.loc 1 1001 1
 3955 0372 00BF     		nop
 3956 0374 80BD     		pop	{r7, pc}
 3957              	.L364:
 3958 0376 00BF     		.align	2
 3959              	.L363:
 3960 0378 00000000 		.word	app_task_substep
 3961              		.cfi_endproc
 3962              	.LFE167:
 3964              		.section	.text.app_normal_handler,"ax",%progbits
 3965              		.align	1
 3966              		.global	app_normal_handler
 3967              		.syntax unified
 3968              		.thumb
 3969              		.thumb_func
 3970              		.fpu softvfp
 3972              	app_normal_handler:
 3973              	.LFB168:
1002:../app/app.c  **** 
1003:../app/app.c  **** /************************************************************************
1004:../app/app.c  **** * function name: app_normal_handler
1005:../app/app.c  **** * input: non
1006:../app/app.c  **** * output: non
1007:../app/app.c  **** * description: object thread
1008:../app/app.c  **** *************************************************************************/
1009:../app/app.c  **** void app_normal_handler(void)
1010:../app/app.c  **** {
 3974              		.loc 1 1010 1
 3975              		.cfi_startproc
 3976              		@ args = 0, pretend = 0, frame = 0
 3977              		@ frame_needed = 1, uses_anonymous_args = 0
 3978 0000 80B5     		push	{r7, lr}
 3979              		.cfi_def_cfa_offset 8
 3980              		.cfi_offset 7, -8
 3981              		.cfi_offset 14, -4
 3982 0002 00AF     		add	r7, sp, #0
 3983              		.cfi_def_cfa_register 7
1011:../app/app.c  **** 	switch(app_task_substep)
 3984              		.loc 1 1011 2
 3985 0004 694B     		ldr	r3, .L383
 3986 0006 1B78     		ldrb	r3, [r3]	@ zero_extendqisi2
 3987 0008 0C2B     		cmp	r3, #12
 3988 000a 00F2CC80 		bhi	.L382
 3989 000e 01A2     		adr	r2, .L368
 3990 0010 52F823F0 		ldr	pc, [r2, r3, lsl #2]
 3991              		.p2align 2
 3992              	.L368:
 3993 0014 49000000 		.word	.L380+1
 3994 0018 51000000 		.word	.L379+1
 3995 001c 8B000000 		.word	.L378+1
 3996 0020 93000000 		.word	.L377+1
 3997 0024 CD000000 		.word	.L376+1
 3998 0028 D5000000 		.word	.L375+1
 3999 002c 1D010000 		.word	.L374+1
 4000 0030 25010000 		.word	.L373+1
 4001 0034 4F010000 		.word	.L372+1
 4002 0038 57010000 		.word	.L371+1
 4003 003c 77010000 		.word	.L370+1
 4004 0040 7F010000 		.word	.L369+1
 4005 0044 9F010000 		.word	.L367+1
 4006              		.p2align 1
 4007              	.L380:
1012:../app/app.c  **** 	{
1013:../app/app.c  **** 		case NORMAL_INIT_STATE:
1014:../app/app.c  **** 			osal_lyh_delay_task(Ms_10);
 4008              		.loc 1 1014 4
 4009 0048 0A20     		movs	r0, #10
 4010 004a FFF7FEFF 		bl	osal_lyh_delay_task
1015:../app/app.c  **** 			break;
 4011              		.loc 1 1015 4
 4012 004e ABE0     		b	.L381
 4013              	.L379:
1016:../app/app.c  **** 		case NORMAL_ESPRESSO_INIT_STATE:
1017:../app/app.c  **** 			memset((uint8_t *)&manual_setup, 0, sizeof(st_opDef));
 4014              		.loc 1 1017 4
 4015 0050 0322     		movs	r2, #3
 4016 0052 0021     		movs	r1, #0
 4017 0054 5648     		ldr	r0, .L383+4
 4018 0056 FFF7FEFF 		bl	memset
1018:../app/app.c  **** 			app_led_start_init();
 4019              		.loc 1 1018 4
 4020 005a FFF7FEFF 		bl	app_led_start_init
1019:../app/app.c  **** 			app_leds_all_fun(LED_OFF);
 4021              		.loc 1 1019 4
 4022 005e 0020     		movs	r0, #0
 4023 0060 FFF7FEFF 		bl	app_leds_all_fun
1020:../app/app.c  **** 			app_leds_all_ind(LED_OFF);
 4024              		.loc 1 1020 4
 4025 0064 0020     		movs	r0, #0
 4026 0066 FFF7FEFF 		bl	app_leds_all_ind
1021:../app/app.c  **** 			display_led(ESPRESSO1_LED, LED_ON);
 4027              		.loc 1 1021 4
 4028 006a 0121     		movs	r1, #1
 4029 006c 0C20     		movs	r0, #12
 4030 006e FFF7FEFF 		bl	display_led
1022:../app/app.c  **** 			display_led(COFFEE2_LED, LED_ON);
 4031              		.loc 1 1022 4
 4032 0072 0121     		movs	r1, #1
 4033 0074 0A20     		movs	r0, #10
 4034 0076 FFF7FEFF 		bl	display_led
1023:../app/app.c  **** 			display_led(WATER1_LED, LED_ON);
 4035              		.loc 1 1023 4
 4036 007a 0121     		movs	r1, #1
 4037 007c 0420     		movs	r0, #4
 4038 007e FFF7FEFF 		bl	display_led
1024:../app/app.c  **** 			app_task_substep = NORMAL_ESPRESSO_RUN_STATE;
 4039              		.loc 1 1024 21
 4040 0082 4A4B     		ldr	r3, .L383
 4041 0084 0222     		movs	r2, #2
 4042 0086 1A70     		strb	r2, [r3]
1025:../app/app.c  **** 			break;
 4043              		.loc 1 1025 4
 4044 0088 8EE0     		b	.L381
 4045              	.L378:
1026:../app/app.c  **** 		case NORMAL_ESPRESSO_RUN_STATE:
1027:../app/app.c  **** 			osal_lyh_delay_task(Ms_10);
 4046              		.loc 1 1027 4
 4047 008a 0A20     		movs	r0, #10
 4048 008c FFF7FEFF 		bl	osal_lyh_delay_task
1028:../app/app.c  **** 			break;
 4049              		.loc 1 1028 4
 4050 0090 8AE0     		b	.L381
 4051              	.L377:
1029:../app/app.c  **** 		case NORMAL_AMERICANO_INIT_STATE:
1030:../app/app.c  **** 			memset((uint8_t *)&manual_setup, 0, sizeof(st_opDef));
 4052              		.loc 1 1030 4
 4053 0092 0322     		movs	r2, #3
 4054 0094 0021     		movs	r1, #0
 4055 0096 4648     		ldr	r0, .L383+4
 4056 0098 FFF7FEFF 		bl	memset
1031:../app/app.c  **** 			app_led_start_init();
 4057              		.loc 1 1031 4
 4058 009c FFF7FEFF 		bl	app_led_start_init
1032:../app/app.c  **** 			app_leds_all_fun(LED_OFF);
 4059              		.loc 1 1032 4
 4060 00a0 0020     		movs	r0, #0
 4061 00a2 FFF7FEFF 		bl	app_leds_all_fun
1033:../app/app.c  **** 			app_leds_all_ind(LED_OFF);
 4062              		.loc 1 1033 4
 4063 00a6 0020     		movs	r0, #0
 4064 00a8 FFF7FEFF 		bl	app_leds_all_ind
1034:../app/app.c  **** 			display_led(AMERICANO1_LED, LED_ON);
 4065              		.loc 1 1034 4
 4066 00ac 0121     		movs	r1, #1
 4067 00ae 0F20     		movs	r0, #15
 4068 00b0 FFF7FEFF 		bl	display_led
1035:../app/app.c  **** 			display_led(COFFEE2_LED, LED_ON);
 4069              		.loc 1 1035 4
 4070 00b4 0121     		movs	r1, #1
 4071 00b6 0A20     		movs	r0, #10
 4072 00b8 FFF7FEFF 		bl	display_led
1036:../app/app.c  **** 			display_led(WATER1_LED, LED_ON);
 4073              		.loc 1 1036 4
 4074 00bc 0121     		movs	r1, #1
 4075 00be 0420     		movs	r0, #4
 4076 00c0 FFF7FEFF 		bl	display_led
1037:../app/app.c  **** 			app_task_substep = NORMAL_AMERICANO_RUN_STATE;
 4077              		.loc 1 1037 21
 4078 00c4 394B     		ldr	r3, .L383
 4079 00c6 0422     		movs	r2, #4
 4080 00c8 1A70     		strb	r2, [r3]
1038:../app/app.c  **** 			break;
 4081              		.loc 1 1038 4
 4082 00ca 6DE0     		b	.L381
 4083              	.L376:
1039:../app/app.c  **** 		case NORMAL_AMERICANO_RUN_STATE:
1040:../app/app.c  **** 			osal_lyh_delay_task(Ms_10);
 4084              		.loc 1 1040 4
 4085 00cc 0A20     		movs	r0, #10
 4086 00ce FFF7FEFF 		bl	osal_lyh_delay_task
1041:../app/app.c  **** 			break;
 4087              		.loc 1 1041 4
 4088 00d2 69E0     		b	.L381
 4089              	.L375:
1042:../app/app.c  **** 		case NORMAL_HOTWATER_INIT_STATE:
1043:../app/app.c  **** 			memset((uint8_t *)&manual_setup, 0, sizeof(st_opDef));
 4090              		.loc 1 1043 4
 4091 00d4 0322     		movs	r2, #3
 4092 00d6 0021     		movs	r1, #0
 4093 00d8 3548     		ldr	r0, .L383+4
 4094 00da FFF7FEFF 		bl	memset
1044:../app/app.c  **** 			manual_setup.water = 2;
 4095              		.loc 1 1044 23
 4096 00de 344B     		ldr	r3, .L383+4
 4097 00e0 0222     		movs	r2, #2
 4098 00e2 9A70     		strb	r2, [r3, #2]
1045:../app/app.c  **** 			app_led_start_init();
 4099              		.loc 1 1045 4
 4100 00e4 FFF7FEFF 		bl	app_led_start_init
1046:../app/app.c  **** 			app_leds_all_fun(LED_OFF);
 4101              		.loc 1 1046 4
 4102 00e8 0020     		movs	r0, #0
 4103 00ea FFF7FEFF 		bl	app_leds_all_fun
1047:../app/app.c  **** 			app_leds_all_ind(LED_OFF);
 4104              		.loc 1 1047 4
 4105 00ee 0020     		movs	r0, #0
 4106 00f0 FFF7FEFF 		bl	app_leds_all_ind
1048:../app/app.c  **** 			display_led(HOT_WATER, LED_ON);
 4107              		.loc 1 1048 4
 4108 00f4 0121     		movs	r1, #1
 4109 00f6 1520     		movs	r0, #21
 4110 00f8 FFF7FEFF 		bl	display_led
1049:../app/app.c  **** 			display_led(WATER1_LED, LED_ON);
 4111              		.loc 1 1049 4
 4112 00fc 0121     		movs	r1, #1
 4113 00fe 0420     		movs	r0, #4
 4114 0100 FFF7FEFF 		bl	display_led
1050:../app/app.c  **** 			display_led(WATER2_LED, LED_ON);
 4115              		.loc 1 1050 4
 4116 0104 0121     		movs	r1, #1
 4117 0106 1920     		movs	r0, #25
 4118 0108 FFF7FEFF 		bl	display_led
1051:../app/app.c  **** 			display_led(WATER3_LED, LED_ON);
 4119              		.loc 1 1051 4
 4120 010c 0121     		movs	r1, #1
 4121 010e 1020     		movs	r0, #16
 4122 0110 FFF7FEFF 		bl	display_led
1052:../app/app.c  **** 			app_task_substep = NORMAL_HOTWATER_RUN_STATE;
 4123              		.loc 1 1052 21
 4124 0114 254B     		ldr	r3, .L383
 4125 0116 0622     		movs	r2, #6
 4126 0118 1A70     		strb	r2, [r3]
1053:../app/app.c  **** 			break;
 4127              		.loc 1 1053 4
 4128 011a 45E0     		b	.L381
 4129              	.L374:
1054:../app/app.c  **** 		case NORMAL_HOTWATER_RUN_STATE:
1055:../app/app.c  **** 			osal_lyh_delay_task(Ms_10);
 4130              		.loc 1 1055 4
 4131 011c 0A20     		movs	r0, #10
 4132 011e FFF7FEFF 		bl	osal_lyh_delay_task
1056:../app/app.c  **** 			break;
 4133              		.loc 1 1056 4
 4134 0122 41E0     		b	.L381
 4135              	.L373:
1057:../app/app.c  **** 		case NORMAL_STEAM_INIT_STATE:
1058:../app/app.c  **** 			memset((uint8_t *)&manual_setup, 0, sizeof(st_opDef));
 4136              		.loc 1 1058 4
 4137 0124 0322     		movs	r2, #3
 4138 0126 0021     		movs	r1, #0
 4139 0128 2148     		ldr	r0, .L383+4
 4140 012a FFF7FEFF 		bl	memset
1059:../app/app.c  **** 			app_led_start_init();
 4141              		.loc 1 1059 4
 4142 012e FFF7FEFF 		bl	app_led_start_init
1060:../app/app.c  **** 			app_leds_all_fun(LED_OFF);
 4143              		.loc 1 1060 4
 4144 0132 0020     		movs	r0, #0
 4145 0134 FFF7FEFF 		bl	app_leds_all_fun
1061:../app/app.c  **** 			app_leds_all_ind(LED_OFF);
 4146              		.loc 1 1061 4
 4147 0138 0020     		movs	r0, #0
 4148 013a FFF7FEFF 		bl	app_leds_all_ind
1062:../app/app.c  **** 			display_led(STEAM_LED, LED_ON);
 4149              		.loc 1 1062 4
 4150 013e 0121     		movs	r1, #1
 4151 0140 1220     		movs	r0, #18
 4152 0142 FFF7FEFF 		bl	display_led
1063:../app/app.c  **** 			app_task_substep = NORMAL_STEAM_RUN_STATE;
 4153              		.loc 1 1063 21
 4154 0146 194B     		ldr	r3, .L383
 4155 0148 0822     		movs	r2, #8
 4156 014a 1A70     		strb	r2, [r3]
1064:../app/app.c  **** 			break;
 4157              		.loc 1 1064 4
 4158 014c 2CE0     		b	.L381
 4159              	.L372:
1065:../app/app.c  **** 		case NORMAL_STEAM_RUN_STATE:
1066:../app/app.c  **** 			osal_lyh_delay_task(Ms_10);
 4160              		.loc 1 1066 4
 4161 014e 0A20     		movs	r0, #10
 4162 0150 FFF7FEFF 		bl	osal_lyh_delay_task
1067:../app/app.c  **** 			break;
 4163              		.loc 1 1067 4
 4164 0154 28E0     		b	.L381
 4165              	.L371:
1068:../app/app.c  **** 		case NORMAL_AQUA_INIT_STATE:
1069:../app/app.c  **** 			app_led_start_init();
 4166              		.loc 1 1069 4
 4167 0156 FFF7FEFF 		bl	app_led_start_init
1070:../app/app.c  **** 			app_leds_all_fun(LED_OFF);
 4168              		.loc 1 1070 4
 4169 015a 0020     		movs	r0, #0
 4170 015c FFF7FEFF 		bl	app_leds_all_fun
1071:../app/app.c  **** 			app_leds_all_ind(LED_OFF);
 4171              		.loc 1 1071 4
 4172 0160 0020     		movs	r0, #0
 4173 0162 FFF7FEFF 		bl	app_leds_all_ind
1072:../app/app.c  **** 			display_led(AQUA_CLEAN_LED, LED_ON);
 4174              		.loc 1 1072 4
 4175 0166 0121     		movs	r1, #1
 4176 0168 1120     		movs	r0, #17
 4177 016a FFF7FEFF 		bl	display_led
1073:../app/app.c  **** 			app_task_substep = NORMAL_AQUA_RUN_STATE;
 4178              		.loc 1 1073 21
 4179 016e 0F4B     		ldr	r3, .L383
 4180 0170 0A22     		movs	r2, #10
 4181 0172 1A70     		strb	r2, [r3]
1074:../app/app.c  **** 			break;
 4182              		.loc 1 1074 4
 4183 0174 18E0     		b	.L381
 4184              	.L370:
1075:../app/app.c  **** 		case NORMAL_AQUA_RUN_STATE:
1076:../app/app.c  **** 			osal_lyh_delay_task(Ms_10);
 4185              		.loc 1 1076 4
 4186 0176 0A20     		movs	r0, #10
 4187 0178 FFF7FEFF 		bl	osal_lyh_delay_task
1077:../app/app.c  **** 			break;
 4188              		.loc 1 1077 4
 4189 017c 14E0     		b	.L381
 4190              	.L369:
1078:../app/app.c  **** 		case NORMAL_CALC_INIT_STATE:
1079:../app/app.c  **** 			app_led_start_init();
 4191              		.loc 1 1079 4
 4192 017e FFF7FEFF 		bl	app_led_start_init
1080:../app/app.c  **** 			app_leds_all_fun(LED_OFF);
 4193              		.loc 1 1080 4
 4194 0182 0020     		movs	r0, #0
 4195 0184 FFF7FEFF 		bl	app_leds_all_fun
1081:../app/app.c  **** 			app_leds_all_ind(LED_OFF);
 4196              		.loc 1 1081 4
 4197 0188 0020     		movs	r0, #0
 4198 018a FFF7FEFF 		bl	app_leds_all_ind
1082:../app/app.c  **** 			display_led(CALC_CLEAN_LED, LED_ON);
 4199              		.loc 1 1082 4
 4200 018e 0121     		movs	r1, #1
 4201 0190 0220     		movs	r0, #2
 4202 0192 FFF7FEFF 		bl	display_led
1083:../app/app.c  **** 			app_task_substep = NORMAL_CALC_RUN_STATE;
 4203              		.loc 1 1083 21
 4204 0196 054B     		ldr	r3, .L383
 4205 0198 0C22     		movs	r2, #12
 4206 019a 1A70     		strb	r2, [r3]
1084:../app/app.c  **** 			break;
 4207              		.loc 1 1084 4
 4208 019c 04E0     		b	.L381
 4209              	.L367:
1085:../app/app.c  **** 		case NORMAL_CALC_RUN_STATE:
1086:../app/app.c  **** 			osal_lyh_delay_task(Ms_10);
 4210              		.loc 1 1086 4
 4211 019e 0A20     		movs	r0, #10
 4212 01a0 FFF7FEFF 		bl	osal_lyh_delay_task
1087:../app/app.c  **** 			break;
 4213              		.loc 1 1087 4
 4214 01a4 00E0     		b	.L381
 4215              	.L382:
1088:../app/app.c  **** 		default:
1089:../app/app.c  **** 			break;
 4216              		.loc 1 1089 4
 4217 01a6 00BF     		nop
 4218              	.L381:
1090:../app/app.c  **** 	}
1091:../app/app.c  **** }
 4219              		.loc 1 1091 1
 4220 01a8 00BF     		nop
 4221 01aa 80BD     		pop	{r7, pc}
 4222              	.L384:
 4223              		.align	2
 4224              	.L383:
 4225 01ac 00000000 		.word	app_task_substep
 4226 01b0 00000000 		.word	manual_setup
 4227              		.cfi_endproc
 4228              	.LFE168:
 4230              		.section	.text.app_espresso_handler,"ax",%progbits
 4231              		.align	1
 4232              		.global	app_espresso_handler
 4233              		.syntax unified
 4234              		.thumb
 4235              		.thumb_func
 4236              		.fpu softvfp
 4238              	app_espresso_handler:
 4239              	.LFB169:
1092:../app/app.c  **** 
1093:../app/app.c  **** /************************************************************************
1094:../app/app.c  **** * function name: app_espresso_handler
1095:../app/app.c  **** * input: non
1096:../app/app.c  **** * output: non
1097:../app/app.c  **** * description: object thread
1098:../app/app.c  **** *************************************************************************/
1099:../app/app.c  **** void app_espresso_handler(void)
1100:../app/app.c  **** {
 4240              		.loc 1 1100 1
 4241              		.cfi_startproc
 4242              		@ args = 0, pretend = 0, frame = 0
 4243              		@ frame_needed = 1, uses_anonymous_args = 0
 4244 0000 80B5     		push	{r7, lr}
 4245              		.cfi_def_cfa_offset 8
 4246              		.cfi_offset 7, -8
 4247              		.cfi_offset 14, -4
 4248 0002 00AF     		add	r7, sp, #0
 4249              		.cfi_def_cfa_register 7
1101:../app/app.c  **** 	switch(app_task_substep)
 4250              		.loc 1 1101 2
 4251 0004 BD4B     		ldr	r3, .L443
 4252 0006 1B78     		ldrb	r3, [r3]	@ zero_extendqisi2
 4253 0008 142B     		cmp	r3, #20
 4254 000a 00F20F82 		bhi	.L439
 4255 000e 01A2     		adr	r2, .L388
 4256 0010 52F823F0 		ldr	pc, [r2, r3, lsl #2]
 4257              		.p2align 2
 4258              	.L388:
 4259 0014 69000000 		.word	.L408+1
 4260 0018 A5000000 		.word	.L407+1
 4261 001c C3000000 		.word	.L406+1
 4262 0020 FF000000 		.word	.L405+1
 4263 0024 19010000 		.word	.L404+1
 4264 0028 4B010000 		.word	.L403+1
 4265 002c AF010000 		.word	.L402+1
 4266 0030 DF010000 		.word	.L401+1
 4267 0034 FF010000 		.word	.L400+1
 4268 0038 3B020000 		.word	.L399+1
 4269 003c 57020000 		.word	.L398+1
 4270 0040 6B020000 		.word	.L397+1
 4271 0044 CD020000 		.word	.L396+1
 4272 0048 E1020000 		.word	.L395+1
 4273 004c 11030000 		.word	.L394+1
 4274 0050 41030000 		.word	.L393+1
 4275 0054 61030000 		.word	.L392+1
 4276 0058 9D030000 		.word	.L391+1
 4277 005c B7030000 		.word	.L390+1
 4278 0060 E9030000 		.word	.L389+1
 4279 0064 0F040000 		.word	.L387+1
 4280              		.p2align 1
 4281              	.L408:
1102:../app/app.c  **** 	{
1103:../app/app.c  **** 		/* ÕłØÕ¦ŗÕī¢ńŖČµĆü */
1104:../app/app.c  **** 		case ESPRESSO_INIT_STATE:
1105:../app/app.c  **** 			CERRNT_STATE = INIT_AND_GRIND_STATE;	//Ķ«░ÕĮĢĶ┐øÕ║”
 4282              		.loc 1 1105 17
 4283 0068 A54B     		ldr	r3, .L443+4
 4284 006a 0122     		movs	r2, #1
 4285 006c 1A70     		strb	r2, [r3]
1106:../app/app.c  **** 			app_leds_all_fun(LED_OFF);
 4286              		.loc 1 1106 4
 4287 006e 0020     		movs	r0, #0
 4288 0070 FFF7FEFF 		bl	app_leds_all_fun
1107:../app/app.c  **** 			app_leds_all_ind(LED_OFF);
 4289              		.loc 1 1107 4
 4290 0074 0020     		movs	r0, #0
 4291 0076 FFF7FEFF 		bl	app_leds_all_ind
1108:../app/app.c  **** 			display_led(START_LED, LED_ON);
 4292              		.loc 1 1108 4
 4293 007a 0121     		movs	r1, #1
 4294 007c 0520     		movs	r0, #5
 4295 007e FFF7FEFF 		bl	display_led
1109:../app/app.c  **** 			app_led_espresso_init();		//ÕłØÕ¦ŗÕī¢espressoµīćńż║ńü»ķŚ¬ńāü
 4296              		.loc 1 1109 4
 4297 0082 FFF7FEFF 		bl	app_led_espresso_init
1110:../app/app.c  **** 			if(1 == manual_setup.cup){		//Õłżµ¢Łµ£¼µ¼ĪÕłČõĮ£µØ»µĢ░
 4298              		.loc 1 1110 24
 4299 0086 9F4B     		ldr	r3, .L443+8
 4300 0088 1B78     		ldrb	r3, [r3]	@ zero_extendqisi2
 4301              		.loc 1 1110 6
 4302 008a 012B     		cmp	r3, #1
 4303 008c 03D1     		bne	.L409
1111:../app/app.c  **** 				cup_loop = 1;
 4304              		.loc 1 1111 14
 4305 008e 9E4B     		ldr	r3, .L443+12
 4306 0090 0122     		movs	r2, #1
 4307 0092 1A70     		strb	r2, [r3]
 4308 0094 02E0     		b	.L410
 4309              	.L409:
1112:../app/app.c  **** 			}
1113:../app/app.c  **** 			else{
1114:../app/app.c  **** 				cup_loop = 0;
 4310              		.loc 1 1114 14
 4311 0096 9C4B     		ldr	r3, .L443+12
 4312 0098 0022     		movs	r2, #0
 4313 009a 1A70     		strb	r2, [r3]
 4314              	.L410:
1115:../app/app.c  **** 			}
1116:../app/app.c  **** 			app_task_substep = ESPRESSO_MOTO_CHECK_STATE;
 4315              		.loc 1 1116 21
 4316 009c 974B     		ldr	r3, .L443
 4317 009e 0122     		movs	r2, #1
 4318 00a0 1A70     		strb	r2, [r3]
1117:../app/app.c  **** 			break;
 4319              		.loc 1 1117 4
 4320 00a2 C8E1     		b	.L411
 4321              	.L407:
1118:../app/app.c  **** 		/* ĶÉāÕÅ¢ńöĄµ£║õĮŹńĮ«µŻĆµĄŗ */
1119:../app/app.c  **** 		case ESPRESSO_MOTO_CHECK_STATE:
1120:../app/app.c  **** 			dc_motor_ClearFault();		
 4322              		.loc 1 1120 4
 4323 00a4 FFF7FEFF 		bl	dc_motor_ClearFault
1121:../app/app.c  **** 			dc_motor_Start(MOTOR_RIGHT);
 4324              		.loc 1 1121 4
 4325 00a8 0120     		movs	r0, #1
 4326 00aa FFF7FEFF 		bl	dc_motor_Start
1122:../app/app.c  **** 			osal_lyh_delay_task(Ms_100);
 4327              		.loc 1 1122 4
 4328 00ae 6420     		movs	r0, #100
 4329 00b0 FFF7FEFF 		bl	osal_lyh_delay_task
1123:../app/app.c  **** 			run_max_time = RIGHT_TIMER(Ms_3000, Ms_100);
 4330              		.loc 1 1123 17
 4331 00b4 954B     		ldr	r3, .L443+16
 4332 00b6 1E22     		movs	r2, #30
 4333 00b8 1A80     		strh	r2, [r3]	@ movhi
1124:../app/app.c  **** 			app_task_substep = ESPRESSO_MOTO_CHECK_JUDGE_STATE;
 4334              		.loc 1 1124 21
 4335 00ba 904B     		ldr	r3, .L443
 4336 00bc 0222     		movs	r2, #2
 4337 00be 1A70     		strb	r2, [r3]
1125:../app/app.c  **** 			break;
 4338              		.loc 1 1125 4
 4339 00c0 B9E1     		b	.L411
 4340              	.L406:
1126:../app/app.c  **** 		/* Õłżµ¢ŁĶÉāÕÅ¢ńöĄµ£║µś»ÕÉ”Ķ¦”ńó░ÕÄ¤ńé╣Ķ¦”ńé╣ */
1127:../app/app.c  **** 		case ESPRESSO_MOTO_CHECK_JUDGE_STATE:
1128:../app/app.c  **** 			if ((MOTOR_STATE_STOPED ==dc_motor_GetState())
 4341              		.loc 1 1128 30
 4342 00c2 FFF7FEFF 		bl	dc_motor_GetState
 4343 00c6 0346     		mov	r3, r0
 4344              		.loc 1 1128 7
 4345 00c8 002B     		cmp	r3, #0
 4346 00ca 0ED0     		beq	.L412
1129:../app/app.c  **** 				|| (TRUE == app_motor_ready())
 4347              		.loc 1 1129 17
 4348 00cc FFF7FEFF 		bl	app_motor_ready
 4349 00d0 0346     		mov	r3, r0
 4350              		.loc 1 1129 5
 4351 00d2 012B     		cmp	r3, #1
 4352 00d4 09D0     		beq	.L412
1130:../app/app.c  **** 				|| (--run_max_time == 0)){
 4353              		.loc 1 1130 9
 4354 00d6 8D4B     		ldr	r3, .L443+16
 4355 00d8 1B88     		ldrh	r3, [r3]
 4356 00da 013B     		subs	r3, r3, #1
 4357 00dc 9AB2     		uxth	r2, r3
 4358              		.loc 1 1130 5
 4359 00de 8B4B     		ldr	r3, .L443+16
 4360 00e0 1A80     		strh	r2, [r3]	@ movhi
 4361              		.loc 1 1130 9
 4362 00e2 8A4B     		ldr	r3, .L443+16
 4363 00e4 1B88     		ldrh	r3, [r3]
 4364              		.loc 1 1130 5
 4365 00e6 002B     		cmp	r3, #0
 4366 00e8 05D1     		bne	.L413
 4367              	.L412:
1131:../app/app.c  **** 				dc_motor_Stop();
 4368              		.loc 1 1131 5
 4369 00ea FFF7FEFF 		bl	dc_motor_Stop
1132:../app/app.c  **** 				app_task_substep = ESPRESSO_MOTO_FIRST_RST_STATE;					
 4370              		.loc 1 1132 22
 4371 00ee 834B     		ldr	r3, .L443
 4372 00f0 0322     		movs	r2, #3
 4373 00f2 1A70     		strb	r2, [r3]
1133:../app/app.c  **** 			}
1134:../app/app.c  **** 			else {
1135:../app/app.c  **** 				osal_lyh_delay_task(Ms_100);
1136:../app/app.c  **** 			}
1137:../app/app.c  **** 			break;
 4374              		.loc 1 1137 4
 4375 00f4 9FE1     		b	.L411
 4376              	.L413:
1135:../app/app.c  **** 			}
 4377              		.loc 1 1135 5
 4378 00f6 6420     		movs	r0, #100
 4379 00f8 FFF7FEFF 		bl	osal_lyh_delay_task
 4380              		.loc 1 1137 4
 4381 00fc 9BE1     		b	.L411
 4382              	.L405:
1138:../app/app.c  **** 		/* ĶÉāÕÅ¢ńöĄµ£║ÕÉæÕø×ĶĮ¼Õł░ÕÄ¤ńé╣ */
1139:../app/app.c  **** 		case ESPRESSO_MOTO_FIRST_RST_STATE:
1140:../app/app.c  **** 			dc_motor_Start(MOTOR_LEFT);
 4383              		.loc 1 1140 4
 4384 00fe 0220     		movs	r0, #2
 4385 0100 FFF7FEFF 		bl	dc_motor_Start
1141:../app/app.c  **** 			osal_lyh_delay_task(Ms_100);
 4386              		.loc 1 1141 4
 4387 0104 6420     		movs	r0, #100
 4388 0106 FFF7FEFF 		bl	osal_lyh_delay_task
1142:../app/app.c  **** 			run_max_time = LEFT_TIMER(MOTOR_FIX_TIME, Ms_100);
 4389              		.loc 1 1142 17
 4390 010a 804B     		ldr	r3, .L443+16
 4391 010c 0322     		movs	r2, #3
 4392 010e 1A80     		strh	r2, [r3]	@ movhi
1143:../app/app.c  **** 			app_task_substep = ESPRESSO_MOTO_CHECK_COMPLETE_STATE;
 4393              		.loc 1 1143 21
 4394 0110 7A4B     		ldr	r3, .L443
 4395 0112 0422     		movs	r2, #4
 4396 0114 1A70     		strb	r2, [r3]
1144:../app/app.c  **** 			break;
 4397              		.loc 1 1144 4
 4398 0116 8EE1     		b	.L411
 4399              	.L404:
1145:../app/app.c  **** 		/* Õłżµ¢ŁĶÉāÕÅ¢ńöĄµ£║µś»ÕÉ”Õ«īµłÉÕø×ĶĮ¼ */
1146:../app/app.c  **** 		case ESPRESSO_MOTO_CHECK_COMPLETE_STATE:
1147:../app/app.c  **** 			if (1/*(FAIL == app_motor_ready())*/	// deleting point,(temp to cancel)
1148:../app/app.c  **** 				&& ((MOTOR_STATE_STOPED ==dc_motor_GetState())
 4400              		.loc 1 1148 31
 4401 0118 FFF7FEFF 		bl	dc_motor_GetState
 4402 011c 0346     		mov	r3, r0
1147:../app/app.c  **** 				&& ((MOTOR_STATE_STOPED ==dc_motor_GetState())
 4403              		.loc 1 1147 7
 4404 011e 002B     		cmp	r3, #0
 4405 0120 09D0     		beq	.L415
1149:../app/app.c  **** 				|| (--run_max_time == 0))){
 4406              		.loc 1 1149 9
 4407 0122 7A4B     		ldr	r3, .L443+16
 4408 0124 1B88     		ldrh	r3, [r3]
 4409 0126 013B     		subs	r3, r3, #1
 4410 0128 9AB2     		uxth	r2, r3
1148:../app/app.c  **** 				|| (--run_max_time == 0))){
 4411              		.loc 1 1148 5
 4412 012a 784B     		ldr	r3, .L443+16
 4413 012c 1A80     		strh	r2, [r3]	@ movhi
 4414              		.loc 1 1149 9
 4415 012e 774B     		ldr	r3, .L443+16
 4416 0130 1B88     		ldrh	r3, [r3]
1148:../app/app.c  **** 				|| (--run_max_time == 0))){
 4417              		.loc 1 1148 5
 4418 0132 002B     		cmp	r3, #0
 4419 0134 05D1     		bne	.L416
 4420              	.L415:
1150:../app/app.c  **** 				dc_motor_Stop();
 4421              		.loc 1 1150 5
 4422 0136 FFF7FEFF 		bl	dc_motor_Stop
1151:../app/app.c  **** 				app_task_substep = ESPRESSO_GRIND_ING_STATE;					
 4423              		.loc 1 1151 22
 4424 013a 704B     		ldr	r3, .L443
 4425 013c 0522     		movs	r2, #5
 4426 013e 1A70     		strb	r2, [r3]
1152:../app/app.c  **** 			}
1153:../app/app.c  **** 			else {
1154:../app/app.c  **** 				osal_lyh_delay_task(Ms_100);
1155:../app/app.c  **** 			}
1156:../app/app.c  **** 			break;
 4427              		.loc 1 1156 4
 4428 0140 79E1     		b	.L411
 4429              	.L416:
1154:../app/app.c  **** 			}
 4430              		.loc 1 1154 5
 4431 0142 6420     		movs	r0, #100
 4432 0144 FFF7FEFF 		bl	osal_lyh_delay_task
 4433              		.loc 1 1156 4
 4434 0148 75E1     		b	.L411
 4435              	.L403:
1157:../app/app.c  **** 		/* ńĀöńŻ©ÕÆ¢ÕĢĪĶ▒å */
1158:../app/app.c  **** 		case ESPRESSO_GRIND_ING_STATE:
1159:../app/app.c  **** 			app_turn_heat_on(TARGET_TEMP_COFFEE);
 4436              		.loc 1 1159 4
 4437 014a 40F6DC20 		movw	r0, #2780
 4438 014e FFF7FEFF 		bl	app_turn_heat_on
1160:../app/app.c  **** 			if(0 == manual_setup.coffee)	//ńĀöńŻ©µŚČķŚ┤µĀ╣µŹ«coffeeń©ŗÕ║”Ķ░āµĢ┤’╝Üx1=8s,x2=9s,x3=10s
 4439              		.loc 1 1160 24
 4440 0152 6C4B     		ldr	r3, .L443+8
 4441 0154 5B78     		ldrb	r3, [r3, #1]	@ zero_extendqisi2
 4442              		.loc 1 1160 6
 4443 0156 002B     		cmp	r3, #0
 4444 0158 0AD1     		bne	.L418
1161:../app/app.c  **** 			{
1162:../app/app.c  **** 				ac_grind_start(1000);		//ÕÉ»ÕŖ©ńĀöńŻ©ńöĄµ£║
 4445              		.loc 1 1162 5
 4446 015a 4FF47A70 		mov	r0, #1000
 4447 015e FFF7FEFF 		bl	ac_grind_start
1163:../app/app.c  **** 				run_max_time = GRIND_TIMER(Ms_8000, Ms_100);
 4448              		.loc 1 1163 18
 4449 0162 6A4B     		ldr	r3, .L443+16
 4450 0164 5022     		movs	r2, #80
 4451 0166 1A80     		strh	r2, [r3]	@ movhi
1164:../app/app.c  **** 				app_task_substep = ESPRESSO_GRIND_END_STATE;
 4452              		.loc 1 1164 22
 4453 0168 644B     		ldr	r3, .L443
 4454 016a 0622     		movs	r2, #6
 4455 016c 1A70     		strb	r2, [r3]
1165:../app/app.c  **** 			}
1166:../app/app.c  **** 			else if (1 == manual_setup.coffee)
1167:../app/app.c  **** 			{
1168:../app/app.c  **** 				ac_grind_start(1000);		//ÕÉ»ÕŖ©ńĀöńŻ©ńöĄµ£║
1169:../app/app.c  **** 				run_max_time = GRIND_TIMER(Ms_9000, Ms_100);
1170:../app/app.c  **** 				app_task_substep = ESPRESSO_GRIND_END_STATE;	
1171:../app/app.c  **** 			}			
1172:../app/app.c  **** 			else if(2 == manual_setup.coffee)
1173:../app/app.c  **** 			{
1174:../app/app.c  **** 				ac_grind_start(1000);		//ÕÉ»ÕŖ©ńĀöńŻ©ńöĄµ£║
1175:../app/app.c  **** 				run_max_time = GRIND_TIMER(Ms_10000, Ms_100);
1176:../app/app.c  **** 				app_task_substep = ESPRESSO_GRIND_END_STATE;	
1177:../app/app.c  **** 			}
1178:../app/app.c  **** 			break;
 4456              		.loc 1 1178 4
 4457 016e 5FE1     		b	.L440
 4458              	.L418:
1166:../app/app.c  **** 			{
 4459              		.loc 1 1166 30
 4460 0170 644B     		ldr	r3, .L443+8
 4461 0172 5B78     		ldrb	r3, [r3, #1]	@ zero_extendqisi2
1166:../app/app.c  **** 			{
 4462              		.loc 1 1166 12
 4463 0174 012B     		cmp	r3, #1
 4464 0176 0AD1     		bne	.L420
1168:../app/app.c  **** 				run_max_time = GRIND_TIMER(Ms_9000, Ms_100);
 4465              		.loc 1 1168 5
 4466 0178 4FF47A70 		mov	r0, #1000
 4467 017c FFF7FEFF 		bl	ac_grind_start
1169:../app/app.c  **** 				app_task_substep = ESPRESSO_GRIND_END_STATE;	
 4468              		.loc 1 1169 18
 4469 0180 624B     		ldr	r3, .L443+16
 4470 0182 5A22     		movs	r2, #90
 4471 0184 1A80     		strh	r2, [r3]	@ movhi
1170:../app/app.c  **** 			}			
 4472              		.loc 1 1170 22
 4473 0186 5D4B     		ldr	r3, .L443
 4474 0188 0622     		movs	r2, #6
 4475 018a 1A70     		strb	r2, [r3]
 4476              		.loc 1 1178 4
 4477 018c 50E1     		b	.L440
 4478              	.L420:
1172:../app/app.c  **** 			{
 4479              		.loc 1 1172 29
 4480 018e 5D4B     		ldr	r3, .L443+8
 4481 0190 5B78     		ldrb	r3, [r3, #1]	@ zero_extendqisi2
1172:../app/app.c  **** 			{
 4482              		.loc 1 1172 11
 4483 0192 022B     		cmp	r3, #2
 4484 0194 40F04C81 		bne	.L440
1174:../app/app.c  **** 				run_max_time = GRIND_TIMER(Ms_10000, Ms_100);
 4485              		.loc 1 1174 5
 4486 0198 4FF47A70 		mov	r0, #1000
 4487 019c FFF7FEFF 		bl	ac_grind_start
1175:../app/app.c  **** 				app_task_substep = ESPRESSO_GRIND_END_STATE;	
 4488              		.loc 1 1175 18
 4489 01a0 5A4B     		ldr	r3, .L443+16
 4490 01a2 6422     		movs	r2, #100
 4491 01a4 1A80     		strh	r2, [r3]	@ movhi
1176:../app/app.c  **** 			}
 4492              		.loc 1 1176 22
 4493 01a6 554B     		ldr	r3, .L443
 4494 01a8 0622     		movs	r2, #6
 4495 01aa 1A70     		strb	r2, [r3]
 4496              		.loc 1 1178 4
 4497 01ac 40E1     		b	.L440
 4498              	.L402:
1179:../app/app.c  **** 		case ESPRESSO_GRIND_END_STATE:
1180:../app/app.c  **** 			if (--run_max_time == 0){	//Õłżµ¢ŁńĀöńŻ©µŚČķŚ┤µś»ÕÉ”Õł░ĶŠŠ
 4499              		.loc 1 1180 8
 4500 01ae 574B     		ldr	r3, .L443+16
 4501 01b0 1B88     		ldrh	r3, [r3]
 4502 01b2 013B     		subs	r3, r3, #1
 4503 01b4 9AB2     		uxth	r2, r3
 4504              		.loc 1 1180 7
 4505 01b6 554B     		ldr	r3, .L443+16
 4506 01b8 1A80     		strh	r2, [r3]	@ movhi
 4507              		.loc 1 1180 8
 4508 01ba 544B     		ldr	r3, .L443+16
 4509 01bc 1B88     		ldrh	r3, [r3]
 4510              		.loc 1 1180 7
 4511 01be 002B     		cmp	r3, #0
 4512 01c0 09D1     		bne	.L421
1181:../app/app.c  **** 				ac_grind_stop();
 4513              		.loc 1 1181 5
 4514 01c2 FFF7FEFF 		bl	ac_grind_stop
1182:../app/app.c  **** 				osal_lyh_delay_task(Ms_1000);
 4515              		.loc 1 1182 5
 4516 01c6 4FF47A70 		mov	r0, #1000
 4517 01ca FFF7FEFF 		bl	osal_lyh_delay_task
1183:../app/app.c  **** 				app_task_substep = ESPRESSO_MOTO_GO_BREW_STATE;	
 4518              		.loc 1 1183 22
 4519 01ce 4B4B     		ldr	r3, .L443
 4520 01d0 0722     		movs	r2, #7
 4521 01d2 1A70     		strb	r2, [r3]
1184:../app/app.c  **** 			}
1185:../app/app.c  **** 			else {
1186:../app/app.c  **** 				osal_lyh_delay_task(Ms_100);
1187:../app/app.c  **** 			}
1188:../app/app.c  **** 			break;
 4522              		.loc 1 1188 4
 4523 01d4 2FE1     		b	.L411
 4524              	.L421:
1186:../app/app.c  **** 			}
 4525              		.loc 1 1186 5
 4526 01d6 6420     		movs	r0, #100
 4527 01d8 FFF7FEFF 		bl	osal_lyh_delay_task
 4528              		.loc 1 1188 4
 4529 01dc 2BE1     		b	.L411
 4530              	.L401:
1189:../app/app.c  **** 		/* ĶÉāÕÅ¢ńöĄµ£║ĶĮ¼Õł░ĶÉāÕÅ¢õĮŹńĮ« */
1190:../app/app.c  **** 		case ESPRESSO_MOTO_GO_BREW_STATE:
1191:../app/app.c  **** 			CERRNT_STATE = GO_BREW_STATE;	//Ķ«░ÕĮĢĶ┐øÕ║”
 4531              		.loc 1 1191 17
 4532 01de 484B     		ldr	r3, .L443+4
 4533 01e0 0222     		movs	r2, #2
 4534 01e2 1A70     		strb	r2, [r3]
1192:../app/app.c  **** 			dc_motor_Start(MOTOR_LEFT);		
 4535              		.loc 1 1192 4
 4536 01e4 0220     		movs	r0, #2
 4537 01e6 FFF7FEFF 		bl	dc_motor_Start
1193:../app/app.c  **** 			osal_lyh_delay_task(Ms_100);
 4538              		.loc 1 1193 4
 4539 01ea 6420     		movs	r0, #100
 4540 01ec FFF7FEFF 		bl	osal_lyh_delay_task
1194:../app/app.c  **** 			run_max_time = LEFT_TIMER(Ms_7000, Ms_100);
 4541              		.loc 1 1194 17
 4542 01f0 464B     		ldr	r3, .L443+16
 4543 01f2 4622     		movs	r2, #70
 4544 01f4 1A80     		strh	r2, [r3]	@ movhi
1195:../app/app.c  **** 			app_task_substep = ESPRESSO_MOTO_GO_BREW_JUDGE_STATE;
 4545              		.loc 1 1195 21
 4546 01f6 414B     		ldr	r3, .L443
 4547 01f8 0822     		movs	r2, #8
 4548 01fa 1A70     		strb	r2, [r3]
1196:../app/app.c  **** 			break;
 4549              		.loc 1 1196 4
 4550 01fc 1BE1     		b	.L411
 4551              	.L400:
1197:../app/app.c  **** 		/* Õłżµ¢ŁĶÉāÕÅ¢ńöĄµ£║µś»ÕÉ”Õł░ĶŠŠĶÉāÕÅ¢õĮŹńĮ« */
1198:../app/app.c  **** 		case ESPRESSO_MOTO_GO_BREW_JUDGE_STATE:
1199:../app/app.c  **** 			if ((MOTOR_STATE_STOPED ==dc_motor_GetState())
 4552              		.loc 1 1199 30
 4553 01fe FFF7FEFF 		bl	dc_motor_GetState
 4554 0202 0346     		mov	r3, r0
 4555              		.loc 1 1199 7
 4556 0204 002B     		cmp	r3, #0
 4557 0206 0ED0     		beq	.L423
1200:../app/app.c  **** 				|| (TRUE == app_motor_ready())
 4558              		.loc 1 1200 17
 4559 0208 FFF7FEFF 		bl	app_motor_ready
 4560 020c 0346     		mov	r3, r0
 4561              		.loc 1 1200 5
 4562 020e 012B     		cmp	r3, #1
 4563 0210 09D0     		beq	.L423
1201:../app/app.c  **** 				|| (--run_max_time == 0)){
 4564              		.loc 1 1201 9
 4565 0212 3E4B     		ldr	r3, .L443+16
 4566 0214 1B88     		ldrh	r3, [r3]
 4567 0216 013B     		subs	r3, r3, #1
 4568 0218 9AB2     		uxth	r2, r3
 4569              		.loc 1 1201 5
 4570 021a 3C4B     		ldr	r3, .L443+16
 4571 021c 1A80     		strh	r2, [r3]	@ movhi
 4572              		.loc 1 1201 9
 4573 021e 3B4B     		ldr	r3, .L443+16
 4574 0220 1B88     		ldrh	r3, [r3]
 4575              		.loc 1 1201 5
 4576 0222 002B     		cmp	r3, #0
 4577 0224 05D1     		bne	.L424
 4578              	.L423:
1202:../app/app.c  **** 				dc_motor_Stop();
 4579              		.loc 1 1202 5
 4580 0226 FFF7FEFF 		bl	dc_motor_Stop
1203:../app/app.c  **** 				app_task_substep = ESPRESSO_PRE_BREW_STATE;	
 4581              		.loc 1 1203 22
 4582 022a 344B     		ldr	r3, .L443
 4583 022c 0922     		movs	r2, #9
 4584 022e 1A70     		strb	r2, [r3]
1204:../app/app.c  **** 			}
1205:../app/app.c  **** 			else {
1206:../app/app.c  **** 				osal_lyh_delay_task(Ms_100);
1207:../app/app.c  **** 			}			
1208:../app/app.c  **** 			break;
 4585              		.loc 1 1208 4
 4586 0230 01E1     		b	.L411
 4587              	.L424:
1206:../app/app.c  **** 			}			
 4588              		.loc 1 1206 5
 4589 0232 6420     		movs	r0, #100
 4590 0234 FFF7FEFF 		bl	osal_lyh_delay_task
 4591              		.loc 1 1208 4
 4592 0238 FDE0     		b	.L411
 4593              	.L399:
1209:../app/app.c  **** 		/* ķóäÕå▓ńģ«ńŖČµĆü */
1210:../app/app.c  **** 		case ESPRESSO_PRE_BREW_STATE:
1211:../app/app.c  **** 			CERRNT_STATE = PRE_BREW_STATE;	//Ķ«░ÕĮĢĶ┐øÕ║”
 4594              		.loc 1 1211 17
 4595 023a 314B     		ldr	r3, .L443+4
 4596 023c 0322     		movs	r2, #3
 4597 023e 1A70     		strb	r2, [r3]
1212:../app/app.c  **** 			ac_pumb_start(CONTINUE_MODE);		//ÕÉ»ÕŖ©µ░┤µ│Ą
 4598              		.loc 1 1212 4
 4599 0240 0020     		movs	r0, #0
 4600 0242 FFF7FEFF 		bl	ac_pumb_start
1213:../app/app.c  **** 			osal_lyh_delay_task(Ms_2000 - Ms_100);
 4601              		.loc 1 1213 4
 4602 0246 40F26C70 		movw	r0, #1900
 4603 024a FFF7FEFF 		bl	osal_lyh_delay_task
1214:../app/app.c  **** 			app_task_substep = ESPRESSO_WAIT_BREW_STATE;	
 4604              		.loc 1 1214 21
 4605 024e 2B4B     		ldr	r3, .L443
 4606 0250 0A22     		movs	r2, #10
 4607 0252 1A70     		strb	r2, [r3]
1215:../app/app.c  **** 			break;
 4608              		.loc 1 1215 4
 4609 0254 EFE0     		b	.L411
 4610              	.L398:
1216:../app/app.c  **** 		case ESPRESSO_WAIT_BREW_STATE:
1217:../app/app.c  **** 			ac_pumb_stop();						//Õü£µŁóµ░┤µ│Ą
 4611              		.loc 1 1217 4
 4612 0256 FFF7FEFF 		bl	ac_pumb_stop
1218:../app/app.c  **** 			osal_lyh_delay_task(Ms_4000);
 4613              		.loc 1 1218 4
 4614 025a 4FF47A60 		mov	r0, #4000
 4615 025e FFF7FEFF 		bl	osal_lyh_delay_task
1219:../app/app.c  **** 			app_task_substep = ESPRESSO_BREW_STATE;	
 4616              		.loc 1 1219 21
 4617 0262 264B     		ldr	r3, .L443
 4618 0264 0B22     		movs	r2, #11
 4619 0266 1A70     		strb	r2, [r3]
1220:../app/app.c  **** 			break;
 4620              		.loc 1 1220 4
 4621 0268 E5E0     		b	.L411
 4622              	.L397:
1221:../app/app.c  **** 		/* Õå▓ńģ«ńŖČµĆü */
1222:../app/app.c  **** 		case ESPRESSO_BREW_STATE:
1223:../app/app.c  **** 			CERRNT_STATE = BREW_STATE;	//Ķ«░ÕĮĢĶ┐øÕ║”
 4623              		.loc 1 1223 17
 4624 026a 254B     		ldr	r3, .L443+4
 4625 026c 0422     		movs	r2, #4
 4626 026e 1A70     		strb	r2, [r3]
1224:../app/app.c  **** 			if(0 == manual_setup.water)		//µĀ╣µŹ«µØ»ķćÅÕå│Õ«ÜµŖĮµ░┤µŚČķŚ┤’╝Üx1=5s,x2=10s,x3=20s
 4627              		.loc 1 1224 24
 4628 0270 244B     		ldr	r3, .L443+8
 4629 0272 9B78     		ldrb	r3, [r3, #2]	@ zero_extendqisi2
 4630              		.loc 1 1224 6
 4631 0274 002B     		cmp	r3, #0
 4632 0276 0AD1     		bne	.L426
1225:../app/app.c  **** 			{
1226:../app/app.c  **** 				ac_pumb_start(CONTINUE_MODE);
 4633              		.loc 1 1226 5
 4634 0278 0020     		movs	r0, #0
 4635 027a FFF7FEFF 		bl	ac_pumb_start
1227:../app/app.c  **** 				osal_lyh_delay_task(Ms_5000);
 4636              		.loc 1 1227 5
 4637 027e 41F28830 		movw	r0, #5000
 4638 0282 FFF7FEFF 		bl	osal_lyh_delay_task
1228:../app/app.c  **** 				app_task_substep = ESPRESSO_BREW_FINISH_STATE;	
 4639              		.loc 1 1228 22
 4640 0286 1D4B     		ldr	r3, .L443
 4641 0288 0C22     		movs	r2, #12
 4642 028a 1A70     		strb	r2, [r3]
1229:../app/app.c  **** 			}
1230:../app/app.c  **** 			else if(1 == manual_setup.water)
1231:../app/app.c  **** 			{
1232:../app/app.c  **** 				ac_pumb_start(CONTINUE_MODE);
1233:../app/app.c  **** 				osal_lyh_delay_task(Ms_10000);
1234:../app/app.c  **** 				app_task_substep = ESPRESSO_BREW_FINISH_STATE;	
1235:../app/app.c  **** 
1236:../app/app.c  **** 			}
1237:../app/app.c  **** 			else if(2 == manual_setup.water)
1238:../app/app.c  **** 			{
1239:../app/app.c  **** 				ac_pumb_start(CONTINUE_MODE);
1240:../app/app.c  **** 				osal_lyh_delay_task(Ms_10000 + Ms_10000);
1241:../app/app.c  **** 				app_task_substep = ESPRESSO_BREW_FINISH_STATE;	
1242:../app/app.c  **** 			}
1243:../app/app.c  **** 			break;
 4643              		.loc 1 1243 4
 4644 028c D2E0     		b	.L441
 4645              	.L426:
1230:../app/app.c  **** 			{
 4646              		.loc 1 1230 29
 4647 028e 1D4B     		ldr	r3, .L443+8
 4648 0290 9B78     		ldrb	r3, [r3, #2]	@ zero_extendqisi2
1230:../app/app.c  **** 			{
 4649              		.loc 1 1230 11
 4650 0292 012B     		cmp	r3, #1
 4651 0294 0AD1     		bne	.L428
1232:../app/app.c  **** 				osal_lyh_delay_task(Ms_10000);
 4652              		.loc 1 1232 5
 4653 0296 0020     		movs	r0, #0
 4654 0298 FFF7FEFF 		bl	ac_pumb_start
1233:../app/app.c  **** 				app_task_substep = ESPRESSO_BREW_FINISH_STATE;	
 4655              		.loc 1 1233 5
 4656 029c 42F21070 		movw	r0, #10000
 4657 02a0 FFF7FEFF 		bl	osal_lyh_delay_task
1234:../app/app.c  **** 
 4658              		.loc 1 1234 22
 4659 02a4 154B     		ldr	r3, .L443
 4660 02a6 0C22     		movs	r2, #12
 4661 02a8 1A70     		strb	r2, [r3]
 4662              		.loc 1 1243 4
 4663 02aa C3E0     		b	.L441
 4664              	.L428:
1237:../app/app.c  **** 			{
 4665              		.loc 1 1237 29
 4666 02ac 154B     		ldr	r3, .L443+8
 4667 02ae 9B78     		ldrb	r3, [r3, #2]	@ zero_extendqisi2
1237:../app/app.c  **** 			{
 4668              		.loc 1 1237 11
 4669 02b0 022B     		cmp	r3, #2
 4670 02b2 40F0BF80 		bne	.L441
1239:../app/app.c  **** 				osal_lyh_delay_task(Ms_10000 + Ms_10000);
 4671              		.loc 1 1239 5
 4672 02b6 0020     		movs	r0, #0
 4673 02b8 FFF7FEFF 		bl	ac_pumb_start
1240:../app/app.c  **** 				app_task_substep = ESPRESSO_BREW_FINISH_STATE;	
 4674              		.loc 1 1240 5
 4675 02bc 44F62060 		movw	r0, #20000
 4676 02c0 FFF7FEFF 		bl	osal_lyh_delay_task
1241:../app/app.c  **** 			}
 4677              		.loc 1 1241 22
 4678 02c4 0D4B     		ldr	r3, .L443
 4679 02c6 0C22     		movs	r2, #12
 4680 02c8 1A70     		strb	r2, [r3]
 4681              		.loc 1 1243 4
 4682 02ca B3E0     		b	.L441
 4683              	.L396:
1244:../app/app.c  **** 		case ESPRESSO_BREW_FINISH_STATE:	//Õå▓ńģ«Õ«īµłÉ
1245:../app/app.c  **** 			ac_pumb_stop();		//Õü£µŁóµ░┤µ│Ą	
 4684              		.loc 1 1245 4
 4685 02cc FFF7FEFF 		bl	ac_pumb_stop
1246:../app/app.c  **** 			osal_lyh_delay_task(Ms_6000);
 4686              		.loc 1 1246 4
 4687 02d0 41F27070 		movw	r0, #6000
 4688 02d4 FFF7FEFF 		bl	osal_lyh_delay_task
1247:../app/app.c  **** 			app_task_substep = ESPRESSO_GO_DROP_COFFEE_GROUNDS_STATE;	
 4689              		.loc 1 1247 21
 4690 02d8 084B     		ldr	r3, .L443
 4691 02da 0D22     		movs	r2, #13
 4692 02dc 1A70     		strb	r2, [r3]
1248:../app/app.c  **** 			break;
 4693              		.loc 1 1248 4
 4694 02de AAE0     		b	.L411
 4695              	.L395:
1249:../app/app.c  **** 		/* õĖóÕÆ¢ÕĢĪµĖŻńŖČµĆü */
1250:../app/app.c  **** 		case ESPRESSO_GO_DROP_COFFEE_GROUNDS_STATE:
1251:../app/app.c  **** 			CERRNT_STATE = DROP_BEANS_STATE;	//Ķ«░ÕĮĢĶ┐øÕ║”
 4696              		.loc 1 1251 17
 4697 02e0 074B     		ldr	r3, .L443+4
 4698 02e2 0522     		movs	r2, #5
 4699 02e4 1A70     		strb	r2, [r3]
1252:../app/app.c  **** 			dc_motor_Start(MOTOR_RIGHT);	//ńöĄµ£║ÕÅŹĶĮ¼2.9s’╝ī Õł░õĖóÕÆ¢ÕĢĪµĖŻõĮŹńĮ«
 4700              		.loc 1 1252 4
 4701 02e6 0120     		movs	r0, #1
 4702 02e8 FFF7FEFF 		bl	dc_motor_Start
1253:../app/app.c  **** 			run_max_time = RIGHT_TIMER(Ms_2900, Ms_100);
 4703              		.loc 1 1253 17
 4704 02ec 074B     		ldr	r3, .L443+16
 4705 02ee 1D22     		movs	r2, #29
 4706 02f0 1A80     		strh	r2, [r3]	@ movhi
1254:../app/app.c  **** 			app_task_substep = ESPRESSO_DROP_COFFEE_GROUNDS_STATE;	
 4707              		.loc 1 1254 21
 4708 02f2 024B     		ldr	r3, .L443
 4709 02f4 0E22     		movs	r2, #14
 4710 02f6 1A70     		strb	r2, [r3]
1255:../app/app.c  **** 			break;
 4711              		.loc 1 1255 4
 4712 02f8 9DE0     		b	.L411
 4713              	.L444:
 4714 02fa 00BF     		.align	2
 4715              	.L443:
 4716 02fc 00000000 		.word	app_task_substep
 4717 0300 00000000 		.word	CERRNT_STATE
 4718 0304 00000000 		.word	manual_setup
 4719 0308 00000000 		.word	cup_loop
 4720 030c 00000000 		.word	run_max_time
 4721              	.L394:
1256:../app/app.c  **** 		case ESPRESSO_DROP_COFFEE_GROUNDS_STATE:
1257:../app/app.c  **** 			if(--run_max_time == 0){
 4722              		.loc 1 1257 7
 4723 0310 4A4B     		ldr	r3, .L445
 4724 0312 1B88     		ldrh	r3, [r3]
 4725 0314 013B     		subs	r3, r3, #1
 4726 0316 9AB2     		uxth	r2, r3
 4727              		.loc 1 1257 6
 4728 0318 484B     		ldr	r3, .L445
 4729 031a 1A80     		strh	r2, [r3]	@ movhi
 4730              		.loc 1 1257 7
 4731 031c 474B     		ldr	r3, .L445
 4732 031e 1B88     		ldrh	r3, [r3]
 4733              		.loc 1 1257 6
 4734 0320 002B     		cmp	r3, #0
 4735 0322 09D1     		bne	.L429
1258:../app/app.c  **** 				dc_motor_Stop();
 4736              		.loc 1 1258 5
 4737 0324 FFF7FEFF 		bl	dc_motor_Stop
1259:../app/app.c  **** 				osal_lyh_delay_task(Ms_3000);
 4738              		.loc 1 1259 5
 4739 0328 40F6B830 		movw	r0, #3000
 4740 032c FFF7FEFF 		bl	osal_lyh_delay_task
1260:../app/app.c  **** 				app_task_substep = ESPRESSO_BACK_STATE;
 4741              		.loc 1 1260 22
 4742 0330 434B     		ldr	r3, .L445+4
 4743 0332 0F22     		movs	r2, #15
 4744 0334 1A70     		strb	r2, [r3]
1261:../app/app.c  **** 			}
1262:../app/app.c  **** 			else{
1263:../app/app.c  **** 				osal_lyh_delay_task(Ms_100);
1264:../app/app.c  **** 			}
1265:../app/app.c  **** 			break;
 4745              		.loc 1 1265 4
 4746 0336 7EE0     		b	.L411
 4747              	.L429:
1263:../app/app.c  **** 			}
 4748              		.loc 1 1263 5
 4749 0338 6420     		movs	r0, #100
 4750 033a FFF7FEFF 		bl	osal_lyh_delay_task
 4751              		.loc 1 1265 4
 4752 033e 7AE0     		b	.L411
 4753              	.L393:
1266:../app/app.c  **** 		/* ĶÉāÕÅ¢ńöĄµ£║Ķ┐öÕø×ÕÄ¤õĮŹ */
1267:../app/app.c  **** 		case ESPRESSO_BACK_STATE:		//ńöĄµ£║ÕÉæÕÄ¤õĮŹĶĮ¼ÕŖ©
1268:../app/app.c  **** 			CERRNT_STATE = RST_STATE;	//Ķ«░ÕĮĢĶ┐øÕ║”		
 4754              		.loc 1 1268 17
 4755 0340 404B     		ldr	r3, .L445+8
 4756 0342 0622     		movs	r2, #6
 4757 0344 1A70     		strb	r2, [r3]
1269:../app/app.c  **** 			dc_motor_Start(MOTOR_RIGHT);
 4758              		.loc 1 1269 4
 4759 0346 0120     		movs	r0, #1
 4760 0348 FFF7FEFF 		bl	dc_motor_Start
1270:../app/app.c  **** 			osal_lyh_delay_task(Ms_100);
 4761              		.loc 1 1270 4
 4762 034c 6420     		movs	r0, #100
 4763 034e FFF7FEFF 		bl	osal_lyh_delay_task
1271:../app/app.c  **** 			run_max_time = RIGHT_TIMER(Ms_5000, Ms_100);
 4764              		.loc 1 1271 17
 4765 0352 3A4B     		ldr	r3, .L445
 4766 0354 3222     		movs	r2, #50
 4767 0356 1A80     		strh	r2, [r3]	@ movhi
1272:../app/app.c  **** 			app_task_substep = ESPRESSO_INPLACE_JUDGE_STATE;
 4768              		.loc 1 1272 21
 4769 0358 394B     		ldr	r3, .L445+4
 4770 035a 1022     		movs	r2, #16
 4771 035c 1A70     		strb	r2, [r3]
1273:../app/app.c  **** 			break;	
 4772              		.loc 1 1273 4
 4773 035e 6AE0     		b	.L411
 4774              	.L392:
1274:../app/app.c  **** 		case ESPRESSO_INPLACE_JUDGE_STATE:			//Õłżµ¢ŁńöĄµ£║µś»ÕÉ”Õł░ÕÄ¤ńé╣Ķ¦”ńé╣
1275:../app/app.c  **** 			if ((MOTOR_STATE_STOPED ==dc_motor_GetState())
 4775              		.loc 1 1275 30
 4776 0360 FFF7FEFF 		bl	dc_motor_GetState
 4777 0364 0346     		mov	r3, r0
 4778              		.loc 1 1275 7
 4779 0366 002B     		cmp	r3, #0
 4780 0368 0ED0     		beq	.L431
1276:../app/app.c  **** 				|| (TRUE == app_motor_ready())
 4781              		.loc 1 1276 17
 4782 036a FFF7FEFF 		bl	app_motor_ready
 4783 036e 0346     		mov	r3, r0
 4784              		.loc 1 1276 5
 4785 0370 012B     		cmp	r3, #1
 4786 0372 09D0     		beq	.L431
1277:../app/app.c  **** 				|| (--run_max_time == 0)){
 4787              		.loc 1 1277 9
 4788 0374 314B     		ldr	r3, .L445
 4789 0376 1B88     		ldrh	r3, [r3]
 4790 0378 013B     		subs	r3, r3, #1
 4791 037a 9AB2     		uxth	r2, r3
 4792              		.loc 1 1277 5
 4793 037c 2F4B     		ldr	r3, .L445
 4794 037e 1A80     		strh	r2, [r3]	@ movhi
 4795              		.loc 1 1277 9
 4796 0380 2E4B     		ldr	r3, .L445
 4797 0382 1B88     		ldrh	r3, [r3]
 4798              		.loc 1 1277 5
 4799 0384 002B     		cmp	r3, #0
 4800 0386 05D1     		bne	.L432
 4801              	.L431:
1278:../app/app.c  **** 				dc_motor_Stop();
 4802              		.loc 1 1278 5
 4803 0388 FFF7FEFF 		bl	dc_motor_Stop
1279:../app/app.c  **** 				app_task_substep = ESPRESSO_INPLACE_STATE;					
 4804              		.loc 1 1279 22
 4805 038c 2C4B     		ldr	r3, .L445+4
 4806 038e 1122     		movs	r2, #17
 4807 0390 1A70     		strb	r2, [r3]
1280:../app/app.c  **** 			}
1281:../app/app.c  **** 			else {
1282:../app/app.c  **** 				osal_lyh_delay_task(Ms_100);
1283:../app/app.c  **** 			}
1284:../app/app.c  **** 			break;
 4808              		.loc 1 1284 4
 4809 0392 50E0     		b	.L411
 4810              	.L432:
1282:../app/app.c  **** 			}
 4811              		.loc 1 1282 5
 4812 0394 6420     		movs	r0, #100
 4813 0396 FFF7FEFF 		bl	osal_lyh_delay_task
 4814              		.loc 1 1284 4
 4815 039a 4CE0     		b	.L411
 4816              	.L391:
1285:../app/app.c  **** 		case ESPRESSO_INPLACE_STATE:			//ńöĄµ£║Õø×ĶĮ¼Õł░ÕÄ¤õĮŹ
1286:../app/app.c  **** 			dc_motor_Start(MOTOR_LEFT);
 4817              		.loc 1 1286 4
 4818 039c 0220     		movs	r0, #2
 4819 039e FFF7FEFF 		bl	dc_motor_Start
1287:../app/app.c  **** 			osal_lyh_delay_task(Ms_100);
 4820              		.loc 1 1287 4
 4821 03a2 6420     		movs	r0, #100
 4822 03a4 FFF7FEFF 		bl	osal_lyh_delay_task
1288:../app/app.c  **** 			run_max_time = LEFT_TIMER(MOTOR_FIX_TIME, Ms_100);
 4823              		.loc 1 1288 17
 4824 03a8 244B     		ldr	r3, .L445
 4825 03aa 0322     		movs	r2, #3
 4826 03ac 1A80     		strh	r2, [r3]	@ movhi
1289:../app/app.c  **** 			app_task_substep = ESPRESSO_MOTO_SECOND_RST_STATE;
 4827              		.loc 1 1289 21
 4828 03ae 244B     		ldr	r3, .L445+4
 4829 03b0 1222     		movs	r2, #18
 4830 03b2 1A70     		strb	r2, [r3]
1290:../app/app.c  **** 			break;	
 4831              		.loc 1 1290 4
 4832 03b4 3FE0     		b	.L411
 4833              	.L390:
1291:../app/app.c  **** 		case ESPRESSO_MOTO_SECOND_RST_STATE:	//Õłżµ¢ŁńöĄµ£║µś»ÕÉ”Õø×ĶĮ¼Õł░ÕÄ¤õĮŹ
1292:../app/app.c  **** 			if (1/*(FAIL == app_motor_ready())*/	// deleting point,(temp to cancel)
1293:../app/app.c  **** 				&& ((MOTOR_STATE_STOPED ==dc_motor_GetState())
 4834              		.loc 1 1293 31
 4835 03b6 FFF7FEFF 		bl	dc_motor_GetState
 4836 03ba 0346     		mov	r3, r0
1292:../app/app.c  **** 				&& ((MOTOR_STATE_STOPED ==dc_motor_GetState())
 4837              		.loc 1 1292 7
 4838 03bc 002B     		cmp	r3, #0
 4839 03be 09D0     		beq	.L434
1294:../app/app.c  **** 				|| (--run_max_time == 0))){
 4840              		.loc 1 1294 9
 4841 03c0 1E4B     		ldr	r3, .L445
 4842 03c2 1B88     		ldrh	r3, [r3]
 4843 03c4 013B     		subs	r3, r3, #1
 4844 03c6 9AB2     		uxth	r2, r3
1293:../app/app.c  **** 				|| (--run_max_time == 0))){
 4845              		.loc 1 1293 5
 4846 03c8 1C4B     		ldr	r3, .L445
 4847 03ca 1A80     		strh	r2, [r3]	@ movhi
 4848              		.loc 1 1294 9
 4849 03cc 1B4B     		ldr	r3, .L445
 4850 03ce 1B88     		ldrh	r3, [r3]
1293:../app/app.c  **** 				|| (--run_max_time == 0))){
 4851              		.loc 1 1293 5
 4852 03d0 002B     		cmp	r3, #0
 4853 03d2 05D1     		bne	.L435
 4854              	.L434:
1295:../app/app.c  **** 				dc_motor_Stop();
 4855              		.loc 1 1295 5
 4856 03d4 FFF7FEFF 		bl	dc_motor_Stop
1296:../app/app.c  **** 				app_task_substep = ESPRESSO_JUDGE_TWO_CUP_STATE;
 4857              		.loc 1 1296 22
 4858 03d8 194B     		ldr	r3, .L445+4
 4859 03da 1322     		movs	r2, #19
 4860 03dc 1A70     		strb	r2, [r3]
1297:../app/app.c  **** 			}
1298:../app/app.c  **** 			else {
1299:../app/app.c  **** 				osal_lyh_delay_task(Ms_100);
1300:../app/app.c  **** 			}
1301:../app/app.c  **** 			break;
 4861              		.loc 1 1301 4
 4862 03de 2AE0     		b	.L411
 4863              	.L435:
1299:../app/app.c  **** 			}
 4864              		.loc 1 1299 5
 4865 03e0 6420     		movs	r0, #100
 4866 03e2 FFF7FEFF 		bl	osal_lyh_delay_task
 4867              		.loc 1 1301 4
 4868 03e6 26E0     		b	.L411
 4869              	.L389:
1302:../app/app.c  **** 		/* Õłżµ¢Łµś»ÕÉ”ń╗¦ń╗ŁÕłČõĮ£ń¼¼õ║īµØ» */
1303:../app/app.c  **** 		case ESPRESSO_JUDGE_TWO_CUP_STATE:
1304:../app/app.c  **** 			if (1 == cup_loop){
 4870              		.loc 1 1304 10
 4871 03e8 174B     		ldr	r3, .L445+12
 4872 03ea 1B78     		ldrb	r3, [r3]	@ zero_extendqisi2
 4873              		.loc 1 1304 7
 4874 03ec 012B     		cmp	r3, #1
 4875 03ee 0AD1     		bne	.L437
1305:../app/app.c  **** 				app_task_substep = ESPRESSO_MOTO_CHECK_STATE;	//ń╗¦ń╗ŁÕłČõĮ£ń¼¼õ║īµØ»
 4876              		.loc 1 1305 22
 4877 03f0 134B     		ldr	r3, .L445+4
 4878 03f2 0122     		movs	r2, #1
 4879 03f4 1A70     		strb	r2, [r3]
1306:../app/app.c  **** 				cup_loop = 0;
 4880              		.loc 1 1306 14
 4881 03f6 144B     		ldr	r3, .L445+12
 4882 03f8 0022     		movs	r2, #0
 4883 03fa 1A70     		strb	r2, [r3]
1307:../app/app.c  **** 				osal_lyh_delay_task(Ms_500);
 4884              		.loc 1 1307 5
 4885 03fc 4FF4FA70 		mov	r0, #500
 4886 0400 FFF7FEFF 		bl	osal_lyh_delay_task
1308:../app/app.c  **** 			}
1309:../app/app.c  **** 			else {
1310:../app/app.c  **** 				app_task_substep = ESPRESSO_COMPLETE_STATE;		//ÕłČõĮ£Õ«īµłÉ
1311:../app/app.c  **** 			}
1312:../app/app.c  **** 			break;
 4887              		.loc 1 1312 4
 4888 0404 17E0     		b	.L411
 4889              	.L437:
1310:../app/app.c  **** 			}
 4890              		.loc 1 1310 22
 4891 0406 0E4B     		ldr	r3, .L445+4
 4892 0408 1422     		movs	r2, #20
 4893 040a 1A70     		strb	r2, [r3]
 4894              		.loc 1 1312 4
 4895 040c 13E0     		b	.L411
 4896              	.L387:
1313:../app/app.c  **** 		/* ÕłČõĮ£Õ«īµłÉńŖČµĆü */
1314:../app/app.c  **** 		case ESPRESSO_COMPLETE_STATE:
1315:../app/app.c  **** 			CERRNT_STATE = NULL_STATE;	//Ķ«░ÕĮĢĶ┐øÕ║”
 4897              		.loc 1 1315 17
 4898 040e 0D4B     		ldr	r3, .L445+8
 4899 0410 0022     		movs	r2, #0
 4900 0412 1A70     		strb	r2, [r3]
1316:../app/app.c  **** 			app_turn_heat_off();		//Õģ│ķŚŁÕŖĀńāŁ
 4901              		.loc 1 1316 4
 4902 0414 FFF7FEFF 		bl	app_turn_heat_off
1317:../app/app.c  **** 			flush_flag = 1;				//ńĮ«õĮŹÕå▓µ┤Ś
 4903              		.loc 1 1317 15
 4904 0418 0C4B     		ldr	r3, .L445+16
 4905 041a 0122     		movs	r2, #1
 4906 041c 1A70     		strb	r2, [r3]
1318:../app/app.c  **** 			app_led_finish_step();		//µē¦ĶĪīÕ«īµłÉÕÉÄńÜäµīćńż║ńü»µśŠńż║
 4907              		.loc 1 1318 4
 4908 041e FFF7FEFF 		bl	app_led_finish_step
1319:../app/app.c  **** 			app_task_nextstep(APP_NORMAL_STATE, NORMAL_INIT_STATE);		//Õø×Õł░normalńŖČµĆü’╝īńŁēÕŠģõĖŗõĖĆµ¼Īµ
 4909              		.loc 1 1319 4
 4910 0422 0021     		movs	r1, #0
 4911 0424 0320     		movs	r0, #3
 4912 0426 FFF7FEFF 		bl	app_task_nextstep
1320:../app/app.c  **** 			break;
 4913              		.loc 1 1320 4
 4914 042a 04E0     		b	.L411
 4915              	.L439:
1321:../app/app.c  **** 		default:
1322:../app/app.c  **** 			break;
 4916              		.loc 1 1322 4
 4917 042c 00BF     		nop
 4918 042e 02E0     		b	.L442
 4919              	.L440:
1178:../app/app.c  **** 		case ESPRESSO_GRIND_END_STATE:
 4920              		.loc 1 1178 4
 4921 0430 00BF     		nop
 4922 0432 00E0     		b	.L442
 4923              	.L441:
1243:../app/app.c  **** 		case ESPRESSO_BREW_FINISH_STATE:	//Õå▓ńģ«Õ«īµłÉ
 4924              		.loc 1 1243 4
 4925 0434 00BF     		nop
 4926              	.L411:
 4927              	.L442:
1323:../app/app.c  **** 	}
1324:../app/app.c  **** }
 4928              		.loc 1 1324 1
 4929 0436 00BF     		nop
 4930 0438 80BD     		pop	{r7, pc}
 4931              	.L446:
 4932 043a 00BF     		.align	2
 4933              	.L445:
 4934 043c 00000000 		.word	run_max_time
 4935 0440 00000000 		.word	app_task_substep
 4936 0444 00000000 		.word	CERRNT_STATE
 4937 0448 00000000 		.word	cup_loop
 4938 044c 00000000 		.word	flush_flag
 4939              		.cfi_endproc
 4940              	.LFE169:
 4942              		.section	.text.app_american_handler,"ax",%progbits
 4943              		.align	1
 4944              		.global	app_american_handler
 4945              		.syntax unified
 4946              		.thumb
 4947              		.thumb_func
 4948              		.fpu softvfp
 4950              	app_american_handler:
 4951              	.LFB170:
1325:../app/app.c  **** 
1326:../app/app.c  **** /************************************************************************
1327:../app/app.c  **** * function name: app_american_handler
1328:../app/app.c  **** * input: non
1329:../app/app.c  **** * output: non
1330:../app/app.c  **** * description: object thread
1331:../app/app.c  **** *************************************************************************/
1332:../app/app.c  **** void app_american_handler(void)
1333:../app/app.c  **** {
 4952              		.loc 1 1333 1
 4953              		.cfi_startproc
 4954              		@ args = 0, pretend = 0, frame = 0
 4955              		@ frame_needed = 1, uses_anonymous_args = 0
 4956 0000 80B5     		push	{r7, lr}
 4957              		.cfi_def_cfa_offset 8
 4958              		.cfi_offset 7, -8
 4959              		.cfi_offset 14, -4
 4960 0002 00AF     		add	r7, sp, #0
 4961              		.cfi_def_cfa_register 7
1334:../app/app.c  **** 	switch(app_task_substep)
 4962              		.loc 1 1334 2
 4963 0004 BD4B     		ldr	r3, .L537
 4964 0006 1B78     		ldrb	r3, [r3]	@ zero_extendqisi2
 4965 0008 212B     		cmp	r3, #33
 4966 000a 00F23E83 		bhi	.L533
 4967 000e 01A2     		adr	r2, .L450
 4968 0010 52F823F0 		ldr	pc, [r2, r3, lsl #2]
 4969              		.p2align 2
 4970              	.L450:
 4971 0014 9D000000 		.word	.L483+1
 4972 0018 D9000000 		.word	.L482+1
 4973 001c F3000000 		.word	.L481+1
 4974 0020 2F010000 		.word	.L480+1
 4975 0024 49010000 		.word	.L479+1
 4976 0028 7B010000 		.word	.L478+1
 4977 002c DF010000 		.word	.L477+1
 4978 0030 0F020000 		.word	.L476+1
 4979 0034 2F020000 		.word	.L475+1
 4980 0038 6B020000 		.word	.L474+1
 4981 003c 87020000 		.word	.L473+1
 4982 0040 9B020000 		.word	.L472+1
 4983 0044 B7020000 		.word	.L471+1
 4984 0048 CB020000 		.word	.L470+1
 4985 004c E7020000 		.word	.L469+1
 4986 0050 11030000 		.word	.L468+1
 4987 0054 31030000 		.word	.L467+1
 4988 0058 6D030000 		.word	.L466+1
 4989 005c 87030000 		.word	.L465+1
 4990 0060 B9030000 		.word	.L464+1
 4991 0064 ED030000 		.word	.L463+1
 4992 0068 07040000 		.word	.L462+1
 4993 006c 43040000 		.word	.L461+1
 4994 0070 5D040000 		.word	.L460+1
 4995 0074 8F040000 		.word	.L459+1
 4996 0078 9F040000 		.word	.L458+1
 4997 007c BF040000 		.word	.L457+1
 4998 0080 FB040000 		.word	.L456+1
 4999 0084 8F050000 		.word	.L455+1
 5000 0088 A3050000 		.word	.L454+1
 5001 008c E5050000 		.word	.L453+1
 5002 0090 21060000 		.word	.L452+1
 5003 0094 3B060000 		.word	.L451+1
 5004 0098 6D060000 		.word	.L449+1
 5005              		.p2align 1
 5006              	.L483:
1335:../app/app.c  **** 	{
1336:../app/app.c  **** 		/* ÕłØÕ¦ŗÕī¢ńŖČµĆü */
1337:../app/app.c  **** 		case AMERICANO_INIT_STATE:
1338:../app/app.c  **** 			CERRNT_STATE = INIT_AND_GRIND_STATE;	//Ķ«░ÕĮĢĶ┐øÕ║”
 5007              		.loc 1 1338 17
 5008 009c 984B     		ldr	r3, .L537+4
 5009 009e 0122     		movs	r2, #1
 5010 00a0 1A70     		strb	r2, [r3]
1339:../app/app.c  **** 			app_leds_all_fun(LED_OFF);
 5011              		.loc 1 1339 4
 5012 00a2 0020     		movs	r0, #0
 5013 00a4 FFF7FEFF 		bl	app_leds_all_fun
1340:../app/app.c  **** 			app_leds_all_ind(LED_OFF);
 5014              		.loc 1 1340 4
 5015 00a8 0020     		movs	r0, #0
 5016 00aa FFF7FEFF 		bl	app_leds_all_ind
1341:../app/app.c  **** 			display_led(START_LED, LED_ON);
 5017              		.loc 1 1341 4
 5018 00ae 0121     		movs	r1, #1
 5019 00b0 0520     		movs	r0, #5
 5020 00b2 FFF7FEFF 		bl	display_led
1342:../app/app.c  **** 			app_led_americano_init();		//ÕłØÕ¦ŗÕī¢americanoµīćńż║ńü»ķŚ¬ńāü
 5021              		.loc 1 1342 4
 5022 00b6 FFF7FEFF 		bl	app_led_americano_init
1343:../app/app.c  **** 			if(1 == manual_setup.cup){		//Õłżµ¢Łµ£¼µ¼ĪÕłČõĮ£µØ»µĢ░
 5023              		.loc 1 1343 24
 5024 00ba 924B     		ldr	r3, .L537+8
 5025 00bc 1B78     		ldrb	r3, [r3]	@ zero_extendqisi2
 5026              		.loc 1 1343 6
 5027 00be 012B     		cmp	r3, #1
 5028 00c0 03D1     		bne	.L484
1344:../app/app.c  **** 				cup_loop = 1;
 5029              		.loc 1 1344 14
 5030 00c2 914B     		ldr	r3, .L537+12
 5031 00c4 0122     		movs	r2, #1
 5032 00c6 1A70     		strb	r2, [r3]
 5033 00c8 02E0     		b	.L485
 5034              	.L484:
1345:../app/app.c  **** 			}
1346:../app/app.c  **** 			else{
1347:../app/app.c  **** 				cup_loop = 0;
 5035              		.loc 1 1347 14
 5036 00ca 8F4B     		ldr	r3, .L537+12
 5037 00cc 0022     		movs	r2, #0
 5038 00ce 1A70     		strb	r2, [r3]
 5039              	.L485:
1348:../app/app.c  **** 			}
1349:../app/app.c  **** 			app_task_substep = AMERICANO_MOTO_CHECK_STATE;
 5040              		.loc 1 1349 21
 5041 00d0 8A4B     		ldr	r3, .L537
 5042 00d2 0122     		movs	r2, #1
 5043 00d4 1A70     		strb	r2, [r3]
1350:../app/app.c  **** 			break;
 5044              		.loc 1 1350 4
 5045 00d6 DDE2     		b	.L486
 5046              	.L482:
1351:../app/app.c  **** 		/* ĶÉāÕÅ¢ńöĄµ£║õĮŹńĮ«µŻĆµĄŗ */
1352:../app/app.c  **** 		case AMERICANO_MOTO_CHECK_STATE:	
1353:../app/app.c  **** 			dc_motor_Start(MOTOR_RIGHT);
 5047              		.loc 1 1353 4
 5048 00d8 0120     		movs	r0, #1
 5049 00da FFF7FEFF 		bl	dc_motor_Start
