   1              		.cpu cortex-m4
   2              		.eabi_attribute 20, 1
   3              		.eabi_attribute 21, 1
   4              		.eabi_attribute 23, 3
   5              		.eabi_attribute 24, 1
   6              		.eabi_attribute 25, 1
   7              		.eabi_attribute 26, 1
   8              		.eabi_attribute 30, 6
   9              		.eabi_attribute 34, 1
  10              		.eabi_attribute 18, 4
  11              		.file	"app.c"
  12              		.text
  13              	.Ltext0:
  14              		.cfi_sections	.debug_frame
  15              		.comm	app_id,1,1
  16              		.comm	app_task_step,1,1
  17              		.comm	app_task_substep,1,1
  18              		.comm	manual_setup,3,4
  19              		.comm	run_max_time,2,2
  20              		.comm	Buzzer_times,1,1
  21              		.comm	Leds_loop_run,1,1
  22              		.comm	cup_loop,1,1
  23              		.comm	turn_off_flag,1,1
  24              		.comm	flush_flag,1,1
  25              		.comm	CERRNT_STATE,1,1
  26              		.comm	drop_beans_time,2,2
  27              		.section	.text.app_virtual_croszero_cbfunc,"ax",%progbits
  28              		.align	1
  29              		.global	app_virtual_croszero_cbfunc
  30              		.arch armv7e-m
  31              		.syntax unified
  32              		.thumb
  33              		.thumb_func
  34              		.fpu softvfp
  36              	app_virtual_croszero_cbfunc:
  37              	.LFB116:
  38              		.file 1 "../app/app.c"
   1:../app/app.c  **** /******************** (C) COPYRIGHT 2017 ST *******************************
   2:../app/app.c  **** * COMPANY:	ST
   3:../app/app.c  **** * DATE:		2024/5
   4:../app/app.c  **** * AUTHOR:	
   5:../app/app.c  **** * IC:		STM32G0B1
   6:../app/app.c  **** *____________________________________________________________________________
   7:../app/app.c  **** * REVISION       V0001		
   8:../app/app.c  **** * SDK Version    SDK_Release_V2.03_0428              
   9:../app/app.c  **** * Date					 		
  10:../app/app.c  **** * Description
  11:../app/app.c  **** *____________________________________________________________________________*/
  12:../app/app.c  **** 
  13:../app/app.c  **** /*_____ I N C L U D E S ____________________________________________________*/
  14:../app/app.c  **** #define _APP_C_
  15:../app/app.c  **** #include <string.h>
  16:../app/app.c  **** #include "gd32f30x.h"
  17:../app/app.c  **** #include "user_apiopt.h"
  18:../app/app.c  **** 
  19:../app/app.c  **** /*_____ M A C R O S ______________________________________________________*/
  20:../app/app.c  **** #define _ON_		1u
  21:../app/app.c  **** #define _OFF_		0u
  22:../app/app.c  **** 
  23:../app/app.c  **** #define MOTOR_FIX_TIME		Ms_300	
  24:../app/app.c  **** 
  25:../app/app.c  **** /*_____ D E F I N I T I O N S ________________________________________________*/
  26:../app/app.c  ****  uint16_t run_max_time;
  27:../app/app.c  ****  uint8_t Buzzer_times;
  28:../app/app.c  ****  uint8_t Leds_loop_run;
  29:../app/app.c  **** 
  30:../app/app.c  **** /************ و–°ه¢‍ ***********/
  31:../app/app.c  ****  uint8_t cup_loop;			//و‌¯و•°ه¾ھçژ¯و¬،و•°	0ï¼ڑx1ï¼Œ1ï¼ڑx2
  32:../app/app.c  ****  uint8_t turn_off_flag;		//ه…³وœ؛و ‡ه؟—ن½چ
  33:../app/app.c  ****  uint8_t flush_flag;		//ه†²و´—و ‡ه؟—ن½چ
  34:../app/app.c  **** enum _RUNNING_STATE CERRNT_STATE;	//ه½“ه‰چè؟گè،Œçٹ¶و€پ
  35:../app/app.c  **** uint16_t drop_beans_time;		//ه‰چه¾€ن¸¢ه’–ه•،و¸£ه‰©ن½™و—¶é—´
  36:../app/app.c  **** /*_____ F U N C T I O N S __________________________________________________*/
  37:../app/app.c  **** void app_virtual_croszero_cbfunc(void)
  38:../app/app.c  **** {
  39              		.loc 1 38 1
  40              		.cfi_startproc
  41              		@ args = 0, pretend = 0, frame = 0
  42              		@ frame_needed = 1, uses_anonymous_args = 0
  43 0000 80B5     		push	{r7, lr}
  44              		.cfi_def_cfa_offset 8
  45              		.cfi_offset 7, -8
  46              		.cfi_offset 14, -4
  47 0002 00AF     		add	r7, sp, #0
  48              		.cfi_def_cfa_register 7
  39:../app/app.c  **** 	ToggleTest4();
  49              		.loc 1 39 2
  50 0004 4FF40041 		mov	r1, #32768
  51 0008 0A48     		ldr	r0, .L2
  52 000a FFF7FEFF 		bl	gpio_output_bit_get
  53 000e 0346     		mov	r3, r0
  54 0010 C3F10103 		rsb	r3, r3, #1
  55 0014 DBB2     		uxtb	r3, r3
  56 0016 1A46     		mov	r2, r3
  57 0018 4FF40041 		mov	r1, #32768
  58 001c 0548     		ldr	r0, .L2
  59 001e FFF7FEFF 		bl	gpio_bit_write
  40:../app/app.c  **** 	osal_lyh_over_timer(OS_VIRAC_50HZ, Ms_10, app_virtual_croszero_cbfunc);
  60              		.loc 1 40 2
  61 0022 054A     		ldr	r2, .L2+4
  62 0024 0A21     		movs	r1, #10
  63 0026 4FF40040 		mov	r0, #32768
  64 002a FFF7FEFF 		bl	osal_lyh_over_timer
  41:../app/app.c  **** }
  65              		.loc 1 41 1
  66 002e 00BF     		nop
  67 0030 80BD     		pop	{r7, pc}
  68              	.L3:
  69 0032 00BF     		.align	2
  70              	.L2:
  71 0034 00080140 		.word	1073809408
  72 0038 00000000 		.word	app_virtual_croszero_cbfunc
  73              		.cfi_endproc
  74              	.LFE116:
  76              		.section	.text.app_buzon_cbfunc,"ax",%progbits
  77              		.align	1
  78              		.global	app_buzon_cbfunc
  79              		.syntax unified
  80              		.thumb
  81              		.thumb_func
  82              		.fpu softvfp
  84              	app_buzon_cbfunc:
  85              	.LFB117:
  42:../app/app.c  **** 
  43:../app/app.c  **** void app_buzon_cbfunc(void)
  44:../app/app.c  **** {
  86              		.loc 1 44 1
  87              		.cfi_startproc
  88              		@ args = 0, pretend = 0, frame = 0
  89              		@ frame_needed = 1, uses_anonymous_args = 0
  90 0000 80B5     		push	{r7, lr}
  91              		.cfi_def_cfa_offset 8
  92              		.cfi_offset 7, -8
  93              		.cfi_offset 14, -4
  94 0002 00AF     		add	r7, sp, #0
  95              		.cfi_def_cfa_register 7
  45:../app/app.c  **** 	if (--Buzzer_times) {
  96              		.loc 1 45 6
  97 0004 094B     		ldr	r3, .L7
  98 0006 1B78     		ldrb	r3, [r3]	@ zero_extendqisi2
  99 0008 013B     		subs	r3, r3, #1
 100 000a DAB2     		uxtb	r2, r3
 101              		.loc 1 45 5
 102 000c 074B     		ldr	r3, .L7
 103 000e 1A70     		strb	r2, [r3]
 104              		.loc 1 45 6
 105 0010 064B     		ldr	r3, .L7
 106 0012 1B78     		ldrb	r3, [r3]	@ zero_extendqisi2
 107              		.loc 1 45 5
 108 0014 002B     		cmp	r3, #0
 109 0016 07D0     		beq	.L6
  46:../app/app.c  **** 		gd_timer_buz(_ON_);
 110              		.loc 1 46 3
 111 0018 0120     		movs	r0, #1
 112 001a FFF7FEFF 		bl	gd_timer_buz
  47:../app/app.c  **** 		osal_lyh_over_timer(OS_TONE_TIME, Ms_80, app_buzoff_cbfunc);
 113              		.loc 1 47 3
 114 001e 044A     		ldr	r2, .L7+4
 115 0020 5021     		movs	r1, #80
 116 0022 0120     		movs	r0, #1
 117 0024 FFF7FEFF 		bl	osal_lyh_over_timer
 118              	.L6:
  48:../app/app.c  **** 	}
  49:../app/app.c  **** }
 119              		.loc 1 49 1
 120 0028 00BF     		nop
 121 002a 80BD     		pop	{r7, pc}
 122              	.L8:
 123              		.align	2
 124              	.L7:
 125 002c 00000000 		.word	Buzzer_times
 126 0030 00000000 		.word	app_buzoff_cbfunc
 127              		.cfi_endproc
 128              	.LFE117:
 130              		.section	.text.app_buzoff_cbfunc,"ax",%progbits
 131              		.align	1
 132              		.global	app_buzoff_cbfunc
 133              		.syntax unified
 134              		.thumb
 135              		.thumb_func
 136              		.fpu softvfp
 138              	app_buzoff_cbfunc:
 139              	.LFB118:
  50:../app/app.c  **** 
  51:../app/app.c  **** void app_buzoff_cbfunc(void)
  52:../app/app.c  **** {
 140              		.loc 1 52 1
 141              		.cfi_startproc
 142              		@ args = 0, pretend = 0, frame = 0
 143              		@ frame_needed = 1, uses_anonymous_args = 0
 144 0000 80B5     		push	{r7, lr}
 145              		.cfi_def_cfa_offset 8
 146              		.cfi_offset 7, -8
 147              		.cfi_offset 14, -4
 148 0002 00AF     		add	r7, sp, #0
 149              		.cfi_def_cfa_register 7
  53:../app/app.c  **** 	gd_timer_buz(_OFF_);
 150              		.loc 1 53 2
 151 0004 0020     		movs	r0, #0
 152 0006 FFF7FEFF 		bl	gd_timer_buz
  54:../app/app.c  **** 	osal_lyh_over_timer(OS_TONE_TIME, Ms_80, app_buzon_cbfunc);
 153              		.loc 1 54 2
 154 000a 034A     		ldr	r2, .L10
 155 000c 5021     		movs	r1, #80
 156 000e 0120     		movs	r0, #1
 157 0010 FFF7FEFF 		bl	osal_lyh_over_timer
  55:../app/app.c  **** }
 158              		.loc 1 55 1
 159 0014 00BF     		nop
 160 0016 80BD     		pop	{r7, pc}
 161              	.L11:
 162              		.align	2
 163              	.L10:
 164 0018 00000000 		.word	app_buzon_cbfunc
 165              		.cfi_endproc
 166              	.LFE118:
 168              		.section	.text.app_buzzer_on,"ax",%progbits
 169              		.align	1
 170              		.global	app_buzzer_on
 171              		.syntax unified
 172              		.thumb
 173              		.thumb_func
 174              		.fpu softvfp
 176              	app_buzzer_on:
 177              	.LFB119:
  56:../app/app.c  **** 
  57:../app/app.c  **** void app_buzzer_on(uint8_t time)
  58:../app/app.c  **** {
 178              		.loc 1 58 1
 179              		.cfi_startproc
 180              		@ args = 0, pretend = 0, frame = 8
 181              		@ frame_needed = 1, uses_anonymous_args = 0
 182 0000 80B5     		push	{r7, lr}
 183              		.cfi_def_cfa_offset 8
 184              		.cfi_offset 7, -8
 185              		.cfi_offset 14, -4
 186 0002 82B0     		sub	sp, sp, #8
 187              		.cfi_def_cfa_offset 16
 188 0004 00AF     		add	r7, sp, #0
 189              		.cfi_def_cfa_register 7
 190 0006 0346     		mov	r3, r0
 191 0008 FB71     		strb	r3, [r7, #7]
  59:../app/app.c  **** 	if (time) {
 192              		.loc 1 59 5
 193 000a FB79     		ldrb	r3, [r7, #7]	@ zero_extendqisi2
 194 000c 002B     		cmp	r3, #0
 195 000e 0BD0     		beq	.L13
  60:../app/app.c  **** 		Buzzer_times = time;
 196              		.loc 1 60 16
 197 0010 0A4A     		ldr	r2, .L16
 198 0012 FB79     		ldrb	r3, [r7, #7]
 199 0014 1370     		strb	r3, [r2]
  61:../app/app.c  **** 		gd_timer_buz(_ON_);
 200              		.loc 1 61 3
 201 0016 0120     		movs	r0, #1
 202 0018 FFF7FEFF 		bl	gd_timer_buz
  62:../app/app.c  **** 		osal_lyh_over_timer(OS_TONE_TIME, Ms_80, app_buzoff_cbfunc);
 203              		.loc 1 62 3
 204 001c 084A     		ldr	r2, .L16+4
 205 001e 5021     		movs	r1, #80
 206 0020 0120     		movs	r0, #1
 207 0022 FFF7FEFF 		bl	osal_lyh_over_timer
  63:../app/app.c  **** 	}
  64:../app/app.c  **** 	else {
  65:../app/app.c  **** 		gd_timer_buz(_OFF_);
  66:../app/app.c  **** 		osal_lyh_kill_over_timer(OS_TONE_TIME);
  67:../app/app.c  **** 	}
  68:../app/app.c  **** }
 208              		.loc 1 68 1
 209 0026 05E0     		b	.L15
 210              	.L13:
  65:../app/app.c  **** 		osal_lyh_kill_over_timer(OS_TONE_TIME);
 211              		.loc 1 65 3
 212 0028 0020     		movs	r0, #0
 213 002a FFF7FEFF 		bl	gd_timer_buz
  66:../app/app.c  **** 	}
 214              		.loc 1 66 3
 215 002e 0120     		movs	r0, #1
 216 0030 FFF7FEFF 		bl	osal_lyh_kill_over_timer
 217              	.L15:
 218              		.loc 1 68 1
 219 0034 00BF     		nop
 220 0036 0837     		adds	r7, r7, #8
 221              		.cfi_def_cfa_offset 8
 222 0038 BD46     		mov	sp, r7
 223              		.cfi_def_cfa_register 13
 224              		@ sp needed
 225 003a 80BD     		pop	{r7, pc}
 226              	.L17:
 227              		.align	2
 228              	.L16:
 229 003c 00000000 		.word	Buzzer_times
 230 0040 00000000 		.word	app_buzoff_cbfunc
 231              		.cfi_endproc
 232              	.LFE119:
 234              		.section	.text.app_resource_init,"ax",%progbits
 235              		.align	1
 236              		.global	app_resource_init
 237              		.syntax unified
 238              		.thumb
 239              		.thumb_func
 240              		.fpu softvfp
 242              	app_resource_init:
 243              	.LFB120:
  69:../app/app.c  **** 
  70:../app/app.c  **** void app_resource_init(uint8_t Step)
  71:../app/app.c  **** {
 244              		.loc 1 71 1
 245              		.cfi_startproc
 246              		@ args = 0, pretend = 0, frame = 8
 247              		@ frame_needed = 1, uses_anonymous_args = 0
 248              		@ link register save eliminated.
 249 0000 80B4     		push	{r7}
 250              		.cfi_def_cfa_offset 4
 251              		.cfi_offset 7, -4
 252 0002 83B0     		sub	sp, sp, #12
 253              		.cfi_def_cfa_offset 16
 254 0004 00AF     		add	r7, sp, #0
 255              		.cfi_def_cfa_register 7
 256 0006 0346     		mov	r3, r0
 257 0008 FB71     		strb	r3, [r7, #7]
  72:../app/app.c  **** 	switch(Step){
 258              		.loc 1 72 2
 259 000a FB79     		ldrb	r3, [r7, #7]	@ zero_extendqisi2
 260 000c 013B     		subs	r3, r3, #1
 261 000e 0A2B     		cmp	r3, #10
 262 0010 18D8     		bhi	.L32
 263 0012 01A2     		adr	r2, .L21
 264 0014 52F823F0 		ldr	pc, [r2, r3, lsl #2]
 265              		.p2align 2
 266              	.L21:
 267 0018 45000000 		.word	.L32+1
 268 001c 45000000 		.word	.L32+1
 269 0020 45000000 		.word	.L32+1
 270 0024 45000000 		.word	.L32+1
 271 0028 45000000 		.word	.L32+1
 272 002c 45000000 		.word	.L32+1
 273 0030 45000000 		.word	.L32+1
 274 0034 45000000 		.word	.L32+1
 275 0038 45000000 		.word	.L32+1
 276 003c 45000000 		.word	.L32+1
 277 0040 45000000 		.word	.L32+1
 278              		.p2align 1
 279              	.L32:
  73:../app/app.c  **** 	case APP_IDLE_STATE:
  74:../app/app.c  **** 		break;
  75:../app/app.c  **** 	case APP_STARTUP_STATE:
  76:../app/app.c  **** 	case APP_NORMAL_STATE:
  77:../app/app.c  **** 		break;
  78:../app/app.c  **** 	case APP_ESPRESSO_STATE:
  79:../app/app.c  **** 		break;
  80:../app/app.c  **** 	case APP_AMERICAN_STATE:
  81:../app/app.c  **** 		break;
  82:../app/app.c  **** 	case APP_HOTWATER_STATE:
  83:../app/app.c  **** 		break;
  84:../app/app.c  **** 	case APP_STEAM_STATE:
  85:../app/app.c  **** 		break;
  86:../app/app.c  **** 	case APP_AQUA_STATE:
  87:../app/app.c  **** 		break;
  88:../app/app.c  **** 	case APP_CALC_STATE:
  89:../app/app.c  **** 		break;
  90:../app/app.c  **** 	case APP_SETUP_STATE:
  91:../app/app.c  **** 		break;
  92:../app/app.c  **** 	case APP_RUNNING_ONOFF_STATE:
  93:../app/app.c  **** 		break;
  94:../app/app.c  **** 	default:
  95:../app/app.c  **** 		break;
 280              		.loc 1 95 3
 281 0044 00BF     		nop
  96:../app/app.c  **** 	}
  97:../app/app.c  **** }
 282              		.loc 1 97 1
 283 0046 00BF     		nop
 284 0048 0C37     		adds	r7, r7, #12
 285              		.cfi_def_cfa_offset 4
 286 004a BD46     		mov	sp, r7
 287              		.cfi_def_cfa_register 13
 288              		@ sp needed
 289 004c 80BC     		pop	{r7}
 290              		.cfi_restore 7
 291              		.cfi_def_cfa_offset 0
 292 004e 7047     		bx	lr
 293              		.cfi_endproc
 294              	.LFE120:
 296              		.section	.text.app_resource_free,"ax",%progbits
 297              		.align	1
 298              		.global	app_resource_free
 299              		.syntax unified
 300              		.thumb
 301              		.thumb_func
 302              		.fpu softvfp
 304              	app_resource_free:
 305              	.LFB121:
  98:../app/app.c  **** 
  99:../app/app.c  **** void app_resource_free(uint8_t Step)
 100:../app/app.c  **** {
 306              		.loc 1 100 1
 307              		.cfi_startproc
 308              		@ args = 0, pretend = 0, frame = 8
 309              		@ frame_needed = 1, uses_anonymous_args = 0
 310 0000 80B5     		push	{r7, lr}
 311              		.cfi_def_cfa_offset 8
 312              		.cfi_offset 7, -8
 313              		.cfi_offset 14, -4
 314 0002 82B0     		sub	sp, sp, #8
 315              		.cfi_def_cfa_offset 16
 316 0004 00AF     		add	r7, sp, #0
 317              		.cfi_def_cfa_register 7
 318 0006 0346     		mov	r3, r0
 319 0008 FB71     		strb	r3, [r7, #7]
 101:../app/app.c  **** 	switch(Step){
 320              		.loc 1 101 2
 321 000a FB79     		ldrb	r3, [r7, #7]	@ zero_extendqisi2
 322 000c 013B     		subs	r3, r3, #1
 323 000e 0A2B     		cmp	r3, #10
 324 0010 1CD8     		bhi	.L41
 325 0012 01A2     		adr	r2, .L36
 326 0014 52F823F0 		ldr	pc, [r2, r3, lsl #2]
 327              		.p2align 2
 328              	.L36:
 329 0018 4D000000 		.word	.L41+1
 330 001c 45000000 		.word	.L38+1
 331 0020 45000000 		.word	.L38+1
 332 0024 45000000 		.word	.L38+1
 333 0028 45000000 		.word	.L38+1
 334 002c 45000000 		.word	.L38+1
 335 0030 45000000 		.word	.L38+1
 336 0034 45000000 		.word	.L38+1
 337 0038 45000000 		.word	.L38+1
 338 003c 4D000000 		.word	.L41+1
 339 0040 4D000000 		.word	.L41+1
 340              		.p2align 1
 341              	.L38:
 102:../app/app.c  **** 	case APP_IDLE_STATE:
 103:../app/app.c  **** 		break;
 104:../app/app.c  **** 	case APP_STARTUP_STATE:
 105:../app/app.c  **** 	case APP_NORMAL_STATE:
 106:../app/app.c  **** 	case APP_ESPRESSO_STATE:
 107:../app/app.c  **** 	case APP_AMERICAN_STATE:
 108:../app/app.c  **** 	case APP_HOTWATER_STATE:
 109:../app/app.c  **** 	case APP_STEAM_STATE:
 110:../app/app.c  **** 	case APP_AQUA_STATE:
 111:../app/app.c  **** 	case APP_CALC_STATE:
 112:../app/app.c  **** 		osal_lyh_kill_over_timer(OS_LED_TIME);
 342              		.loc 1 112 3
 343 0044 0220     		movs	r0, #2
 344 0046 FFF7FEFF 		bl	osal_lyh_kill_over_timer
 113:../app/app.c  **** 		break;
 345              		.loc 1 113 3
 346 004a 00E0     		b	.L40
 347              	.L41:
 114:../app/app.c  **** 	case APP_SETUP_STATE:
 115:../app/app.c  **** 		break;
 116:../app/app.c  **** 	case APP_RUNNING_ONOFF_STATE:
 117:../app/app.c  **** 		break;
 118:../app/app.c  **** 	default:
 119:../app/app.c  **** 		break;
 348              		.loc 1 119 3
 349 004c 00BF     		nop
 350              	.L40:
 120:../app/app.c  **** 	}
 121:../app/app.c  **** }
 351              		.loc 1 121 1
 352 004e 00BF     		nop
 353 0050 0837     		adds	r7, r7, #8
 354              		.cfi_def_cfa_offset 8
 355 0052 BD46     		mov	sp, r7
 356              		.cfi_def_cfa_register 13
 357              		@ sp needed
 358 0054 80BD     		pop	{r7, pc}
 359              		.cfi_endproc
 360              	.LFE121:
 362 0056 00BF     		.section	.text.app_task_nextstep,"ax",%progbits
 363              		.align	1
 364              		.global	app_task_nextstep
 365              		.syntax unified
 366              		.thumb
 367              		.thumb_func
 368              		.fpu softvfp
 370              	app_task_nextstep:
 371              	.LFB122:
 122:../app/app.c  **** 
 123:../app/app.c  **** void app_task_nextstep(uint8_t Step, uint8_t suStep)
 124:../app/app.c  **** {
 372              		.loc 1 124 1
 373              		.cfi_startproc
 374              		@ args = 0, pretend = 0, frame = 8
 375              		@ frame_needed = 1, uses_anonymous_args = 0
 376 0000 80B5     		push	{r7, lr}
 377              		.cfi_def_cfa_offset 8
 378              		.cfi_offset 7, -8
 379              		.cfi_offset 14, -4
 380 0002 82B0     		sub	sp, sp, #8
 381              		.cfi_def_cfa_offset 16
 382 0004 00AF     		add	r7, sp, #0
 383              		.cfi_def_cfa_register 7
 384 0006 0346     		mov	r3, r0
 385 0008 0A46     		mov	r2, r1
 386 000a FB71     		strb	r3, [r7, #7]
 387 000c 1346     		mov	r3, r2
 388 000e BB71     		strb	r3, [r7, #6]
 125:../app/app.c  **** 	app_resource_free(app_task_step);
 389              		.loc 1 125 2
 390 0010 0B4B     		ldr	r3, .L43
 391 0012 1B78     		ldrb	r3, [r3]	@ zero_extendqisi2
 392 0014 1846     		mov	r0, r3
 393 0016 FFF7FEFF 		bl	app_resource_free
 126:../app/app.c  **** 	app_resource_init(Step);
 394              		.loc 1 126 2
 395 001a FB79     		ldrb	r3, [r7, #7]	@ zero_extendqisi2
 396 001c 1846     		mov	r0, r3
 397 001e FFF7FEFF 		bl	app_resource_init
 127:../app/app.c  **** 	osal_lyh_restore_task(app_id);
 398              		.loc 1 127 2
 399 0022 084B     		ldr	r3, .L43+4
 400 0024 1B78     		ldrb	r3, [r3]	@ zero_extendqisi2
 401 0026 1846     		mov	r0, r3
 402 0028 FFF7FEFF 		bl	osal_lyh_restore_task
 128:../app/app.c  **** 	app_task_substep = suStep;
 403              		.loc 1 128 19
 404 002c 064A     		ldr	r2, .L43+8
 405 002e BB79     		ldrb	r3, [r7, #6]
 406 0030 1370     		strb	r3, [r2]
 129:../app/app.c  **** 	app_task_step = Step;
 407              		.loc 1 129 16
 408 0032 034A     		ldr	r2, .L43
 409 0034 FB79     		ldrb	r3, [r7, #7]
 410 0036 1370     		strb	r3, [r2]
 130:../app/app.c  **** }
 411              		.loc 1 130 1
 412 0038 00BF     		nop
 413 003a 0837     		adds	r7, r7, #8
 414              		.cfi_def_cfa_offset 8
 415 003c BD46     		mov	sp, r7
 416              		.cfi_def_cfa_register 13
 417              		@ sp needed
 418 003e 80BD     		pop	{r7, pc}
 419              	.L44:
 420              		.align	2
 421              	.L43:
 422 0040 00000000 		.word	app_task_step
 423 0044 00000000 		.word	app_id
 424 0048 00000000 		.word	app_task_substep
 425              		.cfi_endproc
 426              	.LFE122:
 428              		.section	.text.app_task_nextsubstep,"ax",%progbits
 429              		.align	1
 430              		.global	app_task_nextsubstep
 431              		.syntax unified
 432              		.thumb
 433              		.thumb_func
 434              		.fpu softvfp
 436              	app_task_nextsubstep:
 437              	.LFB123:
 131:../app/app.c  **** 
 132:../app/app.c  **** void app_task_nextsubstep(uint8_t suStep)
 133:../app/app.c  **** {
 438              		.loc 1 133 1
 439              		.cfi_startproc
 440              		@ args = 0, pretend = 0, frame = 8
 441              		@ frame_needed = 1, uses_anonymous_args = 0
 442 0000 80B5     		push	{r7, lr}
 443              		.cfi_def_cfa_offset 8
 444              		.cfi_offset 7, -8
 445              		.cfi_offset 14, -4
 446 0002 82B0     		sub	sp, sp, #8
 447              		.cfi_def_cfa_offset 16
 448 0004 00AF     		add	r7, sp, #0
 449              		.cfi_def_cfa_register 7
 450 0006 0346     		mov	r3, r0
 451 0008 FB71     		strb	r3, [r7, #7]
 134:../app/app.c  **** 	osal_lyh_restore_task(app_id);
 452              		.loc 1 134 2
 453 000a 064B     		ldr	r3, .L46
 454 000c 1B78     		ldrb	r3, [r3]	@ zero_extendqisi2
 455 000e 1846     		mov	r0, r3
 456 0010 FFF7FEFF 		bl	osal_lyh_restore_task
 135:../app/app.c  **** 	app_task_substep = suStep;
 457              		.loc 1 135 19
 458 0014 044A     		ldr	r2, .L46+4
 459 0016 FB79     		ldrb	r3, [r7, #7]
 460 0018 1370     		strb	r3, [r2]
 136:../app/app.c  **** }
 461              		.loc 1 136 1
 462 001a 00BF     		nop
 463 001c 0837     		adds	r7, r7, #8
 464              		.cfi_def_cfa_offset 8
 465 001e BD46     		mov	sp, r7
 466              		.cfi_def_cfa_register 13
 467              		@ sp needed
 468 0020 80BD     		pop	{r7, pc}
 469              	.L47:
 470 0022 00BF     		.align	2
 471              	.L46:
 472 0024 00000000 		.word	app_id
 473 0028 00000000 		.word	app_task_substep
 474              		.cfi_endproc
 475              	.LFE123:
 477              		.section	.text.app_water_ready,"ax",%progbits
 478              		.align	1
 479              		.global	app_water_ready
 480              		.syntax unified
 481              		.thumb
 482              		.thumb_func
 483              		.fpu softvfp
 485              	app_water_ready:
 486              	.LFB124:
 137:../app/app.c  **** 
 138:../app/app.c  **** uint8_t app_water_ready(void)
 139:../app/app.c  **** {
 487              		.loc 1 139 1
 488              		.cfi_startproc
 489              		@ args = 0, pretend = 0, frame = 0
 490              		@ frame_needed = 1, uses_anonymous_args = 0
 491              		@ link register save eliminated.
 492 0000 80B4     		push	{r7}
 493              		.cfi_def_cfa_offset 4
 494              		.cfi_offset 7, -4
 495 0002 00AF     		add	r7, sp, #0
 496              		.cfi_def_cfa_register 7
 140:../app/app.c  **** 	return (keyinfo.ulUIOnboardSwitches & WATER_DET_MASK)? TRUE:FAIL;
 497              		.loc 1 140 17
 498 0004 054B     		ldr	r3, .L50
 499 0006 DB69     		ldr	r3, [r3, #28]
 500              		.loc 1 140 61
 501 0008 1B0C     		lsrs	r3, r3, #16
 502 000a DBB2     		uxtb	r3, r3
 503 000c 03F00103 		and	r3, r3, #1
 504 0010 DBB2     		uxtb	r3, r3
 141:../app/app.c  **** }
 505              		.loc 1 141 1
 506 0012 1846     		mov	r0, r3
 507 0014 BD46     		mov	sp, r7
 508              		.cfi_def_cfa_register 13
 509              		@ sp needed
 510 0016 80BC     		pop	{r7}
 511              		.cfi_restore 7
 512              		.cfi_def_cfa_offset 0
 513 0018 7047     		bx	lr
 514              	.L51:
 515 001a 00BF     		.align	2
 516              	.L50:
 517 001c 00000000 		.word	keyinfo
 518              		.cfi_endproc
 519              	.LFE124:
 521              		.section	.text.app_pallet_ready,"ax",%progbits
 522              		.align	1
 523              		.global	app_pallet_ready
 524              		.syntax unified
 525              		.thumb
 526              		.thumb_func
 527              		.fpu softvfp
 529              	app_pallet_ready:
 530              	.LFB125:
 142:../app/app.c  **** 
 143:../app/app.c  **** uint8_t app_pallet_ready(void)
 144:../app/app.c  **** {
 531              		.loc 1 144 1
 532              		.cfi_startproc
 533              		@ args = 0, pretend = 0, frame = 0
 534              		@ frame_needed = 1, uses_anonymous_args = 0
 535              		@ link register save eliminated.
 536 0000 80B4     		push	{r7}
 537              		.cfi_def_cfa_offset 4
 538              		.cfi_offset 7, -4
 539 0002 00AF     		add	r7, sp, #0
 540              		.cfi_def_cfa_register 7
 145:../app/app.c  **** 	return (keyinfo.ulUIOnboardSwitches & PALLET_DET_MASK)? TRUE:FAIL;
 541              		.loc 1 145 17
 542 0004 054B     		ldr	r3, .L54
 543 0006 DB69     		ldr	r3, [r3, #28]
 544              		.loc 1 145 62
 545 0008 DB0A     		lsrs	r3, r3, #11
 546 000a DBB2     		uxtb	r3, r3
 547 000c 03F00103 		and	r3, r3, #1
 548 0010 DBB2     		uxtb	r3, r3
 146:../app/app.c  **** }
 549              		.loc 1 146 1
 550 0012 1846     		mov	r0, r3
 551 0014 BD46     		mov	sp, r7
 552              		.cfi_def_cfa_register 13
 553              		@ sp needed
 554 0016 80BC     		pop	{r7}
 555              		.cfi_restore 7
 556              		.cfi_def_cfa_offset 0
 557 0018 7047     		bx	lr
 558              	.L55:
 559 001a 00BF     		.align	2
 560              	.L54:
 561 001c 00000000 		.word	keyinfo
 562              		.cfi_endproc
 563              	.LFE125:
 565              		.section	.text.app_meter_ready,"ax",%progbits
 566              		.align	1
 567              		.global	app_meter_ready
 568              		.syntax unified
 569              		.thumb
 570              		.thumb_func
 571              		.fpu softvfp
 573              	app_meter_ready:
 574              	.LFB126:
 147:../app/app.c  **** 
 148:../app/app.c  **** uint8_t app_meter_ready(void)
 149:../app/app.c  **** {
 575              		.loc 1 149 1
 576              		.cfi_startproc
 577              		@ args = 0, pretend = 0, frame = 0
 578              		@ frame_needed = 1, uses_anonymous_args = 0
 579              		@ link register save eliminated.
 580 0000 80B4     		push	{r7}
 581              		.cfi_def_cfa_offset 4
 582              		.cfi_offset 7, -4
 583 0002 00AF     		add	r7, sp, #0
 584              		.cfi_def_cfa_register 7
 150:../app/app.c  **** 	return (keyinfo.ulUIOnboardSwitches & METER_DET_MASK)? TRUE:FAIL;
 585              		.loc 1 150 17
 586 0004 054B     		ldr	r3, .L58
 587 0006 DB69     		ldr	r3, [r3, #28]
 588              		.loc 1 150 61
 589 0008 9B0B     		lsrs	r3, r3, #14
 590 000a DBB2     		uxtb	r3, r3
 591 000c 03F00103 		and	r3, r3, #1
 592 0010 DBB2     		uxtb	r3, r3
 151:../app/app.c  **** }
 593              		.loc 1 151 1
 594 0012 1846     		mov	r0, r3
 595 0014 BD46     		mov	sp, r7
 596              		.cfi_def_cfa_register 13
 597              		@ sp needed
 598 0016 80BC     		pop	{r7}
 599              		.cfi_restore 7
 600              		.cfi_def_cfa_offset 0
 601 0018 7047     		bx	lr
 602              	.L59:
 603 001a 00BF     		.align	2
 604              	.L58:
 605 001c 00000000 		.word	keyinfo
 606              		.cfi_endproc
 607              	.LFE126:
 609              		.section	.text.app_motor_ready,"ax",%progbits
 610              		.align	1
 611              		.global	app_motor_ready
 612              		.syntax unified
 613              		.thumb
 614              		.thumb_func
 615              		.fpu softvfp
 617              	app_motor_ready:
 618              	.LFB127:
 152:../app/app.c  **** 
 153:../app/app.c  **** uint8_t app_motor_ready(void)
 154:../app/app.c  **** {
 619              		.loc 1 154 1
 620              		.cfi_startproc
 621              		@ args = 0, pretend = 0, frame = 0
 622              		@ frame_needed = 1, uses_anonymous_args = 0
 623              		@ link register save eliminated.
 624 0000 80B4     		push	{r7}
 625              		.cfi_def_cfa_offset 4
 626              		.cfi_offset 7, -4
 627 0002 00AF     		add	r7, sp, #0
 628              		.cfi_def_cfa_register 7
 155:../app/app.c  **** 	return (!(keyinfo.ulUIOnboardSwitches & MOTOR_DET_MASK))? TRUE:FAIL;
 629              		.loc 1 155 19
 630 0004 064B     		ldr	r3, .L62
 631 0006 DB69     		ldr	r3, [r3, #28]
 632              		.loc 1 155 40
 633 0008 03F40043 		and	r3, r3, #32768
 634              		.loc 1 155 64
 635 000c 002B     		cmp	r3, #0
 636 000e 0CBF     		ite	eq
 637 0010 0123     		moveq	r3, #1
 638 0012 0023     		movne	r3, #0
 639 0014 DBB2     		uxtb	r3, r3
 156:../app/app.c  **** }
 640              		.loc 1 156 1
 641 0016 1846     		mov	r0, r3
 642 0018 BD46     		mov	sp, r7
 643              		.cfi_def_cfa_register 13
 644              		@ sp needed
 645 001a 80BC     		pop	{r7}
 646              		.cfi_restore 7
 647              		.cfi_def_cfa_offset 0
 648 001c 7047     		bx	lr
 649              	.L63:
 650 001e 00BF     		.align	2
 651              	.L62:
 652 0020 00000000 		.word	keyinfo
 653              		.cfi_endproc
 654              	.LFE127:
 656              		.section	.text.app_turn_heat_off,"ax",%progbits
 657              		.align	1
 658              		.global	app_turn_heat_off
 659              		.syntax unified
 660              		.thumb
 661              		.thumb_func
 662              		.fpu softvfp
 664              	app_turn_heat_off:
 665              	.LFB128:
 157:../app/app.c  **** 
 158:../app/app.c  **** void app_turn_heat_off(void)
 159:../app/app.c  **** {
 666              		.loc 1 159 1
 667              		.cfi_startproc
 668              		@ args = 0, pretend = 0, frame = 0
 669              		@ frame_needed = 1, uses_anonymous_args = 0
 670              		@ link register save eliminated.
 671 0000 80B4     		push	{r7}
 672              		.cfi_def_cfa_offset 4
 673              		.cfi_offset 7, -4
 674 0002 00AF     		add	r7, sp, #0
 675              		.cfi_def_cfa_register 7
 160:../app/app.c  **** 	osal_lyh_set_event(heat_id, HEAT_STOP_EVENT);
 676              		.loc 1 160 2
 677 0004 084B     		ldr	r3, .L65
 678 0006 1B78     		ldrb	r3, [r3]	@ zero_extendqisi2
 679 0008 1A46     		mov	r2, r3
 680 000a 084B     		ldr	r3, .L65+4
 681 000c 53F82230 		ldr	r3, [r3, r2, lsl #2]
 682 0010 054A     		ldr	r2, .L65
 683 0012 1278     		ldrb	r2, [r2]	@ zero_extendqisi2
 684 0014 1146     		mov	r1, r2
 685 0016 43F00203 		orr	r3, r3, #2
 686 001a 044A     		ldr	r2, .L65+4
 687 001c 42F82130 		str	r3, [r2, r1, lsl #2]
 161:../app/app.c  **** }
 688              		.loc 1 161 1
 689 0020 00BF     		nop
 690 0022 BD46     		mov	sp, r7
 691              		.cfi_def_cfa_register 13
 692              		@ sp needed
 693 0024 80BC     		pop	{r7}
 694              		.cfi_restore 7
 695              		.cfi_def_cfa_offset 0
 696 0026 7047     		bx	lr
 697              	.L66:
 698              		.align	2
 699              	.L65:
 700 0028 00000000 		.word	heat_id
 701 002c 00000000 		.word	eventMap
 702              		.cfi_endproc
 703              	.LFE128:
 705              		.section	.text.app_turn_heat_on,"ax",%progbits
 706              		.align	1
 707              		.global	app_turn_heat_on
 708              		.syntax unified
 709              		.thumb
 710              		.thumb_func
 711              		.fpu softvfp
 713              	app_turn_heat_on:
 714              	.LFB129:
 162:../app/app.c  **** 
 163:../app/app.c  **** void app_turn_heat_on(uint16_t target)
 164:../app/app.c  **** {
 715              		.loc 1 164 1
 716              		.cfi_startproc
 717              		@ args = 0, pretend = 0, frame = 8
 718              		@ frame_needed = 1, uses_anonymous_args = 0
 719              		@ link register save eliminated.
 720 0000 80B4     		push	{r7}
 721              		.cfi_def_cfa_offset 4
 722              		.cfi_offset 7, -4
 723 0002 83B0     		sub	sp, sp, #12
 724              		.cfi_def_cfa_offset 16
 725 0004 00AF     		add	r7, sp, #0
 726              		.cfi_def_cfa_register 7
 727 0006 0346     		mov	r3, r0
 728 0008 FB80     		strh	r3, [r7, #6]	@ movhi
 165:../app/app.c  **** 	osal_lyh_set_event(heat_id, HEAT_START_EVENT);
 729              		.loc 1 165 2
 730 000a 0B4B     		ldr	r3, .L68
 731 000c 1B78     		ldrb	r3, [r3]	@ zero_extendqisi2
 732 000e 1A46     		mov	r2, r3
 733 0010 0A4B     		ldr	r3, .L68+4
 734 0012 53F82230 		ldr	r3, [r3, r2, lsl #2]
 735 0016 084A     		ldr	r2, .L68
 736 0018 1278     		ldrb	r2, [r2]	@ zero_extendqisi2
 737 001a 1146     		mov	r1, r2
 738 001c 43F00103 		orr	r3, r3, #1
 739 0020 064A     		ldr	r2, .L68+4
 740 0022 42F82130 		str	r3, [r2, r1, lsl #2]
 166:../app/app.c  **** 	target_temp = target;
 741              		.loc 1 166 14
 742 0026 064A     		ldr	r2, .L68+8
 743 0028 FB88     		ldrh	r3, [r7, #6]	@ movhi
 744 002a 1380     		strh	r3, [r2]	@ movhi
 167:../app/app.c  **** }
 745              		.loc 1 167 1
 746 002c 00BF     		nop
 747 002e 0C37     		adds	r7, r7, #12
 748              		.cfi_def_cfa_offset 4
 749 0030 BD46     		mov	sp, r7
 750              		.cfi_def_cfa_register 13
 751              		@ sp needed
 752 0032 80BC     		pop	{r7}
 753              		.cfi_restore 7
 754              		.cfi_def_cfa_offset 0
 755 0034 7047     		bx	lr
 756              	.L69:
 757 0036 00BF     		.align	2
 758              	.L68:
 759 0038 00000000 		.word	heat_id
 760 003c 00000000 		.word	eventMap
 761 0040 00000000 		.word	target_temp
 762              		.cfi_endproc
 763              	.LFE129:
 765              		.section	.text.app_temperature_state,"ax",%progbits
 766              		.align	1
 767              		.global	app_temperature_state
 768              		.syntax unified
 769              		.thumb
 770              		.thumb_func
 771              		.fpu softvfp
 773              	app_temperature_state:
 774              	.LFB130:
 168:../app/app.c  **** 
 169:../app/app.c  **** uint8_t app_temperature_state(uint16_t target)
 170:../app/app.c  **** {
 775              		.loc 1 170 1
 776              		.cfi_startproc
 777              		@ args = 0, pretend = 0, frame = 8
 778              		@ frame_needed = 1, uses_anonymous_args = 0
 779 0000 80B5     		push	{r7, lr}
 780              		.cfi_def_cfa_offset 8
 781              		.cfi_offset 7, -8
 782              		.cfi_offset 14, -4
 783 0002 82B0     		sub	sp, sp, #8
 784              		.cfi_def_cfa_offset 16
 785 0004 00AF     		add	r7, sp, #0
 786              		.cfi_def_cfa_register 7
 787 0006 0346     		mov	r3, r0
 788 0008 FB80     		strh	r3, [r7, #6]	@ movhi
 171:../app/app.c  **** 	return heat_get_temp(target);
 789              		.loc 1 171 9
 790 000a FB88     		ldrh	r3, [r7, #6]
 791 000c 1846     		mov	r0, r3
 792 000e FFF7FEFF 		bl	heat_get_temp
 793 0012 0346     		mov	r3, r0
 172:../app/app.c  **** }
 794              		.loc 1 172 1
 795 0014 1846     		mov	r0, r3
 796 0016 0837     		adds	r7, r7, #8
 797              		.cfi_def_cfa_offset 8
 798 0018 BD46     		mov	sp, r7
 799              		.cfi_def_cfa_register 13
 800              		@ sp needed
 801 001a 80BD     		pop	{r7, pc}
 802              		.cfi_endproc
 803              	.LFE130:
 805              		.section	.text.app_relay_set,"ax",%progbits
 806              		.align	1
 807              		.global	app_relay_set
 808              		.syntax unified
 809              		.thumb
 810              		.thumb_func
 811              		.fpu softvfp
 813              	app_relay_set:
 814              	.LFB131:
 173:../app/app.c  **** 
 174:../app/app.c  **** void app_relay_set(uint8_t MODE)
 175:../app/app.c  **** {
 815              		.loc 1 175 1
 816              		.cfi_startproc
 817              		@ args = 0, pretend = 0, frame = 8
 818              		@ frame_needed = 1, uses_anonymous_args = 0
 819 0000 80B5     		push	{r7, lr}
 820              		.cfi_def_cfa_offset 8
 821              		.cfi_offset 7, -8
 822              		.cfi_offset 14, -4
 823 0002 82B0     		sub	sp, sp, #8
 824              		.cfi_def_cfa_offset 16
 825 0004 00AF     		add	r7, sp, #0
 826              		.cfi_def_cfa_register 7
 827 0006 0346     		mov	r3, r0
 828 0008 FB71     		strb	r3, [r7, #7]
 176:../app/app.c  **** 	if(MODE == COFFEE_MODE){
 829              		.loc 1 176 4
 830 000a FB79     		ldrb	r3, [r7, #7]	@ zero_extendqisi2
 831 000c 002B     		cmp	r3, #0
 832 000e 02D1     		bne	.L73
 177:../app/app.c  **** 		Relay2_OFF();
 833              		.loc 1 177 3
 834 0010 FFF7FEFF 		bl	Relay2_OFF
 178:../app/app.c  **** 	}
 179:../app/app.c  **** 	else if(MODE == WATER_MODE){
 180:../app/app.c  **** 		Relay2_ON();
 181:../app/app.c  **** 	}
 182:../app/app.c  **** }
 835              		.loc 1 182 1
 836 0014 04E0     		b	.L75
 837              	.L73:
 179:../app/app.c  **** 		Relay2_ON();
 838              		.loc 1 179 9
 839 0016 FB79     		ldrb	r3, [r7, #7]	@ zero_extendqisi2
 840 0018 012B     		cmp	r3, #1
 841 001a 01D1     		bne	.L75
 180:../app/app.c  **** 	}
 842              		.loc 1 180 3
 843 001c FFF7FEFF 		bl	Relay2_ON
 844              	.L75:
 845              		.loc 1 182 1
 846 0020 00BF     		nop
 847 0022 0837     		adds	r7, r7, #8
 848              		.cfi_def_cfa_offset 8
 849 0024 BD46     		mov	sp, r7
 850              		.cfi_def_cfa_register 13
 851              		@ sp needed
 852 0026 80BD     		pop	{r7, pc}
 853              		.cfi_endproc
 854              	.LFE131:
 856              		.section	.text.app_step_state,"ax",%progbits
 857              		.align	1
 858              		.global	app_step_state
 859              		.syntax unified
 860              		.thumb
 861              		.thumb_func
 862              		.fpu softvfp
 864              	app_step_state:
 865              	.LFB132:
 183:../app/app.c  **** 
 184:../app/app.c  **** uint8_t app_step_state(uint8_t step)
 185:../app/app.c  **** {
 866              		.loc 1 185 1
 867              		.cfi_startproc
 868              		@ args = 0, pretend = 0, frame = 8
 869              		@ frame_needed = 1, uses_anonymous_args = 0
 870              		@ link register save eliminated.
 871 0000 80B4     		push	{r7}
 872              		.cfi_def_cfa_offset 4
 873              		.cfi_offset 7, -4
 874 0002 83B0     		sub	sp, sp, #12
 875              		.cfi_def_cfa_offset 16
 876 0004 00AF     		add	r7, sp, #0
 877              		.cfi_def_cfa_register 7
 878 0006 0346     		mov	r3, r0
 879 0008 FB71     		strb	r3, [r7, #7]
 186:../app/app.c  **** 	return (app_task_step == step)? TRUE:FAIL;
 880              		.loc 1 186 38
 881 000a 064B     		ldr	r3, .L78
 882 000c 1B78     		ldrb	r3, [r3]	@ zero_extendqisi2
 883 000e FA79     		ldrb	r2, [r7, #7]	@ zero_extendqisi2
 884 0010 9A42     		cmp	r2, r3
 885 0012 0CBF     		ite	eq
 886 0014 0123     		moveq	r3, #1
 887 0016 0023     		movne	r3, #0
 888 0018 DBB2     		uxtb	r3, r3
 187:../app/app.c  **** }
 889              		.loc 1 187 1
 890 001a 1846     		mov	r0, r3
 891 001c 0C37     		adds	r7, r7, #12
 892              		.cfi_def_cfa_offset 4
 893 001e BD46     		mov	sp, r7
 894              		.cfi_def_cfa_register 13
 895              		@ sp needed
 896 0020 80BC     		pop	{r7}
 897              		.cfi_restore 7
 898              		.cfi_def_cfa_offset 0
 899 0022 7047     		bx	lr
 900              	.L79:
 901              		.align	2
 902              	.L78:
 903 0024 00000000 		.word	app_task_step
 904              		.cfi_endproc
 905              	.LFE132:
 907              		.section	.text.app_led_heat_cbfunc,"ax",%progbits
 908              		.align	1
 909              		.global	app_led_heat_cbfunc
 910              		.syntax unified
 911              		.thumb
 912              		.thumb_func
 913              		.fpu softvfp
 915              	app_led_heat_cbfunc:
 916              	.LFB133:
 188:../app/app.c  **** 
 189:../app/app.c  **** void app_led_heat_cbfunc(void)
 190:../app/app.c  **** {
 917              		.loc 1 190 1
 918              		.cfi_startproc
 919              		@ args = 0, pretend = 0, frame = 8
 920              		@ frame_needed = 1, uses_anonymous_args = 0
 921 0000 80B5     		push	{r7, lr}
 922              		.cfi_def_cfa_offset 8
 923              		.cfi_offset 7, -8
 924              		.cfi_offset 14, -4
 925 0002 82B0     		sub	sp, sp, #8
 926              		.cfi_def_cfa_offset 16
 927 0004 00AF     		add	r7, sp, #0
 928              		.cfi_def_cfa_register 7
 191:../app/app.c  **** 	uint8_t i, led_id[] = {ESPRESSO1_LED, AMERICANO1_LED, STEAM_LED, HOT_WATER};
 929              		.loc 1 191 13
 930 0006 1F4B     		ldr	r3, .L84
 931 0008 3B60     		str	r3, [r7]
 192:../app/app.c  **** 
 193:../app/app.c  **** 	for (i = 0; i<sizeof(led_id); i++){
 932              		.loc 1 193 9
 933 000a 0023     		movs	r3, #0
 934 000c FB71     		strb	r3, [r7, #7]
 935              		.loc 1 193 2
 936 000e 16E0     		b	.L81
 937              	.L82:
 194:../app/app.c  **** 		display_led(led_id[i], (Leds_loop_run & (1<<i))? LED_ON:LED_OFF);
 938              		.loc 1 194 3 discriminator 3
 939 0010 FB79     		ldrb	r3, [r7, #7]	@ zero_extendqisi2
 940 0012 07F10802 		add	r2, r7, #8
 941 0016 1344     		add	r3, r3, r2
 942 0018 13F8082C 		ldrb	r2, [r3, #-8]	@ zero_extendqisi2
 943              		.loc 1 194 50 discriminator 3
 944 001c 1A4B     		ldr	r3, .L84+4
 945 001e 1B78     		ldrb	r3, [r3]	@ zero_extendqisi2
 946 0020 1946     		mov	r1, r3
 947 0022 FB79     		ldrb	r3, [r7, #7]	@ zero_extendqisi2
 948 0024 41FA03F3 		asr	r3, r1, r3
 949              		.loc 1 194 58 discriminator 3
 950 0028 DBB2     		uxtb	r3, r3
 951              		.loc 1 194 3 discriminator 3
 952 002a 03F00103 		and	r3, r3, #1
 953 002e DBB2     		uxtb	r3, r3
 954 0030 1946     		mov	r1, r3
 955 0032 1046     		mov	r0, r2
 956 0034 FFF7FEFF 		bl	display_led
 193:../app/app.c  **** 		display_led(led_id[i], (Leds_loop_run & (1<<i))? LED_ON:LED_OFF);
 957              		.loc 1 193 33 discriminator 3
 958 0038 FB79     		ldrb	r3, [r7, #7]	@ zero_extendqisi2
 959 003a 0133     		adds	r3, r3, #1
 960 003c FB71     		strb	r3, [r7, #7]
 961              	.L81:
 193:../app/app.c  **** 		display_led(led_id[i], (Leds_loop_run & (1<<i))? LED_ON:LED_OFF);
 962              		.loc 1 193 2 discriminator 1
 963 003e FB79     		ldrb	r3, [r7, #7]	@ zero_extendqisi2
 964 0040 032B     		cmp	r3, #3
 965 0042 E5D9     		bls	.L82
 195:../app/app.c  **** 	}
 196:../app/app.c  **** 	Leds_loop_run <<= 1;
 966              		.loc 1 196 16
 967 0044 104B     		ldr	r3, .L84+4
 968 0046 1B78     		ldrb	r3, [r3]	@ zero_extendqisi2
 969 0048 5B00     		lsls	r3, r3, #1
 970 004a DAB2     		uxtb	r2, r3
 971 004c 0E4B     		ldr	r3, .L84+4
 972 004e 1A70     		strb	r2, [r3]
 197:../app/app.c  **** 	if (Leds_loop_run & (1<<i)) {
 973              		.loc 1 197 6
 974 0050 0D4B     		ldr	r3, .L84+4
 975 0052 1B78     		ldrb	r3, [r3]	@ zero_extendqisi2
 976 0054 1A46     		mov	r2, r3
 977 0056 FB79     		ldrb	r3, [r7, #7]	@ zero_extendqisi2
 978 0058 42FA03F3 		asr	r3, r2, r3
 979 005c 03F00103 		and	r3, r3, #1
 980              		.loc 1 197 5
 981 0060 002B     		cmp	r3, #0
 982 0062 05D0     		beq	.L83
 198:../app/app.c  **** 		Leds_loop_run++;
 983              		.loc 1 198 16
 984 0064 084B     		ldr	r3, .L84+4
 985 0066 1B78     		ldrb	r3, [r3]	@ zero_extendqisi2
 986 0068 0133     		adds	r3, r3, #1
 987 006a DAB2     		uxtb	r2, r3
 988 006c 064B     		ldr	r3, .L84+4
 989 006e 1A70     		strb	r2, [r3]
 990              	.L83:
 199:../app/app.c  **** 	}
 200:../app/app.c  **** 	osal_lyh_over_timer(OS_LED_TIME, Ms_500, app_led_heat_cbfunc);
 991              		.loc 1 200 2
 992 0070 064A     		ldr	r2, .L84+8
 993 0072 4FF4FA71 		mov	r1, #500
 994 0076 0220     		movs	r0, #2
 995 0078 FFF7FEFF 		bl	osal_lyh_over_timer
 201:../app/app.c  **** }
 996              		.loc 1 201 1
 997 007c 00BF     		nop
 998 007e 0837     		adds	r7, r7, #8
 999              		.cfi_def_cfa_offset 8
 1000 0080 BD46     		mov	sp, r7
 1001              		.cfi_def_cfa_register 13
 1002              		@ sp needed
 1003 0082 80BD     		pop	{r7, pc}
 1004              	.L85:
 1005              		.align	2
 1006              	.L84:
 1007 0084 0C0F1215 		.word	353505036
 1008 0088 00000000 		.word	Leds_loop_run
 1009 008c 00000000 		.word	app_led_heat_cbfunc
 1010              		.cfi_endproc
 1011              	.LFE133:
 1013              		.section	.text.app_led_show_init,"ax",%progbits
 1014              		.align	1
 1015              		.global	app_led_show_init
 1016              		.syntax unified
 1017              		.thumb
 1018              		.thumb_func
 1019              		.fpu softvfp
 1021              	app_led_show_init:
 1022              	.LFB134:
 202:../app/app.c  **** 
 203:../app/app.c  **** void app_led_show_init(void)
 204:../app/app.c  **** {
 1023              		.loc 1 204 1
 1024              		.cfi_startproc
 1025              		@ args = 0, pretend = 0, frame = 0
 1026              		@ frame_needed = 1, uses_anonymous_args = 0
 1027 0000 80B5     		push	{r7, lr}
 1028              		.cfi_def_cfa_offset 8
 1029              		.cfi_offset 7, -8
 1030              		.cfi_offset 14, -4
 1031 0002 00AF     		add	r7, sp, #0
 1032              		.cfi_def_cfa_register 7
 205:../app/app.c  **** 	Leds_loop_run = 0x03;
 1033              		.loc 1 205 16
 1034 0004 084B     		ldr	r3, .L87
 1035 0006 0322     		movs	r2, #3
 1036 0008 1A70     		strb	r2, [r3]
 206:../app/app.c  **** 	app_leds_all_fun(LED_OFF);
 1037              		.loc 1 206 2
 1038 000a 0020     		movs	r0, #0
 1039 000c FFF7FEFF 		bl	app_leds_all_fun
 207:../app/app.c  **** 	display_led(ESPRESSO1_LED, LED_ON);
 1040              		.loc 1 207 2
 1041 0010 0121     		movs	r1, #1
 1042 0012 0C20     		movs	r0, #12
 1043 0014 FFF7FEFF 		bl	display_led
 208:../app/app.c  **** 	osal_lyh_over_timer(OS_LED_TIME, Ms_500, app_led_heat_cbfunc);
 1044              		.loc 1 208 2
 1045 0018 044A     		ldr	r2, .L87+4
 1046 001a 4FF4FA71 		mov	r1, #500
 1047 001e 0220     		movs	r0, #2
 1048 0020 FFF7FEFF 		bl	osal_lyh_over_timer
 209:../app/app.c  **** }
 1049              		.loc 1 209 1
 1050 0024 00BF     		nop
 1051 0026 80BD     		pop	{r7, pc}
 1052              	.L88:
 1053              		.align	2
 1054              	.L87:
 1055 0028 00000000 		.word	Leds_loop_run
 1056 002c 00000000 		.word	app_led_heat_cbfunc
 1057              		.cfi_endproc
 1058              	.LFE134:
 1060              		.section	.text.app_led_start_cbfunc,"ax",%progbits
 1061              		.align	1
 1062              		.global	app_led_start_cbfunc
 1063              		.syntax unified
 1064              		.thumb
 1065              		.thumb_func
 1066              		.fpu softvfp
 1068              	app_led_start_cbfunc:
 1069              	.LFB135:
 210:../app/app.c  **** 
 211:../app/app.c  **** void app_led_start_cbfunc(void)
 212:../app/app.c  **** {
 1070              		.loc 1 212 1
 1071              		.cfi_startproc
 1072              		@ args = 0, pretend = 0, frame = 0
 1073              		@ frame_needed = 1, uses_anonymous_args = 0
 1074 0000 80B5     		push	{r7, lr}
 1075              		.cfi_def_cfa_offset 8
 1076              		.cfi_offset 7, -8
 1077              		.cfi_offset 14, -4
 1078 0002 00AF     		add	r7, sp, #0
 1079              		.cfi_def_cfa_register 7
 213:../app/app.c  **** 	display_led(START_LED, LED_TOGGLE);
 1080              		.loc 1 213 2
 1081 0004 0221     		movs	r1, #2
 1082 0006 0520     		movs	r0, #5
 1083 0008 FFF7FEFF 		bl	display_led
 214:../app/app.c  **** 	osal_lyh_over_timer(OS_LED_TIME, Ms_500, app_led_start_cbfunc);
 1084              		.loc 1 214 2
 1085 000c 034A     		ldr	r2, .L90
 1086 000e 4FF4FA71 		mov	r1, #500
 1087 0012 0220     		movs	r0, #2
 1088 0014 FFF7FEFF 		bl	osal_lyh_over_timer
 215:../app/app.c  **** }
 1089              		.loc 1 215 1
 1090 0018 00BF     		nop
 1091 001a 80BD     		pop	{r7, pc}
 1092              	.L91:
 1093              		.align	2
 1094              	.L90:
 1095 001c 00000000 		.word	app_led_start_cbfunc
 1096              		.cfi_endproc
 1097              	.LFE135:
 1099              		.section	.text.app_led_start_init,"ax",%progbits
 1100              		.align	1
 1101              		.global	app_led_start_init
 1102              		.syntax unified
 1103              		.thumb
 1104              		.thumb_func
 1105              		.fpu softvfp
 1107              	app_led_start_init:
 1108              	.LFB136:
 216:../app/app.c  **** 
 217:../app/app.c  **** void app_led_start_init(void)
 218:../app/app.c  **** {
 1109              		.loc 1 218 1
 1110              		.cfi_startproc
 1111              		@ args = 0, pretend = 0, frame = 0
 1112              		@ frame_needed = 1, uses_anonymous_args = 0
 1113 0000 80B5     		push	{r7, lr}
 1114              		.cfi_def_cfa_offset 8
 1115              		.cfi_offset 7, -8
 1116              		.cfi_offset 14, -4
 1117 0002 00AF     		add	r7, sp, #0
 1118              		.cfi_def_cfa_register 7
 219:../app/app.c  **** 	display_led(START_LED, LED_ON);
 1119              		.loc 1 219 2
 1120 0004 0121     		movs	r1, #1
 1121 0006 0520     		movs	r0, #5
 1122 0008 FFF7FEFF 		bl	display_led
 220:../app/app.c  **** 	osal_lyh_over_timer(OS_LED_TIME, Ms_500, app_led_start_cbfunc);
 1123              		.loc 1 220 2
 1124 000c 034A     		ldr	r2, .L93
 1125 000e 4FF4FA71 		mov	r1, #500
 1126 0012 0220     		movs	r0, #2
 1127 0014 FFF7FEFF 		bl	osal_lyh_over_timer
 221:../app/app.c  **** }
 1128              		.loc 1 221 1
 1129 0018 00BF     		nop
 1130 001a 80BD     		pop	{r7, pc}
 1131              	.L94:
 1132              		.align	2
 1133              	.L93:
 1134 001c 00000000 		.word	app_led_start_cbfunc
 1135              		.cfi_endproc
 1136              	.LFE136:
 1138              		.section	.text.app_led_espresso_cbfunc,"ax",%progbits
 1139              		.align	1
 1140              		.global	app_led_espresso_cbfunc
 1141              		.syntax unified
 1142              		.thumb
 1143              		.thumb_func
 1144              		.fpu softvfp
 1146              	app_led_espresso_cbfunc:
 1147              	.LFB137:
 222:../app/app.c  **** 
 223:../app/app.c  **** void app_led_espresso_cbfunc(void)
 224:../app/app.c  **** {
 1148              		.loc 1 224 1
 1149              		.cfi_startproc
 1150              		@ args = 0, pretend = 0, frame = 0
 1151              		@ frame_needed = 1, uses_anonymous_args = 0
 1152 0000 80B5     		push	{r7, lr}
 1153              		.cfi_def_cfa_offset 8
 1154              		.cfi_offset 7, -8
 1155              		.cfi_offset 14, -4
 1156 0002 00AF     		add	r7, sp, #0
 1157              		.cfi_def_cfa_register 7
 225:../app/app.c  **** 	//و ¹وچ®و‌¯و•°وک¾ç¤؛ه¯¹ه؛”çڑ„وŒ‡ç¤؛çپ¯
 226:../app/app.c  **** 	if(0 == manual_setup.cup){
 1158              		.loc 1 226 22
 1159 0004 0C4B     		ldr	r3, .L98
 1160 0006 1B78     		ldrb	r3, [r3]	@ zero_extendqisi2
 1161              		.loc 1 226 4
 1162 0008 002B     		cmp	r3, #0
 1163 000a 04D1     		bne	.L96
 227:../app/app.c  **** 		display_led(ESPRESSO1_LED, LED_TOGGLE);
 1164              		.loc 1 227 3
 1165 000c 0221     		movs	r1, #2
 1166 000e 0C20     		movs	r0, #12
 1167 0010 FFF7FEFF 		bl	display_led
 1168 0014 07E0     		b	.L97
 1169              	.L96:
 228:../app/app.c  **** 	}
 229:../app/app.c  **** 	else if(1 == manual_setup.cup){
 1170              		.loc 1 229 27
 1171 0016 084B     		ldr	r3, .L98
 1172 0018 1B78     		ldrb	r3, [r3]	@ zero_extendqisi2
 1173              		.loc 1 229 9
 1174 001a 012B     		cmp	r3, #1
 1175 001c 03D1     		bne	.L97
 230:../app/app.c  **** 		display_led(ESPRESSO2_LED, LED_TOGGLE);
 1176              		.loc 1 230 3
 1177 001e 0221     		movs	r1, #2
 1178 0020 0920     		movs	r0, #9
 1179 0022 FFF7FEFF 		bl	display_led
 1180              	.L97:
 231:../app/app.c  **** 	}
 232:../app/app.c  **** 	osal_lyh_over_timer(OS_LED_TIME, Ms_500, app_led_espresso_cbfunc);
 1181              		.loc 1 232 2
 1182 0026 054A     		ldr	r2, .L98+4
 1183 0028 4FF4FA71 		mov	r1, #500
 1184 002c 0220     		movs	r0, #2
 1185 002e FFF7FEFF 		bl	osal_lyh_over_timer
 233:../app/app.c  **** }
 1186              		.loc 1 233 1
 1187 0032 00BF     		nop
 1188 0034 80BD     		pop	{r7, pc}
 1189              	.L99:
 1190 0036 00BF     		.align	2
 1191              	.L98:
 1192 0038 00000000 		.word	manual_setup
 1193 003c 00000000 		.word	app_led_espresso_cbfunc
 1194              		.cfi_endproc
 1195              	.LFE137:
 1197              		.section	.text.app_led_espresso_init,"ax",%progbits
 1198              		.align	1
 1199              		.global	app_led_espresso_init
 1200              		.syntax unified
 1201              		.thumb
 1202              		.thumb_func
 1203              		.fpu softvfp
 1205              	app_led_espresso_init:
 1206              	.LFB138:
 234:../app/app.c  **** 
 235:../app/app.c  **** void app_led_espresso_init(void)
 236:../app/app.c  **** {
 1207              		.loc 1 236 1
 1208              		.cfi_startproc
 1209              		@ args = 0, pretend = 0, frame = 0
 1210              		@ frame_needed = 1, uses_anonymous_args = 0
 1211 0000 80B5     		push	{r7, lr}
 1212              		.cfi_def_cfa_offset 8
 1213              		.cfi_offset 7, -8
 1214              		.cfi_offset 14, -4
 1215 0002 00AF     		add	r7, sp, #0
 1216              		.cfi_def_cfa_register 7
 237:../app/app.c  **** 	//و ¹وچ®و‌¯و•°وک¾ç¤؛ه¯¹ه؛”çڑ„وŒ‡ç¤؛çپ¯
 238:../app/app.c  **** 	if(0 == manual_setup.cup){
 1217              		.loc 1 238 22
 1218 0004 0C4B     		ldr	r3, .L103
 1219 0006 1B78     		ldrb	r3, [r3]	@ zero_extendqisi2
 1220              		.loc 1 238 4
 1221 0008 002B     		cmp	r3, #0
 1222 000a 04D1     		bne	.L101
 239:../app/app.c  **** 		display_led(ESPRESSO1_LED, LED_ON);
 1223              		.loc 1 239 3
 1224 000c 0121     		movs	r1, #1
 1225 000e 0C20     		movs	r0, #12
 1226 0010 FFF7FEFF 		bl	display_led
 1227 0014 07E0     		b	.L102
 1228              	.L101:
 240:../app/app.c  **** 	}
 241:../app/app.c  **** 	else if(1 == manual_setup.cup){
 1229              		.loc 1 241 27
 1230 0016 084B     		ldr	r3, .L103
 1231 0018 1B78     		ldrb	r3, [r3]	@ zero_extendqisi2
 1232              		.loc 1 241 9
 1233 001a 012B     		cmp	r3, #1
 1234 001c 03D1     		bne	.L102
 242:../app/app.c  **** 		display_led(ESPRESSO2_LED, LED_ON);
 1235              		.loc 1 242 3
 1236 001e 0121     		movs	r1, #1
 1237 0020 0920     		movs	r0, #9
 1238 0022 FFF7FEFF 		bl	display_led
 1239              	.L102:
 243:../app/app.c  **** 	}
 244:../app/app.c  **** 	osal_lyh_over_timer(OS_LED_TIME, Ms_500, app_led_espresso_cbfunc);
 1240              		.loc 1 244 2
 1241 0026 054A     		ldr	r2, .L103+4
 1242 0028 4FF4FA71 		mov	r1, #500
 1243 002c 0220     		movs	r0, #2
 1244 002e FFF7FEFF 		bl	osal_lyh_over_timer
 245:../app/app.c  **** }
 1245              		.loc 1 245 1
 1246 0032 00BF     		nop
 1247 0034 80BD     		pop	{r7, pc}
 1248              	.L104:
 1249 0036 00BF     		.align	2
 1250              	.L103:
 1251 0038 00000000 		.word	manual_setup
 1252 003c 00000000 		.word	app_led_espresso_cbfunc
 1253              		.cfi_endproc
 1254              	.LFE138:
 1256              		.section	.text.app_led_americano_cbfunc,"ax",%progbits
 1257              		.align	1
 1258              		.global	app_led_americano_cbfunc
 1259              		.syntax unified
 1260              		.thumb
 1261              		.thumb_func
 1262              		.fpu softvfp
 1264              	app_led_americano_cbfunc:
 1265              	.LFB139:
 246:../app/app.c  **** 
 247:../app/app.c  **** void app_led_americano_cbfunc(void)
 248:../app/app.c  **** {
 1266              		.loc 1 248 1
 1267              		.cfi_startproc
 1268              		@ args = 0, pretend = 0, frame = 0
 1269              		@ frame_needed = 1, uses_anonymous_args = 0
 1270 0000 80B5     		push	{r7, lr}
 1271              		.cfi_def_cfa_offset 8
 1272              		.cfi_offset 7, -8
 1273              		.cfi_offset 14, -4
 1274 0002 00AF     		add	r7, sp, #0
 1275              		.cfi_def_cfa_register 7
 249:../app/app.c  **** 	//و ¹وچ®و‌¯و•°وک¾ç¤؛ه¯¹ه؛”çڑ„وŒ‡ç¤؛çپ¯
 250:../app/app.c  **** 	if(0 == manual_setup.cup){
 1276              		.loc 1 250 22
 1277 0004 0C4B     		ldr	r3, .L108
 1278 0006 1B78     		ldrb	r3, [r3]	@ zero_extendqisi2
 1279              		.loc 1 250 4
 1280 0008 002B     		cmp	r3, #0
 1281 000a 04D1     		bne	.L106
 251:../app/app.c  **** 		display_led(AMERICANO1_LED, LED_TOGGLE);
 1282              		.loc 1 251 3
 1283 000c 0221     		movs	r1, #2
 1284 000e 0F20     		movs	r0, #15
 1285 0010 FFF7FEFF 		bl	display_led
 1286 0014 07E0     		b	.L107
 1287              	.L106:
 252:../app/app.c  **** 	}
 253:../app/app.c  **** 	else if(1 == manual_setup.cup){
 1288              		.loc 1 253 27
 1289 0016 084B     		ldr	r3, .L108
 1290 0018 1B78     		ldrb	r3, [r3]	@ zero_extendqisi2
 1291              		.loc 1 253 9
 1292 001a 012B     		cmp	r3, #1
 1293 001c 03D1     		bne	.L107
 254:../app/app.c  **** 		display_led(AMERICANO2_LED, LED_TOGGLE);
 1294              		.loc 1 254 3
 1295 001e 0221     		movs	r1, #2
 1296 0020 0620     		movs	r0, #6
 1297 0022 FFF7FEFF 		bl	display_led
 1298              	.L107:
 255:../app/app.c  **** 	}
 256:../app/app.c  **** 	osal_lyh_over_timer(OS_LED_TIME, Ms_500, app_led_americano_cbfunc);
 1299              		.loc 1 256 2
 1300 0026 054A     		ldr	r2, .L108+4
 1301 0028 4FF4FA71 		mov	r1, #500
 1302 002c 0220     		movs	r0, #2
 1303 002e FFF7FEFF 		bl	osal_lyh_over_timer
 257:../app/app.c  **** }
 1304              		.loc 1 257 1
 1305 0032 00BF     		nop
 1306 0034 80BD     		pop	{r7, pc}
 1307              	.L109:
 1308 0036 00BF     		.align	2
 1309              	.L108:
 1310 0038 00000000 		.word	manual_setup
 1311 003c 00000000 		.word	app_led_americano_cbfunc
 1312              		.cfi_endproc
 1313              	.LFE139:
 1315              		.section	.text.app_led_americano_init,"ax",%progbits
 1316              		.align	1
 1317              		.global	app_led_americano_init
 1318              		.syntax unified
 1319              		.thumb
 1320              		.thumb_func
 1321              		.fpu softvfp
 1323              	app_led_americano_init:
 1324              	.LFB140:
 258:../app/app.c  **** 
 259:../app/app.c  **** void app_led_americano_init(void)
 260:../app/app.c  **** {
 1325              		.loc 1 260 1
 1326              		.cfi_startproc
 1327              		@ args = 0, pretend = 0, frame = 0
 1328              		@ frame_needed = 1, uses_anonymous_args = 0
 1329 0000 80B5     		push	{r7, lr}
 1330              		.cfi_def_cfa_offset 8
 1331              		.cfi_offset 7, -8
 1332              		.cfi_offset 14, -4
 1333 0002 00AF     		add	r7, sp, #0
 1334              		.cfi_def_cfa_register 7
 261:../app/app.c  **** 	//و ¹وچ®و‌¯و•°وک¾ç¤؛ه¯¹ه؛”çڑ„وŒ‡ç¤؛çپ¯
 262:../app/app.c  **** 	if(0 == manual_setup.cup){
 1335              		.loc 1 262 22
 1336 0004 0C4B     		ldr	r3, .L113
 1337 0006 1B78     		ldrb	r3, [r3]	@ zero_extendqisi2
 1338              		.loc 1 262 4
 1339 0008 002B     		cmp	r3, #0
 1340 000a 04D1     		bne	.L111
 263:../app/app.c  **** 		display_led(AMERICANO1_LED, LED_TOGGLE);
 1341              		.loc 1 263 3
 1342 000c 0221     		movs	r1, #2
 1343 000e 0F20     		movs	r0, #15
 1344 0010 FFF7FEFF 		bl	display_led
 1345 0014 07E0     		b	.L112
 1346              	.L111:
 264:../app/app.c  **** 	}
 265:../app/app.c  **** 	else if(1 == manual_setup.cup){
 1347              		.loc 1 265 27
 1348 0016 084B     		ldr	r3, .L113
 1349 0018 1B78     		ldrb	r3, [r3]	@ zero_extendqisi2
 1350              		.loc 1 265 9
 1351 001a 012B     		cmp	r3, #1
 1352 001c 03D1     		bne	.L112
 266:../app/app.c  **** 		display_led(AMERICANO2_LED, LED_TOGGLE);
 1353              		.loc 1 266 3
 1354 001e 0221     		movs	r1, #2
 1355 0020 0620     		movs	r0, #6
 1356 0022 FFF7FEFF 		bl	display_led
 1357              	.L112:
 267:../app/app.c  **** 	}
 268:../app/app.c  **** 	osal_lyh_over_timer(OS_LED_TIME, Ms_500, app_led_americano_cbfunc);
 1358              		.loc 1 268 2
 1359 0026 054A     		ldr	r2, .L113+4
 1360 0028 4FF4FA71 		mov	r1, #500
 1361 002c 0220     		movs	r0, #2
 1362 002e FFF7FEFF 		bl	osal_lyh_over_timer
 269:../app/app.c  **** }
 1363              		.loc 1 269 1
 1364 0032 00BF     		nop
 1365 0034 80BD     		pop	{r7, pc}
 1366              	.L114:
 1367 0036 00BF     		.align	2
 1368              	.L113:
 1369 0038 00000000 		.word	manual_setup
 1370 003c 00000000 		.word	app_led_americano_cbfunc
 1371              		.cfi_endproc
 1372              	.LFE140:
 1374              		.section	.text.app_led_hotwater_cbfunc,"ax",%progbits
 1375              		.align	1
 1376              		.global	app_led_hotwater_cbfunc
 1377              		.syntax unified
 1378              		.thumb
 1379              		.thumb_func
 1380              		.fpu softvfp
 1382              	app_led_hotwater_cbfunc:
 1383              	.LFB141:
 270:../app/app.c  **** 
 271:../app/app.c  **** void app_led_hotwater_cbfunc(void)
 272:../app/app.c  **** {
 1384              		.loc 1 272 1
 1385              		.cfi_startproc
 1386              		@ args = 0, pretend = 0, frame = 0
 1387              		@ frame_needed = 1, uses_anonymous_args = 0
 1388 0000 80B5     		push	{r7, lr}
 1389              		.cfi_def_cfa_offset 8
 1390              		.cfi_offset 7, -8
 1391              		.cfi_offset 14, -4
 1392 0002 00AF     		add	r7, sp, #0
 1393              		.cfi_def_cfa_register 7
 273:../app/app.c  **** 	display_led(HOT_WATER, LED_TOGGLE);
 1394              		.loc 1 273 2
 1395 0004 0221     		movs	r1, #2
 1396 0006 1520     		movs	r0, #21
 1397 0008 FFF7FEFF 		bl	display_led
 274:../app/app.c  **** 	osal_lyh_over_timer(OS_LED_TIME, Ms_500, app_led_hotwater_cbfunc);
 1398              		.loc 1 274 2
 1399 000c 034A     		ldr	r2, .L116
 1400 000e 4FF4FA71 		mov	r1, #500
 1401 0012 0220     		movs	r0, #2
 1402 0014 FFF7FEFF 		bl	osal_lyh_over_timer
 275:../app/app.c  **** }
 1403              		.loc 1 275 1
 1404 0018 00BF     		nop
 1405 001a 80BD     		pop	{r7, pc}
 1406              	.L117:
 1407              		.align	2
 1408              	.L116:
 1409 001c 00000000 		.word	app_led_hotwater_cbfunc
 1410              		.cfi_endproc
 1411              	.LFE141:
 1413              		.section	.text.app_led_hotwater_init,"ax",%progbits
 1414              		.align	1
 1415              		.global	app_led_hotwater_init
 1416              		.syntax unified
 1417              		.thumb
 1418              		.thumb_func
 1419              		.fpu softvfp
 1421              	app_led_hotwater_init:
 1422              	.LFB142:
 276:../app/app.c  **** 
 277:../app/app.c  **** void app_led_hotwater_init(void)
 278:../app/app.c  **** {
 1423              		.loc 1 278 1
 1424              		.cfi_startproc
 1425              		@ args = 0, pretend = 0, frame = 0
 1426              		@ frame_needed = 1, uses_anonymous_args = 0
 1427 0000 80B5     		push	{r7, lr}
 1428              		.cfi_def_cfa_offset 8
 1429              		.cfi_offset 7, -8
 1430              		.cfi_offset 14, -4
 1431 0002 00AF     		add	r7, sp, #0
 1432              		.cfi_def_cfa_register 7
 279:../app/app.c  **** 	display_led(HOT_WATER, LED_ON);
 1433              		.loc 1 279 2
 1434 0004 0121     		movs	r1, #1
 1435 0006 1520     		movs	r0, #21
 1436 0008 FFF7FEFF 		bl	display_led
 280:../app/app.c  **** 	osal_lyh_over_timer(OS_LED_TIME, Ms_500, app_led_hotwater_cbfunc);
 1437              		.loc 1 280 2
 1438 000c 034A     		ldr	r2, .L119
 1439 000e 4FF4FA71 		mov	r1, #500
 1440 0012 0220     		movs	r0, #2
 1441 0014 FFF7FEFF 		bl	osal_lyh_over_timer
 281:../app/app.c  **** }
 1442              		.loc 1 281 1
 1443 0018 00BF     		nop
 1444 001a 80BD     		pop	{r7, pc}
 1445              	.L120:
 1446              		.align	2
 1447              	.L119:
 1448 001c 00000000 		.word	app_led_hotwater_cbfunc
 1449              		.cfi_endproc
 1450              	.LFE142:
 1452              		.section	.text.app_led_steam_cbfunc,"ax",%progbits
 1453              		.align	1
 1454              		.global	app_led_steam_cbfunc
 1455              		.syntax unified
 1456              		.thumb
 1457              		.thumb_func
 1458              		.fpu softvfp
 1460              	app_led_steam_cbfunc:
 1461              	.LFB143:
 282:../app/app.c  **** 
 283:../app/app.c  **** void app_led_steam_cbfunc(void)
 284:../app/app.c  **** {
 1462              		.loc 1 284 1
 1463              		.cfi_startproc
 1464              		@ args = 0, pretend = 0, frame = 0
 1465              		@ frame_needed = 1, uses_anonymous_args = 0
 1466 0000 80B5     		push	{r7, lr}
 1467              		.cfi_def_cfa_offset 8
 1468              		.cfi_offset 7, -8
 1469              		.cfi_offset 14, -4
 1470 0002 00AF     		add	r7, sp, #0
 1471              		.cfi_def_cfa_register 7
 285:../app/app.c  **** 	display_led(STEAM_LED, LED_TOGGLE);
 1472              		.loc 1 285 2
 1473 0004 0221     		movs	r1, #2
 1474 0006 1220     		movs	r0, #18
 1475 0008 FFF7FEFF 		bl	display_led
 286:../app/app.c  **** 	osal_lyh_over_timer(OS_LED_TIME, Ms_500, app_led_steam_cbfunc);
 1476              		.loc 1 286 2
 1477 000c 034A     		ldr	r2, .L122
 1478 000e 4FF4FA71 		mov	r1, #500
 1479 0012 0220     		movs	r0, #2
 1480 0014 FFF7FEFF 		bl	osal_lyh_over_timer
 287:../app/app.c  **** }
 1481              		.loc 1 287 1
 1482 0018 00BF     		nop
 1483 001a 80BD     		pop	{r7, pc}
 1484              	.L123:
 1485              		.align	2
 1486              	.L122:
 1487 001c 00000000 		.word	app_led_steam_cbfunc
 1488              		.cfi_endproc
 1489              	.LFE143:
 1491              		.section	.text.app_led_steam_init,"ax",%progbits
 1492              		.align	1
 1493              		.global	app_led_steam_init
 1494              		.syntax unified
 1495              		.thumb
 1496              		.thumb_func
 1497              		.fpu softvfp
 1499              	app_led_steam_init:
 1500              	.LFB144:
 288:../app/app.c  **** 
 289:../app/app.c  **** void app_led_steam_init(void)
 290:../app/app.c  **** {
 1501              		.loc 1 290 1
 1502              		.cfi_startproc
 1503              		@ args = 0, pretend = 0, frame = 0
 1504              		@ frame_needed = 1, uses_anonymous_args = 0
 1505 0000 80B5     		push	{r7, lr}
 1506              		.cfi_def_cfa_offset 8
 1507              		.cfi_offset 7, -8
 1508              		.cfi_offset 14, -4
 1509 0002 00AF     		add	r7, sp, #0
 1510              		.cfi_def_cfa_register 7
 291:../app/app.c  **** 	display_led(STEAM_LED, LED_ON);
 1511              		.loc 1 291 2
 1512 0004 0121     		movs	r1, #1
 1513 0006 1220     		movs	r0, #18
 1514 0008 FFF7FEFF 		bl	display_led
 292:../app/app.c  **** 	osal_lyh_over_timer(OS_LED_TIME, Ms_500, app_led_steam_cbfunc);
 1515              		.loc 1 292 2
 1516 000c 034A     		ldr	r2, .L125
 1517 000e 4FF4FA71 		mov	r1, #500
 1518 0012 0220     		movs	r0, #2
 1519 0014 FFF7FEFF 		bl	osal_lyh_over_timer
 293:../app/app.c  **** }
 1520              		.loc 1 293 1
 1521 0018 00BF     		nop
 1522 001a 80BD     		pop	{r7, pc}
 1523              	.L126:
 1524              		.align	2
 1525              	.L125:
 1526 001c 00000000 		.word	app_led_steam_cbfunc
 1527              		.cfi_endproc
 1528              	.LFE144:
 1530              		.section	.text.app_led_aqua_cbfunc,"ax",%progbits
 1531              		.align	1
 1532              		.global	app_led_aqua_cbfunc
 1533              		.syntax unified
 1534              		.thumb
 1535              		.thumb_func
 1536              		.fpu softvfp
 1538              	app_led_aqua_cbfunc:
 1539              	.LFB145:
 294:../app/app.c  **** 
 295:../app/app.c  **** void app_led_aqua_cbfunc(void)
 296:../app/app.c  **** {
 1540              		.loc 1 296 1
 1541              		.cfi_startproc
 1542              		@ args = 0, pretend = 0, frame = 0
 1543              		@ frame_needed = 1, uses_anonymous_args = 0
 1544 0000 80B5     		push	{r7, lr}
 1545              		.cfi_def_cfa_offset 8
 1546              		.cfi_offset 7, -8
 1547              		.cfi_offset 14, -4
 1548 0002 00AF     		add	r7, sp, #0
 1549              		.cfi_def_cfa_register 7
 297:../app/app.c  **** 	display_led(AQUA_CLEAN_LED, LED_TOGGLE);
 1550              		.loc 1 297 2
 1551 0004 0221     		movs	r1, #2
 1552 0006 1120     		movs	r0, #17
 1553 0008 FFF7FEFF 		bl	display_led
 298:../app/app.c  **** 	osal_lyh_over_timer(OS_LED_TIME, Ms_1000, app_led_aqua_cbfunc);
 1554              		.loc 1 298 2
 1555 000c 034A     		ldr	r2, .L128
 1556 000e 4FF47A71 		mov	r1, #1000
 1557 0012 0220     		movs	r0, #2
 1558 0014 FFF7FEFF 		bl	osal_lyh_over_timer
 299:../app/app.c  **** }
 1559              		.loc 1 299 1
 1560 0018 00BF     		nop
 1561 001a 80BD     		pop	{r7, pc}
 1562              	.L129:
 1563              		.align	2
 1564              	.L128:
 1565 001c 00000000 		.word	app_led_aqua_cbfunc
 1566              		.cfi_endproc
 1567              	.LFE145:
 1569              		.section	.text.app_led_aqua_init,"ax",%progbits
 1570              		.align	1
 1571              		.global	app_led_aqua_init
 1572              		.syntax unified
 1573              		.thumb
 1574              		.thumb_func
 1575              		.fpu softvfp
 1577              	app_led_aqua_init:
 1578              	.LFB146:
 300:../app/app.c  **** 
 301:../app/app.c  **** void app_led_aqua_init(void)
 302:../app/app.c  **** {
 1579              		.loc 1 302 1
 1580              		.cfi_startproc
 1581              		@ args = 0, pretend = 0, frame = 0
 1582              		@ frame_needed = 1, uses_anonymous_args = 0
 1583 0000 80B5     		push	{r7, lr}
 1584              		.cfi_def_cfa_offset 8
 1585              		.cfi_offset 7, -8
 1586              		.cfi_offset 14, -4
 1587 0002 00AF     		add	r7, sp, #0
 1588              		.cfi_def_cfa_register 7
 303:../app/app.c  **** 	display_led(AQUA_CLEAN_LED, LED_ON);
 1589              		.loc 1 303 2
 1590 0004 0121     		movs	r1, #1
 1591 0006 1120     		movs	r0, #17
 1592 0008 FFF7FEFF 		bl	display_led
 304:../app/app.c  **** 	osal_lyh_over_timer(OS_LED_TIME, Ms_1000, app_led_aqua_cbfunc);
 1593              		.loc 1 304 2
 1594 000c 034A     		ldr	r2, .L131
 1595 000e 4FF47A71 		mov	r1, #1000
 1596 0012 0220     		movs	r0, #2
 1597 0014 FFF7FEFF 		bl	osal_lyh_over_timer
 305:../app/app.c  **** }
 1598              		.loc 1 305 1
 1599 0018 00BF     		nop
 1600 001a 80BD     		pop	{r7, pc}
 1601              	.L132:
 1602              		.align	2
 1603              	.L131:
 1604 001c 00000000 		.word	app_led_aqua_cbfunc
 1605              		.cfi_endproc
 1606              	.LFE146:
 1608              		.section	.text.app_led_calc_cbfunc,"ax",%progbits
 1609              		.align	1
 1610              		.global	app_led_calc_cbfunc
 1611              		.syntax unified
 1612              		.thumb
 1613              		.thumb_func
 1614              		.fpu softvfp
 1616              	app_led_calc_cbfunc:
 1617              	.LFB147:
 306:../app/app.c  **** 
 307:../app/app.c  **** void app_led_calc_cbfunc(void)
 308:../app/app.c  **** {
 1618              		.loc 1 308 1
 1619              		.cfi_startproc
 1620              		@ args = 0, pretend = 0, frame = 0
 1621              		@ frame_needed = 1, uses_anonymous_args = 0
 1622 0000 80B5     		push	{r7, lr}
 1623              		.cfi_def_cfa_offset 8
 1624              		.cfi_offset 7, -8
 1625              		.cfi_offset 14, -4
 1626 0002 00AF     		add	r7, sp, #0
 1627              		.cfi_def_cfa_register 7
 309:../app/app.c  **** 	display_led(CALC_CLEAN_LED, LED_TOGGLE);
 1628              		.loc 1 309 2
 1629 0004 0221     		movs	r1, #2
 1630 0006 0220     		movs	r0, #2
 1631 0008 FFF7FEFF 		bl	display_led
 310:../app/app.c  **** 	osal_lyh_over_timer(OS_LED_TIME, Ms_1000, app_led_calc_cbfunc);
 1632              		.loc 1 310 2
 1633 000c 034A     		ldr	r2, .L134
 1634 000e 4FF47A71 		mov	r1, #1000
 1635 0012 0220     		movs	r0, #2
 1636 0014 FFF7FEFF 		bl	osal_lyh_over_timer
 311:../app/app.c  **** }
 1637              		.loc 1 311 1
 1638 0018 00BF     		nop
 1639 001a 80BD     		pop	{r7, pc}
 1640              	.L135:
 1641              		.align	2
 1642              	.L134:
 1643 001c 00000000 		.word	app_led_calc_cbfunc
 1644              		.cfi_endproc
 1645              	.LFE147:
 1647              		.section	.text.app_led_calc_init,"ax",%progbits
 1648              		.align	1
 1649              		.global	app_led_calc_init
 1650              		.syntax unified
 1651              		.thumb
 1652              		.thumb_func
 1653              		.fpu softvfp
 1655              	app_led_calc_init:
 1656              	.LFB148:
 312:../app/app.c  **** 
 313:../app/app.c  **** void app_led_calc_init(void)
 314:../app/app.c  **** {
 1657              		.loc 1 314 1
 1658              		.cfi_startproc
 1659              		@ args = 0, pretend = 0, frame = 0
 1660              		@ frame_needed = 1, uses_anonymous_args = 0
 1661 0000 80B5     		push	{r7, lr}
 1662              		.cfi_def_cfa_offset 8
 1663              		.cfi_offset 7, -8
 1664              		.cfi_offset 14, -4
 1665 0002 00AF     		add	r7, sp, #0
 1666              		.cfi_def_cfa_register 7
 315:../app/app.c  **** 	display_led(CALC_CLEAN_LED, LED_ON);
 1667              		.loc 1 315 2
 1668 0004 0121     		movs	r1, #1
 1669 0006 0220     		movs	r0, #2
 1670 0008 FFF7FEFF 		bl	display_led
 316:../app/app.c  **** 	osal_lyh_over_timer(OS_LED_TIME, Ms_1000, app_led_calc_cbfunc);
 1671              		.loc 1 316 2
 1672 000c 034A     		ldr	r2, .L137
 1673 000e 4FF47A71 		mov	r1, #1000
 1674 0012 0220     		movs	r0, #2
 1675 0014 FFF7FEFF 		bl	osal_lyh_over_timer
 317:../app/app.c  **** }
 1676              		.loc 1 317 1
 1677 0018 00BF     		nop
 1678 001a 80BD     		pop	{r7, pc}
 1679              	.L138:
 1680              		.align	2
 1681              	.L137:
 1682 001c 00000000 		.word	app_led_calc_cbfunc
 1683              		.cfi_endproc
 1684              	.LFE148:
 1686              		.section	.text.app_leds_all_fun,"ax",%progbits
 1687              		.align	1
 1688              		.global	app_leds_all_fun
 1689              		.syntax unified
 1690              		.thumb
 1691              		.thumb_func
 1692              		.fpu softvfp
 1694              	app_leds_all_fun:
 1695              	.LFB149:
 318:../app/app.c  **** 
 319:../app/app.c  **** void app_leds_all_fun(uint8_t status)
 320:../app/app.c  **** {
 1696              		.loc 1 320 1
 1697              		.cfi_startproc
 1698              		@ args = 0, pretend = 0, frame = 8
 1699              		@ frame_needed = 1, uses_anonymous_args = 0
 1700 0000 80B5     		push	{r7, lr}
 1701              		.cfi_def_cfa_offset 8
 1702              		.cfi_offset 7, -8
 1703              		.cfi_offset 14, -4
 1704 0002 82B0     		sub	sp, sp, #8
 1705              		.cfi_def_cfa_offset 16
 1706 0004 00AF     		add	r7, sp, #0
 1707              		.cfi_def_cfa_register 7
 1708 0006 0346     		mov	r3, r0
 1709 0008 FB71     		strb	r3, [r7, #7]
 321:../app/app.c  **** 	display_led(STEAM_LED, status);
 1710              		.loc 1 321 2
 1711 000a FB79     		ldrb	r3, [r7, #7]	@ zero_extendqisi2
 1712 000c 1946     		mov	r1, r3
 1713 000e 1220     		movs	r0, #18
 1714 0010 FFF7FEFF 		bl	display_led
 322:../app/app.c  **** 	display_led(HOT_WATER, status);
 1715              		.loc 1 322 2
 1716 0014 FB79     		ldrb	r3, [r7, #7]	@ zero_extendqisi2
 1717 0016 1946     		mov	r1, r3
 1718 0018 1520     		movs	r0, #21
 1719 001a FFF7FEFF 		bl	display_led
 323:../app/app.c  **** 	display_led(ESPRESSO1_LED, status);
 1720              		.loc 1 323 2
 1721 001e FB79     		ldrb	r3, [r7, #7]	@ zero_extendqisi2
 1722 0020 1946     		mov	r1, r3
 1723 0022 0C20     		movs	r0, #12
 1724 0024 FFF7FEFF 		bl	display_led
 324:../app/app.c  **** 	display_led(AMERICANO1_LED, status);
 1725              		.loc 1 324 2
 1726 0028 FB79     		ldrb	r3, [r7, #7]	@ zero_extendqisi2
 1727 002a 1946     		mov	r1, r3
 1728 002c 0F20     		movs	r0, #15
 1729 002e FFF7FEFF 		bl	display_led
 325:../app/app.c  **** 	display_led(AQUA_GREEN_LED, status);
 1730              		.loc 1 325 2
 1731 0032 FB79     		ldrb	r3, [r7, #7]	@ zero_extendqisi2
 1732 0034 1946     		mov	r1, r3
 1733 0036 1A20     		movs	r0, #26
 1734 0038 FFF7FEFF 		bl	display_led
 326:../app/app.c  **** 	if (status == LED_OFF){
 1735              		.loc 1 326 5
 1736 003c FB79     		ldrb	r3, [r7, #7]	@ zero_extendqisi2
 1737 003e 002B     		cmp	r3, #0
 1738 0040 13D1     		bne	.L141
 327:../app/app.c  **** 		display_led(ESPRESSO2_LED, status);
 1739              		.loc 1 327 3
 1740 0042 FB79     		ldrb	r3, [r7, #7]	@ zero_extendqisi2
 1741 0044 1946     		mov	r1, r3
 1742 0046 0920     		movs	r0, #9
 1743 0048 FFF7FEFF 		bl	display_led
 328:../app/app.c  **** 		display_led(AMERICANO2_LED, status);
 1744              		.loc 1 328 3
 1745 004c FB79     		ldrb	r3, [r7, #7]	@ zero_extendqisi2
 1746 004e 1946     		mov	r1, r3
 1747 0050 0620     		movs	r0, #6
 1748 0052 FFF7FEFF 		bl	display_led
 329:../app/app.c  **** 		display_led(AQUA_CLEAN_LED, status);
 1749              		.loc 1 329 3
 1750 0056 FB79     		ldrb	r3, [r7, #7]	@ zero_extendqisi2
 1751 0058 1946     		mov	r1, r3
 1752 005a 1120     		movs	r0, #17
 1753 005c FFF7FEFF 		bl	display_led
 330:../app/app.c  **** 		display_led(CALC_CLEAN_LED, status);
 1754              		.loc 1 330 3
 1755 0060 FB79     		ldrb	r3, [r7, #7]	@ zero_extendqisi2
 1756 0062 1946     		mov	r1, r3
 1757 0064 0220     		movs	r0, #2
 1758 0066 FFF7FEFF 		bl	display_led
 1759              	.L141:
 331:../app/app.c  **** 	}
 332:../app/app.c  **** }
 1760              		.loc 1 332 1
 1761 006a 00BF     		nop
 1762 006c 0837     		adds	r7, r7, #8
 1763              		.cfi_def_cfa_offset 8
 1764 006e BD46     		mov	sp, r7
 1765              		.cfi_def_cfa_register 13
 1766              		@ sp needed
 1767 0070 80BD     		pop	{r7, pc}
 1768              		.cfi_endproc
 1769              	.LFE149:
 1771              		.section	.text.app_leds_all_ind,"ax",%progbits
 1772              		.align	1
 1773              		.global	app_leds_all_ind
 1774              		.syntax unified
 1775              		.thumb
 1776              		.thumb_func
 1777              		.fpu softvfp
 1779              	app_leds_all_ind:
 1780              	.LFB150:
 333:../app/app.c  **** 
 334:../app/app.c  **** void app_leds_all_ind(uint8_t status)
 335:../app/app.c  **** {
 1781              		.loc 1 335 1
 1782              		.cfi_startproc
 1783              		@ args = 0, pretend = 0, frame = 8
 1784              		@ frame_needed = 1, uses_anonymous_args = 0
 1785 0000 80B5     		push	{r7, lr}
 1786              		.cfi_def_cfa_offset 8
 1787              		.cfi_offset 7, -8
 1788              		.cfi_offset 14, -4
 1789 0002 82B0     		sub	sp, sp, #8
 1790              		.cfi_def_cfa_offset 16
 1791 0004 00AF     		add	r7, sp, #0
 1792              		.cfi_def_cfa_register 7
 1793 0006 0346     		mov	r3, r0
 1794 0008 FB71     		strb	r3, [r7, #7]
 336:../app/app.c  **** 	display_led(COFFEE1_LED, status);
 1795              		.loc 1 336 2
 1796 000a FB79     		ldrb	r3, [r7, #7]	@ zero_extendqisi2
 1797 000c 1946     		mov	r1, r3
 1798 000e 0120     		movs	r0, #1
 1799 0010 FFF7FEFF 		bl	display_led
 337:../app/app.c  **** 	display_led(COFFEE2_LED, status);
 1800              		.loc 1 337 2
 1801 0014 FB79     		ldrb	r3, [r7, #7]	@ zero_extendqisi2
 1802 0016 1946     		mov	r1, r3
 1803 0018 0A20     		movs	r0, #10
 1804 001a FFF7FEFF 		bl	display_led
 338:../app/app.c  **** 	display_led(COFFEE3_LED, status);
 1805              		.loc 1 338 2
 1806 001e FB79     		ldrb	r3, [r7, #7]	@ zero_extendqisi2
 1807 0020 1946     		mov	r1, r3
 1808 0022 0D20     		movs	r0, #13
 1809 0024 FFF7FEFF 		bl	display_led
 339:../app/app.c  **** 	display_led(COFFEE4_LED, status);
 1810              		.loc 1 339 2
 1811 0028 FB79     		ldrb	r3, [r7, #7]	@ zero_extendqisi2
 1812 002a 1946     		mov	r1, r3
 1813 002c 1320     		movs	r0, #19
 1814 002e FFF7FEFF 		bl	display_led
 340:../app/app.c  **** 	display_led(WATER1_LED, status);
 1815              		.loc 1 340 2
 1816 0032 FB79     		ldrb	r3, [r7, #7]	@ zero_extendqisi2
 1817 0034 1946     		mov	r1, r3
 1818 0036 0420     		movs	r0, #4
 1819 0038 FFF7FEFF 		bl	display_led
 341:../app/app.c  **** 	display_led(WATER2_LED, status);
 1820              		.loc 1 341 2
 1821 003c FB79     		ldrb	r3, [r7, #7]	@ zero_extendqisi2
 1822 003e 1946     		mov	r1, r3
 1823 0040 1920     		movs	r0, #25
 1824 0042 FFF7FEFF 		bl	display_led
 342:../app/app.c  **** 	display_led(WATER3_LED, status);
 1825              		.loc 1 342 2
 1826 0046 FB79     		ldrb	r3, [r7, #7]	@ zero_extendqisi2
 1827 0048 1946     		mov	r1, r3
 1828 004a 1020     		movs	r0, #16
 1829 004c FFF7FEFF 		bl	display_led
 343:../app/app.c  **** }
 1830              		.loc 1 343 1
 1831 0050 00BF     		nop
 1832 0052 0837     		adds	r7, r7, #8
 1833              		.cfi_def_cfa_offset 8
 1834 0054 BD46     		mov	sp, r7
 1835              		.cfi_def_cfa_register 13
 1836              		@ sp needed
 1837 0056 80BD     		pop	{r7, pc}
 1838              		.cfi_endproc
 1839              	.LFE150:
 1841              		.section	.text.app_led_oneloop,"ax",%progbits
 1842              		.align	1
 1843              		.global	app_led_oneloop
 1844              		.syntax unified
 1845              		.thumb
 1846              		.thumb_func
 1847              		.fpu softvfp
 1849              	app_led_oneloop:
 1850              	.LFB151:
 344:../app/app.c  **** 
 345:../app/app.c  **** uint8_t app_led_oneloop(void)
 346:../app/app.c  **** {
 1851              		.loc 1 346 1
 1852              		.cfi_startproc
 1853              		@ args = 0, pretend = 0, frame = 0
 1854              		@ frame_needed = 1, uses_anonymous_args = 0
 1855 0000 80B5     		push	{r7, lr}
 1856              		.cfi_def_cfa_offset 8
 1857              		.cfi_offset 7, -8
 1858              		.cfi_offset 14, -4
 1859 0002 00AF     		add	r7, sp, #0
 1860              		.cfi_def_cfa_register 7
 347:../app/app.c  **** 	if (display_get_led(ESPRESSO1_LED) && display_get_led(AMERICANO1_LED))
 1861              		.loc 1 347 6
 1862 0004 0C20     		movs	r0, #12
 1863 0006 FFF7FEFF 		bl	display_get_led
 1864 000a 0346     		mov	r3, r0
 1865              		.loc 1 347 5
 1866 000c 002B     		cmp	r3, #0
 1867 000e 07D0     		beq	.L144
 1868              		.loc 1 347 40 discriminator 1
 1869 0010 0F20     		movs	r0, #15
 1870 0012 FFF7FEFF 		bl	display_get_led
 1871 0016 0346     		mov	r3, r0
 1872              		.loc 1 347 37 discriminator 1
 1873 0018 002B     		cmp	r3, #0
 1874 001a 01D0     		beq	.L144
 348:../app/app.c  **** 	{
 349:../app/app.c  **** 		return TRUE;
 1875              		.loc 1 349 10
 1876 001c 0123     		movs	r3, #1
 1877 001e 00E0     		b	.L145
 1878              	.L144:
 350:../app/app.c  **** 	}
 351:../app/app.c  **** 	return FAIL;
 1879              		.loc 1 351 9
 1880 0020 0023     		movs	r3, #0
 1881              	.L145:
 352:../app/app.c  **** }
 1882              		.loc 1 352 1
 1883 0022 1846     		mov	r0, r3
 1884 0024 80BD     		pop	{r7, pc}
 1885              		.cfi_endproc
 1886              	.LFE151:
 1888              		.section	.text.app_led_finish_step,"ax",%progbits
 1889              		.align	1
 1890              		.global	app_led_finish_step
 1891              		.syntax unified
 1892              		.thumb
 1893              		.thumb_func
 1894              		.fpu softvfp
 1896              	app_led_finish_step:
 1897              	.LFB152:
 353:../app/app.c  **** 
 354:../app/app.c  **** /**************************************************************************
 355:../app/app.c  ****  * @brief ه†²ç…®وµپç¨‹ç»“و‌ںهگژLEDوک¾ç¤؛ه¤„çگ†ه‡½و•°
 356:../app/app.c  ****  * @return none
 357:../app/app.c  ****  * @note وµپو°´çپ¯ه¸¸é‡ڈï¼Œaquaن؛®è“‌çپ¯ï¼Œstart_ledç†„çپ­
 358:../app/app.c  ****  *************************************************************************/
 359:../app/app.c  **** void app_led_finish_step(void)
 360:../app/app.c  **** {
 1898              		.loc 1 360 1
 1899              		.cfi_startproc
 1900              		@ args = 0, pretend = 0, frame = 0
 1901              		@ frame_needed = 1, uses_anonymous_args = 0
 1902 0000 80B5     		push	{r7, lr}
 1903              		.cfi_def_cfa_offset 8
 1904              		.cfi_offset 7, -8
 1905              		.cfi_offset 14, -4
 1906 0002 00AF     		add	r7, sp, #0
 1907              		.cfi_def_cfa_register 7
 361:../app/app.c  **** 	app_leds_all_fun(LED_OFF);
 1908              		.loc 1 361 2
 1909 0004 0020     		movs	r0, #0
 1910 0006 FFF7FEFF 		bl	app_leds_all_fun
 362:../app/app.c  **** 	app_leds_all_ind(LED_OFF);
 1911              		.loc 1 362 2
 1912 000a 0020     		movs	r0, #0
 1913 000c FFF7FEFF 		bl	app_leds_all_ind
 363:../app/app.c  **** 	display_led(START_LED, LED_OFF);
 1914              		.loc 1 363 2
 1915 0010 0021     		movs	r1, #0
 1916 0012 0520     		movs	r0, #5
 1917 0014 FFF7FEFF 		bl	display_led
 364:../app/app.c  **** 
 365:../app/app.c  **** 	app_leds_all_fun(LED_ON);
 1918              		.loc 1 365 2
 1919 0018 0120     		movs	r0, #1
 1920 001a FFF7FEFF 		bl	app_leds_all_fun
 366:../app/app.c  **** }
 1921              		.loc 1 366 1
 1922 001e 00BF     		nop
 1923 0020 80BD     		pop	{r7, pc}
 1924              		.cfi_endproc
 1925              	.LFE152:
 1927              		.section	.text.app_onoff_key_deal,"ax",%progbits
 1928              		.align	1
 1929              		.global	app_onoff_key_deal
 1930              		.syntax unified
 1931              		.thumb
 1932              		.thumb_func
 1933              		.fpu softvfp
 1935              	app_onoff_key_deal:
 1936              	.LFB153:
 367:../app/app.c  **** 
 368:../app/app.c  **** /**************************************************************************
 369:../app/app.c  ****  * @brief on/offé”®ه¤„çگ†ه‡½و•°
 370:../app/app.c  ****  * @return none
 371:../app/app.c  ****  * @note none
 372:../app/app.c  ****  *************************************************************************/
 373:../app/app.c  **** void app_onoff_key_deal(void)
 374:../app/app.c  **** {
 1937              		.loc 1 374 1
 1938              		.cfi_startproc
 1939              		@ args = 0, pretend = 0, frame = 0
 1940              		@ frame_needed = 1, uses_anonymous_args = 0
 1941 0000 80B5     		push	{r7, lr}
 1942              		.cfi_def_cfa_offset 8
 1943              		.cfi_offset 7, -8
 1944              		.cfi_offset 14, -4
 1945 0002 00AF     		add	r7, sp, #0
 1946              		.cfi_def_cfa_register 7
 375:../app/app.c  **** 	switch(app_task_step)
 1947              		.loc 1 375 2
 1948 0004 0E4B     		ldr	r3, .L157
 1949 0006 1B78     		ldrb	r3, [r3]	@ zero_extendqisi2
 1950 0008 072B     		cmp	r3, #7
 1951 000a 13DC     		bgt	.L154
 1952 000c 032B     		cmp	r3, #3
 1953 000e 0CDA     		bge	.L149
 1954 0010 012B     		cmp	r3, #1
 1955 0012 02DC     		bgt	.L150
 1956 0014 002B     		cmp	r3, #0
 1957 0016 03DA     		bge	.L151
 376:../app/app.c  **** 	{
 377:../app/app.c  **** 	case APP_INIT_STATE:
 378:../app/app.c  **** 	case APP_IDLE_STATE:
 379:../app/app.c  **** 		app_task_nextstep(APP_STARTUP_STATE, STARTUP_INIT_STATE);
 380:../app/app.c  **** 		break;
 381:../app/app.c  **** 	case APP_STARTUP_STATE:
 382:../app/app.c  **** 		break;
 383:../app/app.c  **** 	case APP_NORMAL_STATE:
 384:../app/app.c  **** 	case APP_ESPRESSO_STATE:
 385:../app/app.c  **** 	case APP_AMERICAN_STATE:
 386:../app/app.c  **** 	case APP_HOTWATER_STATE:
 387:../app/app.c  **** 	case APP_STEAM_STATE:
 388:../app/app.c  **** 		app_task_nextstep(APP_RUNNING_ONOFF_STATE, RUNNING_ONOFF_INIT_STATE);		
 389:../app/app.c  **** 		break;	
 390:../app/app.c  **** 	default:
 391:../app/app.c  **** 		break;
 1958              		.loc 1 391 3
 1959 0018 0CE0     		b	.L154
 1960              	.L150:
 375:../app/app.c  **** 	switch(app_task_step)
 1961              		.loc 1 375 2
 1962 001a 022B     		cmp	r3, #2
 1963 001c 0CD0     		beq	.L155
 1964              		.loc 1 391 3
 1965 001e 09E0     		b	.L154
 1966              	.L151:
 379:../app/app.c  **** 		break;
 1967              		.loc 1 379 3
 1968 0020 0021     		movs	r1, #0
 1969 0022 0220     		movs	r0, #2
 1970 0024 FFF7FEFF 		bl	app_task_nextstep
 380:../app/app.c  **** 	case APP_STARTUP_STATE:
 1971              		.loc 1 380 3
 1972 0028 07E0     		b	.L153
 1973              	.L149:
 388:../app/app.c  **** 		break;	
 1974              		.loc 1 388 3
 1975 002a 0021     		movs	r1, #0
 1976 002c 0B20     		movs	r0, #11
 1977 002e FFF7FEFF 		bl	app_task_nextstep
 389:../app/app.c  **** 	default:
 1978              		.loc 1 389 3
 1979 0032 02E0     		b	.L153
 1980              	.L154:
 1981              		.loc 1 391 3
 1982 0034 00BF     		nop
 1983 0036 00E0     		b	.L156
 1984              	.L155:
 382:../app/app.c  **** 	case APP_NORMAL_STATE:
 1985              		.loc 1 382 3
 1986 0038 00BF     		nop
 1987              	.L153:
 1988              	.L156:
 392:../app/app.c  **** 	}
 393:../app/app.c  **** }
 1989              		.loc 1 393 1
 1990 003a 00BF     		nop
 1991 003c 80BD     		pop	{r7, pc}
 1992              	.L158:
 1993 003e 00BF     		.align	2
 1994              	.L157:
 1995 0040 00000000 		.word	app_task_step
 1996              		.cfi_endproc
 1997              	.LFE153:
 1999              		.section	.text.app_start_key_deal,"ax",%progbits
 2000              		.align	1
 2001              		.global	app_start_key_deal
 2002              		.syntax unified
 2003              		.thumb
 2004              		.thumb_func
 2005              		.fpu softvfp
 2007              	app_start_key_deal:
 2008              	.LFB154:
 394:../app/app.c  **** 
 395:../app/app.c  **** uint8_t app_start_key_deal(void)
 396:../app/app.c  **** {
 2009              		.loc 1 396 1
 2010              		.cfi_startproc
 2011              		@ args = 0, pretend = 0, frame = 8
 2012              		@ frame_needed = 1, uses_anonymous_args = 0
 2013 0000 80B5     		push	{r7, lr}
 2014              		.cfi_def_cfa_offset 8
 2015              		.cfi_offset 7, -8
 2016              		.cfi_offset 14, -4
 2017 0002 82B0     		sub	sp, sp, #8
 2018              		.cfi_def_cfa_offset 16
 2019 0004 00AF     		add	r7, sp, #0
 2020              		.cfi_def_cfa_register 7
 397:../app/app.c  **** 	uint8_t ret = 0;
 2021              		.loc 1 397 10
 2022 0006 0023     		movs	r3, #0
 2023 0008 FB71     		strb	r3, [r7, #7]
 398:../app/app.c  **** 
 399:../app/app.c  **** 	switch(app_task_step)
 2024              		.loc 1 399 2
 2025 000a 344B     		ldr	r3, .L178
 2026 000c 1B78     		ldrb	r3, [r3]	@ zero_extendqisi2
 2027 000e 062B     		cmp	r3, #6
 2028 0010 58D0     		beq	.L160
 2029 0012 062B     		cmp	r3, #6
 2030 0014 5BDC     		bgt	.L176
 2031 0016 032B     		cmp	r3, #3
 2032 0018 05D0     		beq	.L162
 2033 001a 032B     		cmp	r3, #3
 2034 001c 57DB     		blt	.L176
 2035 001e 043B     		subs	r3, r3, #4
 2036 0020 012B     		cmp	r3, #1
 2037 0022 54D8     		bhi	.L176
 2038 0024 4AE0     		b	.L175
 2039              	.L162:
 400:../app/app.c  **** 	{
 401:../app/app.c  **** 		case APP_NORMAL_STATE:
 402:../app/app.c  **** 			switch(app_task_substep){
 2040              		.loc 1 402 4
 2041 0026 2E4B     		ldr	r3, .L178+4
 2042 0028 1B78     		ldrb	r3, [r3]	@ zero_extendqisi2
 2043 002a 023B     		subs	r3, r3, #2
 2044 002c 0A2B     		cmp	r3, #10
 2045 002e 43D8     		bhi	.L177
 2046 0030 01A2     		adr	r2, .L166
 2047 0032 52F823F0 		ldr	pc, [r2, r3, lsl #2]
 2048 0036 00BF     		.p2align 2
 2049              	.L166:
 2050 0038 65000000 		.word	.L171+1
 2051 003c B9000000 		.word	.L177+1
 2052 0040 73000000 		.word	.L170+1
 2053 0044 B9000000 		.word	.L177+1
 2054 0048 81000000 		.word	.L169+1
 2055 004c B9000000 		.word	.L177+1
 2056 0050 8F000000 		.word	.L168+1
 2057 0054 B9000000 		.word	.L177+1
 2058 0058 9D000000 		.word	.L167+1
 2059 005c B9000000 		.word	.L177+1
 2060 0060 AB000000 		.word	.L165+1
 2061              		.p2align 1
 2062              	.L171:
 403:../app/app.c  **** 			case NORMAL_ESPRESSO_RUN_STATE:
 404:../app/app.c  **** 				app_task_nextstep(APP_ESPRESSO_STATE, ESPRESSO_INIT_STATE);
 2063              		.loc 1 404 5
 2064 0064 0021     		movs	r1, #0
 2065 0066 0420     		movs	r0, #4
 2066 0068 FFF7FEFF 		bl	app_task_nextstep
 405:../app/app.c  **** 				ret = 1;
 2067              		.loc 1 405 9
 2068 006c 0123     		movs	r3, #1
 2069 006e FB71     		strb	r3, [r7, #7]
 406:../app/app.c  **** 				break;
 2070              		.loc 1 406 5
 2071 0070 23E0     		b	.L172
 2072              	.L170:
 407:../app/app.c  **** 			case NORMAL_AMERICANO_RUN_STATE:
 408:../app/app.c  **** 				app_task_nextstep(APP_AMERICAN_STATE, AMERICANO_INIT_STATE);
 2073              		.loc 1 408 5
 2074 0072 0021     		movs	r1, #0
 2075 0074 0520     		movs	r0, #5
 2076 0076 FFF7FEFF 		bl	app_task_nextstep
 409:../app/app.c  **** 				ret = 1;
 2077              		.loc 1 409 9
 2078 007a 0123     		movs	r3, #1
 2079 007c FB71     		strb	r3, [r7, #7]
 410:../app/app.c  **** 				break;
 2080              		.loc 1 410 5
 2081 007e 1CE0     		b	.L172
 2082              	.L169:
 411:../app/app.c  **** 			case NORMAL_HOTWATER_RUN_STATE:
 412:../app/app.c  **** 				app_task_nextstep(APP_HOTWATER_STATE, HOTWATER_INIT_STATE);
 2083              		.loc 1 412 5
 2084 0080 0021     		movs	r1, #0
 2085 0082 0620     		movs	r0, #6
 2086 0084 FFF7FEFF 		bl	app_task_nextstep
 413:../app/app.c  **** 				ret = 1;
 2087              		.loc 1 413 9
 2088 0088 0123     		movs	r3, #1
 2089 008a FB71     		strb	r3, [r7, #7]
 414:../app/app.c  **** 				break;
 2090              		.loc 1 414 5
 2091 008c 15E0     		b	.L172
 2092              	.L168:
 415:../app/app.c  **** 			case NORMAL_STEAM_RUN_STATE:
 416:../app/app.c  **** 				app_task_nextstep(APP_STEAM_STATE, STEAM_INIT_STATE);
 2093              		.loc 1 416 5
 2094 008e 0021     		movs	r1, #0
 2095 0090 0720     		movs	r0, #7
 2096 0092 FFF7FEFF 		bl	app_task_nextstep
 417:../app/app.c  **** 				ret = 1;
 2097              		.loc 1 417 9
 2098 0096 0123     		movs	r3, #1
 2099 0098 FB71     		strb	r3, [r7, #7]
 418:../app/app.c  **** 				break;
 2100              		.loc 1 418 5
 2101 009a 0EE0     		b	.L172
 2102              	.L167:
 419:../app/app.c  **** 			case NORMAL_AQUA_RUN_STATE:
 420:../app/app.c  **** 				app_task_nextstep(APP_AQUA_STATE, AQUA_INIT_STATE);
 2103              		.loc 1 420 5
 2104 009c 0021     		movs	r1, #0
 2105 009e 0820     		movs	r0, #8
 2106 00a0 FFF7FEFF 		bl	app_task_nextstep
 421:../app/app.c  **** 				ret = 1;
 2107              		.loc 1 421 9
 2108 00a4 0123     		movs	r3, #1
 2109 00a6 FB71     		strb	r3, [r7, #7]
 422:../app/app.c  **** 				break;
 2110              		.loc 1 422 5
 2111 00a8 07E0     		b	.L172
 2112              	.L165:
 423:../app/app.c  **** 			case NORMAL_CALC_RUN_STATE:
 424:../app/app.c  **** 				app_task_nextstep(APP_CALC_STATE, CALC_INIT_STATE);
 2113              		.loc 1 424 5
 2114 00aa 0021     		movs	r1, #0
 2115 00ac 0920     		movs	r0, #9
 2116 00ae FFF7FEFF 		bl	app_task_nextstep
 425:../app/app.c  **** 				ret = 1;
 2117              		.loc 1 425 9
 2118 00b2 0123     		movs	r3, #1
 2119 00b4 FB71     		strb	r3, [r7, #7]
 426:../app/app.c  **** 				break;
 2120              		.loc 1 426 5
 2121 00b6 00E0     		b	.L172
 2122              	.L177:
 427:../app/app.c  **** 			default:
 428:../app/app.c  **** 				break;
 2123              		.loc 1 428 5
 2124 00b8 00BF     		nop
 2125              	.L172:
 429:../app/app.c  **** 			}
 430:../app/app.c  **** 			break;
 2126              		.loc 1 430 4
 2127 00ba 09E0     		b	.L173
 2128              	.L175:
 431:../app/app.c  **** 	
 432:../app/app.c  **** 		case APP_ESPRESSO_STATE:
 433:../app/app.c  **** 		case APP_AMERICAN_STATE:
 434:../app/app.c  **** 			cup_loop = 0;	//ه°†و‌¯و•°ه¾ھçژ¯و¸…é™¤ï¼Œهڈھو‰§è،Œوœ¬و¬،ه†²ç…®وµپç¨‹
 2129              		.loc 1 434 13
 2130 00bc 094B     		ldr	r3, .L178+8
 2131 00be 0022     		movs	r2, #0
 2132 00c0 1A70     		strb	r2, [r3]
 435:../app/app.c  **** 			break;
 2133              		.loc 1 435 4
 2134 00c2 05E0     		b	.L173
 2135              	.L160:
 436:../app/app.c  **** 		case APP_HOTWATER_STATE:
 437:../app/app.c  **** 			app_task_nextstep(APP_HOTWATER_STATE, HOTWATER_COMPLETE_STATE);		//è؟›ه…¥ه®Œوˆگçٹ¶و€پ
 2136              		.loc 1 437 4
 2137 00c4 0521     		movs	r1, #5
 2138 00c6 0620     		movs	r0, #6
 2139 00c8 FFF7FEFF 		bl	app_task_nextstep
 438:../app/app.c  **** 			break;
 2140              		.loc 1 438 4
 2141 00cc 00E0     		b	.L173
 2142              	.L176:
 439:../app/app.c  **** 		default:
 440:../app/app.c  **** 			break;
 2143              		.loc 1 440 4
 2144 00ce 00BF     		nop
 2145              	.L173:
 441:../app/app.c  **** 	}
 442:../app/app.c  **** 	return ret;
 2146              		.loc 1 442 9
 2147 00d0 FB79     		ldrb	r3, [r7, #7]	@ zero_extendqisi2
 443:../app/app.c  **** }
 2148              		.loc 1 443 1
 2149 00d2 1846     		mov	r0, r3
 2150 00d4 0837     		adds	r7, r7, #8
 2151              		.cfi_def_cfa_offset 8
 2152 00d6 BD46     		mov	sp, r7
 2153              		.cfi_def_cfa_register 13
 2154              		@ sp needed
 2155 00d8 80BD     		pop	{r7, pc}
 2156              	.L179:
 2157 00da 00BF     		.align	2
 2158              	.L178:
 2159 00dc 00000000 		.word	app_task_step
 2160 00e0 00000000 		.word	app_task_substep
 2161 00e4 00000000 		.word	cup_loop
 2162              		.cfi_endproc
 2163              	.LFE154:
 2165              		.section	.text.app_hotwater_key_deal,"ax",%progbits
 2166              		.align	1
 2167              		.global	app_hotwater_key_deal
 2168              		.syntax unified
 2169              		.thumb
 2170              		.thumb_func
 2171              		.fpu softvfp
 2173              	app_hotwater_key_deal:
 2174              	.LFB155:
 444:../app/app.c  **** 
 445:../app/app.c  **** uint8_t app_hotwater_key_deal(void)
 446:../app/app.c  **** {
 2175              		.loc 1 446 1
 2176              		.cfi_startproc
 2177              		@ args = 0, pretend = 0, frame = 8
 2178              		@ frame_needed = 1, uses_anonymous_args = 0
 2179 0000 80B5     		push	{r7, lr}
 2180              		.cfi_def_cfa_offset 8
 2181              		.cfi_offset 7, -8
 2182              		.cfi_offset 14, -4
 2183 0002 82B0     		sub	sp, sp, #8
 2184              		.cfi_def_cfa_offset 16
 2185 0004 00AF     		add	r7, sp, #0
 2186              		.cfi_def_cfa_register 7
 447:../app/app.c  **** 	uint8_t ret = 0;
 2187              		.loc 1 447 10
 2188 0006 0023     		movs	r3, #0
 2189 0008 FB71     		strb	r3, [r7, #7]
 448:../app/app.c  **** 
 449:../app/app.c  **** 	switch(app_task_step)
 2190              		.loc 1 449 2
 2191 000a 0B4B     		ldr	r3, .L188
 2192 000c 1B78     		ldrb	r3, [r3]	@ zero_extendqisi2
 2193 000e 032B     		cmp	r3, #3
 2194 0010 0CD1     		bne	.L186
 450:../app/app.c  **** 	{
 451:../app/app.c  **** 	case APP_NORMAL_STATE:
 452:../app/app.c  **** 		switch(app_task_substep){
 2195              		.loc 1 452 3
 2196 0012 0A4B     		ldr	r3, .L188+4
 2197 0014 1B78     		ldrb	r3, [r3]	@ zero_extendqisi2
 2198 0016 053B     		subs	r3, r3, #5
 2199 0018 012B     		cmp	r3, #1
 2200 001a 03D9     		bls	.L187
 453:../app/app.c  **** 		case NORMAL_HOTWATER_INIT_STATE:
 454:../app/app.c  **** 		case NORMAL_HOTWATER_RUN_STATE:
 455:../app/app.c  **** 			break;
 456:../app/app.c  **** 		default:
 457:../app/app.c  **** 			app_task_nextsubstep(NORMAL_HOTWATER_INIT_STATE);
 2201              		.loc 1 457 4
 2202 001c 0520     		movs	r0, #5
 2203 001e FFF7FEFF 		bl	app_task_nextsubstep
 458:../app/app.c  **** 			break;
 2204              		.loc 1 458 4
 2205 0022 00E0     		b	.L183
 2206              	.L187:
 455:../app/app.c  **** 		default:
 2207              		.loc 1 455 4
 2208 0024 00BF     		nop
 2209              	.L183:
 459:../app/app.c  **** 		}
 460:../app/app.c  **** 		ret = 1;
 2210              		.loc 1 460 7
 2211 0026 0123     		movs	r3, #1
 2212 0028 FB71     		strb	r3, [r7, #7]
 461:../app/app.c  **** 		break;
 2213              		.loc 1 461 3
 2214 002a 00E0     		b	.L184
 2215              	.L186:
 462:../app/app.c  **** 	default:
 463:../app/app.c  **** 		break;
 2216              		.loc 1 463 3
 2217 002c 00BF     		nop
 2218              	.L184:
 464:../app/app.c  **** 	}
 465:../app/app.c  **** 	return ret;
 2219              		.loc 1 465 9
 2220 002e FB79     		ldrb	r3, [r7, #7]	@ zero_extendqisi2
 466:../app/app.c  **** }
 2221              		.loc 1 466 1
 2222 0030 1846     		mov	r0, r3
 2223 0032 0837     		adds	r7, r7, #8
 2224              		.cfi_def_cfa_offset 8
 2225 0034 BD46     		mov	sp, r7
 2226              		.cfi_def_cfa_register 13
 2227              		@ sp needed
 2228 0036 80BD     		pop	{r7, pc}
 2229              	.L189:
 2230              		.align	2
 2231              	.L188:
 2232 0038 00000000 		.word	app_task_step
 2233 003c 00000000 		.word	app_task_substep
 2234              		.cfi_endproc
 2235              	.LFE155:
 2237              		.section	.text.app_espresso_key_deal,"ax",%progbits
 2238              		.align	1
 2239              		.global	app_espresso_key_deal
 2240              		.syntax unified
 2241              		.thumb
 2242              		.thumb_func
 2243              		.fpu softvfp
 2245              	app_espresso_key_deal:
 2246              	.LFB156:
 467:../app/app.c  **** 
 468:../app/app.c  **** uint8_t app_espresso_key_deal(void)
 469:../app/app.c  **** {
 2247              		.loc 1 469 1
 2248              		.cfi_startproc
 2249              		@ args = 0, pretend = 0, frame = 8
 2250              		@ frame_needed = 1, uses_anonymous_args = 0
 2251 0000 80B5     		push	{r7, lr}
 2252              		.cfi_def_cfa_offset 8
 2253              		.cfi_offset 7, -8
 2254              		.cfi_offset 14, -4
 2255 0002 82B0     		sub	sp, sp, #8
 2256              		.cfi_def_cfa_offset 16
 2257 0004 00AF     		add	r7, sp, #0
 2258              		.cfi_def_cfa_register 7
 470:../app/app.c  **** 	uint8_t ret = 0;
 2259              		.loc 1 470 10
 2260 0006 0023     		movs	r3, #0
 2261 0008 FB71     		strb	r3, [r7, #7]
 471:../app/app.c  **** 
 472:../app/app.c  **** 	switch(app_task_step)
 2262              		.loc 1 472 2
 2263 000a 1C4B     		ldr	r3, .L199
 2264 000c 1B78     		ldrb	r3, [r3]	@ zero_extendqisi2
 2265 000e 032B     		cmp	r3, #3
 2266 0010 2ED1     		bne	.L198
 473:../app/app.c  **** 	{
 474:../app/app.c  **** 	case APP_NORMAL_STATE:
 475:../app/app.c  **** 		switch(app_task_substep){
 2267              		.loc 1 475 3
 2268 0012 1B4B     		ldr	r3, .L199+4
 2269 0014 1B78     		ldrb	r3, [r3]	@ zero_extendqisi2
 2270 0016 013B     		subs	r3, r3, #1
 2271 0018 012B     		cmp	r3, #1
 2272 001a 22D8     		bhi	.L192
 476:../app/app.c  **** 		case NORMAL_ESPRESSO_INIT_STATE:
 477:../app/app.c  **** 		case NORMAL_ESPRESSO_RUN_STATE:
 478:../app/app.c  **** 			manual_setup.cup++;
 2273              		.loc 1 478 16
 2274 001c 194B     		ldr	r3, .L199+8
 2275 001e 1B78     		ldrb	r3, [r3]	@ zero_extendqisi2
 2276              		.loc 1 478 20
 2277 0020 0133     		adds	r3, r3, #1
 2278 0022 DAB2     		uxtb	r2, r3
 2279 0024 174B     		ldr	r3, .L199+8
 2280 0026 1A70     		strb	r2, [r3]
 479:../app/app.c  **** 			manual_setup.cup &= 0x01;
 2281              		.loc 1 479 21
 2282 0028 164B     		ldr	r3, .L199+8
 2283 002a 1B78     		ldrb	r3, [r3]	@ zero_extendqisi2
 2284 002c 03F00103 		and	r3, r3, #1
 2285 0030 DAB2     		uxtb	r2, r3
 2286 0032 144B     		ldr	r3, .L199+8
 2287 0034 1A70     		strb	r2, [r3]
 480:../app/app.c  **** 			display_led(ESPRESSO1_LED, LED_OFF);
 2288              		.loc 1 480 4
 2289 0036 0021     		movs	r1, #0
 2290 0038 0C20     		movs	r0, #12
 2291 003a FFF7FEFF 		bl	display_led
 481:../app/app.c  **** 			display_led(ESPRESSO2_LED, LED_OFF);
 2292              		.loc 1 481 4
 2293 003e 0021     		movs	r1, #0
 2294 0040 0920     		movs	r0, #9
 2295 0042 FFF7FEFF 		bl	display_led
 482:../app/app.c  **** 			if (manual_setup.cup){
 2296              		.loc 1 482 20
 2297 0046 0F4B     		ldr	r3, .L199+8
 2298 0048 1B78     		ldrb	r3, [r3]	@ zero_extendqisi2
 2299              		.loc 1 482 7
 2300 004a 002B     		cmp	r3, #0
 2301 004c 04D0     		beq	.L193
 483:../app/app.c  **** 				display_led(ESPRESSO2_LED, LED_ON);
 2302              		.loc 1 483 5
 2303 004e 0121     		movs	r1, #1
 2304 0050 0920     		movs	r0, #9
 2305 0052 FFF7FEFF 		bl	display_led
 484:../app/app.c  **** 			}
 485:../app/app.c  **** 			else{
 486:../app/app.c  **** 				display_led(ESPRESSO1_LED, LED_ON);
 487:../app/app.c  **** 			}
 488:../app/app.c  **** 			break;
 2306              		.loc 1 488 4
 2307 0056 08E0     		b	.L195
 2308              	.L193:
 486:../app/app.c  **** 			}
 2309              		.loc 1 486 5
 2310 0058 0121     		movs	r1, #1
 2311 005a 0C20     		movs	r0, #12
 2312 005c FFF7FEFF 		bl	display_led
 2313              		.loc 1 488 4
 2314 0060 03E0     		b	.L195
 2315              	.L192:
 489:../app/app.c  **** 		default:
 490:../app/app.c  **** 			app_task_nextsubstep(NORMAL_ESPRESSO_INIT_STATE);
 2316              		.loc 1 490 4
 2317 0062 0120     		movs	r0, #1
 2318 0064 FFF7FEFF 		bl	app_task_nextsubstep
 491:../app/app.c  **** 			break;
 2319              		.loc 1 491 4
 2320 0068 00BF     		nop
 2321              	.L195:
 492:../app/app.c  **** 		}
 493:../app/app.c  **** 		ret = 1;
 2322              		.loc 1 493 7
 2323 006a 0123     		movs	r3, #1
 2324 006c FB71     		strb	r3, [r7, #7]
 494:../app/app.c  **** 		break;
 2325              		.loc 1 494 3
 2326 006e 00E0     		b	.L196
 2327              	.L198:
 495:../app/app.c  **** 	default:
 496:../app/app.c  **** 		break;
 2328              		.loc 1 496 3
 2329 0070 00BF     		nop
 2330              	.L196:
 497:../app/app.c  **** 	}
 498:../app/app.c  **** 	return ret;
 2331              		.loc 1 498 9
 2332 0072 FB79     		ldrb	r3, [r7, #7]	@ zero_extendqisi2
 499:../app/app.c  **** }
 2333              		.loc 1 499 1
 2334 0074 1846     		mov	r0, r3
 2335 0076 0837     		adds	r7, r7, #8
 2336              		.cfi_def_cfa_offset 8
 2337 0078 BD46     		mov	sp, r7
 2338              		.cfi_def_cfa_register 13
 2339              		@ sp needed
 2340 007a 80BD     		pop	{r7, pc}
 2341              	.L200:
 2342              		.align	2
 2343              	.L199:
 2344 007c 00000000 		.word	app_task_step
 2345 0080 00000000 		.word	app_task_substep
 2346 0084 00000000 		.word	manual_setup
 2347              		.cfi_endproc
 2348              	.LFE156:
 2350              		.section	.text.app_steam_key_deal,"ax",%progbits
 2351              		.align	1
 2352              		.global	app_steam_key_deal
 2353              		.syntax unified
 2354              		.thumb
 2355              		.thumb_func
 2356              		.fpu softvfp
 2358              	app_steam_key_deal:
 2359              	.LFB157:
 500:../app/app.c  **** 
 501:../app/app.c  **** uint8_t app_steam_key_deal(void)
 502:../app/app.c  **** {
 2360              		.loc 1 502 1
 2361              		.cfi_startproc
 2362              		@ args = 0, pretend = 0, frame = 8
 2363              		@ frame_needed = 1, uses_anonymous_args = 0
 2364 0000 80B5     		push	{r7, lr}
 2365              		.cfi_def_cfa_offset 8
 2366              		.cfi_offset 7, -8
 2367              		.cfi_offset 14, -4
 2368 0002 82B0     		sub	sp, sp, #8
 2369              		.cfi_def_cfa_offset 16
 2370 0004 00AF     		add	r7, sp, #0
 2371              		.cfi_def_cfa_register 7
 503:../app/app.c  **** 	uint8_t ret = 0;
 2372              		.loc 1 503 10
 2373 0006 0023     		movs	r3, #0
 2374 0008 FB71     		strb	r3, [r7, #7]
 504:../app/app.c  **** 
 505:../app/app.c  **** 	switch(app_task_step)
 2375              		.loc 1 505 2
 2376 000a 0B4B     		ldr	r3, .L209
 2377 000c 1B78     		ldrb	r3, [r3]	@ zero_extendqisi2
 2378 000e 032B     		cmp	r3, #3
 2379 0010 0CD1     		bne	.L207
 506:../app/app.c  **** 	{
 507:../app/app.c  **** 	case APP_NORMAL_STATE:
 508:../app/app.c  **** 		switch(app_task_substep){
 2380              		.loc 1 508 3
 2381 0012 0A4B     		ldr	r3, .L209+4
 2382 0014 1B78     		ldrb	r3, [r3]	@ zero_extendqisi2
 2383 0016 073B     		subs	r3, r3, #7
 2384 0018 012B     		cmp	r3, #1
 2385 001a 03D9     		bls	.L208
 509:../app/app.c  **** 		case NORMAL_STEAM_INIT_STATE:
 510:../app/app.c  **** 		case NORMAL_STEAM_RUN_STATE:
 511:../app/app.c  **** 			break;
 512:../app/app.c  **** 		default:
 513:../app/app.c  **** 			app_task_nextsubstep(NORMAL_STEAM_INIT_STATE);
 2386              		.loc 1 513 4
 2387 001c 0720     		movs	r0, #7
 2388 001e FFF7FEFF 		bl	app_task_nextsubstep
 514:../app/app.c  **** 			break;
 2389              		.loc 1 514 4
 2390 0022 00E0     		b	.L204
 2391              	.L208:
 511:../app/app.c  **** 		default:
 2392              		.loc 1 511 4
 2393 0024 00BF     		nop
 2394              	.L204:
 515:../app/app.c  **** 		}
 516:../app/app.c  **** 		ret = 1;
 2395              		.loc 1 516 7
 2396 0026 0123     		movs	r3, #1
 2397 0028 FB71     		strb	r3, [r7, #7]
 517:../app/app.c  **** 		break;
 2398              		.loc 1 517 3
 2399 002a 00E0     		b	.L205
 2400              	.L207:
 518:../app/app.c  **** 	default:
 519:../app/app.c  **** 		break;
 2401              		.loc 1 519 3
 2402 002c 00BF     		nop
 2403              	.L205:
 520:../app/app.c  **** 	}
 521:../app/app.c  **** 	return ret;
 2404              		.loc 1 521 9
 2405 002e FB79     		ldrb	r3, [r7, #7]	@ zero_extendqisi2
 522:../app/app.c  **** }
 2406              		.loc 1 522 1
 2407 0030 1846     		mov	r0, r3
 2408 0032 0837     		adds	r7, r7, #8
 2409              		.cfi_def_cfa_offset 8
 2410 0034 BD46     		mov	sp, r7
 2411              		.cfi_def_cfa_register 13
 2412              		@ sp needed
 2413 0036 80BD     		pop	{r7, pc}
 2414              	.L210:
 2415              		.align	2
 2416              	.L209:
 2417 0038 00000000 		.word	app_task_step
 2418 003c 00000000 		.word	app_task_substep
 2419              		.cfi_endproc
 2420              	.LFE157:
 2422              		.section	.text.app_ame_key_deal,"ax",%progbits
 2423              		.align	1
 2424              		.global	app_ame_key_deal
 2425              		.syntax unified
 2426              		.thumb
 2427              		.thumb_func
 2428              		.fpu softvfp
 2430              	app_ame_key_deal:
 2431              	.LFB158:
 523:../app/app.c  **** 
 524:../app/app.c  **** uint8_t app_ame_key_deal(void)
 525:../app/app.c  **** {
 2432              		.loc 1 525 1
 2433              		.cfi_startproc
 2434              		@ args = 0, pretend = 0, frame = 8
 2435              		@ frame_needed = 1, uses_anonymous_args = 0
 2436 0000 80B5     		push	{r7, lr}
 2437              		.cfi_def_cfa_offset 8
 2438              		.cfi_offset 7, -8
 2439              		.cfi_offset 14, -4
 2440 0002 82B0     		sub	sp, sp, #8
 2441              		.cfi_def_cfa_offset 16
 2442 0004 00AF     		add	r7, sp, #0
 2443              		.cfi_def_cfa_register 7
 526:../app/app.c  **** 	uint8_t ret = 0;
 2444              		.loc 1 526 10
 2445 0006 0023     		movs	r3, #0
 2446 0008 FB71     		strb	r3, [r7, #7]
 527:../app/app.c  **** 
 528:../app/app.c  **** 	switch(app_task_step)
 2447              		.loc 1 528 2
 2448 000a 1C4B     		ldr	r3, .L220
 2449 000c 1B78     		ldrb	r3, [r3]	@ zero_extendqisi2
 2450 000e 032B     		cmp	r3, #3
 2451 0010 2ED1     		bne	.L219
 529:../app/app.c  **** 	{
 530:../app/app.c  **** 	case APP_NORMAL_STATE:
 531:../app/app.c  **** 		switch(app_task_substep){
 2452              		.loc 1 531 3
 2453 0012 1B4B     		ldr	r3, .L220+4
 2454 0014 1B78     		ldrb	r3, [r3]	@ zero_extendqisi2
 2455 0016 033B     		subs	r3, r3, #3
 2456 0018 012B     		cmp	r3, #1
 2457 001a 22D8     		bhi	.L213
 532:../app/app.c  **** 		case NORMAL_AMERICANO_INIT_STATE:
 533:../app/app.c  **** 		case NORMAL_AMERICANO_RUN_STATE:
 534:../app/app.c  **** 			manual_setup.cup++;
 2458              		.loc 1 534 16
 2459 001c 194B     		ldr	r3, .L220+8
 2460 001e 1B78     		ldrb	r3, [r3]	@ zero_extendqisi2
 2461              		.loc 1 534 20
 2462 0020 0133     		adds	r3, r3, #1
 2463 0022 DAB2     		uxtb	r2, r3
 2464 0024 174B     		ldr	r3, .L220+8
 2465 0026 1A70     		strb	r2, [r3]
 535:../app/app.c  **** 			manual_setup.cup &= 0x01;
 2466              		.loc 1 535 21
 2467 0028 164B     		ldr	r3, .L220+8
 2468 002a 1B78     		ldrb	r3, [r3]	@ zero_extendqisi2
 2469 002c 03F00103 		and	r3, r3, #1
 2470 0030 DAB2     		uxtb	r2, r3
 2471 0032 144B     		ldr	r3, .L220+8
 2472 0034 1A70     		strb	r2, [r3]
 536:../app/app.c  **** 			display_led(AMERICANO1_LED, LED_OFF);
 2473              		.loc 1 536 4
 2474 0036 0021     		movs	r1, #0
 2475 0038 0F20     		movs	r0, #15
 2476 003a FFF7FEFF 		bl	display_led
 537:../app/app.c  **** 			display_led(AMERICANO2_LED, LED_OFF);
 2477              		.loc 1 537 4
 2478 003e 0021     		movs	r1, #0
 2479 0040 0620     		movs	r0, #6
 2480 0042 FFF7FEFF 		bl	display_led
 538:../app/app.c  **** 			if (manual_setup.cup){
 2481              		.loc 1 538 20
 2482 0046 0F4B     		ldr	r3, .L220+8
 2483 0048 1B78     		ldrb	r3, [r3]	@ zero_extendqisi2
 2484              		.loc 1 538 7
 2485 004a 002B     		cmp	r3, #0
 2486 004c 04D0     		beq	.L214
 539:../app/app.c  **** 				display_led(AMERICANO2_LED, LED_ON);
 2487              		.loc 1 539 5
 2488 004e 0121     		movs	r1, #1
 2489 0050 0620     		movs	r0, #6
 2490 0052 FFF7FEFF 		bl	display_led
 540:../app/app.c  **** 			}
 541:../app/app.c  **** 			else{
 542:../app/app.c  **** 				display_led(AMERICANO1_LED, LED_ON);
 543:../app/app.c  **** 			}
 544:../app/app.c  **** 			break;
 2491              		.loc 1 544 4
 2492 0056 08E0     		b	.L216
 2493              	.L214:
 542:../app/app.c  **** 			}
 2494              		.loc 1 542 5
 2495 0058 0121     		movs	r1, #1
 2496 005a 0F20     		movs	r0, #15
 2497 005c FFF7FEFF 		bl	display_led
 2498              		.loc 1 544 4
 2499 0060 03E0     		b	.L216
 2500              	.L213:
 545:../app/app.c  **** 		default:
 546:../app/app.c  **** 			app_task_nextsubstep(NORMAL_AMERICANO_INIT_STATE);
 2501              		.loc 1 546 4
 2502 0062 0320     		movs	r0, #3
 2503 0064 FFF7FEFF 		bl	app_task_nextsubstep
 547:../app/app.c  **** 			break;
 2504              		.loc 1 547 4
 2505 0068 00BF     		nop
 2506              	.L216:
 548:../app/app.c  **** 		}
 549:../app/app.c  **** 		ret = 1;
 2507              		.loc 1 549 7
 2508 006a 0123     		movs	r3, #1
 2509 006c FB71     		strb	r3, [r7, #7]
 550:../app/app.c  **** 		break;
 2510              		.loc 1 550 3
 2511 006e 00E0     		b	.L217
 2512              	.L219:
 551:../app/app.c  **** 	default:
 552:../app/app.c  **** 		break;
 2513              		.loc 1 552 3
 2514 0070 00BF     		nop
 2515              	.L217:
 553:../app/app.c  **** 	}
 554:../app/app.c  **** 	return ret;
 2516              		.loc 1 554 9
 2517 0072 FB79     		ldrb	r3, [r7, #7]	@ zero_extendqisi2
 555:../app/app.c  **** }
 2518              		.loc 1 555 1
 2519 0074 1846     		mov	r0, r3
 2520 0076 0837     		adds	r7, r7, #8
 2521              		.cfi_def_cfa_offset 8
 2522 0078 BD46     		mov	sp, r7
 2523              		.cfi_def_cfa_register 13
 2524              		@ sp needed
 2525 007a 80BD     		pop	{r7, pc}
 2526              	.L221:
 2527              		.align	2
 2528              	.L220:
 2529 007c 00000000 		.word	app_task_step
 2530 0080 00000000 		.word	app_task_substep
 2531 0084 00000000 		.word	manual_setup
 2532              		.cfi_endproc
 2533              	.LFE158:
 2535              		.section	.text.app_coffee_key_deal,"ax",%progbits
 2536              		.align	1
 2537              		.global	app_coffee_key_deal
 2538              		.syntax unified
 2539              		.thumb
 2540              		.thumb_func
 2541              		.fpu softvfp
 2543              	app_coffee_key_deal:
 2544              	.LFB159:
 556:../app/app.c  **** 
 557:../app/app.c  **** uint8_t app_coffee_key_deal(void)
 558:../app/app.c  **** {
 2545              		.loc 1 558 1
 2546              		.cfi_startproc
 2547              		@ args = 0, pretend = 0, frame = 8
 2548              		@ frame_needed = 1, uses_anonymous_args = 0
 2549 0000 80B5     		push	{r7, lr}
 2550              		.cfi_def_cfa_offset 8
 2551              		.cfi_offset 7, -8
 2552              		.cfi_offset 14, -4
 2553 0002 82B0     		sub	sp, sp, #8
 2554              		.cfi_def_cfa_offset 16
 2555 0004 00AF     		add	r7, sp, #0
 2556              		.cfi_def_cfa_register 7
 559:../app/app.c  **** 	uint8_t ret = 0;
 2557              		.loc 1 559 10
 2558 0006 0023     		movs	r3, #0
 2559 0008 FB71     		strb	r3, [r7, #7]
 560:../app/app.c  **** 
 561:../app/app.c  **** 	switch(app_task_step)
 2560              		.loc 1 561 2
 2561 000a 1E4B     		ldr	r3, .L237
 2562 000c 1B78     		ldrb	r3, [r3]	@ zero_extendqisi2
 2563 000e 032B     		cmp	r3, #3
 2564 0010 31D1     		bne	.L234
 562:../app/app.c  **** 	{
 563:../app/app.c  **** 	case APP_NORMAL_STATE:
 564:../app/app.c  **** 		switch(app_task_substep){
 2565              		.loc 1 564 3
 2566 0012 1D4B     		ldr	r3, .L237+4
 2567 0014 1B78     		ldrb	r3, [r3]	@ zero_extendqisi2
 2568 0016 022B     		cmp	r3, #2
 2569 0018 01D0     		beq	.L224
 2570 001a 042B     		cmp	r3, #4
 2571 001c 29D1     		bne	.L235
 2572              	.L224:
 565:../app/app.c  **** 		case NORMAL_AMERICANO_RUN_STATE:
 566:../app/app.c  **** 		case NORMAL_ESPRESSO_RUN_STATE:
 567:../app/app.c  **** 			display_led(COFFEE4_LED, LED_OFF);
 2573              		.loc 1 567 4 discriminator 1
 2574 001e 0021     		movs	r1, #0
 2575 0020 1320     		movs	r0, #19
 2576 0022 FFF7FEFF 		bl	display_led
 568:../app/app.c  **** 			display_led(COFFEE3_LED, LED_OFF);
 2577              		.loc 1 568 4 discriminator 1
 2578 0026 0021     		movs	r1, #0
 2579 0028 0D20     		movs	r0, #13
 2580 002a FFF7FEFF 		bl	display_led
 569:../app/app.c  **** 			manual_setup.coffee++;
 2581              		.loc 1 569 16 discriminator 1
 2582 002e 174B     		ldr	r3, .L237+8
 2583 0030 5B78     		ldrb	r3, [r3, #1]	@ zero_extendqisi2
 2584              		.loc 1 569 23 discriminator 1
 2585 0032 0133     		adds	r3, r3, #1
 2586 0034 DAB2     		uxtb	r2, r3
 2587 0036 154B     		ldr	r3, .L237+8
 2588 0038 5A70     		strb	r2, [r3, #1]
 570:../app/app.c  **** 			switch(manual_setup.coffee){
 2589              		.loc 1 570 23 discriminator 1
 2590 003a 144B     		ldr	r3, .L237+8
 2591 003c 5B78     		ldrb	r3, [r3, #1]	@ zero_extendqisi2
 2592 003e 032B     		cmp	r3, #3
 2593 0040 06D0     		beq	.L226
 2594 0042 032B     		cmp	r3, #3
 2595 0044 11DC     		bgt	.L236
 2596 0046 012B     		cmp	r3, #1
 2597 0048 0AD0     		beq	.L228
 2598 004a 022B     		cmp	r3, #2
 2599 004c 04D0     		beq	.L229
 571:../app/app.c  **** 			case 3:
 572:../app/app.c  **** 				manual_setup.coffee = 0;
 573:../app/app.c  **** 				break;
 574:../app/app.c  **** 			case 2:
 575:../app/app.c  **** 				display_led(COFFEE4_LED, LED_ON);
 576:../app/app.c  **** 			case 1:
 577:../app/app.c  **** 				display_led(COFFEE3_LED, LED_ON);
 578:../app/app.c  **** 				break;
 579:../app/app.c  **** 			default:
 580:../app/app.c  **** 				break;
 2600              		.loc 1 580 5
 2601 004e 0CE0     		b	.L236
 2602              	.L226:
 572:../app/app.c  **** 				break;
 2603              		.loc 1 572 25
 2604 0050 0E4B     		ldr	r3, .L237+8
 2605 0052 0022     		movs	r2, #0
 2606 0054 5A70     		strb	r2, [r3, #1]
 573:../app/app.c  **** 			case 2:
 2607              		.loc 1 573 5
 2608 0056 09E0     		b	.L230
 2609              	.L229:
 575:../app/app.c  **** 			case 1:
 2610              		.loc 1 575 5
 2611 0058 0121     		movs	r1, #1
 2612 005a 1320     		movs	r0, #19
 2613 005c FFF7FEFF 		bl	display_led
 2614              	.L228:
 577:../app/app.c  **** 				break;
 2615              		.loc 1 577 5
 2616 0060 0121     		movs	r1, #1
 2617 0062 0D20     		movs	r0, #13
 2618 0064 FFF7FEFF 		bl	display_led
 578:../app/app.c  **** 			default:
 2619              		.loc 1 578 5
 2620 0068 00E0     		b	.L230
 2621              	.L236:
 2622              		.loc 1 580 5
 2623 006a 00BF     		nop
 2624              	.L230:
 581:../app/app.c  **** 			}
 582:../app/app.c  **** 			ret = 1;
 2625              		.loc 1 582 8
 2626 006c 0123     		movs	r3, #1
 2627 006e FB71     		strb	r3, [r7, #7]
 583:../app/app.c  **** 			break;
 2628              		.loc 1 583 4
 2629 0070 00E0     		b	.L231
 2630              	.L235:
 584:../app/app.c  **** 		default:
 585:../app/app.c  **** 			break;
 2631              		.loc 1 585 4
 2632 0072 00BF     		nop
 2633              	.L231:
 586:../app/app.c  **** 		}
 587:../app/app.c  **** 		break;
 2634              		.loc 1 587 3
 2635 0074 00E0     		b	.L232
 2636              	.L234:
 588:../app/app.c  **** 	default:
 589:../app/app.c  **** 		break;
 2637              		.loc 1 589 3
 2638 0076 00BF     		nop
 2639              	.L232:
 590:../app/app.c  **** 	}
 591:../app/app.c  **** 	return ret;
 2640              		.loc 1 591 9
 2641 0078 FB79     		ldrb	r3, [r7, #7]	@ zero_extendqisi2
 592:../app/app.c  **** }
 2642              		.loc 1 592 1
 2643 007a 1846     		mov	r0, r3
 2644 007c 0837     		adds	r7, r7, #8
 2645              		.cfi_def_cfa_offset 8
 2646 007e BD46     		mov	sp, r7
 2647              		.cfi_def_cfa_register 13
 2648              		@ sp needed
 2649 0080 80BD     		pop	{r7, pc}
 2650              	.L238:
 2651 0082 00BF     		.align	2
 2652              	.L237:
 2653 0084 00000000 		.word	app_task_step
 2654 0088 00000000 		.word	app_task_substep
 2655 008c 00000000 		.word	manual_setup
 2656              		.cfi_endproc
 2657              	.LFE159:
 2659              		.section	.text.app_water_key_deal,"ax",%progbits
 2660              		.align	1
 2661              		.global	app_water_key_deal
 2662              		.syntax unified
 2663              		.thumb
 2664              		.thumb_func
 2665              		.fpu softvfp
 2667              	app_water_key_deal:
 2668              	.LFB160:
 593:../app/app.c  **** 
 594:../app/app.c  **** uint8_t app_water_key_deal(void)
 595:../app/app.c  **** {
 2669              		.loc 1 595 1
 2670              		.cfi_startproc
 2671              		@ args = 0, pretend = 0, frame = 8
 2672              		@ frame_needed = 1, uses_anonymous_args = 0
 2673 0000 80B5     		push	{r7, lr}
 2674              		.cfi_def_cfa_offset 8
 2675              		.cfi_offset 7, -8
 2676              		.cfi_offset 14, -4
 2677 0002 82B0     		sub	sp, sp, #8
 2678              		.cfi_def_cfa_offset 16
 2679 0004 00AF     		add	r7, sp, #0
 2680              		.cfi_def_cfa_register 7
 596:../app/app.c  **** 	uint8_t ret = 0;
 2681              		.loc 1 596 10
 2682 0006 0023     		movs	r3, #0
 2683 0008 FB71     		strb	r3, [r7, #7]
 597:../app/app.c  **** 
 598:../app/app.c  **** 	switch(app_task_step)
 2684              		.loc 1 598 2
 2685 000a 254B     		ldr	r3, .L253
 2686 000c 1B78     		ldrb	r3, [r3]	@ zero_extendqisi2
 2687 000e 032B     		cmp	r3, #3
 2688 0010 40D1     		bne	.L250
 599:../app/app.c  **** 	{
 600:../app/app.c  **** 	case APP_NORMAL_STATE:
 601:../app/app.c  **** 		switch(app_task_substep){
 2689              		.loc 1 601 3
 2690 0012 244B     		ldr	r3, .L253+4
 2691 0014 1B78     		ldrb	r3, [r3]	@ zero_extendqisi2
 2692 0016 062B     		cmp	r3, #6
 2693 0018 8CBF     		ite	hi
 2694 001a 0122     		movhi	r2, #1
 2695 001c 0022     		movls	r2, #0
 2696 001e D2B2     		uxtb	r2, r2
 2697 0020 002A     		cmp	r2, #0
 2698 0022 35D1     		bne	.L251
 2699 0024 0122     		movs	r2, #1
 2700 0026 02FA03F3 		lsl	r3, r2, r3
 2701 002a 03F05403 		and	r3, r3, #84
 2702 002e 002B     		cmp	r3, #0
 2703 0030 14BF     		ite	ne
 2704 0032 0123     		movne	r3, #1
 2705 0034 0023     		moveq	r3, #0
 2706 0036 DBB2     		uxtb	r3, r3
 2707 0038 002B     		cmp	r3, #0
 2708 003a 29D0     		beq	.L251
 602:../app/app.c  **** 		case NORMAL_AMERICANO_RUN_STATE:
 603:../app/app.c  **** 		case NORMAL_ESPRESSO_RUN_STATE:
 604:../app/app.c  **** 		case NORMAL_HOTWATER_RUN_STATE:
 605:../app/app.c  **** 			display_led(WATER3_LED, LED_OFF);
 2709              		.loc 1 605 4 discriminator 1
 2710 003c 0021     		movs	r1, #0
 2711 003e 1020     		movs	r0, #16
 2712 0040 FFF7FEFF 		bl	display_led
 606:../app/app.c  **** 			display_led(WATER2_LED, LED_OFF);
 2713              		.loc 1 606 4 discriminator 1
 2714 0044 0021     		movs	r1, #0
 2715 0046 1920     		movs	r0, #25
 2716 0048 FFF7FEFF 		bl	display_led
 607:../app/app.c  **** 			manual_setup.water++;
 2717              		.loc 1 607 16 discriminator 1
 2718 004c 164B     		ldr	r3, .L253+8
 2719 004e 9B78     		ldrb	r3, [r3, #2]	@ zero_extendqisi2
 2720              		.loc 1 607 22 discriminator 1
 2721 0050 0133     		adds	r3, r3, #1
 2722 0052 DAB2     		uxtb	r2, r3
 2723 0054 144B     		ldr	r3, .L253+8
 2724 0056 9A70     		strb	r2, [r3, #2]
 608:../app/app.c  **** 			switch(manual_setup.water){
 2725              		.loc 1 608 23 discriminator 1
 2726 0058 134B     		ldr	r3, .L253+8
 2727 005a 9B78     		ldrb	r3, [r3, #2]	@ zero_extendqisi2
 2728 005c 032B     		cmp	r3, #3
 2729 005e 06D0     		beq	.L242
 2730 0060 032B     		cmp	r3, #3
 2731 0062 11DC     		bgt	.L252
 2732 0064 012B     		cmp	r3, #1
 2733 0066 0AD0     		beq	.L244
 2734 0068 022B     		cmp	r3, #2
 2735 006a 04D0     		beq	.L245
 609:../app/app.c  **** 			case 3:
 610:../app/app.c  **** 				manual_setup.water = 0;
 611:../app/app.c  **** 				break;
 612:../app/app.c  **** 			case 2:
 613:../app/app.c  **** 				display_led(WATER3_LED, LED_ON);
 614:../app/app.c  **** 			case 1:
 615:../app/app.c  **** 				display_led(WATER2_LED, LED_ON);
 616:../app/app.c  **** 				break;
 617:../app/app.c  **** 			default:
 618:../app/app.c  **** 				break;
 2736              		.loc 1 618 5
 2737 006c 0CE0     		b	.L252
 2738              	.L242:
 610:../app/app.c  **** 				break;
 2739              		.loc 1 610 24
 2740 006e 0E4B     		ldr	r3, .L253+8
 2741 0070 0022     		movs	r2, #0
 2742 0072 9A70     		strb	r2, [r3, #2]
 611:../app/app.c  **** 			case 2:
 2743              		.loc 1 611 5
 2744 0074 09E0     		b	.L246
 2745              	.L245:
 613:../app/app.c  **** 			case 1:
 2746              		.loc 1 613 5
 2747 0076 0121     		movs	r1, #1
 2748 0078 1020     		movs	r0, #16
 2749 007a FFF7FEFF 		bl	display_led
 2750              	.L244:
 615:../app/app.c  **** 				break;
 2751              		.loc 1 615 5
 2752 007e 0121     		movs	r1, #1
 2753 0080 1920     		movs	r0, #25
 2754 0082 FFF7FEFF 		bl	display_led
 616:../app/app.c  **** 			default:
 2755              		.loc 1 616 5
 2756 0086 00E0     		b	.L246
 2757              	.L252:
 2758              		.loc 1 618 5
 2759 0088 00BF     		nop
 2760              	.L246:
 619:../app/app.c  **** 			}
 620:../app/app.c  **** 			ret = 1;
 2761              		.loc 1 620 8
 2762 008a 0123     		movs	r3, #1
 2763 008c FB71     		strb	r3, [r7, #7]
 621:../app/app.c  **** 			break;
 2764              		.loc 1 621 4
 2765 008e 00E0     		b	.L247
 2766              	.L251:
 622:../app/app.c  **** 		default:
 623:../app/app.c  **** 			break;
 2767              		.loc 1 623 4
 2768 0090 00BF     		nop
 2769              	.L247:
 624:../app/app.c  **** 		}
 625:../app/app.c  **** 		break;
 2770              		.loc 1 625 3
 2771 0092 00E0     		b	.L248
 2772              	.L250:
 626:../app/app.c  **** 	default:
 627:../app/app.c  **** 		break;
 2773              		.loc 1 627 3
 2774 0094 00BF     		nop
 2775              	.L248:
 628:../app/app.c  **** 	}
 629:../app/app.c  **** 	return ret;
 2776              		.loc 1 629 9
 2777 0096 FB79     		ldrb	r3, [r7, #7]	@ zero_extendqisi2
 630:../app/app.c  **** }
 2778              		.loc 1 630 1
 2779 0098 1846     		mov	r0, r3
 2780 009a 0837     		adds	r7, r7, #8
 2781              		.cfi_def_cfa_offset 8
 2782 009c BD46     		mov	sp, r7
 2783              		.cfi_def_cfa_register 13
 2784              		@ sp needed
 2785 009e 80BD     		pop	{r7, pc}
 2786              	.L254:
 2787              		.align	2
 2788              	.L253:
 2789 00a0 00000000 		.word	app_task_step
 2790 00a4 00000000 		.word	app_task_substep
 2791 00a8 00000000 		.word	manual_setup
 2792              		.cfi_endproc
 2793              	.LFE160:
 2795              		.section	.text.app_calc_key_deal,"ax",%progbits
 2796              		.align	1
 2797              		.global	app_calc_key_deal
 2798              		.syntax unified
 2799              		.thumb
 2800              		.thumb_func
 2801              		.fpu softvfp
 2803              	app_calc_key_deal:
 2804              	.LFB161:
 631:../app/app.c  **** 
 632:../app/app.c  **** uint8_t app_calc_key_deal(void)
 633:../app/app.c  **** {
 2805              		.loc 1 633 1
 2806              		.cfi_startproc
 2807              		@ args = 0, pretend = 0, frame = 8
 2808              		@ frame_needed = 1, uses_anonymous_args = 0
 2809 0000 80B5     		push	{r7, lr}
 2810              		.cfi_def_cfa_offset 8
 2811              		.cfi_offset 7, -8
 2812              		.cfi_offset 14, -4
 2813 0002 82B0     		sub	sp, sp, #8
 2814              		.cfi_def_cfa_offset 16
 2815 0004 00AF     		add	r7, sp, #0
 2816              		.cfi_def_cfa_register 7
 634:../app/app.c  **** 	uint8_t ret = 0;
 2817              		.loc 1 634 10
 2818 0006 0023     		movs	r3, #0
 2819 0008 FB71     		strb	r3, [r7, #7]
 635:../app/app.c  **** 
 636:../app/app.c  **** 	switch(app_task_step)
 2820              		.loc 1 636 2
 2821 000a 0B4B     		ldr	r3, .L263
 2822 000c 1B78     		ldrb	r3, [r3]	@ zero_extendqisi2
 2823 000e 032B     		cmp	r3, #3
 2824 0010 0CD1     		bne	.L261
 637:../app/app.c  **** 	{
 638:../app/app.c  **** 	case APP_NORMAL_STATE:
 639:../app/app.c  **** 		switch(app_task_substep){
 2825              		.loc 1 639 3
 2826 0012 0A4B     		ldr	r3, .L263+4
 2827 0014 1B78     		ldrb	r3, [r3]	@ zero_extendqisi2
 2828 0016 0B3B     		subs	r3, r3, #11
 2829 0018 012B     		cmp	r3, #1
 2830 001a 03D9     		bls	.L262
 640:../app/app.c  **** 		case NORMAL_CALC_INIT_STATE:
 641:../app/app.c  **** 		case NORMAL_CALC_RUN_STATE:
 642:../app/app.c  **** 			break;
 643:../app/app.c  **** 		default:
 644:../app/app.c  **** 			app_task_nextsubstep(NORMAL_CALC_INIT_STATE);
 2831              		.loc 1 644 4
 2832 001c 0B20     		movs	r0, #11
 2833 001e FFF7FEFF 		bl	app_task_nextsubstep
 645:../app/app.c  **** 			break;
 2834              		.loc 1 645 4
 2835 0022 00E0     		b	.L258
 2836              	.L262:
 642:../app/app.c  **** 		default:
 2837              		.loc 1 642 4
 2838 0024 00BF     		nop
 2839              	.L258:
 646:../app/app.c  **** 		}
 647:../app/app.c  **** 		ret = 1;
 2840              		.loc 1 647 7
 2841 0026 0123     		movs	r3, #1
 2842 0028 FB71     		strb	r3, [r7, #7]
 648:../app/app.c  **** 		break;
 2843              		.loc 1 648 3
 2844 002a 00E0     		b	.L259
 2845              	.L261:
 649:../app/app.c  **** 	default:
 650:../app/app.c  **** 		break;
 2846              		.loc 1 650 3
 2847 002c 00BF     		nop
 2848              	.L259:
 651:../app/app.c  **** 	}
 652:../app/app.c  **** 	return ret;
 2849              		.loc 1 652 9
 2850 002e FB79     		ldrb	r3, [r7, #7]	@ zero_extendqisi2
 653:../app/app.c  **** }
 2851              		.loc 1 653 1
 2852 0030 1846     		mov	r0, r3
 2853 0032 0837     		adds	r7, r7, #8
 2854              		.cfi_def_cfa_offset 8
 2855 0034 BD46     		mov	sp, r7
 2856              		.cfi_def_cfa_register 13
 2857              		@ sp needed
 2858 0036 80BD     		pop	{r7, pc}
 2859              	.L264:
 2860              		.align	2
 2861              	.L263:
 2862 0038 00000000 		.word	app_task_step
 2863 003c 00000000 		.word	app_task_substep
 2864              		.cfi_endproc
 2865              	.LFE161:
 2867              		.section	.text.app_aqua_key_deal,"ax",%progbits
 2868              		.align	1
 2869              		.global	app_aqua_key_deal
 2870              		.syntax unified
 2871              		.thumb
 2872              		.thumb_func
 2873              		.fpu softvfp
 2875              	app_aqua_key_deal:
 2876              	.LFB162:
 654:../app/app.c  **** 
 655:../app/app.c  **** uint8_t app_aqua_key_deal(void)
 656:../app/app.c  **** {
 2877              		.loc 1 656 1
 2878              		.cfi_startproc
 2879              		@ args = 0, pretend = 0, frame = 8
 2880              		@ frame_needed = 1, uses_anonymous_args = 0
 2881 0000 80B5     		push	{r7, lr}
 2882              		.cfi_def_cfa_offset 8
 2883              		.cfi_offset 7, -8
 2884              		.cfi_offset 14, -4
 2885 0002 82B0     		sub	sp, sp, #8
 2886              		.cfi_def_cfa_offset 16
 2887 0004 00AF     		add	r7, sp, #0
 2888              		.cfi_def_cfa_register 7
 657:../app/app.c  **** 	uint8_t ret = 0;
 2889              		.loc 1 657 10
 2890 0006 0023     		movs	r3, #0
 2891 0008 FB71     		strb	r3, [r7, #7]
 658:../app/app.c  **** 
 659:../app/app.c  **** 	switch(app_task_step)
 2892              		.loc 1 659 2
 2893 000a 0B4B     		ldr	r3, .L273
 2894 000c 1B78     		ldrb	r3, [r3]	@ zero_extendqisi2
 2895 000e 032B     		cmp	r3, #3
 2896 0010 0CD1     		bne	.L271
 660:../app/app.c  **** 	{
 661:../app/app.c  **** 	case APP_NORMAL_STATE:
 662:../app/app.c  **** 		switch(app_task_substep){
 2897              		.loc 1 662 3
 2898 0012 0A4B     		ldr	r3, .L273+4
 2899 0014 1B78     		ldrb	r3, [r3]	@ zero_extendqisi2
 2900 0016 093B     		subs	r3, r3, #9
 2901 0018 012B     		cmp	r3, #1
 2902 001a 03D9     		bls	.L272
 663:../app/app.c  **** 		case NORMAL_AQUA_INIT_STATE:
 664:../app/app.c  **** 		case NORMAL_AQUA_RUN_STATE:
 665:../app/app.c  **** 			break;
 666:../app/app.c  **** 		default:
 667:../app/app.c  **** 			app_task_nextsubstep(NORMAL_AQUA_INIT_STATE);
 2903              		.loc 1 667 4
 2904 001c 0920     		movs	r0, #9
 2905 001e FFF7FEFF 		bl	app_task_nextsubstep
 668:../app/app.c  **** 			break;
 2906              		.loc 1 668 4
 2907 0022 00E0     		b	.L268
 2908              	.L272:
 665:../app/app.c  **** 		default:
 2909              		.loc 1 665 4
 2910 0024 00BF     		nop
 2911              	.L268:
 669:../app/app.c  **** 		}
 670:../app/app.c  **** 		ret = 1;
 2912              		.loc 1 670 7
 2913 0026 0123     		movs	r3, #1
 2914 0028 FB71     		strb	r3, [r7, #7]
 671:../app/app.c  **** 		break;
 2915              		.loc 1 671 3
 2916 002a 00E0     		b	.L269
 2917              	.L271:
 672:../app/app.c  **** 	default:
 673:../app/app.c  **** 		break;
 2918              		.loc 1 673 3
 2919 002c 00BF     		nop
 2920              	.L269:
 674:../app/app.c  **** 	}
 675:../app/app.c  **** 	return ret;
 2921              		.loc 1 675 9
 2922 002e FB79     		ldrb	r3, [r7, #7]	@ zero_extendqisi2
 676:../app/app.c  **** }
 2923              		.loc 1 676 1
 2924 0030 1846     		mov	r0, r3
 2925 0032 0837     		adds	r7, r7, #8
 2926              		.cfi_def_cfa_offset 8
 2927 0034 BD46     		mov	sp, r7
 2928              		.cfi_def_cfa_register 13
 2929              		@ sp needed
 2930 0036 80BD     		pop	{r7, pc}
 2931              	.L274:
 2932              		.align	2
 2933              	.L273:
 2934 0038 00000000 		.word	app_task_step
 2935 003c 00000000 		.word	app_task_substep
 2936              		.cfi_endproc
 2937              	.LFE162:
 2939              		.section	.text.app_pad_key_deal,"ax",%progbits
 2940              		.align	1
 2941              		.global	app_pad_key_deal
 2942              		.syntax unified
 2943              		.thumb
 2944              		.thumb_func
 2945              		.fpu softvfp
 2947              	app_pad_key_deal:
 2948              	.LFB163:
 677:../app/app.c  **** 
 678:../app/app.c  **** 
 679:../app/app.c  **** void app_pad_key_deal(void)
 680:../app/app.c  **** {
 2949              		.loc 1 680 1
 2950              		.cfi_startproc
 2951              		@ args = 0, pretend = 0, frame = 0
 2952              		@ frame_needed = 1, uses_anonymous_args = 0
 2953              		@ link register save eliminated.
 2954 0000 80B4     		push	{r7}
 2955              		.cfi_def_cfa_offset 4
 2956              		.cfi_offset 7, -4
 2957 0002 00AF     		add	r7, sp, #0
 2958              		.cfi_def_cfa_register 7
 681:../app/app.c  **** 	switch(app_task_step)
 2959              		.loc 1 681 2
 2960 0004 034B     		ldr	r3, .L278
 2961 0006 1B78     		ldrb	r3, [r3]	@ zero_extendqisi2
 2962 0008 032B     		cmp	r3, #3
 682:../app/app.c  **** 	{
 683:../app/app.c  **** 	case APP_NORMAL_STATE:
 684:../app/app.c  **** 		break;
 685:../app/app.c  **** 	default:
 686:../app/app.c  **** 		break;
 2963              		.loc 1 686 3
 2964 000a 00BF     		nop
 687:../app/app.c  **** 	}
 688:../app/app.c  **** }
 2965              		.loc 1 688 1
 2966 000c 00BF     		nop
 2967 000e BD46     		mov	sp, r7
 2968              		.cfi_def_cfa_register 13
 2969              		@ sp needed
 2970 0010 80BC     		pop	{r7}
 2971              		.cfi_restore 7
 2972              		.cfi_def_cfa_offset 0
 2973 0012 7047     		bx	lr
 2974              	.L279:
 2975              		.align	2
 2976              	.L278:
 2977 0014 00000000 		.word	app_task_step
 2978              		.cfi_endproc
 2979              	.LFE163:
 2981              		.section	.text.app_key_handler,"ax",%progbits
 2982              		.align	1
 2983              		.global	app_key_handler
 2984              		.syntax unified
 2985              		.thumb
 2986              		.thumb_func
 2987              		.fpu softvfp
 2989              	app_key_handler:
 2990              	.LFB164:
 689:../app/app.c  **** 
 690:../app/app.c  **** /************************************************************************
 691:../app/app.c  **** * function name: app_key_handler
 692:../app/app.c  **** * input: non
 693:../app/app.c  **** * output: non
 694:../app/app.c  **** * description: this object's message loop
 695:../app/app.c  **** *************************************************************************/
 696:../app/app.c  **** void app_key_handler(_keystruct* pkey)
 697:../app/app.c  **** {
 2991              		.loc 1 697 1
 2992              		.cfi_startproc
 2993              		@ args = 0, pretend = 0, frame = 8
 2994              		@ frame_needed = 1, uses_anonymous_args = 0
 2995 0000 80B5     		push	{r7, lr}
 2996              		.cfi_def_cfa_offset 8
 2997              		.cfi_offset 7, -8
 2998              		.cfi_offset 14, -4
 2999 0002 82B0     		sub	sp, sp, #8
 3000              		.cfi_def_cfa_offset 16
 3001 0004 00AF     		add	r7, sp, #0
 3002              		.cfi_def_cfa_register 7
 3003 0006 7860     		str	r0, [r7, #4]
 698:../app/app.c  **** 	if (pkey->ulLPressF & KEY_ONOFF_MASK){
 3004              		.loc 1 698 10
 3005 0008 7B68     		ldr	r3, [r7, #4]
 3006 000a 5B68     		ldr	r3, [r3, #4]
 3007              		.loc 1 698 22
 3008 000c 03F00103 		and	r3, r3, #1
 3009              		.loc 1 698 5
 3010 0010 002B     		cmp	r3, #0
 3011 0012 02D0     		beq	.L281
 699:../app/app.c  **** 		app_buzzer_on(1);
 3012              		.loc 1 699 3
 3013 0014 0120     		movs	r0, #1
 3014 0016 FFF7FEFF 		bl	app_buzzer_on
 3015              	.L281:
 700:../app/app.c  **** 	}
 701:../app/app.c  **** 	if (pkey->ulReleaseF & KEY_ONOFF_MASK){
 3016              		.loc 1 701 10
 3017 001a 7B68     		ldr	r3, [r7, #4]
 3018 001c 9B68     		ldr	r3, [r3, #8]
 3019              		.loc 1 701 23
 3020 001e 03F00103 		and	r3, r3, #1
 3021              		.loc 1 701 5
 3022 0022 002B     		cmp	r3, #0
 3023 0024 19D0     		beq	.L282
 702:../app/app.c  **** 		if (pkey->ulLPressMaskF & KEY_ONOFF_MASK){
 3024              		.loc 1 702 11
 3025 0026 7B68     		ldr	r3, [r7, #4]
 3026 0028 1B69     		ldr	r3, [r3, #16]
 3027              		.loc 1 702 27
 3028 002a 03F00103 		and	r3, r3, #1
 3029              		.loc 1 702 6
 3030 002e 002B     		cmp	r3, #0
 3031 0030 02D0     		beq	.L283
 703:../app/app.c  **** 			app_onoff_key_deal();
 3032              		.loc 1 703 4
 3033 0032 FFF7FEFF 		bl	app_onoff_key_deal
 3034 0036 0AE0     		b	.L284
 3035              	.L283:
 704:../app/app.c  **** 		}
 705:../app/app.c  **** 		else if (FAIL == app_step_state(APP_IDLE_STATE)){
 3036              		.loc 1 705 20
 3037 0038 0120     		movs	r0, #1
 3038 003a FFF7FEFF 		bl	app_step_state
 3039 003e 0346     		mov	r3, r0
 3040              		.loc 1 705 11
 3041 0040 002B     		cmp	r3, #0
 3042 0042 04D1     		bne	.L284
 706:../app/app.c  **** 			app_buzzer_on(1);
 3043              		.loc 1 706 4
 3044 0044 0120     		movs	r0, #1
 3045 0046 FFF7FEFF 		bl	app_buzzer_on
 707:../app/app.c  **** 			app_onoff_key_deal();
 3046              		.loc 1 707 4
 3047 004a FFF7FEFF 		bl	app_onoff_key_deal
 3048              	.L284:
 708:../app/app.c  **** 		}
 709:../app/app.c  **** 		pkey->ulLPressMaskF &= ~KEY_ONOFF_MASK;
 3049              		.loc 1 709 23
 3050 004e 7B68     		ldr	r3, [r7, #4]
 3051 0050 1B69     		ldr	r3, [r3, #16]
 3052 0052 23F00102 		bic	r2, r3, #1
 3053 0056 7B68     		ldr	r3, [r7, #4]
 3054 0058 1A61     		str	r2, [r3, #16]
 3055              	.L282:
 710:../app/app.c  **** 	}
 711:../app/app.c  **** 	
 712:../app/app.c  **** 	if (pkey->ulReleaseF & KEY_START_MASK) {
 3056              		.loc 1 712 10
 3057 005a 7B68     		ldr	r3, [r7, #4]
 3058 005c 9B68     		ldr	r3, [r3, #8]
 3059              		.loc 1 712 23
 3060 005e 03F01003 		and	r3, r3, #16
 3061              		.loc 1 712 5
 3062 0062 002B     		cmp	r3, #0
 3063 0064 07D0     		beq	.L285
 713:../app/app.c  **** 		if (app_start_key_deal()){
 3064              		.loc 1 713 7
 3065 0066 FFF7FEFF 		bl	app_start_key_deal
 3066 006a 0346     		mov	r3, r0
 3067              		.loc 1 713 6
 3068 006c 002B     		cmp	r3, #0
 3069 006e 02D0     		beq	.L285
 714:../app/app.c  **** 			app_buzzer_on(1);
 3070              		.loc 1 714 4
 3071 0070 0120     		movs	r0, #1
 3072 0072 FFF7FEFF 		bl	app_buzzer_on
 3073              	.L285:
 715:../app/app.c  **** 		}
 716:../app/app.c  **** 	}
 717:../app/app.c  **** 
 718:../app/app.c  **** 	if (pkey->ulReleaseF & KEY_ESPRESSO_MASK) {
 3074              		.loc 1 718 10
 3075 0076 7B68     		ldr	r3, [r7, #4]
 3076 0078 9B68     		ldr	r3, [r3, #8]
 3077              		.loc 1 718 23
 3078 007a 03F00403 		and	r3, r3, #4
 3079              		.loc 1 718 5
 3080 007e 002B     		cmp	r3, #0
 3081 0080 07D0     		beq	.L286
 719:../app/app.c  **** 		if (app_espresso_key_deal()){
 3082              		.loc 1 719 7
 3083 0082 FFF7FEFF 		bl	app_espresso_key_deal
 3084 0086 0346     		mov	r3, r0
 3085              		.loc 1 719 6
 3086 0088 002B     		cmp	r3, #0
 3087 008a 02D0     		beq	.L286
 720:../app/app.c  **** 			app_buzzer_on(1);
 3088              		.loc 1 720 4
 3089 008c 0120     		movs	r0, #1
 3090 008e FFF7FEFF 		bl	app_buzzer_on
 3091              	.L286:
 721:../app/app.c  **** 		}
 722:../app/app.c  **** 	}
 723:../app/app.c  **** 	
 724:../app/app.c  **** 	if (pkey->ulReleaseF & KEY_AMERICANO_MASK) {
 3092              		.loc 1 724 10
 3093 0092 7B68     		ldr	r3, [r7, #4]
 3094 0094 9B68     		ldr	r3, [r3, #8]
 3095              		.loc 1 724 23
 3096 0096 03F02003 		and	r3, r3, #32
 3097              		.loc 1 724 5
 3098 009a 002B     		cmp	r3, #0
 3099 009c 07D0     		beq	.L287
 725:../app/app.c  **** 		if (app_ame_key_deal()){
 3100              		.loc 1 725 7
 3101 009e FFF7FEFF 		bl	app_ame_key_deal
 3102 00a2 0346     		mov	r3, r0
 3103              		.loc 1 725 6
 3104 00a4 002B     		cmp	r3, #0
 3105 00a6 02D0     		beq	.L287
 726:../app/app.c  **** 			app_buzzer_on(1);
 3106              		.loc 1 726 4
 3107 00a8 0120     		movs	r0, #1
 3108 00aa FFF7FEFF 		bl	app_buzzer_on
 3109              	.L287:
 727:../app/app.c  **** 		}
 728:../app/app.c  **** 	}
 729:../app/app.c  **** 
 730:../app/app.c  **** 	if (pkey->ulReleaseF & KEY_HOTWATER_MASK) {
 3110              		.loc 1 730 10
 3111 00ae 7B68     		ldr	r3, [r7, #4]
 3112 00b0 9B68     		ldr	r3, [r3, #8]
 3113              		.loc 1 730 23
 3114 00b2 03F00203 		and	r3, r3, #2
 3115              		.loc 1 730 5
 3116 00b6 002B     		cmp	r3, #0
 3117 00b8 07D0     		beq	.L288
 731:../app/app.c  **** 		if (app_hotwater_key_deal()){
 3118              		.loc 1 731 7
 3119 00ba FFF7FEFF 		bl	app_hotwater_key_deal
 3120 00be 0346     		mov	r3, r0
 3121              		.loc 1 731 6
 3122 00c0 002B     		cmp	r3, #0
 3123 00c2 02D0     		beq	.L288
 732:../app/app.c  **** 			app_buzzer_on(1);
 3124              		.loc 1 732 4
 3125 00c4 0120     		movs	r0, #1
 3126 00c6 FFF7FEFF 		bl	app_buzzer_on
 3127              	.L288:
 733:../app/app.c  **** 		}
 734:../app/app.c  **** 	}
 735:../app/app.c  **** 
 736:../app/app.c  **** 	if (pkey->ulReleaseF & KEY_STEAM_MASK) {
 3128              		.loc 1 736 10
 3129 00ca 7B68     		ldr	r3, [r7, #4]
 3130 00cc 9B68     		ldr	r3, [r3, #8]
 3131              		.loc 1 736 23
 3132 00ce 03F00803 		and	r3, r3, #8
 3133              		.loc 1 736 5
 3134 00d2 002B     		cmp	r3, #0
 3135 00d4 07D0     		beq	.L289
 737:../app/app.c  **** 		if (app_steam_key_deal()){
 3136              		.loc 1 737 7
 3137 00d6 FFF7FEFF 		bl	app_steam_key_deal
 3138 00da 0346     		mov	r3, r0
 3139              		.loc 1 737 6
 3140 00dc 002B     		cmp	r3, #0
 3141 00de 02D0     		beq	.L289
 738:../app/app.c  **** 			app_buzzer_on(1);
 3142              		.loc 1 738 4
 3143 00e0 0120     		movs	r0, #1
 3144 00e2 FFF7FEFF 		bl	app_buzzer_on
 3145              	.L289:
 739:../app/app.c  **** 		}
 740:../app/app.c  **** 	}
 741:../app/app.c  **** 	
 742:../app/app.c  **** 	if (pkey->ulReleaseF & KEY_COFFE_MASK) {
 3146              		.loc 1 742 10
 3147 00e6 7B68     		ldr	r3, [r7, #4]
 3148 00e8 9B68     		ldr	r3, [r3, #8]
 3149              		.loc 1 742 23
 3150 00ea 03F04003 		and	r3, r3, #64
 3151              		.loc 1 742 5
 3152 00ee 002B     		cmp	r3, #0
 3153 00f0 07D0     		beq	.L290
 743:../app/app.c  **** 		if (app_coffee_key_deal()){
 3154              		.loc 1 743 7
 3155 00f2 FFF7FEFF 		bl	app_coffee_key_deal
 3156 00f6 0346     		mov	r3, r0
 3157              		.loc 1 743 6
 3158 00f8 002B     		cmp	r3, #0
 3159 00fa 02D0     		beq	.L290
 744:../app/app.c  **** 			app_buzzer_on(1);
 3160              		.loc 1 744 4
 3161 00fc 0120     		movs	r0, #1
 3162 00fe FFF7FEFF 		bl	app_buzzer_on
 3163              	.L290:
 745:../app/app.c  **** 		}
 746:../app/app.c  **** 	}
 747:../app/app.c  **** 	
 748:../app/app.c  **** 	if (pkey->ulReleaseF & KEY_WATER_MASK) {
 3164              		.loc 1 748 10
 3165 0102 7B68     		ldr	r3, [r7, #4]
 3166 0104 9B68     		ldr	r3, [r3, #8]
 3167              		.loc 1 748 23
 3168 0106 03F48063 		and	r3, r3, #1024
 3169              		.loc 1 748 5
 3170 010a 002B     		cmp	r3, #0
 3171 010c 07D0     		beq	.L291
 749:../app/app.c  **** 		if (app_water_key_deal()){
 3172              		.loc 1 749 7
 3173 010e FFF7FEFF 		bl	app_water_key_deal
 3174 0112 0346     		mov	r3, r0
 3175              		.loc 1 749 6
 3176 0114 002B     		cmp	r3, #0
 3177 0116 02D0     		beq	.L291
 750:../app/app.c  **** 			app_buzzer_on(1);
 3178              		.loc 1 750 4
 3179 0118 0120     		movs	r0, #1
 3180 011a FFF7FEFF 		bl	app_buzzer_on
 3181              	.L291:
 751:../app/app.c  **** 		}
 752:../app/app.c  **** 	}
 753:../app/app.c  **** 
 754:../app/app.c  **** 	if (pkey->ulLPressF & KEY_CALC_MASK) {
 3182              		.loc 1 754 10
 3183 011e 7B68     		ldr	r3, [r7, #4]
 3184 0120 5B68     		ldr	r3, [r3, #4]
 3185              		.loc 1 754 22
 3186 0122 03F40073 		and	r3, r3, #512
 3187              		.loc 1 754 5
 3188 0126 002B     		cmp	r3, #0
 3189 0128 07D0     		beq	.L292
 755:../app/app.c  **** 		if (app_calc_key_deal()){
 3190              		.loc 1 755 7
 3191 012a FFF7FEFF 		bl	app_calc_key_deal
 3192 012e 0346     		mov	r3, r0
 3193              		.loc 1 755 6
 3194 0130 002B     		cmp	r3, #0
 3195 0132 02D0     		beq	.L292
 756:../app/app.c  **** 			app_buzzer_on(1);
 3196              		.loc 1 756 4
 3197 0134 0120     		movs	r0, #1
 3198 0136 FFF7FEFF 		bl	app_buzzer_on
 3199              	.L292:
 757:../app/app.c  **** 		}
 758:../app/app.c  **** 	}
 759:../app/app.c  **** 
 760:../app/app.c  **** 	if (pkey->ulLPressF & KEY_AQUA_MASK) {
 3200              		.loc 1 760 10
 3201 013a 7B68     		ldr	r3, [r7, #4]
 3202 013c 5B68     		ldr	r3, [r3, #4]
 3203              		.loc 1 760 22
 3204 013e 03F48073 		and	r3, r3, #256
 3205              		.loc 1 760 5
 3206 0142 002B     		cmp	r3, #0
 3207 0144 07D0     		beq	.L293
 761:../app/app.c  **** 		if (app_aqua_key_deal()){
 3208              		.loc 1 761 7
 3209 0146 FFF7FEFF 		bl	app_aqua_key_deal
 3210 014a 0346     		mov	r3, r0
 3211              		.loc 1 761 6
 3212 014c 002B     		cmp	r3, #0
 3213 014e 02D0     		beq	.L293
 762:../app/app.c  **** 			app_buzzer_on(1);
 3214              		.loc 1 762 4
 3215 0150 0120     		movs	r0, #1
 3216 0152 FFF7FEFF 		bl	app_buzzer_on
 3217              	.L293:
 763:../app/app.c  **** 		}
 764:../app/app.c  **** 	}
 765:../app/app.c  **** 	
 766:../app/app.c  **** 	if (pkey->ulReleaseF & KEY_PAD_MASK) {
 3218              		.loc 1 766 10
 3219 0156 7B68     		ldr	r3, [r7, #4]
 3220 0158 9B68     		ldr	r3, [r3, #8]
 3221              		.loc 1 766 23
 3222 015a 03F08003 		and	r3, r3, #128
 3223              		.loc 1 766 5
 3224 015e 002B     		cmp	r3, #0
 3225 0160 01D0     		beq	.L295
 767:../app/app.c  **** 		app_pad_key_deal();
 3226              		.loc 1 767 3
 3227 0162 FFF7FEFF 		bl	app_pad_key_deal
 3228              	.L295:
 768:../app/app.c  **** 	}
 769:../app/app.c  **** }
 3229              		.loc 1 769 1
 3230 0166 00BF     		nop
 3231 0168 0837     		adds	r7, r7, #8
 3232              		.cfi_def_cfa_offset 8
 3233 016a BD46     		mov	sp, r7
 3234              		.cfi_def_cfa_register 13
 3235              		@ sp needed
 3236 016c 80BD     		pop	{r7, pc}
 3237              		.cfi_endproc
 3238              	.LFE164:
 3240              		.section	.text.app_init_handler,"ax",%progbits
 3241              		.align	1
 3242              		.global	app_init_handler
 3243              		.syntax unified
 3244              		.thumb
 3245              		.thumb_func
 3246              		.fpu softvfp
 3248              	app_init_handler:
 3249              	.LFB165:
 770:../app/app.c  **** 
 771:../app/app.c  **** /************************************************************************
 772:../app/app.c  **** * function name: app_init_handler
 773:../app/app.c  **** * input: non
 774:../app/app.c  **** * output: non
 775:../app/app.c  **** * description: object thread
 776:../app/app.c  **** *************************************************************************/
 777:../app/app.c  **** void app_init_handler(void)
 778:../app/app.c  **** {
 3250              		.loc 1 778 1
 3251              		.cfi_startproc
 3252              		@ args = 0, pretend = 0, frame = 0
 3253              		@ frame_needed = 1, uses_anonymous_args = 0
 3254 0000 80B5     		push	{r7, lr}
 3255              		.cfi_def_cfa_offset 8
 3256              		.cfi_offset 7, -8
 3257              		.cfi_offset 14, -4
 3258 0002 00AF     		add	r7, sp, #0
 3259              		.cfi_def_cfa_register 7
 779:../app/app.c  **** 	switch(app_task_substep)
 3260              		.loc 1 779 2
 3261 0004 114B     		ldr	r3, .L303
 3262 0006 1B78     		ldrb	r3, [r3]	@ zero_extendqisi2
 3263 0008 022B     		cmp	r3, #2
 3264 000a 17D0     		beq	.L297
 3265 000c 022B     		cmp	r3, #2
 3266 000e 1ADC     		bgt	.L302
 3267 0010 002B     		cmp	r3, #0
 3268 0012 02D0     		beq	.L299
 3269 0014 012B     		cmp	r3, #1
 3270 0016 0AD0     		beq	.L300
 780:../app/app.c  **** 	{
 781:../app/app.c  **** 		case INIT_STATE:
 782:../app/app.c  **** 			/* add init code here */
 783:../app/app.c  **** 			osal_lyh_over_timer(OS_VIRAC_50HZ, Ms_10, app_virtual_croszero_cbfunc);
 784:../app/app.c  **** 			app_task_substep = INIT_READY_STATE;
 785:../app/app.c  **** 			break;
 786:../app/app.c  **** 		case INIT_READY_STATE:
 787:../app/app.c  **** 			osal_lyh_delay_task(Ms_2);
 788:../app/app.c  **** 			app_task_substep = INIT_END_STATE;
 789:../app/app.c  **** 			break;
 790:../app/app.c  **** 		case INIT_END_STATE:
 791:../app/app.c  **** 			app_task_nextstep(APP_IDLE_STATE, IDLE_INIT_STATE);
 792:../app/app.c  **** 			break;
 793:../app/app.c  **** 		default:
 794:../app/app.c  **** 			break;
 3271              		.loc 1 794 4
 3272 0018 15E0     		b	.L302
 3273              	.L299:
 783:../app/app.c  **** 			app_task_substep = INIT_READY_STATE;
 3274              		.loc 1 783 4
 3275 001a 0D4A     		ldr	r2, .L303+4
 3276 001c 0A21     		movs	r1, #10
 3277 001e 4FF40040 		mov	r0, #32768
 3278 0022 FFF7FEFF 		bl	osal_lyh_over_timer
 784:../app/app.c  **** 			break;
 3279              		.loc 1 784 21
 3280 0026 094B     		ldr	r3, .L303
 3281 0028 0122     		movs	r2, #1
 3282 002a 1A70     		strb	r2, [r3]
 785:../app/app.c  **** 		case INIT_READY_STATE:
 3283              		.loc 1 785 4
 3284 002c 0CE0     		b	.L301
 3285              	.L300:
 787:../app/app.c  **** 			app_task_substep = INIT_END_STATE;
 3286              		.loc 1 787 4
 3287 002e 0220     		movs	r0, #2
 3288 0030 FFF7FEFF 		bl	osal_lyh_delay_task
 788:../app/app.c  **** 			break;
 3289              		.loc 1 788 21
 3290 0034 054B     		ldr	r3, .L303
 3291 0036 0222     		movs	r2, #2
 3292 0038 1A70     		strb	r2, [r3]
 789:../app/app.c  **** 		case INIT_END_STATE:
 3293              		.loc 1 789 4
 3294 003a 05E0     		b	.L301
 3295              	.L297:
 791:../app/app.c  **** 			break;
 3296              		.loc 1 791 4
 3297 003c 0021     		movs	r1, #0
 3298 003e 0120     		movs	r0, #1
 3299 0040 FFF7FEFF 		bl	app_task_nextstep
 792:../app/app.c  **** 		default:
 3300              		.loc 1 792 4
 3301 0044 00E0     		b	.L301
 3302              	.L302:
 3303              		.loc 1 794 4
 3304 0046 00BF     		nop
 3305              	.L301:
 795:../app/app.c  **** 	}
 796:../app/app.c  **** }
 3306              		.loc 1 796 1
 3307 0048 00BF     		nop
 3308 004a 80BD     		pop	{r7, pc}
 3309              	.L304:
 3310              		.align	2
 3311              	.L303:
 3312 004c 00000000 		.word	app_task_substep
 3313 0050 00000000 		.word	app_virtual_croszero_cbfunc
 3314              		.cfi_endproc
 3315              	.LFE165:
 3317              		.section	.text.app_idle_handler,"ax",%progbits
 3318              		.align	1
 3319              		.global	app_idle_handler
 3320              		.syntax unified
 3321              		.thumb
 3322              		.thumb_func
 3323              		.fpu softvfp
 3325              	app_idle_handler:
 3326              	.LFB166:
 797:../app/app.c  **** 
 798:../app/app.c  **** /************************************************************************
 799:../app/app.c  **** * function name: app_idle_handler
 800:../app/app.c  **** * input: non
 801:../app/app.c  **** * output: non
 802:../app/app.c  **** * description: object thread
 803:../app/app.c  **** *************************************************************************/
 804:../app/app.c  **** void app_idle_handler(void)
 805:../app/app.c  **** {
 3327              		.loc 1 805 1
 3328              		.cfi_startproc
 3329              		@ args = 0, pretend = 0, frame = 0
 3330              		@ frame_needed = 1, uses_anonymous_args = 0
 3331 0000 80B5     		push	{r7, lr}
 3332              		.cfi_def_cfa_offset 8
 3333              		.cfi_offset 7, -8
 3334              		.cfi_offset 14, -4
 3335 0002 00AF     		add	r7, sp, #0
 3336              		.cfi_def_cfa_register 7
 806:../app/app.c  **** 	switch(app_task_substep)
 3337              		.loc 1 806 2
 3338 0004 0A4B     		ldr	r3, .L310
 3339 0006 1B78     		ldrb	r3, [r3]	@ zero_extendqisi2
 3340 0008 002B     		cmp	r3, #0
 3341 000a 02D0     		beq	.L306
 3342 000c 012B     		cmp	r3, #1
 3343 000e 08D0     		beq	.L307
 807:../app/app.c  **** 	{
 808:../app/app.c  **** 		case IDLE_INIT_STATE:
 809:../app/app.c  **** 			display_init();
 810:../app/app.c  **** 			app_turn_heat_off();
 811:../app/app.c  **** 			app_task_substep = IDLE_RUN_STATE;
 812:../app/app.c  **** 			break;
 813:../app/app.c  **** 		case IDLE_RUN_STATE:
 814:../app/app.c  **** 			osal_lyh_delay_task(Ms_500);
 815:../app/app.c  **** 			break;
 816:../app/app.c  **** 		default:
 817:../app/app.c  **** 			break;
 3344              		.loc 1 817 4
 3345 0010 0CE0     		b	.L309
 3346              	.L306:
 809:../app/app.c  **** 			app_turn_heat_off();
 3347              		.loc 1 809 4
 3348 0012 FFF7FEFF 		bl	display_init
 810:../app/app.c  **** 			app_task_substep = IDLE_RUN_STATE;
 3349              		.loc 1 810 4
 3350 0016 FFF7FEFF 		bl	app_turn_heat_off
 811:../app/app.c  **** 			break;
 3351              		.loc 1 811 21
 3352 001a 054B     		ldr	r3, .L310
 3353 001c 0122     		movs	r2, #1
 3354 001e 1A70     		strb	r2, [r3]
 812:../app/app.c  **** 		case IDLE_RUN_STATE:
 3355              		.loc 1 812 4
 3356 0020 04E0     		b	.L309
 3357              	.L307:
 814:../app/app.c  **** 			break;
 3358              		.loc 1 814 4
 3359 0022 4FF4FA70 		mov	r0, #500
 3360 0026 FFF7FEFF 		bl	osal_lyh_delay_task
 815:../app/app.c  **** 		default:
 3361              		.loc 1 815 4
 3362 002a 00BF     		nop
 3363              	.L309:
 818:../app/app.c  **** 	}
 819:../app/app.c  **** }
 3364              		.loc 1 819 1
 3365 002c 00BF     		nop
 3366 002e 80BD     		pop	{r7, pc}
 3367              	.L311:
 3368              		.align	2
 3369              	.L310:
 3370 0030 00000000 		.word	app_task_substep
 3371              		.cfi_endproc
 3372              	.LFE166:
 3374              		.section	.text.app_startup_handler,"ax",%progbits
 3375              		.align	1
 3376              		.global	app_startup_handler
 3377              		.syntax unified
 3378              		.thumb
 3379              		.thumb_func
 3380              		.fpu softvfp
 3382              	app_startup_handler:
 3383              	.LFB167:
 820:../app/app.c  **** 
 821:../app/app.c  **** /************************************************************************
 822:../app/app.c  **** * function name: app_startup_handler
 823:../app/app.c  **** * input: non
 824:../app/app.c  **** * output: non
 825:../app/app.c  **** * description: object thread
 826:../app/app.c  **** *************************************************************************/
 827:../app/app.c  **** void app_startup_handler(void)
 828:../app/app.c  **** {
 3384              		.loc 1 828 1
 3385              		.cfi_startproc
 3386              		@ args = 0, pretend = 0, frame = 0
 3387              		@ frame_needed = 1, uses_anonymous_args = 0
 3388 0000 80B5     		push	{r7, lr}
 3389              		.cfi_def_cfa_offset 8
 3390              		.cfi_offset 7, -8
 3391              		.cfi_offset 14, -4
 3392 0002 00AF     		add	r7, sp, #0
 3393              		.cfi_def_cfa_register 7
 829:../app/app.c  **** 	switch(app_task_substep)
 3394              		.loc 1 829 2
 3395 0004 BD4B     		ldr	r3, .L360
 3396 0006 1B78     		ldrb	r3, [r3]	@ zero_extendqisi2
 3397 0008 102B     		cmp	r3, #16
 3398 000a 00F2AD81 		bhi	.L356
 3399 000e 01A2     		adr	r2, .L315
 3400 0010 52F823F0 		ldr	pc, [r2, r3, lsl #2]
 3401              		.p2align 2
 3402              	.L315:
 3403 0014 59000000 		.word	.L331+1
 3404 0018 9B000000 		.word	.L330+1
 3405 001c C5000000 		.word	.L329+1
 3406 0020 07010000 		.word	.L328+1
 3407 0024 21010000 		.word	.L327+1
 3408 0028 59010000 		.word	.L326+1
 3409 002c 83010000 		.word	.L325+1
 3410 0030 BB010000 		.word	.L324+1
 3411 0034 D5010000 		.word	.L323+1
 3412 0038 0F020000 		.word	.L322+1
 3413 003c 23020000 		.word	.L321+1
 3414 0040 53020000 		.word	.L320+1
 3415 0044 6F020000 		.word	.L319+1
 3416 0048 B1020000 		.word	.L318+1
 3417 004c CD020000 		.word	.L317+1
 3418 0050 05030000 		.word	.L316+1
 3419 0054 31030000 		.word	.L314+1
 3420              		.p2align 1
 3421              	.L331:
 830:../app/app.c  **** 	{
 831:../app/app.c  **** 		/* هگ¯هٹ¨وµپç¨‹هˆ‌ه§‹هŒ– */
 832:../app/app.c  **** 		case STARTUP_INIT_STATE:
 833:../app/app.c  **** 			key_prohibit_setup(KEY_ONOFF_MASK, TRUE);		//ه±ڈè”½on/off
 3422              		.loc 1 833 4
 3423 0058 0121     		movs	r1, #1
 3424 005a 0120     		movs	r0, #1
 3425 005c FFF7FEFF 		bl	key_prohibit_setup
 834:../app/app.c  **** 			app_task_substep = STARTUP_ENTRY_STATE;
 3426              		.loc 1 834 21
 3427 0060 A64B     		ldr	r3, .L360
 3428 0062 0122     		movs	r2, #1
 3429 0064 1A70     		strb	r2, [r3]
 835:../app/app.c  **** 			if (FAIL == app_pallet_ready()){
 3430              		.loc 1 835 16
 3431 0066 FFF7FEFF 		bl	app_pallet_ready
 3432 006a 0346     		mov	r3, r0
 3433              		.loc 1 835 7
 3434 006c 002B     		cmp	r3, #0
 3435 006e 06D1     		bne	.L332
 836:../app/app.c  **** 				display_led(PALLET_ERR_LED, LED_ON);
 3436              		.loc 1 836 5
 3437 0070 0121     		movs	r1, #1
 3438 0072 0820     		movs	r0, #8
 3439 0074 FFF7FEFF 		bl	display_led
 837:../app/app.c  **** 				app_task_substep = STARTUP_FAIL_STATE;
 3440              		.loc 1 837 22
 3441 0078 A04B     		ldr	r3, .L360
 3442 007a 1022     		movs	r2, #16
 3443 007c 1A70     		strb	r2, [r3]
 3444              	.L332:
 838:../app/app.c  **** 			}
 839:../app/app.c  **** 			if (FAIL == app_water_ready()){
 3445              		.loc 1 839 16
 3446 007e FFF7FEFF 		bl	app_water_ready
 3447 0082 0346     		mov	r3, r0
 3448              		.loc 1 839 7
 3449 0084 002B     		cmp	r3, #0
 3450 0086 40F07181 		bne	.L357
 840:../app/app.c  **** 				display_led(WATER_ERR_LED, LED_ON);
 3451              		.loc 1 840 5
 3452 008a 0121     		movs	r1, #1
 3453 008c 0E20     		movs	r0, #14
 3454 008e FFF7FEFF 		bl	display_led
 841:../app/app.c  **** 				app_task_substep = STARTUP_FAIL_STATE;
 3455              		.loc 1 841 22
 3456 0092 9A4B     		ldr	r3, .L360
 3457 0094 1022     		movs	r2, #16
 3458 0096 1A70     		strb	r2, [r3]
 842:../app/app.c  **** 			}
 843:../app/app.c  **** 			break;
 3459              		.loc 1 843 4
 3460 0098 68E1     		b	.L357
 3461              	.L330:
 844:../app/app.c  **** 		/* وµپç¨‹ه¼€ه§‹ï¼ڑLEDوµپو°´çپ¯م€پç”µوœ؛هٹ¨ن½œم€په¼€هگ¯هٹ çƒ­ */	
 845:../app/app.c  **** 		case STARTUP_ENTRY_STATE:
 846:../app/app.c  **** 			app_led_show_init();
 3462              		.loc 1 846 4
 3463 009a FFF7FEFF 		bl	app_led_show_init
 847:../app/app.c  **** 			dc_motor_ClearFault();
 3464              		.loc 1 847 4
 3465 009e FFF7FEFF 		bl	dc_motor_ClearFault
 848:../app/app.c  **** 			dc_motor_Start(MOTOR_RIGHT);
 3466              		.loc 1 848 4
 3467 00a2 0120     		movs	r0, #1
 3468 00a4 FFF7FEFF 		bl	dc_motor_Start
 849:../app/app.c  **** 			app_turn_heat_on(TARGET_TEMP_107D);
 3469              		.loc 1 849 4
 3470 00a8 40F6BA00 		movw	r0, #2234
 3471 00ac FFF7FEFF 		bl	app_turn_heat_on
 850:../app/app.c  **** 			app_task_substep = STARTUP_RIGHT_RST_STATE;
 3472              		.loc 1 850 21
 3473 00b0 924B     		ldr	r3, .L360
 3474 00b2 0222     		movs	r2, #2
 3475 00b4 1A70     		strb	r2, [r3]
 851:../app/app.c  **** 			run_max_time = RIGHT_TIMER(Ms_2000, Ms_100);
 3476              		.loc 1 851 17
 3477 00b6 924B     		ldr	r3, .L360+4
 3478 00b8 1422     		movs	r2, #20
 3479 00ba 1A80     		strh	r2, [r3]	@ movhi
 852:../app/app.c  **** 			osal_lyh_delay_task(Ms_100);
 3480              		.loc 1 852 4
 3481 00bc 6420     		movs	r0, #100
 3482 00be FFF7FEFF 		bl	osal_lyh_delay_task
 853:../app/app.c  **** 			break;
 3483              		.loc 1 853 4
 3484 00c2 56E1     		b	.L334
 3485              	.L329:
 854:../app/app.c  **** 		/* هˆ¤و–­ç”µوœ؛وک¯هگ¦هˆ°è§¦ç‚¹ */	
 855:../app/app.c  **** 		case STARTUP_RIGHT_RST_STATE:
 856:../app/app.c  **** 			if ((MOTOR_STATE_STOPED == dc_motor_GetState())
 3486              		.loc 1 856 31
 3487 00c4 FFF7FEFF 		bl	dc_motor_GetState
 3488 00c8 0346     		mov	r3, r0
 3489              		.loc 1 856 7
 3490 00ca 002B     		cmp	r3, #0
 3491 00cc 0ED0     		beq	.L335
 857:../app/app.c  **** 				|| (TRUE == app_motor_ready())
 3492              		.loc 1 857 17
 3493 00ce FFF7FEFF 		bl	app_motor_ready
 3494 00d2 0346     		mov	r3, r0
 3495              		.loc 1 857 5
 3496 00d4 012B     		cmp	r3, #1
 3497 00d6 09D0     		beq	.L335
 858:../app/app.c  **** 				|| (--run_max_time == 0)){
 3498              		.loc 1 858 9
 3499 00d8 894B     		ldr	r3, .L360+4
 3500 00da 1B88     		ldrh	r3, [r3]
 3501 00dc 013B     		subs	r3, r3, #1
 3502 00de 9AB2     		uxth	r2, r3
 3503              		.loc 1 858 5
 3504 00e0 874B     		ldr	r3, .L360+4
 3505 00e2 1A80     		strh	r2, [r3]	@ movhi
 3506              		.loc 1 858 9
 3507 00e4 864B     		ldr	r3, .L360+4
 3508 00e6 1B88     		ldrh	r3, [r3]
 3509              		.loc 1 858 5
 3510 00e8 002B     		cmp	r3, #0
 3511 00ea 08D1     		bne	.L336
 3512              	.L335:
 859:../app/app.c  **** 				dc_motor_Stop();
 3513              		.loc 1 859 5
 3514 00ec FFF7FEFF 		bl	dc_motor_Stop
 860:../app/app.c  **** 				osal_lyh_delay_task(Ms_200);
 3515              		.loc 1 860 5
 3516 00f0 C820     		movs	r0, #200
 3517 00f2 FFF7FEFF 		bl	osal_lyh_delay_task
 861:../app/app.c  **** 				app_task_substep = STARTUP_LEFT_STATE;
 3518              		.loc 1 861 22
 3519 00f6 814B     		ldr	r3, .L360
 3520 00f8 0322     		movs	r2, #3
 3521 00fa 1A70     		strb	r2, [r3]
 862:../app/app.c  **** 			}
 863:../app/app.c  **** 			else {
 864:../app/app.c  **** 				osal_lyh_delay_task(Ms_100);
 865:../app/app.c  **** 			}
 866:../app/app.c  **** 			break;
 3522              		.loc 1 866 4
 3523 00fc 39E1     		b	.L334
 3524              	.L336:
 864:../app/app.c  **** 			}
 3525              		.loc 1 864 5
 3526 00fe 6420     		movs	r0, #100
 3527 0100 FFF7FEFF 		bl	osal_lyh_delay_task
 3528              		.loc 1 866 4
 3529 0104 35E1     		b	.L334
 3530              	.L328:
 867:../app/app.c  **** 		/* ç”µوœ؛ه›‍è½¬هˆ°هژںç‚¹ */	
 868:../app/app.c  **** 		case STARTUP_LEFT_STATE:
 869:../app/app.c  **** 			dc_motor_Start(MOTOR_LEFT);
 3531              		.loc 1 869 4
 3532 0106 0220     		movs	r0, #2
 3533 0108 FFF7FEFF 		bl	dc_motor_Start
 870:../app/app.c  **** 			osal_lyh_delay_task(Ms_100);
 3534              		.loc 1 870 4
 3535 010c 6420     		movs	r0, #100
 3536 010e FFF7FEFF 		bl	osal_lyh_delay_task
 871:../app/app.c  **** 			run_max_time = LEFT_TIMER(MOTOR_FIX_TIME, Ms_100);
 3537              		.loc 1 871 17
 3538 0112 7B4B     		ldr	r3, .L360+4
 3539 0114 0322     		movs	r2, #3
 3540 0116 1A80     		strh	r2, [r3]	@ movhi
 872:../app/app.c  **** 			app_task_substep = STARTUP_LEFT_RST_STATE;
 3541              		.loc 1 872 21
 3542 0118 784B     		ldr	r3, .L360
 3543 011a 0422     		movs	r2, #4
 3544 011c 1A70     		strb	r2, [r3]
 873:../app/app.c  **** 			break;
 3545              		.loc 1 873 4
 3546 011e 28E1     		b	.L334
 3547              	.L327:
 874:../app/app.c  **** 		/* هˆ¤و–­ç”µوœ؛وک¯هگ¦è½¬ه›‍هژںç‚¹ */	
 875:../app/app.c  **** 		case STARTUP_LEFT_RST_STATE:
 876:../app/app.c  **** 			if (1/*(FAIL == app_motor_ready())*/	// deleting point,(temp to cancel) 
 877:../app/app.c  **** 				&& ((MOTOR_STATE_STOPED == dc_motor_GetState())
 3548              		.loc 1 877 32
 3549 0120 FFF7FEFF 		bl	dc_motor_GetState
 3550 0124 0346     		mov	r3, r0
 876:../app/app.c  **** 				&& ((MOTOR_STATE_STOPED == dc_motor_GetState())
 3551              		.loc 1 876 7
 3552 0126 002B     		cmp	r3, #0
 3553 0128 09D0     		beq	.L338
 878:../app/app.c  **** 				|| (--run_max_time == 0))){
 3554              		.loc 1 878 9
 3555 012a 754B     		ldr	r3, .L360+4
 3556 012c 1B88     		ldrh	r3, [r3]
 3557 012e 013B     		subs	r3, r3, #1
 3558 0130 9AB2     		uxth	r2, r3
 877:../app/app.c  **** 				|| (--run_max_time == 0))){
 3559              		.loc 1 877 5
 3560 0132 734B     		ldr	r3, .L360+4
 3561 0134 1A80     		strh	r2, [r3]	@ movhi
 3562              		.loc 1 878 9
 3563 0136 724B     		ldr	r3, .L360+4
 3564 0138 1B88     		ldrh	r3, [r3]
 877:../app/app.c  **** 				|| (--run_max_time == 0))){
 3565              		.loc 1 877 5
 3566 013a 002B     		cmp	r3, #0
 3567 013c 08D1     		bne	.L339
 3568              	.L338:
 879:../app/app.c  **** 				dc_motor_Stop();
 3569              		.loc 1 879 5
 3570 013e FFF7FEFF 		bl	dc_motor_Stop
 880:../app/app.c  **** 				key_prohibit_setup(KEY_ONOFF_MASK, FAIL);
 3571              		.loc 1 880 5
 3572 0142 0021     		movs	r1, #0
 3573 0144 0120     		movs	r0, #1
 3574 0146 FFF7FEFF 		bl	key_prohibit_setup
 881:../app/app.c  **** 				app_task_substep = STARTUP_HEAT_RDY_STATE;
 3575              		.loc 1 881 22
 3576 014a 6C4B     		ldr	r3, .L360
 3577 014c 0522     		movs	r2, #5
 3578 014e 1A70     		strb	r2, [r3]
 3579              	.L339:
 882:../app/app.c  **** 			}
 883:../app/app.c  **** 			osal_lyh_delay_task(Ms_100);
 3580              		.loc 1 883 4
 3581 0150 6420     		movs	r0, #100
 3582 0152 FFF7FEFF 		bl	osal_lyh_delay_task
 884:../app/app.c  **** 			break;
 3583              		.loc 1 884 4
 3584 0156 0CE1     		b	.L334
 3585              	.L326:
 885:../app/app.c  **** 		/* هˆ¤و–­و¸©ه؛¦وک¯هگ¦هˆ°è¾¾ */	
 886:../app/app.c  **** 		case STARTUP_HEAT_RDY_STATE:
 887:../app/app.c  **** 			if (TRUE == app_temperature_state(TARGET_TEMP_107D)){
 3586              		.loc 1 887 16
 3587 0158 40F6BA00 		movw	r0, #2234
 3588 015c FFF7FEFF 		bl	app_temperature_state
 3589 0160 0346     		mov	r3, r0
 3590              		.loc 1 887 7
 3591 0162 012B     		cmp	r3, #1
 3592 0164 03D1     		bne	.L340
 888:../app/app.c  **** 				app_task_substep = STARTUP_COMPLETE_STATE;
 3593              		.loc 1 888 22
 3594 0166 654B     		ldr	r3, .L360
 3595 0168 0F22     		movs	r2, #15
 3596 016a 1A70     		strb	r2, [r3]
 3597 016c 05E0     		b	.L341
 3598              	.L340:
 889:../app/app.c  **** 			}
 890:../app/app.c  **** 			else {
 891:../app/app.c  **** 				run_max_time = HEAT_MAX_TIMER(Ms_100);
 3599              		.loc 1 891 18
 3600 016e 644B     		ldr	r3, .L360+4
 3601 0170 C822     		movs	r2, #200
 3602 0172 1A80     		strh	r2, [r3]	@ movhi
 892:../app/app.c  **** 				app_task_substep = STARTUP_HEAT_ING_STATE;
 3603              		.loc 1 892 22
 3604 0174 614B     		ldr	r3, .L360
 3605 0176 0622     		movs	r2, #6
 3606 0178 1A70     		strb	r2, [r3]
 3607              	.L341:
 893:../app/app.c  **** 			}
 894:../app/app.c  **** 			osal_lyh_delay_task(Ms_100);
 3608              		.loc 1 894 4
 3609 017a 6420     		movs	r0, #100
 3610 017c FFF7FEFF 		bl	osal_lyh_delay_task
 895:../app/app.c  **** 			break;	
 3611              		.loc 1 895 4
 3612 0180 F7E0     		b	.L334
 3613              	.L325:
 896:../app/app.c  **** 		case STARTUP_HEAT_ING_STATE:
 897:../app/app.c  **** 			if ((TRUE == app_temperature_state(TARGET_TEMP_107D))
 3614              		.loc 1 897 17
 3615 0182 40F6BA00 		movw	r0, #2234
 3616 0186 FFF7FEFF 		bl	app_temperature_state
 3617 018a 0346     		mov	r3, r0
 3618              		.loc 1 897 7
 3619 018c 012B     		cmp	r3, #1
 3620 018e 09D0     		beq	.L342
 898:../app/app.c  **** 				|| (--run_max_time == 0)){
 3621              		.loc 1 898 9
 3622 0190 5B4B     		ldr	r3, .L360+4
 3623 0192 1B88     		ldrh	r3, [r3]
 3624 0194 013B     		subs	r3, r3, #1
 3625 0196 9AB2     		uxth	r2, r3
 3626              		.loc 1 898 5
 3627 0198 594B     		ldr	r3, .L360+4
 3628 019a 1A80     		strh	r2, [r3]	@ movhi
 3629              		.loc 1 898 9
 3630 019c 584B     		ldr	r3, .L360+4
 3631 019e 1B88     		ldrh	r3, [r3]
 3632              		.loc 1 898 5
 3633 01a0 002B     		cmp	r3, #0
 3634 01a2 06D1     		bne	.L343
 3635              	.L342:
 899:../app/app.c  **** 				display_led(START_LED, LED_ON);
 3636              		.loc 1 899 5
 3637 01a4 0121     		movs	r1, #1
 3638 01a6 0520     		movs	r0, #5
 3639 01a8 FFF7FEFF 		bl	display_led
 900:../app/app.c  **** 				app_task_substep = STARTUP_HEAT_END_STATE;
 3640              		.loc 1 900 22
 3641 01ac 534B     		ldr	r3, .L360
 3642 01ae 0722     		movs	r2, #7
 3643 01b0 1A70     		strb	r2, [r3]
 3644              	.L343:
 901:../app/app.c  **** 			}
 902:../app/app.c  **** 			osal_lyh_delay_task(Ms_100);
 3645              		.loc 1 902 4
 3646 01b2 6420     		movs	r0, #100
 3647 01b4 FFF7FEFF 		bl	osal_lyh_delay_task
 903:../app/app.c  **** 			break;
 3648              		.loc 1 903 4
 3649 01b8 DBE0     		b	.L334
 3650              	.L324:
 904:../app/app.c  **** 		/* ç”µوœ؛è½¬هگ‘èگƒهڈ–ن½چç½® */	
 905:../app/app.c  **** 		case STARTUP_HEAT_END_STATE:
 906:../app/app.c  **** 			dc_motor_Start(MOTOR_LEFT);
 3651              		.loc 1 906 4
 3652 01ba 0220     		movs	r0, #2
 3653 01bc FFF7FEFF 		bl	dc_motor_Start
 907:../app/app.c  **** 			osal_lyh_delay_task(Ms_100);
 3654              		.loc 1 907 4
 3655 01c0 6420     		movs	r0, #100
 3656 01c2 FFF7FEFF 		bl	osal_lyh_delay_task
 908:../app/app.c  **** 			run_max_time = LEFT_TIMER(Ms_6000, Ms_100);
 3657              		.loc 1 908 17
 3658 01c6 4E4B     		ldr	r3, .L360+4
 3659 01c8 3C22     		movs	r2, #60
 3660 01ca 1A80     		strh	r2, [r3]	@ movhi
 909:../app/app.c  **** 			app_task_substep = STARTUP_LEFT_MOVE_STATE;
 3661              		.loc 1 909 21
 3662 01cc 4B4B     		ldr	r3, .L360
 3663 01ce 0822     		movs	r2, #8
 3664 01d0 1A70     		strb	r2, [r3]
 910:../app/app.c  **** 			break;
 3665              		.loc 1 910 4
 3666 01d2 CEE0     		b	.L334
 3667              	.L323:
 911:../app/app.c  **** 		/* هˆ¤و–­ç”µوœ؛وک¯هگ¦هˆ°è¾¾èگƒهڈ–ن½چç½® */	
 912:../app/app.c  **** 		case STARTUP_LEFT_MOVE_STATE:
 913:../app/app.c  **** 			if ((MOTOR_STATE_STOPED == dc_motor_GetState())
 3668              		.loc 1 913 31
 3669 01d4 FFF7FEFF 		bl	dc_motor_GetState
 3670 01d8 0346     		mov	r3, r0
 3671              		.loc 1 913 7
 3672 01da 002B     		cmp	r3, #0
 3673 01dc 0ED0     		beq	.L344
 914:../app/app.c  **** 				|| (TRUE == app_motor_ready())
 3674              		.loc 1 914 17
 3675 01de FFF7FEFF 		bl	app_motor_ready
 3676 01e2 0346     		mov	r3, r0
 3677              		.loc 1 914 5
 3678 01e4 012B     		cmp	r3, #1
 3679 01e6 09D0     		beq	.L344
 915:../app/app.c  **** 				|| (--run_max_time == 0)){
 3680              		.loc 1 915 9
 3681 01e8 454B     		ldr	r3, .L360+4
 3682 01ea 1B88     		ldrh	r3, [r3]
 3683 01ec 013B     		subs	r3, r3, #1
 3684 01ee 9AB2     		uxth	r2, r3
 3685              		.loc 1 915 5
 3686 01f0 434B     		ldr	r3, .L360+4
 3687 01f2 1A80     		strh	r2, [r3]	@ movhi
 3688              		.loc 1 915 9
 3689 01f4 424B     		ldr	r3, .L360+4
 3690 01f6 1B88     		ldrh	r3, [r3]
 3691              		.loc 1 915 5
 3692 01f8 002B     		cmp	r3, #0
 3693 01fa 04D1     		bne	.L345
 3694              	.L344:
 916:../app/app.c  **** 				dc_motor_Stop();
 3695              		.loc 1 916 5
 3696 01fc FFF7FEFF 		bl	dc_motor_Stop
 917:../app/app.c  **** 				app_task_substep = STARTUP_WATER_RDY_STATE;
 3697              		.loc 1 917 22
 3698 0200 3E4B     		ldr	r3, .L360
 3699 0202 0922     		movs	r2, #9
 3700 0204 1A70     		strb	r2, [r3]
 3701              	.L345:
 918:../app/app.c  **** 			}
 919:../app/app.c  **** 			osal_lyh_delay_task(Ms_100);
 3702              		.loc 1 919 4
 3703 0206 6420     		movs	r0, #100
 3704 0208 FFF7FEFF 		bl	osal_lyh_delay_task
 920:../app/app.c  **** 			break;
 3705              		.loc 1 920 4
 3706 020c B1E0     		b	.L334
 3707              	.L322:
 921:../app/app.c  **** 		/* وٹ½و°´ه†²و´— */	
 922:../app/app.c  **** 		case STARTUP_WATER_RDY_STATE:
 923:../app/app.c  **** 			ac_pumb_start(CONTINUE_MODE);
 3708              		.loc 1 923 4
 3709 020e 0020     		movs	r0, #0
 3710 0210 FFF7FEFF 		bl	ac_pumb_start
 924:../app/app.c  **** 			run_max_time = WATER_MAX_TIMER(Ms_100);
 3711              		.loc 1 924 17
 3712 0214 3A4B     		ldr	r3, .L360+4
 3713 0216 6422     		movs	r2, #100
 3714 0218 1A80     		strh	r2, [r3]	@ movhi
 925:../app/app.c  **** 			app_task_substep = STARTUP_WATER_ING_STATE;
 3715              		.loc 1 925 21
 3716 021a 384B     		ldr	r3, .L360
 3717 021c 0A22     		movs	r2, #10
 3718 021e 1A70     		strb	r2, [r3]
 926:../app/app.c  **** 			break;	
 3719              		.loc 1 926 4
 3720 0220 A7E0     		b	.L334
 3721              	.L321:
 927:../app/app.c  **** 		case STARTUP_WATER_ING_STATE:
 928:../app/app.c  **** 			if (--run_max_time == 0){
 3722              		.loc 1 928 8
 3723 0222 374B     		ldr	r3, .L360+4
 3724 0224 1B88     		ldrh	r3, [r3]
 3725 0226 013B     		subs	r3, r3, #1
 3726 0228 9AB2     		uxth	r2, r3
 3727              		.loc 1 928 7
 3728 022a 354B     		ldr	r3, .L360+4
 3729 022c 1A80     		strh	r2, [r3]	@ movhi
 3730              		.loc 1 928 8
 3731 022e 344B     		ldr	r3, .L360+4
 3732 0230 1B88     		ldrh	r3, [r3]
 3733              		.loc 1 928 7
 3734 0232 002B     		cmp	r3, #0
 3735 0234 09D1     		bne	.L346
 929:../app/app.c  **** 				ac_pumb_stop();
 3736              		.loc 1 929 5
 3737 0236 FFF7FEFF 		bl	ac_pumb_stop
 930:../app/app.c  **** 				osal_lyh_delay_task(Ms_6000);
 3738              		.loc 1 930 5
 3739 023a 41F27070 		movw	r0, #6000
 3740 023e FFF7FEFF 		bl	osal_lyh_delay_task
 931:../app/app.c  **** 				app_task_substep = STARTUP_WATER_END_STATE;
 3741              		.loc 1 931 22
 3742 0242 2E4B     		ldr	r3, .L360
 3743 0244 0B22     		movs	r2, #11
 3744 0246 1A70     		strb	r2, [r3]
 932:../app/app.c  **** 			}
 933:../app/app.c  **** 			else {
 934:../app/app.c  **** 				osal_lyh_delay_task(Ms_100);
 935:../app/app.c  **** 			}
 936:../app/app.c  **** 			break;
 3745              		.loc 1 936 4
 3746 0248 93E0     		b	.L334
 3747              	.L346:
 934:../app/app.c  **** 			}
 3748              		.loc 1 934 5
 3749 024a 6420     		movs	r0, #100
 3750 024c FFF7FEFF 		bl	osal_lyh_delay_task
 3751              		.loc 1 936 4
 3752 0250 8FE0     		b	.L334
 3753              	.L320:
 937:../app/app.c  **** 		/* ç”µوœ؛è½¬ه›‍هژںن½چ */	
 938:../app/app.c  **** 		case STARTUP_WATER_END_STATE:
 939:../app/app.c  **** 			osal_lyh_delay_task(Ms_1500);	// wait motor to move the detecting point
 3754              		.loc 1 939 4
 3755 0252 40F2DC50 		movw	r0, #1500
 3756 0256 FFF7FEFF 		bl	osal_lyh_delay_task
 940:../app/app.c  **** 			dc_motor_Start(MOTOR_RIGHT);
 3757              		.loc 1 940 4
 3758 025a 0120     		movs	r0, #1
 3759 025c FFF7FEFF 		bl	dc_motor_Start
 941:../app/app.c  **** 			run_max_time = RIGHT_TIMER(Ms_6000, Ms_100);
 3760              		.loc 1 941 17
 3761 0260 274B     		ldr	r3, .L360+4
 3762 0262 3C22     		movs	r2, #60
 3763 0264 1A80     		strh	r2, [r3]	@ movhi
 942:../app/app.c  **** 			app_task_substep = STARTUP_RIGHT_MOVE_STATE;
 3764              		.loc 1 942 21
 3765 0266 254B     		ldr	r3, .L360
 3766 0268 0C22     		movs	r2, #12
 3767 026a 1A70     		strb	r2, [r3]
 943:../app/app.c  **** 			break;
 3768              		.loc 1 943 4
 3769 026c 81E0     		b	.L334
 3770              	.L319:
 944:../app/app.c  **** 		/* هˆ¤و–­ç”µوœ؛وک¯هگ¦è§¦ç¢°è§¦ç‚¹ */	
 945:../app/app.c  **** 		case STARTUP_RIGHT_MOVE_STATE:
 946:../app/app.c  **** 			if ((MOTOR_STATE_STOPED ==dc_motor_GetState())
 3771              		.loc 1 946 30
 3772 026e FFF7FEFF 		bl	dc_motor_GetState
 3773 0272 0346     		mov	r3, r0
 3774              		.loc 1 946 7
 3775 0274 002B     		cmp	r3, #0
 3776 0276 0ED0     		beq	.L348
 947:../app/app.c  **** 				|| (TRUE == app_motor_ready())
 3777              		.loc 1 947 17
 3778 0278 FFF7FEFF 		bl	app_motor_ready
 3779 027c 0346     		mov	r3, r0
 3780              		.loc 1 947 5
 3781 027e 012B     		cmp	r3, #1
 3782 0280 09D0     		beq	.L348
 948:../app/app.c  **** 				|| (--run_max_time == 0)){
 3783              		.loc 1 948 9
 3784 0282 1F4B     		ldr	r3, .L360+4
 3785 0284 1B88     		ldrh	r3, [r3]
 3786 0286 013B     		subs	r3, r3, #1
 3787 0288 9AB2     		uxth	r2, r3
 3788              		.loc 1 948 5
 3789 028a 1D4B     		ldr	r3, .L360+4
 3790 028c 1A80     		strh	r2, [r3]	@ movhi
 3791              		.loc 1 948 9
 3792 028e 1C4B     		ldr	r3, .L360+4
 3793 0290 1B88     		ldrh	r3, [r3]
 3794              		.loc 1 948 5
 3795 0292 002B     		cmp	r3, #0
 3796 0294 08D1     		bne	.L349
 3797              	.L348:
 949:../app/app.c  **** 				dc_motor_Stop();
 3798              		.loc 1 949 5
 3799 0296 FFF7FEFF 		bl	dc_motor_Stop
 950:../app/app.c  **** 				osal_lyh_delay_task(Ms_200);
 3800              		.loc 1 950 5
 3801 029a C820     		movs	r0, #200
 3802 029c FFF7FEFF 		bl	osal_lyh_delay_task
 951:../app/app.c  **** 				app_task_substep = STARTUP_LEFT_START_STATE;
 3803              		.loc 1 951 22
 3804 02a0 164B     		ldr	r3, .L360
 3805 02a2 0D22     		movs	r2, #13
 3806 02a4 1A70     		strb	r2, [r3]
 952:../app/app.c  **** 			}
 953:../app/app.c  **** 			else {
 954:../app/app.c  **** 				osal_lyh_delay_task(Ms_100);
 955:../app/app.c  **** 			}
 956:../app/app.c  **** 			break;
 3807              		.loc 1 956 4
 3808 02a6 64E0     		b	.L334
 3809              	.L349:
 954:../app/app.c  **** 			}
 3810              		.loc 1 954 5
 3811 02a8 6420     		movs	r0, #100
 3812 02aa FFF7FEFF 		bl	osal_lyh_delay_task
 3813              		.loc 1 956 4
 3814 02ae 60E0     		b	.L334
 3815              	.L318:
 957:../app/app.c  **** 		/* ç”µوœ؛ه›‍è½¬ */	
 958:../app/app.c  **** 		case STARTUP_LEFT_START_STATE:
 959:../app/app.c  **** 			display_led(START_LED, LED_OFF);
 3816              		.loc 1 959 4
 3817 02b0 0021     		movs	r1, #0
 3818 02b2 0520     		movs	r0, #5
 3819 02b4 FFF7FEFF 		bl	display_led
 960:../app/app.c  **** 			dc_motor_Start(MOTOR_LEFT);
 3820              		.loc 1 960 4
 3821 02b8 0220     		movs	r0, #2
 3822 02ba FFF7FEFF 		bl	dc_motor_Start
 961:../app/app.c  **** 			run_max_time = LEFT_TIMER(MOTOR_FIX_TIME, Ms_100);
 3823              		.loc 1 961 17
 3824 02be 104B     		ldr	r3, .L360+4
 3825 02c0 0322     		movs	r2, #3
 3826 02c2 1A80     		strh	r2, [r3]	@ movhi
 962:../app/app.c  **** 			app_task_substep = STARTUP_LEFT_END_STATE;
 3827              		.loc 1 962 21
 3828 02c4 0D4B     		ldr	r3, .L360
 3829 02c6 0E22     		movs	r2, #14
 3830 02c8 1A70     		strb	r2, [r3]
 963:../app/app.c  **** 			break;
 3831              		.loc 1 963 4
 3832 02ca 52E0     		b	.L334
 3833              	.L317:
 964:../app/app.c  **** 		/* هˆ¤و–­ç”µوœ؛وک¯هگ¦ه›‍è½¬ه®Œوˆگ */	
 965:../app/app.c  **** 		case STARTUP_LEFT_END_STATE:
 966:../app/app.c  **** 			if (1/*(FAIL == app_motor_ready())*/	// deleting point,(temp to cancel)
 967:../app/app.c  **** 				&& ((MOTOR_STATE_STOPED ==dc_motor_GetState())
 3834              		.loc 1 967 31
 3835 02cc FFF7FEFF 		bl	dc_motor_GetState
 3836 02d0 0346     		mov	r3, r0
 966:../app/app.c  **** 				&& ((MOTOR_STATE_STOPED ==dc_motor_GetState())
 3837              		.loc 1 966 7
 3838 02d2 002B     		cmp	r3, #0
 3839 02d4 09D0     		beq	.L351
 968:../app/app.c  **** 				|| (--run_max_time == 0))){
 3840              		.loc 1 968 9
 3841 02d6 0A4B     		ldr	r3, .L360+4
 3842 02d8 1B88     		ldrh	r3, [r3]
 3843 02da 013B     		subs	r3, r3, #1
 3844 02dc 9AB2     		uxth	r2, r3
 967:../app/app.c  **** 				|| (--run_max_time == 0))){
 3845              		.loc 1 967 5
 3846 02de 084B     		ldr	r3, .L360+4
 3847 02e0 1A80     		strh	r2, [r3]	@ movhi
 3848              		.loc 1 968 9
 3849 02e2 074B     		ldr	r3, .L360+4
 3850 02e4 1B88     		ldrh	r3, [r3]
 967:../app/app.c  **** 				|| (--run_max_time == 0))){
 3851              		.loc 1 967 5
 3852 02e6 002B     		cmp	r3, #0
 3853 02e8 04D1     		bne	.L352
 3854              	.L351:
 969:../app/app.c  **** 				dc_motor_Stop();
 3855              		.loc 1 969 5
 3856 02ea FFF7FEFF 		bl	dc_motor_Stop
 970:../app/app.c  **** 				app_task_substep = STARTUP_COMPLETE_STATE;
 3857              		.loc 1 970 22
 3858 02ee 034B     		ldr	r3, .L360
 3859 02f0 0F22     		movs	r2, #15
 3860 02f2 1A70     		strb	r2, [r3]
 3861              	.L352:
 971:../app/app.c  **** 			}
 972:../app/app.c  **** 			osal_lyh_delay_task(Ms_100);
 3862              		.loc 1 972 4
 3863 02f4 6420     		movs	r0, #100
 3864 02f6 FFF7FEFF 		bl	osal_lyh_delay_task
 973:../app/app.c  **** 			break;
 3865              		.loc 1 973 4
 3866 02fa 3AE0     		b	.L334
 3867              	.L361:
 3868              		.align	2
 3869              	.L360:
 3870 02fc 00000000 		.word	app_task_substep
 3871 0300 00000000 		.word	run_max_time
 3872              	.L316:
 974:../app/app.c  **** 		/* هگ¯هٹ¨ه®Œوˆگ */	
 975:../app/app.c  **** 		case STARTUP_COMPLETE_STATE:
 976:../app/app.c  **** 			key_prohibit_setup(KEY_ONOFF_MASK, FAIL);
 3873              		.loc 1 976 4
 3874 0304 0021     		movs	r1, #0
 3875 0306 0120     		movs	r0, #1
 3876 0308 FFF7FEFF 		bl	key_prohibit_setup
 977:../app/app.c  **** 			app_turn_heat_off();
 3877              		.loc 1 977 4
 3878 030c FFF7FEFF 		bl	app_turn_heat_off
 978:../app/app.c  **** 			if (TRUE == app_led_oneloop()){
 3879              		.loc 1 978 16
 3880 0310 FFF7FEFF 		bl	app_led_oneloop
 3881 0314 0346     		mov	r3, r0
 3882              		.loc 1 978 7
 3883 0316 012B     		cmp	r3, #1
 3884 0318 2AD1     		bne	.L358
 979:../app/app.c  **** 				app_leds_all_fun(LED_ON);
 3885              		.loc 1 979 5
 3886 031a 0120     		movs	r0, #1
 3887 031c FFF7FEFF 		bl	app_leds_all_fun
 980:../app/app.c  **** 				osal_lyh_kill_over_timer(OS_LED_TIME);
 3888              		.loc 1 980 5
 3889 0320 0220     		movs	r0, #2
 3890 0322 FFF7FEFF 		bl	osal_lyh_kill_over_timer
 981:../app/app.c  **** 				app_task_nextstep(APP_NORMAL_STATE, NORMAL_INIT_STATE);
 3891              		.loc 1 981 5
 3892 0326 0021     		movs	r1, #0
 3893 0328 0320     		movs	r0, #3
 3894 032a FFF7FEFF 		bl	app_task_nextstep
 982:../app/app.c  **** 			}
 983:../app/app.c  **** 			break;
 3895              		.loc 1 983 4
 3896 032e 1FE0     		b	.L358
 3897              	.L314:
 984:../app/app.c  **** 		case STARTUP_FAIL_STATE:
 985:../app/app.c  **** 			if (TRUE == app_pallet_ready()){
 3898              		.loc 1 985 16
 3899 0330 FFF7FEFF 		bl	app_pallet_ready
 3900 0334 0346     		mov	r3, r0
 3901              		.loc 1 985 7
 3902 0336 012B     		cmp	r3, #1
 3903 0338 06D1     		bne	.L354
 986:../app/app.c  **** 				display_led(PALLET_ERR_LED, LED_OFF);
 3904              		.loc 1 986 5
 3905 033a 0021     		movs	r1, #0
 3906 033c 0820     		movs	r0, #8
 3907 033e FFF7FEFF 		bl	display_led
 987:../app/app.c  **** 				app_task_substep = STARTUP_INIT_STATE;
 3908              		.loc 1 987 22
 3909 0342 0D4B     		ldr	r3, .L362
 3910 0344 0022     		movs	r2, #0
 3911 0346 1A70     		strb	r2, [r3]
 3912              	.L354:
 988:../app/app.c  **** 			}
 989:../app/app.c  **** 			if (TRUE == app_water_ready()){
 3913              		.loc 1 989 16
 3914 0348 FFF7FEFF 		bl	app_water_ready
 3915 034c 0346     		mov	r3, r0
 3916              		.loc 1 989 7
 3917 034e 012B     		cmp	r3, #1
 3918 0350 06D1     		bne	.L355
 990:../app/app.c  **** 				display_led(WATER_ERR_LED, LED_OFF);
 3919              		.loc 1 990 5
 3920 0352 0021     		movs	r1, #0
 3921 0354 0E20     		movs	r0, #14
 3922 0356 FFF7FEFF 		bl	display_led
 991:../app/app.c  **** 				app_task_substep = STARTUP_INIT_STATE;
 3923              		.loc 1 991 22
 3924 035a 074B     		ldr	r3, .L362
 3925 035c 0022     		movs	r2, #0
 3926 035e 1A70     		strb	r2, [r3]
 3927              	.L355:
 992:../app/app.c  **** 			}
 993:../app/app.c  **** 			osal_lyh_delay_task(Ms_50);
 3928              		.loc 1 993 4
 3929 0360 3220     		movs	r0, #50
 3930 0362 FFF7FEFF 		bl	osal_lyh_delay_task
 994:../app/app.c  **** 			break;
 3931              		.loc 1 994 4
 3932 0366 04E0     		b	.L334
 3933              	.L356:
 995:../app/app.c  **** 		default:
 996:../app/app.c  **** 			break;
 3934              		.loc 1 996 4
 3935 0368 00BF     		nop
 3936 036a 02E0     		b	.L359
 3937              	.L357:
 843:../app/app.c  **** 		/* وµپç¨‹ه¼€ه§‹ï¼ڑLEDوµپو°´çپ¯م€پç”µوœ؛هٹ¨ن½œم€په¼€هگ¯هٹ çƒ­ */	
 3938              		.loc 1 843 4
 3939 036c 00BF     		nop
 3940 036e 00E0     		b	.L359
 3941              	.L358:
 983:../app/app.c  **** 		case STARTUP_FAIL_STATE:
 3942              		.loc 1 983 4
 3943 0370 00BF     		nop
 3944              	.L334:
 3945              	.L359:
 997:../app/app.c  **** 	}
 998:../app/app.c  **** }
 3946              		.loc 1 998 1
 3947 0372 00BF     		nop
 3948 0374 80BD     		pop	{r7, pc}
 3949              	.L363:
 3950 0376 00BF     		.align	2
 3951              	.L362:
 3952 0378 00000000 		.word	app_task_substep
 3953              		.cfi_endproc
 3954              	.LFE167:
 3956              		.section	.text.app_normal_handler,"ax",%progbits
 3957              		.align	1
 3958              		.global	app_normal_handler
 3959              		.syntax unified
 3960              		.thumb
 3961              		.thumb_func
 3962              		.fpu softvfp
 3964              	app_normal_handler:
 3965              	.LFB168:
 999:../app/app.c  **** 
1000:../app/app.c  **** /************************************************************************
1001:../app/app.c  **** * function name: app_normal_handler
1002:../app/app.c  **** * input: non
1003:../app/app.c  **** * output: non
1004:../app/app.c  **** * description: object thread
1005:../app/app.c  **** *************************************************************************/
1006:../app/app.c  **** void app_normal_handler(void)
1007:../app/app.c  **** {
 3966              		.loc 1 1007 1
 3967              		.cfi_startproc
 3968              		@ args = 0, pretend = 0, frame = 0
 3969              		@ frame_needed = 1, uses_anonymous_args = 0
 3970 0000 80B5     		push	{r7, lr}
 3971              		.cfi_def_cfa_offset 8
 3972              		.cfi_offset 7, -8
 3973              		.cfi_offset 14, -4
 3974 0002 00AF     		add	r7, sp, #0
 3975              		.cfi_def_cfa_register 7
1008:../app/app.c  **** 	switch(app_task_substep)
 3976              		.loc 1 1008 2
 3977 0004 694B     		ldr	r3, .L382
 3978 0006 1B78     		ldrb	r3, [r3]	@ zero_extendqisi2
 3979 0008 0C2B     		cmp	r3, #12
 3980 000a 00F2CC80 		bhi	.L381
 3981 000e 01A2     		adr	r2, .L367
 3982 0010 52F823F0 		ldr	pc, [r2, r3, lsl #2]
 3983              		.p2align 2
 3984              	.L367:
 3985 0014 49000000 		.word	.L379+1
 3986 0018 51000000 		.word	.L378+1
 3987 001c 8B000000 		.word	.L377+1
 3988 0020 93000000 		.word	.L376+1
 3989 0024 CD000000 		.word	.L375+1
 3990 0028 D5000000 		.word	.L374+1
 3991 002c 1D010000 		.word	.L373+1
 3992 0030 25010000 		.word	.L372+1
 3993 0034 4F010000 		.word	.L371+1
 3994 0038 57010000 		.word	.L370+1
 3995 003c 77010000 		.word	.L369+1
 3996 0040 7F010000 		.word	.L368+1
 3997 0044 9F010000 		.word	.L366+1
 3998              		.p2align 1
 3999              	.L379:
1009:../app/app.c  **** 	{
1010:../app/app.c  **** 		case NORMAL_INIT_STATE:
1011:../app/app.c  **** 			osal_lyh_delay_task(Ms_10);
 4000              		.loc 1 1011 4
 4001 0048 0A20     		movs	r0, #10
 4002 004a FFF7FEFF 		bl	osal_lyh_delay_task
1012:../app/app.c  **** 			break;
 4003              		.loc 1 1012 4
 4004 004e ABE0     		b	.L380
 4005              	.L378:
1013:../app/app.c  **** 		case NORMAL_ESPRESSO_INIT_STATE:
1014:../app/app.c  **** 			memset((uint8_t *)&manual_setup, 0, sizeof(st_opDef));
 4006              		.loc 1 1014 4
 4007 0050 0322     		movs	r2, #3
 4008 0052 0021     		movs	r1, #0
 4009 0054 5648     		ldr	r0, .L382+4
 4010 0056 FFF7FEFF 		bl	memset
1015:../app/app.c  **** 			app_led_start_init();
 4011              		.loc 1 1015 4
 4012 005a FFF7FEFF 		bl	app_led_start_init
1016:../app/app.c  **** 			app_leds_all_fun(LED_OFF);
 4013              		.loc 1 1016 4
 4014 005e 0020     		movs	r0, #0
 4015 0060 FFF7FEFF 		bl	app_leds_all_fun
1017:../app/app.c  **** 			app_leds_all_ind(LED_OFF);
 4016              		.loc 1 1017 4
 4017 0064 0020     		movs	r0, #0
 4018 0066 FFF7FEFF 		bl	app_leds_all_ind
1018:../app/app.c  **** 			display_led(ESPRESSO1_LED, LED_ON);
 4019              		.loc 1 1018 4
 4020 006a 0121     		movs	r1, #1
 4021 006c 0C20     		movs	r0, #12
 4022 006e FFF7FEFF 		bl	display_led
1019:../app/app.c  **** 			display_led(COFFEE2_LED, LED_ON);
 4023              		.loc 1 1019 4
 4024 0072 0121     		movs	r1, #1
 4025 0074 0A20     		movs	r0, #10
 4026 0076 FFF7FEFF 		bl	display_led
1020:../app/app.c  **** 			display_led(WATER1_LED, LED_ON);
 4027              		.loc 1 1020 4
 4028 007a 0121     		movs	r1, #1
 4029 007c 0420     		movs	r0, #4
 4030 007e FFF7FEFF 		bl	display_led
1021:../app/app.c  **** 			app_task_substep = NORMAL_ESPRESSO_RUN_STATE;
 4031              		.loc 1 1021 21
 4032 0082 4A4B     		ldr	r3, .L382
 4033 0084 0222     		movs	r2, #2
 4034 0086 1A70     		strb	r2, [r3]
1022:../app/app.c  **** 			break;
 4035              		.loc 1 1022 4
 4036 0088 8EE0     		b	.L380
 4037              	.L377:
1023:../app/app.c  **** 		case NORMAL_ESPRESSO_RUN_STATE:
1024:../app/app.c  **** 			osal_lyh_delay_task(Ms_10);
 4038              		.loc 1 1024 4
 4039 008a 0A20     		movs	r0, #10
 4040 008c FFF7FEFF 		bl	osal_lyh_delay_task
1025:../app/app.c  **** 			break;
 4041              		.loc 1 1025 4
 4042 0090 8AE0     		b	.L380
 4043              	.L376:
1026:../app/app.c  **** 		case NORMAL_AMERICANO_INIT_STATE:
1027:../app/app.c  **** 			memset((uint8_t *)&manual_setup, 0, sizeof(st_opDef));
 4044              		.loc 1 1027 4
 4045 0092 0322     		movs	r2, #3
 4046 0094 0021     		movs	r1, #0
 4047 0096 4648     		ldr	r0, .L382+4
 4048 0098 FFF7FEFF 		bl	memset
1028:../app/app.c  **** 			app_led_start_init();
 4049              		.loc 1 1028 4
 4050 009c FFF7FEFF 		bl	app_led_start_init
1029:../app/app.c  **** 			app_leds_all_fun(LED_OFF);
 4051              		.loc 1 1029 4
 4052 00a0 0020     		movs	r0, #0
 4053 00a2 FFF7FEFF 		bl	app_leds_all_fun
1030:../app/app.c  **** 			app_leds_all_ind(LED_OFF);
 4054              		.loc 1 1030 4
 4055 00a6 0020     		movs	r0, #0
 4056 00a8 FFF7FEFF 		bl	app_leds_all_ind
1031:../app/app.c  **** 			display_led(AMERICANO1_LED, LED_ON);
 4057              		.loc 1 1031 4
 4058 00ac 0121     		movs	r1, #1
 4059 00ae 0F20     		movs	r0, #15
 4060 00b0 FFF7FEFF 		bl	display_led
1032:../app/app.c  **** 			display_led(COFFEE2_LED, LED_ON);
 4061              		.loc 1 1032 4
 4062 00b4 0121     		movs	r1, #1
 4063 00b6 0A20     		movs	r0, #10
 4064 00b8 FFF7FEFF 		bl	display_led
1033:../app/app.c  **** 			display_led(WATER1_LED, LED_ON);
 4065              		.loc 1 1033 4
 4066 00bc 0121     		movs	r1, #1
 4067 00be 0420     		movs	r0, #4
 4068 00c0 FFF7FEFF 		bl	display_led
1034:../app/app.c  **** 			app_task_substep = NORMAL_AMERICANO_RUN_STATE;
 4069              		.loc 1 1034 21
 4070 00c4 394B     		ldr	r3, .L382
 4071 00c6 0422     		movs	r2, #4
 4072 00c8 1A70     		strb	r2, [r3]
1035:../app/app.c  **** 			break;
 4073              		.loc 1 1035 4
 4074 00ca 6DE0     		b	.L380
 4075              	.L375:
1036:../app/app.c  **** 		case NORMAL_AMERICANO_RUN_STATE:
1037:../app/app.c  **** 			osal_lyh_delay_task(Ms_10);
 4076              		.loc 1 1037 4
 4077 00cc 0A20     		movs	r0, #10
 4078 00ce FFF7FEFF 		bl	osal_lyh_delay_task
1038:../app/app.c  **** 			break;
 4079              		.loc 1 1038 4
 4080 00d2 69E0     		b	.L380
 4081              	.L374:
1039:../app/app.c  **** 		case NORMAL_HOTWATER_INIT_STATE:
1040:../app/app.c  **** 			memset((uint8_t *)&manual_setup, 0, sizeof(st_opDef));
 4082              		.loc 1 1040 4
 4083 00d4 0322     		movs	r2, #3
 4084 00d6 0021     		movs	r1, #0
 4085 00d8 3548     		ldr	r0, .L382+4
 4086 00da FFF7FEFF 		bl	memset
1041:../app/app.c  **** 			manual_setup.water = 2;
 4087              		.loc 1 1041 23
 4088 00de 344B     		ldr	r3, .L382+4
 4089 00e0 0222     		movs	r2, #2
 4090 00e2 9A70     		strb	r2, [r3, #2]
1042:../app/app.c  **** 			app_led_start_init();
 4091              		.loc 1 1042 4
 4092 00e4 FFF7FEFF 		bl	app_led_start_init
1043:../app/app.c  **** 			app_leds_all_fun(LED_OFF);
 4093              		.loc 1 1043 4
 4094 00e8 0020     		movs	r0, #0
 4095 00ea FFF7FEFF 		bl	app_leds_all_fun
1044:../app/app.c  **** 			app_leds_all_ind(LED_OFF);
 4096              		.loc 1 1044 4
 4097 00ee 0020     		movs	r0, #0
 4098 00f0 FFF7FEFF 		bl	app_leds_all_ind
1045:../app/app.c  **** 			display_led(HOT_WATER, LED_ON);
 4099              		.loc 1 1045 4
 4100 00f4 0121     		movs	r1, #1
 4101 00f6 1520     		movs	r0, #21
 4102 00f8 FFF7FEFF 		bl	display_led
1046:../app/app.c  **** 			display_led(WATER1_LED, LED_ON);
 4103              		.loc 1 1046 4
 4104 00fc 0121     		movs	r1, #1
 4105 00fe 0420     		movs	r0, #4
 4106 0100 FFF7FEFF 		bl	display_led
1047:../app/app.c  **** 			display_led(WATER2_LED, LED_ON);
 4107              		.loc 1 1047 4
 4108 0104 0121     		movs	r1, #1
 4109 0106 1920     		movs	r0, #25
 4110 0108 FFF7FEFF 		bl	display_led
1048:../app/app.c  **** 			display_led(WATER3_LED, LED_ON);
 4111              		.loc 1 1048 4
 4112 010c 0121     		movs	r1, #1
 4113 010e 1020     		movs	r0, #16
 4114 0110 FFF7FEFF 		bl	display_led
1049:../app/app.c  **** 			app_task_substep = NORMAL_HOTWATER_RUN_STATE;
 4115              		.loc 1 1049 21
 4116 0114 254B     		ldr	r3, .L382
 4117 0116 0622     		movs	r2, #6
 4118 0118 1A70     		strb	r2, [r3]
1050:../app/app.c  **** 			break;
 4119              		.loc 1 1050 4
 4120 011a 45E0     		b	.L380
 4121              	.L373:
1051:../app/app.c  **** 		case NORMAL_HOTWATER_RUN_STATE:
1052:../app/app.c  **** 			osal_lyh_delay_task(Ms_10);
 4122              		.loc 1 1052 4
 4123 011c 0A20     		movs	r0, #10
 4124 011e FFF7FEFF 		bl	osal_lyh_delay_task
1053:../app/app.c  **** 			break;
 4125              		.loc 1 1053 4
 4126 0122 41E0     		b	.L380
 4127              	.L372:
1054:../app/app.c  **** 		case NORMAL_STEAM_INIT_STATE:
1055:../app/app.c  **** 			memset((uint8_t *)&manual_setup, 0, sizeof(st_opDef));
 4128              		.loc 1 1055 4
 4129 0124 0322     		movs	r2, #3
 4130 0126 0021     		movs	r1, #0
 4131 0128 2148     		ldr	r0, .L382+4
 4132 012a FFF7FEFF 		bl	memset
1056:../app/app.c  **** 			app_led_start_init();
 4133              		.loc 1 1056 4
 4134 012e FFF7FEFF 		bl	app_led_start_init
1057:../app/app.c  **** 			app_leds_all_fun(LED_OFF);
 4135              		.loc 1 1057 4
 4136 0132 0020     		movs	r0, #0
 4137 0134 FFF7FEFF 		bl	app_leds_all_fun
1058:../app/app.c  **** 			app_leds_all_ind(LED_OFF);
 4138              		.loc 1 1058 4
 4139 0138 0020     		movs	r0, #0
 4140 013a FFF7FEFF 		bl	app_leds_all_ind
1059:../app/app.c  **** 			display_led(STEAM_LED, LED_ON);
 4141              		.loc 1 1059 4
 4142 013e 0121     		movs	r1, #1
 4143 0140 1220     		movs	r0, #18
 4144 0142 FFF7FEFF 		bl	display_led
1060:../app/app.c  **** 			app_task_substep = NORMAL_STEAM_RUN_STATE;
 4145              		.loc 1 1060 21
 4146 0146 194B     		ldr	r3, .L382
 4147 0148 0822     		movs	r2, #8
 4148 014a 1A70     		strb	r2, [r3]
1061:../app/app.c  **** 			break;
 4149              		.loc 1 1061 4
 4150 014c 2CE0     		b	.L380
 4151              	.L371:
1062:../app/app.c  **** 		case NORMAL_STEAM_RUN_STATE:
1063:../app/app.c  **** 			osal_lyh_delay_task(Ms_10);
 4152              		.loc 1 1063 4
 4153 014e 0A20     		movs	r0, #10
 4154 0150 FFF7FEFF 		bl	osal_lyh_delay_task
1064:../app/app.c  **** 			break;
 4155              		.loc 1 1064 4
 4156 0154 28E0     		b	.L380
 4157              	.L370:
1065:../app/app.c  **** 		case NORMAL_AQUA_INIT_STATE:
1066:../app/app.c  **** 			app_led_start_init();
 4158              		.loc 1 1066 4
 4159 0156 FFF7FEFF 		bl	app_led_start_init
1067:../app/app.c  **** 			app_leds_all_fun(LED_OFF);
 4160              		.loc 1 1067 4
 4161 015a 0020     		movs	r0, #0
 4162 015c FFF7FEFF 		bl	app_leds_all_fun
1068:../app/app.c  **** 			app_leds_all_ind(LED_OFF);
 4163              		.loc 1 1068 4
 4164 0160 0020     		movs	r0, #0
 4165 0162 FFF7FEFF 		bl	app_leds_all_ind
1069:../app/app.c  **** 			display_led(AQUA_CLEAN_LED, LED_ON);
 4166              		.loc 1 1069 4
 4167 0166 0121     		movs	r1, #1
 4168 0168 1120     		movs	r0, #17
 4169 016a FFF7FEFF 		bl	display_led
1070:../app/app.c  **** 			app_task_substep = NORMAL_AQUA_RUN_STATE;
 4170              		.loc 1 1070 21
 4171 016e 0F4B     		ldr	r3, .L382
 4172 0170 0A22     		movs	r2, #10
 4173 0172 1A70     		strb	r2, [r3]
1071:../app/app.c  **** 			break;
 4174              		.loc 1 1071 4
 4175 0174 18E0     		b	.L380
 4176              	.L369:
1072:../app/app.c  **** 		case NORMAL_AQUA_RUN_STATE:
1073:../app/app.c  **** 			osal_lyh_delay_task(Ms_10);
 4177              		.loc 1 1073 4
 4178 0176 0A20     		movs	r0, #10
 4179 0178 FFF7FEFF 		bl	osal_lyh_delay_task
1074:../app/app.c  **** 			break;
 4180              		.loc 1 1074 4
 4181 017c 14E0     		b	.L380
 4182              	.L368:
1075:../app/app.c  **** 		case NORMAL_CALC_INIT_STATE:
1076:../app/app.c  **** 			app_led_start_init();
 4183              		.loc 1 1076 4
 4184 017e FFF7FEFF 		bl	app_led_start_init
1077:../app/app.c  **** 			app_leds_all_fun(LED_OFF);
 4185              		.loc 1 1077 4
 4186 0182 0020     		movs	r0, #0
 4187 0184 FFF7FEFF 		bl	app_leds_all_fun
1078:../app/app.c  **** 			app_leds_all_ind(LED_OFF);
 4188              		.loc 1 1078 4
 4189 0188 0020     		movs	r0, #0
 4190 018a FFF7FEFF 		bl	app_leds_all_ind
1079:../app/app.c  **** 			display_led(CALC_CLEAN_LED, LED_ON);
 4191              		.loc 1 1079 4
 4192 018e 0121     		movs	r1, #1
 4193 0190 0220     		movs	r0, #2
 4194 0192 FFF7FEFF 		bl	display_led
1080:../app/app.c  **** 			app_task_substep = NORMAL_CALC_RUN_STATE;
 4195              		.loc 1 1080 21
 4196 0196 054B     		ldr	r3, .L382
 4197 0198 0C22     		movs	r2, #12
 4198 019a 1A70     		strb	r2, [r3]
1081:../app/app.c  **** 			break;
 4199              		.loc 1 1081 4
 4200 019c 04E0     		b	.L380
 4201              	.L366:
1082:../app/app.c  **** 		case NORMAL_CALC_RUN_STATE:
1083:../app/app.c  **** 			osal_lyh_delay_task(Ms_10);
 4202              		.loc 1 1083 4
 4203 019e 0A20     		movs	r0, #10
 4204 01a0 FFF7FEFF 		bl	osal_lyh_delay_task
1084:../app/app.c  **** 			break;
 4205              		.loc 1 1084 4
 4206 01a4 00E0     		b	.L380
 4207              	.L381:
1085:../app/app.c  **** 		default:
1086:../app/app.c  **** 			break;
 4208              		.loc 1 1086 4
 4209 01a6 00BF     		nop
 4210              	.L380:
1087:../app/app.c  **** 	}
1088:../app/app.c  **** }
 4211              		.loc 1 1088 1
 4212 01a8 00BF     		nop
 4213 01aa 80BD     		pop	{r7, pc}
 4214              	.L383:
 4215              		.align	2
 4216              	.L382:
 4217 01ac 00000000 		.word	app_task_substep
 4218 01b0 00000000 		.word	manual_setup
 4219              		.cfi_endproc
 4220              	.LFE168:
 4222              		.section	.text.app_espresso_handler,"ax",%progbits
 4223              		.align	1
 4224              		.global	app_espresso_handler
 4225              		.syntax unified
 4226              		.thumb
 4227              		.thumb_func
 4228              		.fpu softvfp
 4230              	app_espresso_handler:
 4231              	.LFB169:
1089:../app/app.c  **** 
1090:../app/app.c  **** /************************************************************************
1091:../app/app.c  **** * function name: app_espresso_handler
1092:../app/app.c  **** * input: non
1093:../app/app.c  **** * output: non
1094:../app/app.c  **** * description: object thread
1095:../app/app.c  **** *************************************************************************/
1096:../app/app.c  **** void app_espresso_handler(void)
1097:../app/app.c  **** {
 4232              		.loc 1 1097 1
 4233              		.cfi_startproc
 4234              		@ args = 0, pretend = 0, frame = 0
 4235              		@ frame_needed = 1, uses_anonymous_args = 0
 4236 0000 80B5     		push	{r7, lr}
 4237              		.cfi_def_cfa_offset 8
 4238              		.cfi_offset 7, -8
 4239              		.cfi_offset 14, -4
 4240 0002 00AF     		add	r7, sp, #0
 4241              		.cfi_def_cfa_register 7
1098:../app/app.c  **** 	switch(app_task_substep)
 4242              		.loc 1 1098 2
 4243 0004 BD4B     		ldr	r3, .L442
 4244 0006 1B78     		ldrb	r3, [r3]	@ zero_extendqisi2
 4245 0008 142B     		cmp	r3, #20
 4246 000a 00F20F82 		bhi	.L438
 4247 000e 01A2     		adr	r2, .L387
 4248 0010 52F823F0 		ldr	pc, [r2, r3, lsl #2]
 4249              		.p2align 2
 4250              	.L387:
 4251 0014 69000000 		.word	.L407+1
 4252 0018 A5000000 		.word	.L406+1
 4253 001c C3000000 		.word	.L405+1
 4254 0020 FF000000 		.word	.L404+1
 4255 0024 19010000 		.word	.L403+1
 4256 0028 4B010000 		.word	.L402+1
 4257 002c AF010000 		.word	.L401+1
 4258 0030 DF010000 		.word	.L400+1
 4259 0034 FF010000 		.word	.L399+1
 4260 0038 3B020000 		.word	.L398+1
 4261 003c 57020000 		.word	.L397+1
 4262 0040 6B020000 		.word	.L396+1
 4263 0044 CD020000 		.word	.L395+1
 4264 0048 E1020000 		.word	.L394+1
 4265 004c 11030000 		.word	.L393+1
 4266 0050 41030000 		.word	.L392+1
 4267 0054 61030000 		.word	.L391+1
 4268 0058 9D030000 		.word	.L390+1
 4269 005c B7030000 		.word	.L389+1
 4270 0060 E9030000 		.word	.L388+1
 4271 0064 0F040000 		.word	.L386+1
 4272              		.p2align 1
 4273              	.L407:
1099:../app/app.c  **** 	{
1100:../app/app.c  **** 		/* هˆ‌ه§‹هŒ–çٹ¶و€پ */
1101:../app/app.c  **** 		case ESPRESSO_INIT_STATE:
1102:../app/app.c  **** 			CERRNT_STATE = INIT_AND_GRIND_STATE;	//è®°ه½•è؟›ه؛¦
 4274              		.loc 1 1102 17
 4275 0068 A54B     		ldr	r3, .L442+4
 4276 006a 0122     		movs	r2, #1
 4277 006c 1A70     		strb	r2, [r3]
1103:../app/app.c  **** 			app_leds_all_fun(LED_OFF);
 4278              		.loc 1 1103 4
 4279 006e 0020     		movs	r0, #0
 4280 0070 FFF7FEFF 		bl	app_leds_all_fun
1104:../app/app.c  **** 			app_leds_all_ind(LED_OFF);
 4281              		.loc 1 1104 4
 4282 0074 0020     		movs	r0, #0
 4283 0076 FFF7FEFF 		bl	app_leds_all_ind
1105:../app/app.c  **** 			display_led(START_LED, LED_ON);
 4284              		.loc 1 1105 4
 4285 007a 0121     		movs	r1, #1
 4286 007c 0520     		movs	r0, #5
 4287 007e FFF7FEFF 		bl	display_led
1106:../app/app.c  **** 			app_led_espresso_init();		//هˆ‌ه§‹هŒ–espressoوŒ‡ç¤؛çپ¯é—ھçƒپ
 4288              		.loc 1 1106 4
 4289 0082 FFF7FEFF 		bl	app_led_espresso_init
1107:../app/app.c  **** 			if(1 == manual_setup.cup){		//هˆ¤و–­وœ¬و¬،هˆ¶ن½œو‌¯و•°
 4290              		.loc 1 1107 24
 4291 0086 9F4B     		ldr	r3, .L442+8
 4292 0088 1B78     		ldrb	r3, [r3]	@ zero_extendqisi2
 4293              		.loc 1 1107 6
 4294 008a 012B     		cmp	r3, #1
 4295 008c 03D1     		bne	.L408
1108:../app/app.c  **** 				cup_loop = 1;
 4296              		.loc 1 1108 14
 4297 008e 9E4B     		ldr	r3, .L442+12
 4298 0090 0122     		movs	r2, #1
 4299 0092 1A70     		strb	r2, [r3]
 4300 0094 02E0     		b	.L409
 4301              	.L408:
1109:../app/app.c  **** 			}
1110:../app/app.c  **** 			else{
1111:../app/app.c  **** 				cup_loop = 0;
 4302              		.loc 1 1111 14
 4303 0096 9C4B     		ldr	r3, .L442+12
 4304 0098 0022     		movs	r2, #0
 4305 009a 1A70     		strb	r2, [r3]
 4306              	.L409:
1112:../app/app.c  **** 			}
1113:../app/app.c  **** 			app_task_substep = ESPRESSO_MOTO_CHECK_STATE;
 4307              		.loc 1 1113 21
 4308 009c 974B     		ldr	r3, .L442
 4309 009e 0122     		movs	r2, #1
 4310 00a0 1A70     		strb	r2, [r3]
1114:../app/app.c  **** 			break;
 4311              		.loc 1 1114 4
 4312 00a2 C8E1     		b	.L410
 4313              	.L406:
1115:../app/app.c  **** 		/* èگƒهڈ–ç”µوœ؛ن½چç½®و£€وµ‹ */
1116:../app/app.c  **** 		case ESPRESSO_MOTO_CHECK_STATE:
1117:../app/app.c  **** 			dc_motor_ClearFault();		
 4314              		.loc 1 1117 4
 4315 00a4 FFF7FEFF 		bl	dc_motor_ClearFault
1118:../app/app.c  **** 			dc_motor_Start(MOTOR_RIGHT);
 4316              		.loc 1 1118 4
 4317 00a8 0120     		movs	r0, #1
 4318 00aa FFF7FEFF 		bl	dc_motor_Start
1119:../app/app.c  **** 			osal_lyh_delay_task(Ms_100);
 4319              		.loc 1 1119 4
 4320 00ae 6420     		movs	r0, #100
 4321 00b0 FFF7FEFF 		bl	osal_lyh_delay_task
1120:../app/app.c  **** 			run_max_time = RIGHT_TIMER(Ms_3000, Ms_100);
 4322              		.loc 1 1120 17
 4323 00b4 954B     		ldr	r3, .L442+16
 4324 00b6 1E22     		movs	r2, #30
 4325 00b8 1A80     		strh	r2, [r3]	@ movhi
1121:../app/app.c  **** 			app_task_substep = ESPRESSO_MOTO_CHECK_JUDGE_STATE;
 4326              		.loc 1 1121 21
 4327 00ba 904B     		ldr	r3, .L442
 4328 00bc 0222     		movs	r2, #2
 4329 00be 1A70     		strb	r2, [r3]
1122:../app/app.c  **** 			break;
 4330              		.loc 1 1122 4
 4331 00c0 B9E1     		b	.L410
 4332              	.L405:
1123:../app/app.c  **** 		/* هˆ¤و–­èگƒهڈ–ç”µوœ؛وک¯هگ¦è§¦ç¢°هژںç‚¹è§¦ç‚¹ */
1124:../app/app.c  **** 		case ESPRESSO_MOTO_CHECK_JUDGE_STATE:
1125:../app/app.c  **** 			if ((MOTOR_STATE_STOPED ==dc_motor_GetState())
 4333              		.loc 1 1125 30
 4334 00c2 FFF7FEFF 		bl	dc_motor_GetState
 4335 00c6 0346     		mov	r3, r0
 4336              		.loc 1 1125 7
 4337 00c8 002B     		cmp	r3, #0
 4338 00ca 0ED0     		beq	.L411
1126:../app/app.c  **** 				|| (TRUE == app_motor_ready())
 4339              		.loc 1 1126 17
 4340 00cc FFF7FEFF 		bl	app_motor_ready
 4341 00d0 0346     		mov	r3, r0
 4342              		.loc 1 1126 5
 4343 00d2 012B     		cmp	r3, #1
 4344 00d4 09D0     		beq	.L411
1127:../app/app.c  **** 				|| (--run_max_time == 0)){
 4345              		.loc 1 1127 9
 4346 00d6 8D4B     		ldr	r3, .L442+16
 4347 00d8 1B88     		ldrh	r3, [r3]
 4348 00da 013B     		subs	r3, r3, #1
 4349 00dc 9AB2     		uxth	r2, r3
 4350              		.loc 1 1127 5
 4351 00de 8B4B     		ldr	r3, .L442+16
 4352 00e0 1A80     		strh	r2, [r3]	@ movhi
 4353              		.loc 1 1127 9
 4354 00e2 8A4B     		ldr	r3, .L442+16
 4355 00e4 1B88     		ldrh	r3, [r3]
 4356              		.loc 1 1127 5
 4357 00e6 002B     		cmp	r3, #0
 4358 00e8 05D1     		bne	.L412
 4359              	.L411:
1128:../app/app.c  **** 				dc_motor_Stop();
 4360              		.loc 1 1128 5
 4361 00ea FFF7FEFF 		bl	dc_motor_Stop
1129:../app/app.c  **** 				app_task_substep = ESPRESSO_MOTO_FIRST_RST_STATE;					
 4362              		.loc 1 1129 22
 4363 00ee 834B     		ldr	r3, .L442
 4364 00f0 0322     		movs	r2, #3
 4365 00f2 1A70     		strb	r2, [r3]
1130:../app/app.c  **** 			}
1131:../app/app.c  **** 			else {
1132:../app/app.c  **** 				osal_lyh_delay_task(Ms_100);
1133:../app/app.c  **** 			}
1134:../app/app.c  **** 			break;
 4366              		.loc 1 1134 4
 4367 00f4 9FE1     		b	.L410
 4368              	.L412:
1132:../app/app.c  **** 			}
 4369              		.loc 1 1132 5
 4370 00f6 6420     		movs	r0, #100
 4371 00f8 FFF7FEFF 		bl	osal_lyh_delay_task
 4372              		.loc 1 1134 4
 4373 00fc 9BE1     		b	.L410
 4374              	.L404:
1135:../app/app.c  **** 		/* èگƒهڈ–ç”µوœ؛هگ‘ه›‍è½¬هˆ°هژںç‚¹ */
1136:../app/app.c  **** 		case ESPRESSO_MOTO_FIRST_RST_STATE:
1137:../app/app.c  **** 			dc_motor_Start(MOTOR_LEFT);
 4375              		.loc 1 1137 4
 4376 00fe 0220     		movs	r0, #2
 4377 0100 FFF7FEFF 		bl	dc_motor_Start
1138:../app/app.c  **** 			osal_lyh_delay_task(Ms_100);
 4378              		.loc 1 1138 4
 4379 0104 6420     		movs	r0, #100
 4380 0106 FFF7FEFF 		bl	osal_lyh_delay_task
1139:../app/app.c  **** 			run_max_time = LEFT_TIMER(MOTOR_FIX_TIME, Ms_100);
 4381              		.loc 1 1139 17
 4382 010a 804B     		ldr	r3, .L442+16
 4383 010c 0322     		movs	r2, #3
 4384 010e 1A80     		strh	r2, [r3]	@ movhi
1140:../app/app.c  **** 			app_task_substep = ESPRESSO_MOTO_CHECK_COMPLETE_STATE;
 4385              		.loc 1 1140 21
 4386 0110 7A4B     		ldr	r3, .L442
 4387 0112 0422     		movs	r2, #4
 4388 0114 1A70     		strb	r2, [r3]
1141:../app/app.c  **** 			break;
 4389              		.loc 1 1141 4
 4390 0116 8EE1     		b	.L410
 4391              	.L403:
1142:../app/app.c  **** 		/* هˆ¤و–­èگƒهڈ–ç”µوœ؛وک¯هگ¦ه®Œوˆگه›‍è½¬ */
1143:../app/app.c  **** 		case ESPRESSO_MOTO_CHECK_COMPLETE_STATE:
1144:../app/app.c  **** 			if (1/*(FAIL == app_motor_ready())*/	// deleting point,(temp to cancel)
1145:../app/app.c  **** 				&& ((MOTOR_STATE_STOPED ==dc_motor_GetState())
 4392              		.loc 1 1145 31
 4393 0118 FFF7FEFF 		bl	dc_motor_GetState
 4394 011c 0346     		mov	r3, r0
1144:../app/app.c  **** 				&& ((MOTOR_STATE_STOPED ==dc_motor_GetState())
 4395              		.loc 1 1144 7
 4396 011e 002B     		cmp	r3, #0
 4397 0120 09D0     		beq	.L414
1146:../app/app.c  **** 				|| (--run_max_time == 0))){
 4398              		.loc 1 1146 9
 4399 0122 7A4B     		ldr	r3, .L442+16
 4400 0124 1B88     		ldrh	r3, [r3]
 4401 0126 013B     		subs	r3, r3, #1
 4402 0128 9AB2     		uxth	r2, r3
1145:../app/app.c  **** 				|| (--run_max_time == 0))){
 4403              		.loc 1 1145 5
 4404 012a 784B     		ldr	r3, .L442+16
 4405 012c 1A80     		strh	r2, [r3]	@ movhi
 4406              		.loc 1 1146 9
 4407 012e 774B     		ldr	r3, .L442+16
 4408 0130 1B88     		ldrh	r3, [r3]
1145:../app/app.c  **** 				|| (--run_max_time == 0))){
 4409              		.loc 1 1145 5
 4410 0132 002B     		cmp	r3, #0
 4411 0134 05D1     		bne	.L415
 4412              	.L414:
1147:../app/app.c  **** 				dc_motor_Stop();
 4413              		.loc 1 1147 5
 4414 0136 FFF7FEFF 		bl	dc_motor_Stop
1148:../app/app.c  **** 				app_task_substep = ESPRESSO_GRIND_ING_STATE;					
 4415              		.loc 1 1148 22
 4416 013a 704B     		ldr	r3, .L442
 4417 013c 0522     		movs	r2, #5
 4418 013e 1A70     		strb	r2, [r3]
1149:../app/app.c  **** 			}
1150:../app/app.c  **** 			else {
1151:../app/app.c  **** 				osal_lyh_delay_task(Ms_100);
1152:../app/app.c  **** 			}
1153:../app/app.c  **** 			break;
 4419              		.loc 1 1153 4
 4420 0140 79E1     		b	.L410
 4421              	.L415:
1151:../app/app.c  **** 			}
 4422              		.loc 1 1151 5
 4423 0142 6420     		movs	r0, #100
 4424 0144 FFF7FEFF 		bl	osal_lyh_delay_task
 4425              		.loc 1 1153 4
 4426 0148 75E1     		b	.L410
 4427              	.L402:
1154:../app/app.c  **** 		/* ç ”ç£¨ه’–ه•،è±† */
1155:../app/app.c  **** 		case ESPRESSO_GRIND_ING_STATE:
1156:../app/app.c  **** 			app_turn_heat_on(TARGET_TEMP_100D);
 4428              		.loc 1 1156 4
 4429 014a 40F63E00 		movw	r0, #2110
 4430 014e FFF7FEFF 		bl	app_turn_heat_on
1157:../app/app.c  **** 			if(0 == manual_setup.coffee)	//ç ”ç£¨و—¶é—´و ¹وچ®coffeeç¨‹ه؛¦è°ƒو•´ï¼ڑx1=8s,x2=9s,x3=10s
 4431              		.loc 1 1157 24
 4432 0152 6C4B     		ldr	r3, .L442+8
 4433 0154 5B78     		ldrb	r3, [r3, #1]	@ zero_extendqisi2
 4434              		.loc 1 1157 6
 4435 0156 002B     		cmp	r3, #0
 4436 0158 0AD1     		bne	.L417
1158:../app/app.c  **** 			{
1159:../app/app.c  **** 				ac_grind_start(1000);		//هگ¯هٹ¨ç ”ç£¨ç”µوœ؛
 4437              		.loc 1 1159 5
 4438 015a 4FF47A70 		mov	r0, #1000
 4439 015e FFF7FEFF 		bl	ac_grind_start
1160:../app/app.c  **** 				run_max_time = GRIND_TIMER(Ms_8000, Ms_100);
 4440              		.loc 1 1160 18
 4441 0162 6A4B     		ldr	r3, .L442+16
 4442 0164 5022     		movs	r2, #80
 4443 0166 1A80     		strh	r2, [r3]	@ movhi
1161:../app/app.c  **** 				app_task_substep = ESPRESSO_GRIND_END_STATE;
 4444              		.loc 1 1161 22
 4445 0168 644B     		ldr	r3, .L442
 4446 016a 0622     		movs	r2, #6
 4447 016c 1A70     		strb	r2, [r3]
1162:../app/app.c  **** 			}
1163:../app/app.c  **** 			else if (1 == manual_setup.coffee)
1164:../app/app.c  **** 			{
1165:../app/app.c  **** 				ac_grind_start(1000);		//هگ¯هٹ¨ç ”ç£¨ç”µوœ؛
1166:../app/app.c  **** 				run_max_time = GRIND_TIMER(Ms_9000, Ms_100);
1167:../app/app.c  **** 				app_task_substep = ESPRESSO_GRIND_END_STATE;	
1168:../app/app.c  **** 			}			
1169:../app/app.c  **** 			else if(2 == manual_setup.coffee)
1170:../app/app.c  **** 			{
1171:../app/app.c  **** 				ac_grind_start(1000);		//هگ¯هٹ¨ç ”ç£¨ç”µوœ؛
1172:../app/app.c  **** 				run_max_time = GRIND_TIMER(Ms_10000, Ms_100);
1173:../app/app.c  **** 				app_task_substep = ESPRESSO_GRIND_END_STATE;	
1174:../app/app.c  **** 			}
1175:../app/app.c  **** 			break;
 4448              		.loc 1 1175 4
 4449 016e 5FE1     		b	.L439
 4450              	.L417:
1163:../app/app.c  **** 			{
 4451              		.loc 1 1163 30
 4452 0170 644B     		ldr	r3, .L442+8
 4453 0172 5B78     		ldrb	r3, [r3, #1]	@ zero_extendqisi2
1163:../app/app.c  **** 			{
 4454              		.loc 1 1163 12
 4455 0174 012B     		cmp	r3, #1
 4456 0176 0AD1     		bne	.L419
1165:../app/app.c  **** 				run_max_time = GRIND_TIMER(Ms_9000, Ms_100);
 4457              		.loc 1 1165 5
 4458 0178 4FF47A70 		mov	r0, #1000
 4459 017c FFF7FEFF 		bl	ac_grind_start
1166:../app/app.c  **** 				app_task_substep = ESPRESSO_GRIND_END_STATE;	
 4460              		.loc 1 1166 18
 4461 0180 624B     		ldr	r3, .L442+16
 4462 0182 5A22     		movs	r2, #90
 4463 0184 1A80     		strh	r2, [r3]	@ movhi
1167:../app/app.c  **** 			}			
 4464              		.loc 1 1167 22
 4465 0186 5D4B     		ldr	r3, .L442
 4466 0188 0622     		movs	r2, #6
 4467 018a 1A70     		strb	r2, [r3]
 4468              		.loc 1 1175 4
 4469 018c 50E1     		b	.L439
 4470              	.L419:
1169:../app/app.c  **** 			{
 4471              		.loc 1 1169 29
 4472 018e 5D4B     		ldr	r3, .L442+8
 4473 0190 5B78     		ldrb	r3, [r3, #1]	@ zero_extendqisi2
1169:../app/app.c  **** 			{
 4474              		.loc 1 1169 11
 4475 0192 022B     		cmp	r3, #2
 4476 0194 40F04C81 		bne	.L439
1171:../app/app.c  **** 				run_max_time = GRIND_TIMER(Ms_10000, Ms_100);
 4477              		.loc 1 1171 5
 4478 0198 4FF47A70 		mov	r0, #1000
 4479 019c FFF7FEFF 		bl	ac_grind_start
1172:../app/app.c  **** 				app_task_substep = ESPRESSO_GRIND_END_STATE;	
 4480              		.loc 1 1172 18
 4481 01a0 5A4B     		ldr	r3, .L442+16
 4482 01a2 6422     		movs	r2, #100
 4483 01a4 1A80     		strh	r2, [r3]	@ movhi
1173:../app/app.c  **** 			}
 4484              		.loc 1 1173 22
 4485 01a6 554B     		ldr	r3, .L442
 4486 01a8 0622     		movs	r2, #6
 4487 01aa 1A70     		strb	r2, [r3]
 4488              		.loc 1 1175 4
 4489 01ac 40E1     		b	.L439
 4490              	.L401:
1176:../app/app.c  **** 		case ESPRESSO_GRIND_END_STATE:
1177:../app/app.c  **** 			if (--run_max_time == 0){	//هˆ¤و–­ç ”ç£¨و—¶é—´وک¯هگ¦هˆ°è¾¾
 4491              		.loc 1 1177 8
 4492 01ae 574B     		ldr	r3, .L442+16
 4493 01b0 1B88     		ldrh	r3, [r3]
 4494 01b2 013B     		subs	r3, r3, #1
 4495 01b4 9AB2     		uxth	r2, r3
 4496              		.loc 1 1177 7
 4497 01b6 554B     		ldr	r3, .L442+16
 4498 01b8 1A80     		strh	r2, [r3]	@ movhi
 4499              		.loc 1 1177 8
 4500 01ba 544B     		ldr	r3, .L442+16
 4501 01bc 1B88     		ldrh	r3, [r3]
 4502              		.loc 1 1177 7
 4503 01be 002B     		cmp	r3, #0
 4504 01c0 09D1     		bne	.L420
1178:../app/app.c  **** 				ac_grind_stop();
 4505              		.loc 1 1178 5
 4506 01c2 FFF7FEFF 		bl	ac_grind_stop
1179:../app/app.c  **** 				osal_lyh_delay_task(Ms_1000);
 4507              		.loc 1 1179 5
 4508 01c6 4FF47A70 		mov	r0, #1000
 4509 01ca FFF7FEFF 		bl	osal_lyh_delay_task
1180:../app/app.c  **** 				app_task_substep = ESPRESSO_MOTO_GO_BREW_STATE;	
 4510              		.loc 1 1180 22
 4511 01ce 4B4B     		ldr	r3, .L442
 4512 01d0 0722     		movs	r2, #7
 4513 01d2 1A70     		strb	r2, [r3]
1181:../app/app.c  **** 			}
1182:../app/app.c  **** 			else {
1183:../app/app.c  **** 				osal_lyh_delay_task(Ms_100);
1184:../app/app.c  **** 			}
1185:../app/app.c  **** 			break;
 4514              		.loc 1 1185 4
 4515 01d4 2FE1     		b	.L410
 4516              	.L420:
1183:../app/app.c  **** 			}
 4517              		.loc 1 1183 5
 4518 01d6 6420     		movs	r0, #100
 4519 01d8 FFF7FEFF 		bl	osal_lyh_delay_task
 4520              		.loc 1 1185 4
 4521 01dc 2BE1     		b	.L410
 4522              	.L400:
1186:../app/app.c  **** 		/* èگƒهڈ–ç”µوœ؛è½¬هˆ°èگƒهڈ–ن½چç½® */
1187:../app/app.c  **** 		case ESPRESSO_MOTO_GO_BREW_STATE:
1188:../app/app.c  **** 			CERRNT_STATE = GO_BREW_STATE;	//è®°ه½•è؟›ه؛¦
 4523              		.loc 1 1188 17
 4524 01de 484B     		ldr	r3, .L442+4
 4525 01e0 0222     		movs	r2, #2
 4526 01e2 1A70     		strb	r2, [r3]
1189:../app/app.c  **** 			dc_motor_Start(MOTOR_LEFT);		
 4527              		.loc 1 1189 4
 4528 01e4 0220     		movs	r0, #2
 4529 01e6 FFF7FEFF 		bl	dc_motor_Start
1190:../app/app.c  **** 			osal_lyh_delay_task(Ms_100);
 4530              		.loc 1 1190 4
 4531 01ea 6420     		movs	r0, #100
 4532 01ec FFF7FEFF 		bl	osal_lyh_delay_task
1191:../app/app.c  **** 			run_max_time = LEFT_TIMER(Ms_7000, Ms_100);
 4533              		.loc 1 1191 17
 4534 01f0 464B     		ldr	r3, .L442+16
 4535 01f2 4622     		movs	r2, #70
 4536 01f4 1A80     		strh	r2, [r3]	@ movhi
1192:../app/app.c  **** 			app_task_substep = ESPRESSO_MOTO_GO_BREW_JUDGE_STATE;
 4537              		.loc 1 1192 21
 4538 01f6 414B     		ldr	r3, .L442
 4539 01f8 0822     		movs	r2, #8
 4540 01fa 1A70     		strb	r2, [r3]
1193:../app/app.c  **** 			break;
 4541              		.loc 1 1193 4
 4542 01fc 1BE1     		b	.L410
 4543              	.L399:
1194:../app/app.c  **** 		/* هˆ¤و–­èگƒهڈ–ç”µوœ؛وک¯هگ¦هˆ°è¾¾èگƒهڈ–ن½چç½® */
1195:../app/app.c  **** 		case ESPRESSO_MOTO_GO_BREW_JUDGE_STATE:
1196:../app/app.c  **** 			if ((MOTOR_STATE_STOPED ==dc_motor_GetState())
 4544              		.loc 1 1196 30
 4545 01fe FFF7FEFF 		bl	dc_motor_GetState
 4546 0202 0346     		mov	r3, r0
 4547              		.loc 1 1196 7
 4548 0204 002B     		cmp	r3, #0
 4549 0206 0ED0     		beq	.L422
1197:../app/app.c  **** 				|| (TRUE == app_motor_ready())
 4550              		.loc 1 1197 17
 4551 0208 FFF7FEFF 		bl	app_motor_ready
 4552 020c 0346     		mov	r3, r0
 4553              		.loc 1 1197 5
 4554 020e 012B     		cmp	r3, #1
 4555 0210 09D0     		beq	.L422
1198:../app/app.c  **** 				|| (--run_max_time == 0)){
 4556              		.loc 1 1198 9
 4557 0212 3E4B     		ldr	r3, .L442+16
 4558 0214 1B88     		ldrh	r3, [r3]
 4559 0216 013B     		subs	r3, r3, #1
 4560 0218 9AB2     		uxth	r2, r3
 4561              		.loc 1 1198 5
 4562 021a 3C4B     		ldr	r3, .L442+16
 4563 021c 1A80     		strh	r2, [r3]	@ movhi
 4564              		.loc 1 1198 9
 4565 021e 3B4B     		ldr	r3, .L442+16
 4566 0220 1B88     		ldrh	r3, [r3]
 4567              		.loc 1 1198 5
 4568 0222 002B     		cmp	r3, #0
 4569 0224 05D1     		bne	.L423
 4570              	.L422:
1199:../app/app.c  **** 				dc_motor_Stop();
 4571              		.loc 1 1199 5
 4572 0226 FFF7FEFF 		bl	dc_motor_Stop
1200:../app/app.c  **** 				app_task_substep = ESPRESSO_PRE_BREW_STATE;	
 4573              		.loc 1 1200 22
 4574 022a 344B     		ldr	r3, .L442
 4575 022c 0922     		movs	r2, #9
 4576 022e 1A70     		strb	r2, [r3]
1201:../app/app.c  **** 			}
1202:../app/app.c  **** 			else {
1203:../app/app.c  **** 				osal_lyh_delay_task(Ms_100);
1204:../app/app.c  **** 			}			
1205:../app/app.c  **** 			break;
 4577              		.loc 1 1205 4
 4578 0230 01E1     		b	.L410
 4579              	.L423:
1203:../app/app.c  **** 			}			
 4580              		.loc 1 1203 5
 4581 0232 6420     		movs	r0, #100
 4582 0234 FFF7FEFF 		bl	osal_lyh_delay_task
 4583              		.loc 1 1205 4
 4584 0238 FDE0     		b	.L410
 4585              	.L398:
1206:../app/app.c  **** 		/* é¢„ه†²ç…®çٹ¶و€پ */
1207:../app/app.c  **** 		case ESPRESSO_PRE_BREW_STATE:
1208:../app/app.c  **** 			CERRNT_STATE = PRE_BREW_STATE;	//è®°ه½•è؟›ه؛¦
 4586              		.loc 1 1208 17
 4587 023a 314B     		ldr	r3, .L442+4
 4588 023c 0322     		movs	r2, #3
 4589 023e 1A70     		strb	r2, [r3]
1209:../app/app.c  **** 			ac_pumb_start(CONTINUE_MODE);		//هگ¯هٹ¨و°´و³µ
 4590              		.loc 1 1209 4
 4591 0240 0020     		movs	r0, #0
 4592 0242 FFF7FEFF 		bl	ac_pumb_start
1210:../app/app.c  **** 			osal_lyh_delay_task(Ms_2000 - Ms_100);
 4593              		.loc 1 1210 4
 4594 0246 40F26C70 		movw	r0, #1900
 4595 024a FFF7FEFF 		bl	osal_lyh_delay_task
1211:../app/app.c  **** 			app_task_substep = ESPRESSO_WAIT_BREW_STATE;	
 4596              		.loc 1 1211 21
 4597 024e 2B4B     		ldr	r3, .L442
 4598 0250 0A22     		movs	r2, #10
 4599 0252 1A70     		strb	r2, [r3]
1212:../app/app.c  **** 			break;
 4600              		.loc 1 1212 4
 4601 0254 EFE0     		b	.L410
 4602              	.L397:
1213:../app/app.c  **** 		case ESPRESSO_WAIT_BREW_STATE:
1214:../app/app.c  **** 			ac_pumb_stop();						//هپœو­¢و°´و³µ
 4603              		.loc 1 1214 4
 4604 0256 FFF7FEFF 		bl	ac_pumb_stop
1215:../app/app.c  **** 			osal_lyh_delay_task(Ms_4000);
 4605              		.loc 1 1215 4
 4606 025a 4FF47A60 		mov	r0, #4000
 4607 025e FFF7FEFF 		bl	osal_lyh_delay_task
1216:../app/app.c  **** 			app_task_substep = ESPRESSO_BREW_STATE;	
 4608              		.loc 1 1216 21
 4609 0262 264B     		ldr	r3, .L442
 4610 0264 0B22     		movs	r2, #11
 4611 0266 1A70     		strb	r2, [r3]
1217:../app/app.c  **** 			break;
 4612              		.loc 1 1217 4
 4613 0268 E5E0     		b	.L410
 4614              	.L396:
1218:../app/app.c  **** 		/* ه†²ç…®çٹ¶و€پ */
1219:../app/app.c  **** 		case ESPRESSO_BREW_STATE:
1220:../app/app.c  **** 			CERRNT_STATE = BREW_STATE;	//è®°ه½•è؟›ه؛¦
 4615              		.loc 1 1220 17
 4616 026a 254B     		ldr	r3, .L442+4
 4617 026c 0422     		movs	r2, #4
 4618 026e 1A70     		strb	r2, [r3]
1221:../app/app.c  **** 			if(0 == manual_setup.water)		//و ¹وچ®و‌¯é‡ڈه†³ه®ڑوٹ½و°´و—¶é—´ï¼ڑx1=5s,x2=10s,x3=20s
 4619              		.loc 1 1221 24
 4620 0270 244B     		ldr	r3, .L442+8
 4621 0272 9B78     		ldrb	r3, [r3, #2]	@ zero_extendqisi2
 4622              		.loc 1 1221 6
 4623 0274 002B     		cmp	r3, #0
 4624 0276 0AD1     		bne	.L425
1222:../app/app.c  **** 			{
1223:../app/app.c  **** 				ac_pumb_start(CONTINUE_MODE);
 4625              		.loc 1 1223 5
 4626 0278 0020     		movs	r0, #0
 4627 027a FFF7FEFF 		bl	ac_pumb_start
1224:../app/app.c  **** 				osal_lyh_delay_task(Ms_5000);
 4628              		.loc 1 1224 5
 4629 027e 41F28830 		movw	r0, #5000
 4630 0282 FFF7FEFF 		bl	osal_lyh_delay_task
1225:../app/app.c  **** 				app_task_substep = ESPRESSO_BREW_FINISH_STATE;	
 4631              		.loc 1 1225 22
 4632 0286 1D4B     		ldr	r3, .L442
 4633 0288 0C22     		movs	r2, #12
 4634 028a 1A70     		strb	r2, [r3]
1226:../app/app.c  **** 			}
1227:../app/app.c  **** 			else if(1 == manual_setup.water)
1228:../app/app.c  **** 			{
1229:../app/app.c  **** 				ac_pumb_start(CONTINUE_MODE);
1230:../app/app.c  **** 				osal_lyh_delay_task(Ms_10000);
1231:../app/app.c  **** 				app_task_substep = ESPRESSO_BREW_FINISH_STATE;	
1232:../app/app.c  **** 
1233:../app/app.c  **** 			}
1234:../app/app.c  **** 			else if(2 == manual_setup.water)
1235:../app/app.c  **** 			{
1236:../app/app.c  **** 				ac_pumb_start(CONTINUE_MODE);
1237:../app/app.c  **** 				osal_lyh_delay_task(Ms_10000 + Ms_10000);
1238:../app/app.c  **** 				app_task_substep = ESPRESSO_BREW_FINISH_STATE;	
1239:../app/app.c  **** 			}
1240:../app/app.c  **** 			break;
 4635              		.loc 1 1240 4
 4636 028c D2E0     		b	.L440
 4637              	.L425:
1227:../app/app.c  **** 			{
 4638              		.loc 1 1227 29
 4639 028e 1D4B     		ldr	r3, .L442+8
 4640 0290 9B78     		ldrb	r3, [r3, #2]	@ zero_extendqisi2
1227:../app/app.c  **** 			{
 4641              		.loc 1 1227 11
 4642 0292 012B     		cmp	r3, #1
 4643 0294 0AD1     		bne	.L427
1229:../app/app.c  **** 				osal_lyh_delay_task(Ms_10000);
 4644              		.loc 1 1229 5
 4645 0296 0020     		movs	r0, #0
 4646 0298 FFF7FEFF 		bl	ac_pumb_start
1230:../app/app.c  **** 				app_task_substep = ESPRESSO_BREW_FINISH_STATE;	
 4647              		.loc 1 1230 5
 4648 029c 42F21070 		movw	r0, #10000
 4649 02a0 FFF7FEFF 		bl	osal_lyh_delay_task
1231:../app/app.c  **** 
 4650              		.loc 1 1231 22
 4651 02a4 154B     		ldr	r3, .L442
 4652 02a6 0C22     		movs	r2, #12
 4653 02a8 1A70     		strb	r2, [r3]
 4654              		.loc 1 1240 4
 4655 02aa C3E0     		b	.L440
 4656              	.L427:
1234:../app/app.c  **** 			{
 4657              		.loc 1 1234 29
 4658 02ac 154B     		ldr	r3, .L442+8
 4659 02ae 9B78     		ldrb	r3, [r3, #2]	@ zero_extendqisi2
1234:../app/app.c  **** 			{
 4660              		.loc 1 1234 11
 4661 02b0 022B     		cmp	r3, #2
 4662 02b2 40F0BF80 		bne	.L440
1236:../app/app.c  **** 				osal_lyh_delay_task(Ms_10000 + Ms_10000);
 4663              		.loc 1 1236 5
 4664 02b6 0020     		movs	r0, #0
 4665 02b8 FFF7FEFF 		bl	ac_pumb_start
1237:../app/app.c  **** 				app_task_substep = ESPRESSO_BREW_FINISH_STATE;	
 4666              		.loc 1 1237 5
 4667 02bc 44F62060 		movw	r0, #20000
 4668 02c0 FFF7FEFF 		bl	osal_lyh_delay_task
1238:../app/app.c  **** 			}
 4669              		.loc 1 1238 22
 4670 02c4 0D4B     		ldr	r3, .L442
 4671 02c6 0C22     		movs	r2, #12
 4672 02c8 1A70     		strb	r2, [r3]
 4673              		.loc 1 1240 4
 4674 02ca B3E0     		b	.L440
 4675              	.L395:
1241:../app/app.c  **** 		case ESPRESSO_BREW_FINISH_STATE:	//ه†²ç…®ه®Œوˆگ
1242:../app/app.c  **** 			ac_pumb_stop();		//هپœو­¢و°´و³µ	
 4676              		.loc 1 1242 4
 4677 02cc FFF7FEFF 		bl	ac_pumb_stop
1243:../app/app.c  **** 			osal_lyh_delay_task(Ms_6000);
 4678              		.loc 1 1243 4
 4679 02d0 41F27070 		movw	r0, #6000
 4680 02d4 FFF7FEFF 		bl	osal_lyh_delay_task
1244:../app/app.c  **** 			app_task_substep = ESPRESSO_GO_DROP_COFFEE_GROUNDS_STATE;	
 4681              		.loc 1 1244 21
 4682 02d8 084B     		ldr	r3, .L442
 4683 02da 0D22     		movs	r2, #13
 4684 02dc 1A70     		strb	r2, [r3]
1245:../app/app.c  **** 			break;
 4685              		.loc 1 1245 4
 4686 02de AAE0     		b	.L410
 4687              	.L394:
1246:../app/app.c  **** 		/* ن¸¢ه’–ه•،و¸£çٹ¶و€پ */
1247:../app/app.c  **** 		case ESPRESSO_GO_DROP_COFFEE_GROUNDS_STATE:
1248:../app/app.c  **** 			CERRNT_STATE = DROP_BEANS_STATE;	//è®°ه½•è؟›ه؛¦
 4688              		.loc 1 1248 17
 4689 02e0 074B     		ldr	r3, .L442+4
 4690 02e2 0522     		movs	r2, #5
 4691 02e4 1A70     		strb	r2, [r3]
1249:../app/app.c  **** 			dc_motor_Start(MOTOR_RIGHT);	//ç”µوœ؛هڈچè½¬2.9sï¼Œ هˆ°ن¸¢ه’–ه•،و¸£ن½چç½®
 4692              		.loc 1 1249 4
 4693 02e6 0120     		movs	r0, #1
 4694 02e8 FFF7FEFF 		bl	dc_motor_Start
1250:../app/app.c  **** 			run_max_time = RIGHT_TIMER(Ms_2900, Ms_100);
 4695              		.loc 1 1250 17
 4696 02ec 074B     		ldr	r3, .L442+16
 4697 02ee 1D22     		movs	r2, #29
 4698 02f0 1A80     		strh	r2, [r3]	@ movhi
1251:../app/app.c  **** 			app_task_substep = ESPRESSO_DROP_COFFEE_GROUNDS_STATE;	
 4699              		.loc 1 1251 21
 4700 02f2 024B     		ldr	r3, .L442
 4701 02f4 0E22     		movs	r2, #14
 4702 02f6 1A70     		strb	r2, [r3]
1252:../app/app.c  **** 			break;
 4703              		.loc 1 1252 4
 4704 02f8 9DE0     		b	.L410
 4705              	.L443:
 4706 02fa 00BF     		.align	2
 4707              	.L442:
 4708 02fc 00000000 		.word	app_task_substep
 4709 0300 00000000 		.word	CERRNT_STATE
 4710 0304 00000000 		.word	manual_setup
 4711 0308 00000000 		.word	cup_loop
 4712 030c 00000000 		.word	run_max_time
 4713              	.L393:
1253:../app/app.c  **** 		case ESPRESSO_DROP_COFFEE_GROUNDS_STATE:
1254:../app/app.c  **** 			if(--run_max_time == 0){
 4714              		.loc 1 1254 7
 4715 0310 4A4B     		ldr	r3, .L444
 4716 0312 1B88     		ldrh	r3, [r3]
 4717 0314 013B     		subs	r3, r3, #1
 4718 0316 9AB2     		uxth	r2, r3
 4719              		.loc 1 1254 6
 4720 0318 484B     		ldr	r3, .L444
 4721 031a 1A80     		strh	r2, [r3]	@ movhi
 4722              		.loc 1 1254 7
 4723 031c 474B     		ldr	r3, .L444
 4724 031e 1B88     		ldrh	r3, [r3]
 4725              		.loc 1 1254 6
 4726 0320 002B     		cmp	r3, #0
 4727 0322 09D1     		bne	.L428
1255:../app/app.c  **** 				dc_motor_Stop();
 4728              		.loc 1 1255 5
 4729 0324 FFF7FEFF 		bl	dc_motor_Stop
1256:../app/app.c  **** 				osal_lyh_delay_task(Ms_3000);
 4730              		.loc 1 1256 5
 4731 0328 40F6B830 		movw	r0, #3000
 4732 032c FFF7FEFF 		bl	osal_lyh_delay_task
1257:../app/app.c  **** 				app_task_substep = ESPRESSO_BACK_STATE;
 4733              		.loc 1 1257 22
 4734 0330 434B     		ldr	r3, .L444+4
 4735 0332 0F22     		movs	r2, #15
 4736 0334 1A70     		strb	r2, [r3]
1258:../app/app.c  **** 			}
1259:../app/app.c  **** 			else{
1260:../app/app.c  **** 				osal_lyh_delay_task(Ms_100);
1261:../app/app.c  **** 			}
1262:../app/app.c  **** 			break;
 4737              		.loc 1 1262 4
 4738 0336 7EE0     		b	.L410
 4739              	.L428:
1260:../app/app.c  **** 			}
 4740              		.loc 1 1260 5
 4741 0338 6420     		movs	r0, #100
 4742 033a FFF7FEFF 		bl	osal_lyh_delay_task
 4743              		.loc 1 1262 4
 4744 033e 7AE0     		b	.L410
 4745              	.L392:
1263:../app/app.c  **** 		/* èگƒهڈ–ç”µوœ؛è؟”ه›‍هژںن½چ */
1264:../app/app.c  **** 		case ESPRESSO_BACK_STATE:		//ç”µوœ؛هگ‘هژںن½چè½¬هٹ¨
1265:../app/app.c  **** 			CERRNT_STATE = RST_STATE;	//è®°ه½•è؟›ه؛¦		
 4746              		.loc 1 1265 17
 4747 0340 404B     		ldr	r3, .L444+8
 4748 0342 0622     		movs	r2, #6
 4749 0344 1A70     		strb	r2, [r3]
1266:../app/app.c  **** 			dc_motor_Start(MOTOR_RIGHT);
 4750              		.loc 1 1266 4
 4751 0346 0120     		movs	r0, #1
 4752 0348 FFF7FEFF 		bl	dc_motor_Start
1267:../app/app.c  **** 			osal_lyh_delay_task(Ms_100);
 4753              		.loc 1 1267 4
 4754 034c 6420     		movs	r0, #100
 4755 034e FFF7FEFF 		bl	osal_lyh_delay_task
1268:../app/app.c  **** 			run_max_time = RIGHT_TIMER(Ms_5000, Ms_100);
 4756              		.loc 1 1268 17
 4757 0352 3A4B     		ldr	r3, .L444
 4758 0354 3222     		movs	r2, #50
 4759 0356 1A80     		strh	r2, [r3]	@ movhi
1269:../app/app.c  **** 			app_task_substep = ESPRESSO_INPLACE_JUDGE_STATE;
 4760              		.loc 1 1269 21
 4761 0358 394B     		ldr	r3, .L444+4
 4762 035a 1022     		movs	r2, #16
 4763 035c 1A70     		strb	r2, [r3]
1270:../app/app.c  **** 			break;	
 4764              		.loc 1 1270 4
 4765 035e 6AE0     		b	.L410
 4766              	.L391:
1271:../app/app.c  **** 		case ESPRESSO_INPLACE_JUDGE_STATE:			//هˆ¤و–­ç”µوœ؛وک¯هگ¦هˆ°هژںç‚¹è§¦ç‚¹
1272:../app/app.c  **** 			if ((MOTOR_STATE_STOPED ==dc_motor_GetState())
 4767              		.loc 1 1272 30
 4768 0360 FFF7FEFF 		bl	dc_motor_GetState
 4769 0364 0346     		mov	r3, r0
 4770              		.loc 1 1272 7
 4771 0366 002B     		cmp	r3, #0
 4772 0368 0ED0     		beq	.L430
1273:../app/app.c  **** 				|| (TRUE == app_motor_ready())
 4773              		.loc 1 1273 17
 4774 036a FFF7FEFF 		bl	app_motor_ready
 4775 036e 0346     		mov	r3, r0
 4776              		.loc 1 1273 5
 4777 0370 012B     		cmp	r3, #1
 4778 0372 09D0     		beq	.L430
1274:../app/app.c  **** 				|| (--run_max_time == 0)){
 4779              		.loc 1 1274 9
 4780 0374 314B     		ldr	r3, .L444
 4781 0376 1B88     		ldrh	r3, [r3]
 4782 0378 013B     		subs	r3, r3, #1
 4783 037a 9AB2     		uxth	r2, r3
 4784              		.loc 1 1274 5
 4785 037c 2F4B     		ldr	r3, .L444
 4786 037e 1A80     		strh	r2, [r3]	@ movhi
 4787              		.loc 1 1274 9
 4788 0380 2E4B     		ldr	r3, .L444
 4789 0382 1B88     		ldrh	r3, [r3]
 4790              		.loc 1 1274 5
 4791 0384 002B     		cmp	r3, #0
 4792 0386 05D1     		bne	.L431
 4793              	.L430:
1275:../app/app.c  **** 				dc_motor_Stop();
 4794              		.loc 1 1275 5
 4795 0388 FFF7FEFF 		bl	dc_motor_Stop
1276:../app/app.c  **** 				app_task_substep = ESPRESSO_INPLACE_STATE;					
 4796              		.loc 1 1276 22
 4797 038c 2C4B     		ldr	r3, .L444+4
 4798 038e 1122     		movs	r2, #17
 4799 0390 1A70     		strb	r2, [r3]
1277:../app/app.c  **** 			}
1278:../app/app.c  **** 			else {
1279:../app/app.c  **** 				osal_lyh_delay_task(Ms_100);
1280:../app/app.c  **** 			}
1281:../app/app.c  **** 			break;
 4800              		.loc 1 1281 4
 4801 0392 50E0     		b	.L410
 4802              	.L431:
1279:../app/app.c  **** 			}
 4803              		.loc 1 1279 5
 4804 0394 6420     		movs	r0, #100
 4805 0396 FFF7FEFF 		bl	osal_lyh_delay_task
 4806              		.loc 1 1281 4
 4807 039a 4CE0     		b	.L410
 4808              	.L390:
1282:../app/app.c  **** 		case ESPRESSO_INPLACE_STATE:			//ç”µوœ؛ه›‍è½¬هˆ°هژںن½چ
1283:../app/app.c  **** 			dc_motor_Start(MOTOR_LEFT);
 4809              		.loc 1 1283 4
 4810 039c 0220     		movs	r0, #2
 4811 039e FFF7FEFF 		bl	dc_motor_Start
1284:../app/app.c  **** 			osal_lyh_delay_task(Ms_100);
 4812              		.loc 1 1284 4
 4813 03a2 6420     		movs	r0, #100
 4814 03a4 FFF7FEFF 		bl	osal_lyh_delay_task
1285:../app/app.c  **** 			run_max_time = LEFT_TIMER(MOTOR_FIX_TIME, Ms_100);
 4815              		.loc 1 1285 17
 4816 03a8 244B     		ldr	r3, .L444
 4817 03aa 0322     		movs	r2, #3
 4818 03ac 1A80     		strh	r2, [r3]	@ movhi
1286:../app/app.c  **** 			app_task_substep = ESPRESSO_MOTO_SECOND_RST_STATE;
 4819              		.loc 1 1286 21
 4820 03ae 244B     		ldr	r3, .L444+4
 4821 03b0 1222     		movs	r2, #18
 4822 03b2 1A70     		strb	r2, [r3]
1287:../app/app.c  **** 			break;	
 4823              		.loc 1 1287 4
 4824 03b4 3FE0     		b	.L410
 4825              	.L389:
1288:../app/app.c  **** 		case ESPRESSO_MOTO_SECOND_RST_STATE:	//هˆ¤و–­ç”µوœ؛وک¯هگ¦ه›‍è½¬هˆ°هژںن½چ
1289:../app/app.c  **** 			if (1/*(FAIL == app_motor_ready())*/	// deleting point,(temp to cancel)
1290:../app/app.c  **** 				&& ((MOTOR_STATE_STOPED ==dc_motor_GetState())
 4826              		.loc 1 1290 31
 4827 03b6 FFF7FEFF 		bl	dc_motor_GetState
 4828 03ba 0346     		mov	r3, r0
1289:../app/app.c  **** 				&& ((MOTOR_STATE_STOPED ==dc_motor_GetState())
 4829              		.loc 1 1289 7
 4830 03bc 002B     		cmp	r3, #0
 4831 03be 09D0     		beq	.L433
1291:../app/app.c  **** 				|| (--run_max_time == 0))){
 4832              		.loc 1 1291 9
 4833 03c0 1E4B     		ldr	r3, .L444
 4834 03c2 1B88     		ldrh	r3, [r3]
 4835 03c4 013B     		subs	r3, r3, #1
 4836 03c6 9AB2     		uxth	r2, r3
1290:../app/app.c  **** 				|| (--run_max_time == 0))){
 4837              		.loc 1 1290 5
 4838 03c8 1C4B     		ldr	r3, .L444
 4839 03ca 1A80     		strh	r2, [r3]	@ movhi
 4840              		.loc 1 1291 9
 4841 03cc 1B4B     		ldr	r3, .L444
 4842 03ce 1B88     		ldrh	r3, [r3]
1290:../app/app.c  **** 				|| (--run_max_time == 0))){
 4843              		.loc 1 1290 5
 4844 03d0 002B     		cmp	r3, #0
 4845 03d2 05D1     		bne	.L434
 4846              	.L433:
1292:../app/app.c  **** 				dc_motor_Stop();
 4847              		.loc 1 1292 5
 4848 03d4 FFF7FEFF 		bl	dc_motor_Stop
1293:../app/app.c  **** 				app_task_substep = ESPRESSO_JUDGE_TWO_CUP_STATE;
 4849              		.loc 1 1293 22
 4850 03d8 194B     		ldr	r3, .L444+4
 4851 03da 1322     		movs	r2, #19
 4852 03dc 1A70     		strb	r2, [r3]
1294:../app/app.c  **** 			}
1295:../app/app.c  **** 			else {
1296:../app/app.c  **** 				osal_lyh_delay_task(Ms_100);
1297:../app/app.c  **** 			}
1298:../app/app.c  **** 			break;
 4853              		.loc 1 1298 4
 4854 03de 2AE0     		b	.L410
 4855              	.L434:
1296:../app/app.c  **** 			}
 4856              		.loc 1 1296 5
 4857 03e0 6420     		movs	r0, #100
 4858 03e2 FFF7FEFF 		bl	osal_lyh_delay_task
 4859              		.loc 1 1298 4
 4860 03e6 26E0     		b	.L410
 4861              	.L388:
1299:../app/app.c  **** 		/* هˆ¤و–­وک¯هگ¦ç»§ç»­هˆ¶ن½œç¬¬ن؛Œو‌¯ */
1300:../app/app.c  **** 		case ESPRESSO_JUDGE_TWO_CUP_STATE:
1301:../app/app.c  **** 			if (1 == cup_loop){
 4862              		.loc 1 1301 10
 4863 03e8 174B     		ldr	r3, .L444+12
 4864 03ea 1B78     		ldrb	r3, [r3]	@ zero_extendqisi2
 4865              		.loc 1 1301 7
 4866 03ec 012B     		cmp	r3, #1
 4867 03ee 0AD1     		bne	.L436
1302:../app/app.c  **** 				app_task_substep = ESPRESSO_MOTO_CHECK_STATE;	//ç»§ç»­هˆ¶ن½œç¬¬ن؛Œو‌¯
 4868              		.loc 1 1302 22
 4869 03f0 134B     		ldr	r3, .L444+4
 4870 03f2 0122     		movs	r2, #1
 4871 03f4 1A70     		strb	r2, [r3]
1303:../app/app.c  **** 				cup_loop = 0;
 4872              		.loc 1 1303 14
 4873 03f6 144B     		ldr	r3, .L444+12
 4874 03f8 0022     		movs	r2, #0
 4875 03fa 1A70     		strb	r2, [r3]
1304:../app/app.c  **** 				osal_lyh_delay_task(Ms_500);
 4876              		.loc 1 1304 5
 4877 03fc 4FF4FA70 		mov	r0, #500
 4878 0400 FFF7FEFF 		bl	osal_lyh_delay_task
1305:../app/app.c  **** 			}
1306:../app/app.c  **** 			else {
1307:../app/app.c  **** 				app_task_substep = ESPRESSO_COMPLETE_STATE;		//هˆ¶ن½œه®Œوˆگ
1308:../app/app.c  **** 			}
1309:../app/app.c  **** 			break;
 4879              		.loc 1 1309 4
 4880 0404 17E0     		b	.L410
 4881              	.L436:
1307:../app/app.c  **** 			}
 4882              		.loc 1 1307 22
 4883 0406 0E4B     		ldr	r3, .L444+4
 4884 0408 1422     		movs	r2, #20
 4885 040a 1A70     		strb	r2, [r3]
 4886              		.loc 1 1309 4
 4887 040c 13E0     		b	.L410
 4888              	.L386:
1310:../app/app.c  **** 		/* هˆ¶ن½œه®Œوˆگçٹ¶و€پ */
1311:../app/app.c  **** 		case ESPRESSO_COMPLETE_STATE:
1312:../app/app.c  **** 			CERRNT_STATE = NULL_STATE;	//è®°ه½•è؟›ه؛¦
 4889              		.loc 1 1312 17
 4890 040e 0D4B     		ldr	r3, .L444+8
 4891 0410 0022     		movs	r2, #0
 4892 0412 1A70     		strb	r2, [r3]
1313:../app/app.c  **** 			app_turn_heat_off();		//ه…³é—­هٹ çƒ­
 4893              		.loc 1 1313 4
 4894 0414 FFF7FEFF 		bl	app_turn_heat_off
1314:../app/app.c  **** 			flush_flag = 1;				//ç½®ن½چه†²و´—
 4895              		.loc 1 1314 15
 4896 0418 0C4B     		ldr	r3, .L444+16
 4897 041a 0122     		movs	r2, #1
 4898 041c 1A70     		strb	r2, [r3]
1315:../app/app.c  **** 			app_led_finish_step();		//و‰§è،Œه®Œوˆگهگژçڑ„وŒ‡ç¤؛çپ¯وک¾ç¤؛
 4899              		.loc 1 1315 4
 4900 041e FFF7FEFF 		bl	app_led_finish_step
1316:../app/app.c  **** 			app_task_nextstep(APP_NORMAL_STATE, NORMAL_INIT_STATE);		//ه›‍هˆ°normalçٹ¶و€پï¼Œç­‰ه¾…ن¸‹ن¸€و¬،و
 4901              		.loc 1 1316 4
 4902 0422 0021     		movs	r1, #0
 4903 0424 0320     		movs	r0, #3
 4904 0426 FFF7FEFF 		bl	app_task_nextstep
1317:../app/app.c  **** 			break;
 4905              		.loc 1 1317 4
 4906 042a 04E0     		b	.L410
 4907              	.L438:
1318:../app/app.c  **** 		default:
1319:../app/app.c  **** 			break;
 4908              		.loc 1 1319 4
 4909 042c 00BF     		nop
 4910 042e 02E0     		b	.L441
 4911              	.L439:
1175:../app/app.c  **** 		case ESPRESSO_GRIND_END_STATE:
 4912              		.loc 1 1175 4
 4913 0430 00BF     		nop
 4914 0432 00E0     		b	.L441
 4915              	.L440:
1240:../app/app.c  **** 		case ESPRESSO_BREW_FINISH_STATE:	//ه†²ç…®ه®Œوˆگ
 4916              		.loc 1 1240 4
 4917 0434 00BF     		nop
 4918              	.L410:
 4919              	.L441:
1320:../app/app.c  **** 	}
1321:../app/app.c  **** }
 4920              		.loc 1 1321 1
 4921 0436 00BF     		nop
 4922 0438 80BD     		pop	{r7, pc}
 4923              	.L445:
 4924 043a 00BF     		.align	2
 4925              	.L444:
 4926 043c 00000000 		.word	run_max_time
 4927 0440 00000000 		.word	app_task_substep
 4928 0444 00000000 		.word	CERRNT_STATE
 4929 0448 00000000 		.word	cup_loop
 4930 044c 00000000 		.word	flush_flag
 4931              		.cfi_endproc
 4932              	.LFE169:
 4934              		.section	.text.app_american_handler,"ax",%progbits
 4935              		.align	1
 4936              		.global	app_american_handler
 4937              		.syntax unified
 4938              		.thumb
 4939              		.thumb_func
 4940              		.fpu softvfp
 4942              	app_american_handler:
 4943              	.LFB170:
1322:../app/app.c  **** 
1323:../app/app.c  **** /************************************************************************
1324:../app/app.c  **** * function name: app_american_handler
1325:../app/app.c  **** * input: non
1326:../app/app.c  **** * output: non
1327:../app/app.c  **** * description: object thread
1328:../app/app.c  **** *************************************************************************/
1329:../app/app.c  **** void app_american_handler(void)
1330:../app/app.c  **** {
 4944              		.loc 1 1330 1
 4945              		.cfi_startproc
 4946              		@ args = 0, pretend = 0, frame = 0
 4947              		@ frame_needed = 1, uses_anonymous_args = 0
 4948 0000 80B5     		push	{r7, lr}
 4949              		.cfi_def_cfa_offset 8
 4950              		.cfi_offset 7, -8
 4951              		.cfi_offset 14, -4
 4952 0002 00AF     		add	r7, sp, #0
 4953              		.cfi_def_cfa_register 7
1331:../app/app.c  **** 	switch(app_task_substep)
 4954              		.loc 1 1331 2
 4955 0004 BD4B     		ldr	r3, .L536
 4956 0006 1B78     		ldrb	r3, [r3]	@ zero_extendqisi2
 4957 0008 212B     		cmp	r3, #33
 4958 000a 00F23E83 		bhi	.L532
 4959 000e 01A2     		adr	r2, .L449
 4960 0010 52F823F0 		ldr	pc, [r2, r3, lsl #2]
 4961              		.p2align 2
 4962              	.L449:
 4963 0014 9D000000 		.word	.L482+1
 4964 0018 D9000000 		.word	.L481+1
 4965 001c F3000000 		.word	.L480+1
 4966 0020 2F010000 		.word	.L479+1
 4967 0024 49010000 		.word	.L478+1
 4968 0028 7B010000 		.word	.L477+1
 4969 002c DF010000 		.word	.L476+1
 4970 0030 0F020000 		.word	.L475+1
 4971 0034 2F020000 		.word	.L474+1
 4972 0038 6B020000 		.word	.L473+1
 4973 003c 87020000 		.word	.L472+1
 4974 0040 9B020000 		.word	.L471+1
 4975 0044 B7020000 		.word	.L470+1
 4976 0048 CB020000 		.word	.L469+1
 4977 004c E7020000 		.word	.L468+1
 4978 0050 11030000 		.word	.L467+1
 4979 0054 31030000 		.word	.L466+1
 4980 0058 6D030000 		.word	.L465+1
 4981 005c 87030000 		.word	.L464+1
 4982 0060 B9030000 		.word	.L463+1
 4983 0064 ED030000 		.word	.L462+1
 4984 0068 07040000 		.word	.L461+1
 4985 006c 43040000 		.word	.L460+1
 4986 0070 5D040000 		.word	.L459+1
 4987 0074 8F040000 		.word	.L458+1
 4988 0078 9F040000 		.word	.L457+1
 4989 007c BF040000 		.word	.L456+1
 4990 0080 FB040000 		.word	.L455+1
 4991 0084 8F050000 		.word	.L454+1
 4992 0088 A3050000 		.word	.L453+1
 4993 008c E5050000 		.word	.L452+1
 4994 0090 21060000 		.word	.L451+1
 4995 0094 3B060000 		.word	.L450+1
 4996 0098 6D060000 		.word	.L448+1
 4997              		.p2align 1
 4998              	.L482:
1332:../app/app.c  **** 	{
1333:../app/app.c  **** 		/* هˆ‌ه§‹هŒ–çٹ¶و€پ */
1334:../app/app.c  **** 		case AMERICANO_INIT_STATE:
1335:../app/app.c  **** 			CERRNT_STATE = INIT_AND_GRIND_STATE;	//è®°ه½•è؟›ه؛¦
 4999              		.loc 1 1335 17
 5000 009c 984B     		ldr	r3, .L536+4
 5001 009e 0122     		movs	r2, #1
 5002 00a0 1A70     		strb	r2, [r3]
1336:../app/app.c  **** 			app_leds_all_fun(LED_OFF);
 5003              		.loc 1 1336 4
 5004 00a2 0020     		movs	r0, #0
 5005 00a4 FFF7FEFF 		bl	app_leds_all_fun
1337:../app/app.c  **** 			app_leds_all_ind(LED_OFF);
 5006              		.loc 1 1337 4
 5007 00a8 0020     		movs	r0, #0
 5008 00aa FFF7FEFF 		bl	app_leds_all_ind
1338:../app/app.c  **** 			display_led(START_LED, LED_ON);
 5009              		.loc 1 1338 4
 5010 00ae 0121     		movs	r1, #1
 5011 00b0 0520     		movs	r0, #5
 5012 00b2 FFF7FEFF 		bl	display_led
1339:../app/app.c  **** 			app_led_americano_init();		//هˆ‌ه§‹هŒ–americanoوŒ‡ç¤؛çپ¯é—ھçƒپ
 5013              		.loc 1 1339 4
 5014 00b6 FFF7FEFF 		bl	app_led_americano_init
1340:../app/app.c  **** 			if(1 == manual_setup.cup){		//هˆ¤و–­وœ¬و¬،هˆ¶ن½œو‌¯و•°
 5015              		.loc 1 1340 24
 5016 00ba 924B     		ldr	r3, .L536+8
 5017 00bc 1B78     		ldrb	r3, [r3]	@ zero_extendqisi2
 5018              		.loc 1 1340 6
 5019 00be 012B     		cmp	r3, #1
 5020 00c0 03D1     		bne	.L483
1341:../app/app.c  **** 				cup_loop = 1;
 5021              		.loc 1 1341 14
 5022 00c2 914B     		ldr	r3, .L536+12
 5023 00c4 0122     		movs	r2, #1
 5024 00c6 1A70     		strb	r2, [r3]
 5025 00c8 02E0     		b	.L484
 5026              	.L483:
1342:../app/app.c  **** 			}
1343:../app/app.c  **** 			else{
1344:../app/app.c  **** 				cup_loop = 0;
 5027              		.loc 1 1344 14
 5028 00ca 8F4B     		ldr	r3, .L536+12
 5029 00cc 0022     		movs	r2, #0
 5030 00ce 1A70     		strb	r2, [r3]
 5031              	.L484:
1345:../app/app.c  **** 			}
1346:../app/app.c  **** 			app_task_substep = AMERICANO_MOTO_CHECK_STATE;
 5032              		.loc 1 1346 21
 5033 00d0 8A4B     		ldr	r3, .L536
 5034 00d2 0122     		movs	r2, #1
 5035 00d4 1A70     		strb	r2, [r3]
1347:../app/app.c  **** 			break;
 5036              		.loc 1 1347 4
 5037 00d6 DDE2     		b	.L485
 5038              	.L481:
1348:../app/app.c  **** 		/* èگƒهڈ–ç”µوœ؛ن½چç½®و£€وµ‹ */
1349:../app/app.c  **** 		case AMERICANO_MOTO_CHECK_STATE:	
1350:../app/app.c  **** 			dc_motor_Start(MOTOR_RIGHT);
 5039              		.loc 1 1350 4
 5040 00d8 0120     		movs	r0, #1
 5041 00da FFF7FEFF 		bl	dc_motor_Start
1351:../app/app.c  **** 			osal_lyh_delay_task(Ms_100);
 5042              		.loc 1 1351 4
 5043 00de 6420     		movs	r0, #100
 5044 00e0 FFF7FEFF 		bl	osal_lyh_delay_task
1352:../app/app.c  **** 			run_max_time = RIGHT_TIMER(Ms_3000, Ms_100);
 5045              		.loc 1 1352 17
 5046 00e4 894B     		ldr	r3, .L536+16
 5047 00e6 1E22     		movs	r2, #30
 5048 00e8 1A80     		strh	r2, [r3]	@ movhi
1353:../app/app.c  **** 			app_task_substep = AMERICANO_MOTO_CHECK_JUDGE_STATE;
 5049              		.loc 1 1353 21
 5050 00ea 844B     		ldr	r3, .L536
 5051 00ec 0222     		movs	r2, #2
 5052 00ee 1A70     		strb	r2, [r3]
1354:../app/app.c  **** 			break;
 5053              		.loc 1 1354 4
 5054 00f0 D0E2     		b	.L485
 5055              	.L480:
1355:../app/app.c  **** 		/* هˆ¤و–­èگƒهڈ–ç”µوœ؛وک¯هگ¦è§¦ç¢°هژںç‚¹è§¦ç‚¹ */
1356:../app/app.c  **** 		case AMERICANO_MOTO_CHECK_JUDGE_STATE:
1357:../app/app.c  **** 			if ((MOTOR_STATE_STOPED ==dc_motor_GetState())
 5056              		.loc 1 1357 30
 5057 00f2 FFF7FEFF 		bl	dc_motor_GetState
 5058 00f6 0346     		mov	r3, r0
 5059              		.loc 1 1357 7
 5060 00f8 002B     		cmp	r3, #0
 5061 00fa 0ED0     		beq	.L486
1358:../app/app.c  **** 				|| (TRUE == app_motor_ready())
 5062              		.loc 1 1358 17
 5063 00fc FFF7FEFF 		bl	app_motor_ready
 5064 0100 0346     		mov	r3, r0
 5065              		.loc 1 1358 5
 5066 0102 012B     		cmp	r3, #1
 5067 0104 09D0     		beq	.L486
1359:../app/app.c  **** 				|| (--run_max_time == 0)){
 5068              		.loc 1 1359 9
 5069 0106 814B     		ldr	r3, .L536+16
 5070 0108 1B88     		ldrh	r3, [r3]
 5071 010a 013B     		subs	r3, r3, #1
 5072 010c 9AB2     		uxth	r2, r3
 5073              		.loc 1 1359 5
 5074 010e 7F4B     		ldr	r3, .L536+16
 5075 0110 1A80     		strh	r2, [r3]	@ movhi
 5076              		.loc 1 1359 9
 5077 0112 7E4B     		ldr	r3, .L536+16
 5078 0114 1B88     		ldrh	r3, [r3]
 5079              		.loc 1 1359 5
 5080 0116 002B     		cmp	r3, #0
 5081 0118 05D1     		bne	.L487
 5082              	.L486:
1360:../app/app.c  **** 				dc_motor_Stop();
 5083              		.loc 1 1360 5
 5084 011a FFF7FEFF 		bl	dc_motor_Stop
1361:../app/app.c  **** 				app_task_substep = AMERICANO_MOTO_FIRST_RST_STATE;					
 5085              		.loc 1 1361 22
 5086 011e 774B     		ldr	r3, .L536
 5087 0120 0322     		movs	r2, #3
 5088 0122 1A70     		strb	r2, [r3]
1362:../app/app.c  **** 			}
1363:../app/app.c  **** 			else {
1364:../app/app.c  **** 				osal_lyh_delay_task(Ms_100);
1365:../app/app.c  **** 			}
1366:../app/app.c  **** 			break;
 5089              		.loc 1 1366 4
 5090 0124 B6E2     		b	.L485
 5091              	.L487:
1364:../app/app.c  **** 			}
 5092              		.loc 1 1364 5
 5093 0126 6420     		movs	r0, #100
 5094 0128 FFF7FEFF 		bl	osal_lyh_delay_task
 5095              		.loc 1 1366 4
 5096 012c B2E2     		b	.L485
 5097              	.L479:
1367:../app/app.c  **** 		/* èگƒهڈ–ç”µوœ؛هگ‘ه›‍è½¬هˆ°هژںç‚¹ */
1368:../app/app.c  **** 		case AMERICANO_MOTO_FIRST_RST_STATE:
1369:../app/app.c  **** 			dc_motor_Start(MOTOR_LEFT);
 5098              		.loc 1 1369 4
 5099 012e 0220     		movs	r0, #2
 5100 0130 FFF7FEFF 		bl	dc_motor_Start
1370:../app/app.c  **** 			osal_lyh_delay_task(Ms_100);
 5101              		.loc 1 1370 4
 5102 0134 6420     		movs	r0, #100
 5103 0136 FFF7FEFF 		bl	osal_lyh_delay_task
1371:../app/app.c  **** 			run_max_time = LEFT_TIMER(MOTOR_FIX_TIME, Ms_100);
 5104              		.loc 1 1371 17
 5105 013a 744B     		ldr	r3, .L536+16
 5106 013c 0322     		movs	r2, #3
 5107 013e 1A80     		strh	r2, [r3]	@ movhi
1372:../app/app.c  **** 			app_task_substep = AMERICANO_MOTO_CHECK_COMPLETE_STATE;
 5108              		.loc 1 1372 21
 5109 0140 6E4B     		ldr	r3, .L536
 5110 0142 0422     		movs	r2, #4
 5111 0144 1A70     		strb	r2, [r3]
1373:../app/app.c  **** 			break;
 5112              		.loc 1 1373 4
 5113 0146 A5E2     		b	.L485
 5114              	.L478:
1374:../app/app.c  **** 		/* هˆ¤و–­èگƒهڈ–ç”µوœ؛وک¯هگ¦ه®Œوˆگه›‍è½¬ */
1375:../app/app.c  **** 		case AMERICANO_MOTO_CHECK_COMPLETE_STATE:
1376:../app/app.c  **** 			if (1/*(FAIL == app_motor_ready())*/	// deleting point,(temp to cancel)
1377:../app/app.c  **** 				&& ((MOTOR_STATE_STOPED ==dc_motor_GetState())
 5115              		.loc 1 1377 31
 5116 0148 FFF7FEFF 		bl	dc_motor_GetState
 5117 014c 0346     		mov	r3, r0
1376:../app/app.c  **** 				&& ((MOTOR_STATE_STOPED ==dc_motor_GetState())
 5118              		.loc 1 1376 7
 5119 014e 002B     		cmp	r3, #0
 5120 0150 09D0     		beq	.L489
1378:../app/app.c  **** 				|| (--run_max_time == 0))){
 5121              		.loc 1 1378 9
 5122 0152 6E4B     		ldr	r3, .L536+16
 5123 0154 1B88     		ldrh	r3, [r3]
 5124 0156 013B     		subs	r3, r3, #1
 5125 0158 9AB2     		uxth	r2, r3
1377:../app/app.c  **** 				|| (--run_max_time == 0))){
 5126              		.loc 1 1377 5
 5127 015a 6C4B     		ldr	r3, .L536+16
 5128 015c 1A80     		strh	r2, [r3]	@ movhi
 5129              		.loc 1 1378 9
 5130 015e 6B4B     		ldr	r3, .L536+16
 5131 0160 1B88     		ldrh	r3, [r3]
1377:../app/app.c  **** 				|| (--run_max_time == 0))){
 5132              		.loc 1 1377 5
 5133 0162 002B     		cmp	r3, #0
 5134 0164 05D1     		bne	.L490
 5135              	.L489:
1379:../app/app.c  **** 				dc_motor_Stop();
 5136              		.loc 1 1379 5
 5137 0166 FFF7FEFF 		bl	dc_motor_Stop
1380:../app/app.c  **** 				app_task_substep = AMERICANO_GRIND_TIME_JUDGE_STATE;					
 5138              		.loc 1 1380 22
 5139 016a 644B     		ldr	r3, .L536
 5140 016c 0522     		movs	r2, #5
 5141 016e 1A70     		strb	r2, [r3]
1381:../app/app.c  **** 			}
1382:../app/app.c  **** 			else {
1383:../app/app.c  **** 				osal_lyh_delay_task(Ms_100);
1384:../app/app.c  **** 			}
1385:../app/app.c  **** 			break;
 5142              		.loc 1 1385 4
 5143 0170 90E2     		b	.L485
 5144              	.L490:
1383:../app/app.c  **** 			}
 5145              		.loc 1 1383 5
 5146 0172 6420     		movs	r0, #100
 5147 0174 FFF7FEFF 		bl	osal_lyh_delay_task
 5148              		.loc 1 1385 4
 5149 0178 8CE2     		b	.L485
 5150              	.L477:
1386:../app/app.c  **** 		/* ç ”ç£¨ه’–ه•،è±† */
1387:../app/app.c  **** 		case AMERICANO_GRIND_TIME_JUDGE_STATE:
1388:../app/app.c  **** 			app_turn_heat_on(TARGET_TEMP_100D);		//ه¼€هگ¯هٹ çƒ­
 5151              		.loc 1 1388 4
 5152 017a 40F63E00 		movw	r0, #2110
 5153 017e FFF7FEFF 		bl	app_turn_heat_on
1389:../app/app.c  **** 			if(0 == manual_setup.coffee)	//ç ”ç£¨و—¶é—´و ¹وچ®coffeeç¨‹ه؛¦è°ƒو•´ï¼ڑx1=8s,x2=9s,x3=10s
 5154              		.loc 1 1389 24
 5155 0182 604B     		ldr	r3, .L536+8
 5156 0184 5B78     		ldrb	r3, [r3, #1]	@ zero_extendqisi2
 5157              		.loc 1 1389 6
 5158 0186 002B     		cmp	r3, #0
 5159 0188 0AD1     		bne	.L492
1390:../app/app.c  **** 			{
1391:../app/app.c  **** 				ac_grind_start(1000);		//هگ¯هٹ¨ç ”ç£¨ç”µوœ؛
 5160              		.loc 1 1391 5
 5161 018a 4FF47A70 		mov	r0, #1000
 5162 018e FFF7FEFF 		bl	ac_grind_start
1392:../app/app.c  **** 				run_max_time = GRIND_TIMER(Ms_8000, Ms_100);
 5163              		.loc 1 1392 18
 5164 0192 5E4B     		ldr	r3, .L536+16
 5165 0194 5022     		movs	r2, #80
 5166 0196 1A80     		strh	r2, [r3]	@ movhi
1393:../app/app.c  **** 				app_task_substep = AMERICANO_GRIND_STATE;
 5167              		.loc 1 1393 22
 5168 0198 584B     		ldr	r3, .L536
 5169 019a 0622     		movs	r2, #6
 5170 019c 1A70     		strb	r2, [r3]
1394:../app/app.c  **** 			}
1395:../app/app.c  **** 			else if (1 == manual_setup.coffee)
1396:../app/app.c  **** 			{
1397:../app/app.c  **** 				ac_grind_start(1000);		//هگ¯هٹ¨ç ”ç£¨ç”µوœ؛
1398:../app/app.c  **** 				run_max_time = GRIND_TIMER(Ms_9000, Ms_100);
1399:../app/app.c  **** 				app_task_substep = AMERICANO_GRIND_STATE;	
1400:../app/app.c  **** 			}			
1401:../app/app.c  **** 			else if(2 == manual_setup.coffee)
1402:../app/app.c  **** 			{
1403:../app/app.c  **** 				ac_grind_start(1000);		//هگ¯هٹ¨ç ”ç£¨ç”µوœ؛
1404:../app/app.c  **** 				run_max_time = GRIND_TIMER(Ms_10000, Ms_100);
1405:../app/app.c  **** 				app_task_substep = AMERICANO_GRIND_STATE;	
1406:../app/app.c  **** 			}
1407:../app/app.c  **** 			break;
 5171              		.loc 1 1407 4
 5172 019e 76E2     		b	.L533
 5173              	.L492:
1395:../app/app.c  **** 			{
 5174              		.loc 1 1395 30
 5175 01a0 584B     		ldr	r3, .L536+8
 5176 01a2 5B78     		ldrb	r3, [r3, #1]	@ zero_extendqisi2
1395:../app/app.c  **** 			{
 5177              		.loc 1 1395 12
 5178 01a4 012B     		cmp	r3, #1
 5179 01a6 0AD1     		bne	.L494
1397:../app/app.c  **** 				run_max_time = GRIND_TIMER(Ms_9000, Ms_100);
 5180              		.loc 1 1397 5
 5181 01a8 4FF47A70 		mov	r0, #1000
 5182 01ac FFF7FEFF 		bl	ac_grind_start
1398:../app/app.c  **** 				app_task_substep = AMERICANO_GRIND_STATE;	
 5183              		.loc 1 1398 18
 5184 01b0 564B     		ldr	r3, .L536+16
 5185 01b2 5A22     		movs	r2, #90
 5186 01b4 1A80     		strh	r2, [r3]	@ movhi
1399:../app/app.c  **** 			}			
 5187              		.loc 1 1399 22
 5188 01b6 514B     		ldr	r3, .L536
 5189 01b8 0622     		movs	r2, #6
 5190 01ba 1A70     		strb	r2, [r3]
 5191              		.loc 1 1407 4
 5192 01bc 67E2     		b	.L533
 5193              	.L494:
1401:../app/app.c  **** 			{
 5194              		.loc 1 1401 29
 5195 01be 514B     		ldr	r3, .L536+8
 5196 01c0 5B78     		ldrb	r3, [r3, #1]	@ zero_extendqisi2
1401:../app/app.c  **** 			{
 5197              		.loc 1 1401 11
 5198 01c2 022B     		cmp	r3, #2
 5199 01c4 40F06382 		bne	.L533
1403:../app/app.c  **** 				run_max_time = GRIND_TIMER(Ms_10000, Ms_100);
 5200              		.loc 1 1403 5
 5201 01c8 4FF47A70 		mov	r0, #1000
 5202 01cc FFF7FEFF 		bl	ac_grind_start
1404:../app/app.c  **** 				app_task_substep = AMERICANO_GRIND_STATE;	
 5203              		.loc 1 1404 18
 5204 01d0 4E4B     		ldr	r3, .L536+16
 5205 01d2 6422     		movs	r2, #100
 5206 01d4 1A80     		strh	r2, [r3]	@ movhi
1405:../app/app.c  **** 			}
 5207              		.loc 1 1405 22
 5208 01d6 494B     		ldr	r3, .L536
 5209 01d8 0622     		movs	r2, #6
 5210 01da 1A70     		strb	r2, [r3]
 5211              		.loc 1 1407 4
 5212 01dc 57E2     		b	.L533
 5213              	.L476:
1408:../app/app.c  **** 		case AMERICANO_GRIND_STATE:
1409:../app/app.c  **** 			if (--run_max_time == 0){	//هˆ¤و–­ç ”ç£¨و—¶é—´وک¯هگ¦هˆ°è¾¾
 5214              		.loc 1 1409 8
 5215 01de 4B4B     		ldr	r3, .L536+16
 5216 01e0 1B88     		ldrh	r3, [r3]
 5217 01e2 013B     		subs	r3, r3, #1
 5218 01e4 9AB2     		uxth	r2, r3
 5219              		.loc 1 1409 7
 5220 01e6 494B     		ldr	r3, .L536+16
 5221 01e8 1A80     		strh	r2, [r3]	@ movhi
 5222              		.loc 1 1409 8
 5223 01ea 484B     		ldr	r3, .L536+16
 5224 01ec 1B88     		ldrh	r3, [r3]
 5225              		.loc 1 1409 7
 5226 01ee 002B     		cmp	r3, #0
 5227 01f0 09D1     		bne	.L495
1410:../app/app.c  **** 				ac_grind_stop();
 5228              		.loc 1 1410 5
 5229 01f2 FFF7FEFF 		bl	ac_grind_stop
1411:../app/app.c  **** 				osal_lyh_delay_task(Ms_1000);
 5230              		.loc 1 1411 5
 5231 01f6 4FF47A70 		mov	r0, #1000
 5232 01fa FFF7FEFF 		bl	osal_lyh_delay_task
1412:../app/app.c  **** 				app_task_substep = AMERICANO_MOTO_GO_BREW_STATE;	
 5233              		.loc 1 1412 22
 5234 01fe 3F4B     		ldr	r3, .L536
 5235 0200 0722     		movs	r2, #7
 5236 0202 1A70     		strb	r2, [r3]
1413:../app/app.c  **** 			}
1414:../app/app.c  **** 			else {
1415:../app/app.c  **** 				osal_lyh_delay_task(Ms_100);
1416:../app/app.c  **** 			}
1417:../app/app.c  **** 			break;
 5237              		.loc 1 1417 4
 5238 0204 46E2     		b	.L485
 5239              	.L495:
1415:../app/app.c  **** 			}
 5240              		.loc 1 1415 5
 5241 0206 6420     		movs	r0, #100
 5242 0208 FFF7FEFF 		bl	osal_lyh_delay_task
 5243              		.loc 1 1417 4
 5244 020c 42E2     		b	.L485
 5245              	.L475:
1418:../app/app.c  **** 		/* èگƒهڈ–ç”µوœ؛è½¬هˆ°èگƒهڈ–ن½چç½® */
1419:../app/app.c  **** 		case AMERICANO_MOTO_GO_BREW_STATE:
1420:../app/app.c  **** 			CERRNT_STATE = GO_BREW_STATE;	//è®°ه½•è؟›ه؛¦		
 5246              		.loc 1 1420 17
 5247 020e 3C4B     		ldr	r3, .L536+4
 5248 0210 0222     		movs	r2, #2
 5249 0212 1A70     		strb	r2, [r3]
1421:../app/app.c  **** 			dc_motor_Start(MOTOR_LEFT);		
 5250              		.loc 1 1421 4
 5251 0214 0220     		movs	r0, #2
 5252 0216 FFF7FEFF 		bl	dc_motor_Start
1422:../app/app.c  **** 			osal_lyh_delay_task(Ms_100);
 5253              		.loc 1 1422 4
 5254 021a 6420     		movs	r0, #100
 5255 021c FFF7FEFF 		bl	osal_lyh_delay_task
1423:../app/app.c  **** 			run_max_time = LEFT_TIMER(Ms_7000, Ms_100);
 5256              		.loc 1 1423 17
 5257 0220 3A4B     		ldr	r3, .L536+16
 5258 0222 4622     		movs	r2, #70
 5259 0224 1A80     		strh	r2, [r3]	@ movhi
1424:../app/app.c  **** 			app_task_substep = AMERICANO_MOTO_GO_BREW_JUDGE_STATE;
 5260              		.loc 1 1424 21
 5261 0226 354B     		ldr	r3, .L536
 5262 0228 0822     		movs	r2, #8
 5263 022a 1A70     		strb	r2, [r3]
1425:../app/app.c  **** 			break;
 5264              		.loc 1 1425 4
 5265 022c 32E2     		b	.L485
 5266              	.L474:
1426:../app/app.c  **** 		/* هˆ¤و–­èگƒهڈ–ç”µوœ؛وک¯هگ¦هˆ°è¾¾èگƒهڈ–ن½چç½® */
1427:../app/app.c  **** 		case AMERICANO_MOTO_GO_BREW_JUDGE_STATE:
1428:../app/app.c  **** 			if ((MOTOR_STATE_STOPED ==dc_motor_GetState())
 5267              		.loc 1 1428 30
 5268 022e FFF7FEFF 		bl	dc_motor_GetState
 5269 0232 0346     		mov	r3, r0
 5270              		.loc 1 1428 7
 5271 0234 002B     		cmp	r3, #0
 5272 0236 0ED0     		beq	.L497
1429:../app/app.c  **** 				|| (TRUE == app_motor_ready())
 5273              		.loc 1 1429 17
 5274 0238 FFF7FEFF 		bl	app_motor_ready
 5275 023c 0346     		mov	r3, r0
 5276              		.loc 1 1429 5
 5277 023e 012B     		cmp	r3, #1
 5278 0240 09D0     		beq	.L497
1430:../app/app.c  **** 				|| (--run_max_time == 0)){
 5279              		.loc 1 1430 9
 5280 0242 324B     		ldr	r3, .L536+16
 5281 0244 1B88     		ldrh	r3, [r3]
 5282 0246 013B     		subs	r3, r3, #1
 5283 0248 9AB2     		uxth	r2, r3
 5284              		.loc 1 1430 5
 5285 024a 304B     		ldr	r3, .L536+16
 5286 024c 1A80     		strh	r2, [r3]	@ movhi
 5287              		.loc 1 1430 9
 5288 024e 2F4B     		ldr	r3, .L536+16
 5289 0250 1B88     		ldrh	r3, [r3]
 5290              		.loc 1 1430 5
 5291 0252 002B     		cmp	r3, #0
 5292 0254 05D1     		bne	.L498
 5293              	.L497:
1431:../app/app.c  **** 				dc_motor_Stop();
 5294              		.loc 1 1431 5
 5295 0256 FFF7FEFF 		bl	dc_motor_Stop
1432:../app/app.c  **** 				app_task_substep = AMERICANO_PRE_BREW_STATE;	
 5296              		.loc 1 1432 22
 5297 025a 284B     		ldr	r3, .L536
 5298 025c 0922     		movs	r2, #9
 5299 025e 1A70     		strb	r2, [r3]
1433:../app/app.c  **** 			}
1434:../app/app.c  **** 			else {
1435:../app/app.c  **** 				osal_lyh_delay_task(Ms_100);
1436:../app/app.c  **** 			}			
1437:../app/app.c  **** 			break;
 5300              		.loc 1 1437 4
 5301 0260 18E2     		b	.L485
 5302              	.L498:
1435:../app/app.c  **** 			}			
 5303              		.loc 1 1435 5
 5304 0262 6420     		movs	r0, #100
 5305 0264 FFF7FEFF 		bl	osal_lyh_delay_task
 5306              		.loc 1 1437 4
 5307 0268 14E2     		b	.L485
 5308              	.L473:
1438:../app/app.c  **** 		/* é¢„ه†²ç…®çٹ¶و€پ */
1439:../app/app.c  **** 		case AMERICANO_PRE_BREW_STATE:
1440:../app/app.c  **** 			CERRNT_STATE = PRE_BREW_STATE;	//è®°ه½•è؟›ه؛¦
 5309              		.loc 1 1440 17
 5310 026a 254B     		ldr	r3, .L536+4
 5311 026c 0322     		movs	r2, #3
 5312 026e 1A70     		strb	r2, [r3]
1441:../app/app.c  **** 			ac_pumb_start(CONTINUE_MODE);		//هگ¯هٹ¨و°´و³µ
 5313              		.loc 1 1441 4
 5314 0270 0020     		movs	r0, #0
 5315 0272 FFF7FEFF 		bl	ac_pumb_start
1442:../app/app.c  **** 			osal_lyh_delay_task(Ms_2000 - Ms_200);
 5316              		.loc 1 1442 4
 5317 0276 4FF4E160 		mov	r0, #1800
 5318 027a FFF7FEFF 		bl	osal_lyh_delay_task
1443:../app/app.c  **** 			app_task_substep = AMERICANO_WAIT_BREW_STATE;	
 5319              		.loc 1 1443 21
 5320 027e 1F4B     		ldr	r3, .L536
 5321 0280 0A22     		movs	r2, #10
 5322 0282 1A70     		strb	r2, [r3]
1444:../app/app.c  **** 			break;
 5323              		.loc 1 1444 4
 5324 0284 06E2     		b	.L485
 5325              	.L472:
1445:../app/app.c  **** 		case AMERICANO_WAIT_BREW_STATE:
1446:../app/app.c  **** 			ac_pumb_stop();						//هپœو­¢و°´و³µ
 5326              		.loc 1 1446 4
 5327 0286 FFF7FEFF 		bl	ac_pumb_stop
1447:../app/app.c  **** 			osal_lyh_delay_task(Ms_4000);
 5328              		.loc 1 1447 4
 5329 028a 4FF47A60 		mov	r0, #4000
 5330 028e FFF7FEFF 		bl	osal_lyh_delay_task
1448:../app/app.c  **** 			app_task_substep = AMERICANO_BREW_STATE;	
 5331              		.loc 1 1448 21
 5332 0292 1A4B     		ldr	r3, .L536
 5333 0294 0B22     		movs	r2, #11
 5334 0296 1A70     		strb	r2, [r3]
1449:../app/app.c  **** 			break;
 5335              		.loc 1 1449 4
 5336 0298 FCE1     		b	.L485
 5337              	.L471:
1450:../app/app.c  **** 		/* ه†²ç…®çٹ¶و€پ */
1451:../app/app.c  **** 		case AMERICANO_BREW_STATE:			
1452:../app/app.c  **** 			CERRNT_STATE = BREW_STATE;	//è®°ه½•è؟›ه؛¦
 5338              		.loc 1 1452 17
 5339 029a 194B     		ldr	r3, .L536+4
 5340 029c 0422     		movs	r2, #4
 5341 029e 1A70     		strb	r2, [r3]
1453:../app/app.c  **** 			ac_pumb_start(CONTINUE_MODE);
 5342              		.loc 1 1453 4
 5343 02a0 0020     		movs	r0, #0
 5344 02a2 FFF7FEFF 		bl	ac_pumb_start
1454:../app/app.c  **** 			osal_lyh_delay_task(Ms_12000 - Ms_100);
 5345              		.loc 1 1454 4
 5346 02a6 42F67C60 		movw	r0, #11900
 5347 02aa FFF7FEFF 		bl	osal_lyh_delay_task
1455:../app/app.c  **** 			app_task_substep = AMERICANO_BREW_FINISH_STATE;			
 5348              		.loc 1 1455 21
 5349 02ae 134B     		ldr	r3, .L536
 5350 02b0 0C22     		movs	r2, #12
 5351 02b2 1A70     		strb	r2, [r3]
1456:../app/app.c  **** 			break;
 5352              		.loc 1 1456 4
 5353 02b4 EEE1     		b	.L485
 5354              	.L470:
1457:../app/app.c  **** 		case AMERICANO_BREW_FINISH_STATE:	//ه†²ç…®ه®Œوˆگ
1458:../app/app.c  **** 			ac_pumb_stop();		//هپœو­¢و°´و³µ	
 5355              		.loc 1 1458 4
 5356 02b6 FFF7FEFF 		bl	ac_pumb_stop
1459:../app/app.c  **** 			osal_lyh_delay_task(Ms_6000);
 5357              		.loc 1 1459 4
 5358 02ba 41F27070 		movw	r0, #6000
 5359 02be FFF7FEFF 		bl	osal_lyh_delay_task
1460:../app/app.c  **** 			app_task_substep = AMERICANO_GO_DROP_COFFEE_GROUNDS_STATE;	
 5360              		.loc 1 1460 21
 5361 02c2 0E4B     		ldr	r3, .L536
 5362 02c4 0D22     		movs	r2, #13
 5363 02c6 1A70     		strb	r2, [r3]
1461:../app/app.c  **** 			break;
 5364              		.loc 1 1461 4
 5365 02c8 E4E1     		b	.L485
 5366              	.L469:
1462:../app/app.c  **** 		/* ن¸¢ه’–ه•،و¸£çٹ¶و€پ */
1463:../app/app.c  **** 		case AMERICANO_GO_DROP_COFFEE_GROUNDS_STATE:
1464:../app/app.c  **** 			CERRNT_STATE = DROP_BEANS_STATE;	//è®°ه½•è؟›ه؛¦
 5367              		.loc 1 1464 17
 5368 02ca 0D4B     		ldr	r3, .L536+4
 5369 02cc 0522     		movs	r2, #5
 5370 02ce 1A70     		strb	r2, [r3]
1465:../app/app.c  **** 			dc_motor_Start(MOTOR_RIGHT);	//ç”µوœ؛هڈچè½¬2.9sï¼Œ هˆ°ن¸¢ه’–ه•،و¸£ن½چç½®
 5371              		.loc 1 1465 4
 5372 02d0 0120     		movs	r0, #1
 5373 02d2 FFF7FEFF 		bl	dc_motor_Start
1466:../app/app.c  **** 			osal_lyh_delay_task(Ms_3000 - Ms_100);
 5374              		.loc 1 1466 4
 5375 02d6 40F65430 		movw	r0, #2900
 5376 02da FFF7FEFF 		bl	osal_lyh_delay_task
1467:../app/app.c  **** 			app_task_substep = AMERICANO_DROP_COFFEE_GROUNDS_STATE;	
 5377              		.loc 1 1467 21
 5378 02de 074B     		ldr	r3, .L536
 5379 02e0 0E22     		movs	r2, #14
 5380 02e2 1A70     		strb	r2, [r3]
1468:../app/app.c  **** 			break;
 5381              		.loc 1 1468 4
 5382 02e4 D6E1     		b	.L485
 5383              	.L468:
1469:../app/app.c  **** 		case AMERICANO_DROP_COFFEE_GROUNDS_STATE:
1470:../app/app.c  **** 			dc_motor_Stop();
 5384              		.loc 1 1470 4
 5385 02e6 FFF7FEFF 		bl	dc_motor_Stop
1471:../app/app.c  **** 			osal_lyh_delay_task(Ms_3000);
 5386              		.loc 1 1471 4
 5387 02ea 40F6B830 		movw	r0, #3000
 5388 02ee FFF7FEFF 		bl	osal_lyh_delay_task
1472:../app/app.c  **** 			app_task_substep = AMERICANO_BACK_STATE;
 5389              		.loc 1 1472 21
 5390 02f2 024B     		ldr	r3, .L536
 5391 02f4 0F22     		movs	r2, #15
 5392 02f6 1A70     		strb	r2, [r3]
1473:../app/app.c  **** 			break;
 5393              		.loc 1 1473 4
 5394 02f8 CCE1     		b	.L485
 5395              	.L537:
 5396 02fa 00BF     		.align	2
 5397              	.L536:
 5398 02fc 00000000 		.word	app_task_substep
 5399 0300 00000000 		.word	CERRNT_STATE
 5400 0304 00000000 		.word	manual_setup
 5401 0308 00000000 		.word	cup_loop
 5402 030c 00000000 		.word	run_max_time
 5403              	.L467:
1474:../app/app.c  **** 		/* èگƒهڈ–ç”µوœ؛è؟”ه›‍هژںن½چ */
1475:../app/app.c  **** 		case AMERICANO_BACK_STATE:		//ç”µوœ؛هگ‘هژںن½چè½¬هٹ¨
1476:../app/app.c  **** 			CERRNT_STATE = RST_STATE;	//è®°ه½•è؟›ه؛¦
 5404              		.loc 1 1476 17
 5405 0310 AC4B     		ldr	r3, .L538
 5406 0312 0622     		movs	r2, #6
 5407 0314 1A70     		strb	r2, [r3]
1477:../app/app.c  **** 			dc_motor_Start(MOTOR_RIGHT);
 5408              		.loc 1 1477 4
 5409 0316 0120     		movs	r0, #1
 5410 0318 FFF7FEFF 		bl	dc_motor_Start
1478:../app/app.c  **** 			osal_lyh_delay_task(Ms_100);
 5411              		.loc 1 1478 4
 5412 031c 6420     		movs	r0, #100
 5413 031e FFF7FEFF 		bl	osal_lyh_delay_task
1479:../app/app.c  **** 			run_max_time = RIGHT_TIMER(Ms_5000, Ms_100);
 5414              		.loc 1 1479 17
 5415 0322 A94B     		ldr	r3, .L538+4
 5416 0324 3222     		movs	r2, #50
 5417 0326 1A80     		strh	r2, [r3]	@ movhi
1480:../app/app.c  **** 			app_task_substep = AMERICANO_INPLACE_JUDGE_STATE;
 5418              		.loc 1 1480 21
 5419 0328 A84B     		ldr	r3, .L538+8
 5420 032a 1022     		movs	r2, #16
 5421 032c 1A70     		strb	r2, [r3]
1481:../app/app.c  **** 			break;	
 5422              		.loc 1 1481 4
 5423 032e B1E1     		b	.L485
 5424              	.L466:
1482:../app/app.c  **** 		case AMERICANO_INPLACE_JUDGE_STATE:			//هˆ¤و–­ç”µوœ؛وک¯هگ¦هˆ°هژںç‚¹è§¦ç‚¹
1483:../app/app.c  **** 			if ((MOTOR_STATE_STOPED ==dc_motor_GetState())
 5425              		.loc 1 1483 30
 5426 0330 FFF7FEFF 		bl	dc_motor_GetState
 5427 0334 0346     		mov	r3, r0
 5428              		.loc 1 1483 7
 5429 0336 002B     		cmp	r3, #0
 5430 0338 0ED0     		beq	.L500
1484:../app/app.c  **** 				|| (TRUE == app_motor_ready())
 5431              		.loc 1 1484 17
 5432 033a FFF7FEFF 		bl	app_motor_ready
 5433 033e 0346     		mov	r3, r0
 5434              		.loc 1 1484 5
 5435 0340 012B     		cmp	r3, #1
 5436 0342 09D0     		beq	.L500
1485:../app/app.c  **** 				|| (--run_max_time == 0)){
 5437              		.loc 1 1485 9
 5438 0344 A04B     		ldr	r3, .L538+4
 5439 0346 1B88     		ldrh	r3, [r3]
 5440 0348 013B     		subs	r3, r3, #1
 5441 034a 9AB2     		uxth	r2, r3
 5442              		.loc 1 1485 5
 5443 034c 9E4B     		ldr	r3, .L538+4
 5444 034e 1A80     		strh	r2, [r3]	@ movhi
 5445              		.loc 1 1485 9
 5446 0350 9D4B     		ldr	r3, .L538+4
 5447 0352 1B88     		ldrh	r3, [r3]
 5448              		.loc 1 1485 5
 5449 0354 002B     		cmp	r3, #0
 5450 0356 05D1     		bne	.L501
 5451              	.L500:
1486:../app/app.c  **** 				dc_motor_Stop();
 5452              		.loc 1 1486 5
 5453 0358 FFF7FEFF 		bl	dc_motor_Stop
1487:../app/app.c  **** 				app_task_substep = AMERICANO_INPLACE_STATE;					
 5454              		.loc 1 1487 22
 5455 035c 9B4B     		ldr	r3, .L538+8
 5456 035e 1122     		movs	r2, #17
 5457 0360 1A70     		strb	r2, [r3]
1488:../app/app.c  **** 			}
1489:../app/app.c  **** 			else {
1490:../app/app.c  **** 				osal_lyh_delay_task(Ms_100);
1491:../app/app.c  **** 			}
1492:../app/app.c  **** 			break;
 5458              		.loc 1 1492 4
 5459 0362 97E1     		b	.L485
 5460              	.L501:
1490:../app/app.c  **** 			}
 5461              		.loc 1 1490 5
 5462 0364 6420     		movs	r0, #100
 5463 0366 FFF7FEFF 		bl	osal_lyh_delay_task
 5464              		.loc 1 1492 4
 5465 036a 93E1     		b	.L485
 5466              	.L465:
1493:../app/app.c  **** 		case AMERICANO_INPLACE_STATE:			//ç”µوœ؛ه›‍è½¬هˆ°هژںن½چ
1494:../app/app.c  **** 			dc_motor_Start(MOTOR_LEFT);
 5467              		.loc 1 1494 4
 5468 036c 0220     		movs	r0, #2
 5469 036e FFF7FEFF 		bl	dc_motor_Start
1495:../app/app.c  **** 			osal_lyh_delay_task(Ms_100);
 5470              		.loc 1 1495 4
 5471 0372 6420     		movs	r0, #100
 5472 0374 FFF7FEFF 		bl	osal_lyh_delay_task
1496:../app/app.c  **** 			run_max_time = LEFT_TIMER(MOTOR_FIX_TIME, Ms_100);
 5473              		.loc 1 1496 17
 5474 0378 934B     		ldr	r3, .L538+4
 5475 037a 0322     		movs	r2, #3
 5476 037c 1A80     		strh	r2, [r3]	@ movhi
1497:../app/app.c  **** 			app_task_substep = AMERICANO_MOTO_RST_STATE;
 5477              		.loc 1 1497 21
 5478 037e 934B     		ldr	r3, .L538+8
 5479 0380 1222     		movs	r2, #18
 5480 0382 1A70     		strb	r2, [r3]
1498:../app/app.c  **** 			break;	
 5481              		.loc 1 1498 4
 5482 0384 86E1     		b	.L485
 5483              	.L464:
1499:../app/app.c  **** 		case AMERICANO_MOTO_RST_STATE:	//هˆ¤و–­ç”µوœ؛وک¯هگ¦ه›‍è½¬هˆ°هژںن½چ
1500:../app/app.c  **** 			if (1/*(FAIL == app_motor_ready())*/	// deleting point,(temp to cancel)
1501:../app/app.c  **** 				&& ((MOTOR_STATE_STOPED ==dc_motor_GetState())
 5484              		.loc 1 1501 31
 5485 0386 FFF7FEFF 		bl	dc_motor_GetState
 5486 038a 0346     		mov	r3, r0
1500:../app/app.c  **** 				&& ((MOTOR_STATE_STOPED ==dc_motor_GetState())
 5487              		.loc 1 1500 7
 5488 038c 002B     		cmp	r3, #0
 5489 038e 09D0     		beq	.L503
1502:../app/app.c  **** 				|| (--run_max_time == 0))){
 5490              		.loc 1 1502 9
 5491 0390 8D4B     		ldr	r3, .L538+4
 5492 0392 1B88     		ldrh	r3, [r3]
 5493 0394 013B     		subs	r3, r3, #1
 5494 0396 9AB2     		uxth	r2, r3
1501:../app/app.c  **** 				|| (--run_max_time == 0))){
 5495              		.loc 1 1501 5
 5496 0398 8B4B     		ldr	r3, .L538+4
 5497 039a 1A80     		strh	r2, [r3]	@ movhi
 5498              		.loc 1 1502 9
 5499 039c 8A4B     		ldr	r3, .L538+4
 5500 039e 1B88     		ldrh	r3, [r3]
1501:../app/app.c  **** 				|| (--run_max_time == 0))){
 5501              		.loc 1 1501 5
 5502 03a0 002B     		cmp	r3, #0
 5503 03a2 05D1     		bne	.L504
 5504              	.L503:
1503:../app/app.c  **** 				dc_motor_Stop();
 5505              		.loc 1 1503 5
 5506 03a4 FFF7FEFF 		bl	dc_motor_Stop
1504:../app/app.c  **** 				app_task_substep = AMERICANO_JUDGE_TWO_CUP_STATE;
 5507              		.loc 1 1504 22
 5508 03a8 884B     		ldr	r3, .L538+8
 5509 03aa 1322     		movs	r2, #19
 5510 03ac 1A70     		strb	r2, [r3]
1505:../app/app.c  **** 			}
1506:../app/app.c  **** 			else {
1507:../app/app.c  **** 				osal_lyh_delay_task(Ms_100);
1508:../app/app.c  **** 			}
1509:../app/app.c  **** 			break;
 5511              		.loc 1 1509 4
 5512 03ae 71E1     		b	.L485
 5513              	.L504:
1507:../app/app.c  **** 			}
 5514              		.loc 1 1507 5
 5515 03b0 6420     		movs	r0, #100
 5516 03b2 FFF7FEFF 		bl	osal_lyh_delay_task
 5517              		.loc 1 1509 4
 5518 03b6 6DE1     		b	.L485
 5519              	.L463:
1510:../app/app.c  **** 		/* هˆ¤و–­وک¯هگ¦ç»§ç»­هˆ¶ن½œç¬¬ن؛Œو‌¯ */
1511:../app/app.c  **** 		case AMERICANO_JUDGE_TWO_CUP_STATE:
1512:../app/app.c  **** 			flush_flag = 1;				//ç½®ن½چو¸…و´—و ‡ه؟—
 5520              		.loc 1 1512 15
 5521 03b8 854B     		ldr	r3, .L538+12
 5522 03ba 0122     		movs	r2, #1
 5523 03bc 1A70     		strb	r2, [r3]
1513:../app/app.c  **** 			if(1 == cup_loop){											//éœ€è¦پهˆ¶ن½œç¬¬ن؛Œو‌¯	
 5524              		.loc 1 1513 9
 5525 03be 854B     		ldr	r3, .L538+16
 5526 03c0 1B78     		ldrb	r3, [r3]	@ zero_extendqisi2
 5527              		.loc 1 1513 6
 5528 03c2 012B     		cmp	r3, #1
 5529 03c4 0AD1     		bne	.L506
1514:../app/app.c  **** 				cup_loop = 0;											//و¶ˆè€—و‌¯و•°ه¾ھçژ¯و ‡ه؟—
 5530              		.loc 1 1514 14
 5531 03c6 834B     		ldr	r3, .L538+16
 5532 03c8 0022     		movs	r2, #0
 5533 03ca 1A70     		strb	r2, [r3]
1515:../app/app.c  **** 				osal_lyh_delay_task(Ms_500);
 5534              		.loc 1 1515 5
 5535 03cc 4FF4FA70 		mov	r0, #500
 5536 03d0 FFF7FEFF 		bl	osal_lyh_delay_task
1516:../app/app.c  **** 				app_task_substep = AMERICANO_GRIND_TIME_JUDGE_STATE;	//è؟”ه›‍ç ”ç£¨و­¥éھ¤ï¼Œç»§ç»­هˆ¶ن½œç¬¬ن؛Œو
 5537              		.loc 1 1516 22
 5538 03d4 7D4B     		ldr	r3, .L538+8
 5539 03d6 0522     		movs	r2, #5
 5540 03d8 1A70     		strb	r2, [r3]
1517:../app/app.c  **** 			}
1518:../app/app.c  **** 			else{														//ن¸چéœ€è¦پهˆ¶ن½œç¬¬ن؛Œو‌¯
1519:../app/app.c  **** 				osal_lyh_delay_task(Ms_360);
1520:../app/app.c  **** 				app_task_substep = AMERICANO_MOTO_CHECK2_STATE;			//è؟›è،Œç¬¬ن؛Œو¬،èگƒهڈ–ç”µوœ؛ن½چç½®و£€وں¥
1521:../app/app.c  **** 			}
1522:../app/app.c  **** 			break;
 5541              		.loc 1 1522 4
 5542 03da 5BE1     		b	.L485
 5543              	.L506:
1519:../app/app.c  **** 				app_task_substep = AMERICANO_MOTO_CHECK2_STATE;			//è؟›è،Œç¬¬ن؛Œو¬،èگƒهڈ–ç”µوœ؛ن½چç½®و£€وں¥
 5544              		.loc 1 1519 5
 5545 03dc 4FF4B470 		mov	r0, #360
 5546 03e0 FFF7FEFF 		bl	osal_lyh_delay_task
1520:../app/app.c  **** 			}
 5547              		.loc 1 1520 22
 5548 03e4 794B     		ldr	r3, .L538+8
 5549 03e6 1422     		movs	r2, #20
 5550 03e8 1A70     		strb	r2, [r3]
 5551              		.loc 1 1522 4
 5552 03ea 53E1     		b	.L485
 5553              	.L462:
1523:../app/app.c  **** 		/* ç¬¬ن؛Œو¬،و£€وµ‹èگƒهڈ–ç”µوœ؛ن½چç½® */
1524:../app/app.c  **** 		case AMERICANO_MOTO_CHECK2_STATE:
1525:../app/app.c  **** 			dc_motor_Start(MOTOR_RIGHT);
 5554              		.loc 1 1525 4
 5555 03ec 0120     		movs	r0, #1
 5556 03ee FFF7FEFF 		bl	dc_motor_Start
1526:../app/app.c  **** 			osal_lyh_delay_task(Ms_100);
 5557              		.loc 1 1526 4
 5558 03f2 6420     		movs	r0, #100
 5559 03f4 FFF7FEFF 		bl	osal_lyh_delay_task
1527:../app/app.c  **** 			run_max_time = RIGHT_TIMER(Ms_3000, Ms_100);
 5560              		.loc 1 1527 17
 5561 03f8 734B     		ldr	r3, .L538+4
 5562 03fa 1E22     		movs	r2, #30
 5563 03fc 1A80     		strh	r2, [r3]	@ movhi
1528:../app/app.c  **** 			app_task_substep = AMERICANO_MOTO_CHECK2_JUDGE_STATE;
 5564              		.loc 1 1528 21
 5565 03fe 734B     		ldr	r3, .L538+8
 5566 0400 1522     		movs	r2, #21
 5567 0402 1A70     		strb	r2, [r3]
1529:../app/app.c  **** 			break;
 5568              		.loc 1 1529 4
 5569 0404 46E1     		b	.L485
 5570              	.L461:
1530:../app/app.c  **** 		/* هˆ¤و–­èگƒهڈ–ç”µوœ؛وک¯هگ¦è§¦ç¢°هژںç‚¹è§¦ç‚¹ */
1531:../app/app.c  **** 		case AMERICANO_MOTO_CHECK2_JUDGE_STATE:
1532:../app/app.c  **** 			if ((MOTOR_STATE_STOPED ==dc_motor_GetState())
 5571              		.loc 1 1532 30
 5572 0406 FFF7FEFF 		bl	dc_motor_GetState
 5573 040a 0346     		mov	r3, r0
 5574              		.loc 1 1532 7
 5575 040c 002B     		cmp	r3, #0
 5576 040e 0ED0     		beq	.L508
1533:../app/app.c  **** 				|| (TRUE == app_motor_ready())
 5577              		.loc 1 1533 17
 5578 0410 FFF7FEFF 		bl	app_motor_ready
 5579 0414 0346     		mov	r3, r0
 5580              		.loc 1 1533 5
 5581 0416 012B     		cmp	r3, #1
 5582 0418 09D0     		beq	.L508
1534:../app/app.c  **** 				|| (--run_max_time == 0)){
 5583              		.loc 1 1534 9
 5584 041a 6B4B     		ldr	r3, .L538+4
 5585 041c 1B88     		ldrh	r3, [r3]
 5586 041e 013B     		subs	r3, r3, #1
 5587 0420 9AB2     		uxth	r2, r3
 5588              		.loc 1 1534 5
 5589 0422 694B     		ldr	r3, .L538+4
 5590 0424 1A80     		strh	r2, [r3]	@ movhi
 5591              		.loc 1 1534 9
 5592 0426 684B     		ldr	r3, .L538+4
 5593 0428 1B88     		ldrh	r3, [r3]
 5594              		.loc 1 1534 5
 5595 042a 002B     		cmp	r3, #0
 5596 042c 05D1     		bne	.L509
 5597              	.L508:
1535:../app/app.c  **** 				dc_motor_Stop();
 5598              		.loc 1 1535 5
 5599 042e FFF7FEFF 		bl	dc_motor_Stop
1536:../app/app.c  **** 				app_task_substep = AMERICANO_MOTO_SECOND_RST_STATE;					
 5600              		.loc 1 1536 22
 5601 0432 664B     		ldr	r3, .L538+8
 5602 0434 1622     		movs	r2, #22
 5603 0436 1A70     		strb	r2, [r3]
1537:../app/app.c  **** 			}
1538:../app/app.c  **** 			else {
1539:../app/app.c  **** 				osal_lyh_delay_task(Ms_100);
1540:../app/app.c  **** 			}
1541:../app/app.c  **** 			break;
 5604              		.loc 1 1541 4
 5605 0438 2CE1     		b	.L485
 5606              	.L509:
1539:../app/app.c  **** 			}
 5607              		.loc 1 1539 5
 5608 043a 6420     		movs	r0, #100
 5609 043c FFF7FEFF 		bl	osal_lyh_delay_task
 5610              		.loc 1 1541 4
 5611 0440 28E1     		b	.L485
 5612              	.L460:
1542:../app/app.c  **** 		/* èگƒهڈ–ç”µوœ؛هگ‘ه›‍è½¬هˆ°هژںç‚¹ */
1543:../app/app.c  **** 		case AMERICANO_MOTO_SECOND_RST_STATE:
1544:../app/app.c  **** 			dc_motor_Start(MOTOR_LEFT);
 5613              		.loc 1 1544 4
 5614 0442 0220     		movs	r0, #2
 5615 0444 FFF7FEFF 		bl	dc_motor_Start
1545:../app/app.c  **** 			osal_lyh_delay_task(Ms_100);
 5616              		.loc 1 1545 4
 5617 0448 6420     		movs	r0, #100
 5618 044a FFF7FEFF 		bl	osal_lyh_delay_task
1546:../app/app.c  **** 			run_max_time = LEFT_TIMER(MOTOR_FIX_TIME, Ms_100);
 5619              		.loc 1 1546 17
 5620 044e 5E4B     		ldr	r3, .L538+4
 5621 0450 0322     		movs	r2, #3
 5622 0452 1A80     		strh	r2, [r3]	@ movhi
1547:../app/app.c  **** 			app_task_substep = AMERICANO_MOTO_CHECK2_COMPLETE_STATE;
 5623              		.loc 1 1547 21
 5624 0454 5D4B     		ldr	r3, .L538+8
 5625 0456 1722     		movs	r2, #23
 5626 0458 1A70     		strb	r2, [r3]
1548:../app/app.c  **** 			break;
 5627              		.loc 1 1548 4
 5628 045a 1BE1     		b	.L485
 5629              	.L459:
1549:../app/app.c  **** 		/* هˆ¤و–­èگƒهڈ–ç”µوœ؛وک¯هگ¦ه®Œوˆگه›‍è½¬ */
1550:../app/app.c  **** 		case AMERICANO_MOTO_CHECK2_COMPLETE_STATE:
1551:../app/app.c  **** 			if (1/*(FAIL == app_motor_ready())*/	// deleting point,(temp to cancel)
1552:../app/app.c  **** 				&& ((MOTOR_STATE_STOPED ==dc_motor_GetState())
 5630              		.loc 1 1552 31
 5631 045c FFF7FEFF 		bl	dc_motor_GetState
 5632 0460 0346     		mov	r3, r0
1551:../app/app.c  **** 				&& ((MOTOR_STATE_STOPED ==dc_motor_GetState())
 5633              		.loc 1 1551 7
 5634 0462 002B     		cmp	r3, #0
 5635 0464 09D0     		beq	.L511
1553:../app/app.c  **** 				|| (--run_max_time == 0))){
 5636              		.loc 1 1553 9
 5637 0466 584B     		ldr	r3, .L538+4
 5638 0468 1B88     		ldrh	r3, [r3]
 5639 046a 013B     		subs	r3, r3, #1
 5640 046c 9AB2     		uxth	r2, r3
1552:../app/app.c  **** 				|| (--run_max_time == 0))){
 5641              		.loc 1 1552 5
 5642 046e 564B     		ldr	r3, .L538+4
 5643 0470 1A80     		strh	r2, [r3]	@ movhi
 5644              		.loc 1 1553 9
 5645 0472 554B     		ldr	r3, .L538+4
 5646 0474 1B88     		ldrh	r3, [r3]
1552:../app/app.c  **** 				|| (--run_max_time == 0))){
 5647              		.loc 1 1552 5
 5648 0476 002B     		cmp	r3, #0
 5649 0478 05D1     		bne	.L512
 5650              	.L511:
1554:../app/app.c  **** 				dc_motor_Stop();
 5651              		.loc 1 1554 5
 5652 047a FFF7FEFF 		bl	dc_motor_Stop
1555:../app/app.c  **** 				app_task_substep = AMERICANO_WAIT_MOTO_GO_BREW2_STATE;					
 5653              		.loc 1 1555 22
 5654 047e 534B     		ldr	r3, .L538+8
 5655 0480 1822     		movs	r2, #24
 5656 0482 1A70     		strb	r2, [r3]
1556:../app/app.c  **** 			}
1557:../app/app.c  **** 			else {
1558:../app/app.c  **** 				osal_lyh_delay_task(Ms_100);
1559:../app/app.c  **** 			}
1560:../app/app.c  **** 			break;
 5657              		.loc 1 1560 4
 5658 0484 06E1     		b	.L485
 5659              	.L512:
1558:../app/app.c  **** 			}
 5660              		.loc 1 1558 5
 5661 0486 6420     		movs	r0, #100
 5662 0488 FFF7FEFF 		bl	osal_lyh_delay_task
 5663              		.loc 1 1560 4
 5664 048c 02E1     		b	.L485
 5665              	.L458:
1561:../app/app.c  **** 		/* ç­‰ه¾…ç¬¬ن؛Œو¬،èگƒهڈ–ï¼ˆهٹ و°´ï¼‰ */	
1562:../app/app.c  **** 		case AMERICANO_WAIT_MOTO_GO_BREW2_STATE:
1563:../app/app.c  **** 			osal_lyh_delay_task(Ms_4000);
 5666              		.loc 1 1563 4
 5667 048e 4FF47A60 		mov	r0, #4000
 5668 0492 FFF7FEFF 		bl	osal_lyh_delay_task
1564:../app/app.c  **** 			app_task_substep = AMERICANO_MOTO_GO_BREW2_STATE;
 5669              		.loc 1 1564 21
 5670 0496 4D4B     		ldr	r3, .L538+8
 5671 0498 1922     		movs	r2, #25
 5672 049a 1A70     		strb	r2, [r3]
1565:../app/app.c  **** 			break;
 5673              		.loc 1 1565 4
 5674 049c FAE0     		b	.L485
 5675              	.L457:
1566:../app/app.c  **** 		/* ç¬¬ن؛Œو¬،هژ»èگƒهڈ–ï¼ˆهٹ و°´ï¼‰ */	
1567:../app/app.c  **** 		case AMERICANO_MOTO_GO_BREW2_STATE:
1568:../app/app.c  **** 			CERRNT_STATE = GO_BREW_STATE;	//è®°ه½•è؟›ه؛¦
 5676              		.loc 1 1568 17
 5677 049e 494B     		ldr	r3, .L538
 5678 04a0 0222     		movs	r2, #2
 5679 04a2 1A70     		strb	r2, [r3]
1569:../app/app.c  **** 			dc_motor_Start(MOTOR_LEFT);		
 5680              		.loc 1 1569 4
 5681 04a4 0220     		movs	r0, #2
 5682 04a6 FFF7FEFF 		bl	dc_motor_Start
1570:../app/app.c  **** 			osal_lyh_delay_task(Ms_100);
 5683              		.loc 1 1570 4
 5684 04aa 6420     		movs	r0, #100
 5685 04ac FFF7FEFF 		bl	osal_lyh_delay_task
1571:../app/app.c  **** 			run_max_time = LEFT_TIMER(Ms_7000, Ms_100);
 5686              		.loc 1 1571 17
 5687 04b0 454B     		ldr	r3, .L538+4
 5688 04b2 4622     		movs	r2, #70
 5689 04b4 1A80     		strh	r2, [r3]	@ movhi
1572:../app/app.c  **** 			app_task_substep = AMERICANO_MOTO_GO_BREW2_JUDGE_STATE;
 5690              		.loc 1 1572 21
 5691 04b6 454B     		ldr	r3, .L538+8
 5692 04b8 1A22     		movs	r2, #26
 5693 04ba 1A70     		strb	r2, [r3]
1573:../app/app.c  **** 			break;
 5694              		.loc 1 1573 4
 5695 04bc EAE0     		b	.L485
 5696              	.L456:
1574:../app/app.c  **** 		/* هˆ¤و–­èگƒهڈ–ç”µوœ؛وک¯هگ¦هˆ°è¾¾èگƒهڈ–ن½چç½® */
1575:../app/app.c  **** 		case AMERICANO_MOTO_GO_BREW2_JUDGE_STATE:
1576:../app/app.c  **** 			if ((MOTOR_STATE_STOPED ==dc_motor_GetState())
 5697              		.loc 1 1576 30
 5698 04be FFF7FEFF 		bl	dc_motor_GetState
 5699 04c2 0346     		mov	r3, r0
 5700              		.loc 1 1576 7
 5701 04c4 002B     		cmp	r3, #0
 5702 04c6 0ED0     		beq	.L514
1577:../app/app.c  **** 				|| (TRUE == app_motor_ready())
 5703              		.loc 1 1577 17
 5704 04c8 FFF7FEFF 		bl	app_motor_ready
 5705 04cc 0346     		mov	r3, r0
 5706              		.loc 1 1577 5
 5707 04ce 012B     		cmp	r3, #1
 5708 04d0 09D0     		beq	.L514
1578:../app/app.c  **** 				|| (--run_max_time == 0)){
 5709              		.loc 1 1578 9
 5710 04d2 3D4B     		ldr	r3, .L538+4
 5711 04d4 1B88     		ldrh	r3, [r3]
 5712 04d6 013B     		subs	r3, r3, #1
 5713 04d8 9AB2     		uxth	r2, r3
 5714              		.loc 1 1578 5
 5715 04da 3B4B     		ldr	r3, .L538+4
 5716 04dc 1A80     		strh	r2, [r3]	@ movhi
 5717              		.loc 1 1578 9
 5718 04de 3A4B     		ldr	r3, .L538+4
 5719 04e0 1B88     		ldrh	r3, [r3]
 5720              		.loc 1 1578 5
 5721 04e2 002B     		cmp	r3, #0
 5722 04e4 05D1     		bne	.L515
 5723              	.L514:
1579:../app/app.c  **** 				dc_motor_Stop();
 5724              		.loc 1 1579 5
 5725 04e6 FFF7FEFF 		bl	dc_motor_Stop
1580:../app/app.c  **** 				app_task_substep = AMERICANO_BREW2_STATE;	
 5726              		.loc 1 1580 22
 5727 04ea 384B     		ldr	r3, .L538+8
 5728 04ec 1B22     		movs	r2, #27
 5729 04ee 1A70     		strb	r2, [r3]
1581:../app/app.c  **** 			}
1582:../app/app.c  **** 			else {
1583:../app/app.c  **** 				osal_lyh_delay_task(Ms_100);
1584:../app/app.c  **** 			}			
1585:../app/app.c  **** 			break;
 5730              		.loc 1 1585 4
 5731 04f0 D0E0     		b	.L485
 5732              	.L515:
1583:../app/app.c  **** 			}			
 5733              		.loc 1 1583 5
 5734 04f2 6420     		movs	r0, #100
 5735 04f4 FFF7FEFF 		bl	osal_lyh_delay_task
 5736              		.loc 1 1585 4
 5737 04f8 CCE0     		b	.L485
 5738              	.L455:
1586:../app/app.c  **** 		/* ç¬¬ن؛Œو¬،èگƒهڈ–ï¼ˆهٹ و°´ï¼‰ */	
1587:../app/app.c  **** 		case AMERICANO_BREW2_STATE:
1588:../app/app.c  **** 			CERRNT_STATE = BREW_STATE;	//è®°ه½•è؟›ه؛¦
 5739              		.loc 1 1588 17
 5740 04fa 324B     		ldr	r3, .L538
 5741 04fc 0422     		movs	r2, #4
 5742 04fe 1A70     		strb	r2, [r3]
1589:../app/app.c  **** 			if(0 == manual_setup.water){			//و ¹وچ®و‌¯é‡ڈه†³ه®ڑوٹ½و°´و—¶é—´ï¼ڑx1=19s,x2=36s,x3=51s		
 5743              		.loc 1 1589 24
 5744 0500 354B     		ldr	r3, .L538+20
 5745 0502 9B78     		ldrb	r3, [r3, #2]	@ zero_extendqisi2
 5746              		.loc 1 1589 6
 5747 0504 002B     		cmp	r3, #0
 5748 0506 13D1     		bne	.L517
1590:../app/app.c  **** 				ac_pumb_start(CONTINUE_MODE);
 5749              		.loc 1 1590 5
 5750 0508 0020     		movs	r0, #0
 5751 050a FFF7FEFF 		bl	ac_pumb_start
1591:../app/app.c  **** 				if(0 == manual_setup.cup){
 5752              		.loc 1 1591 25
 5753 050e 324B     		ldr	r3, .L538+20
 5754 0510 1B78     		ldrb	r3, [r3]	@ zero_extendqisi2
 5755              		.loc 1 1591 7
 5756 0512 002B     		cmp	r3, #0
 5757 0514 04D1     		bne	.L518
1592:../app/app.c  **** 					osal_lyh_delay_task(Ms_19000);
 5758              		.loc 1 1592 6
 5759 0516 44F63820 		movw	r0, #19000
 5760 051a FFF7FEFF 		bl	osal_lyh_delay_task
 5761 051e 03E0     		b	.L519
 5762              	.L518:
1593:../app/app.c  **** 				}
1594:../app/app.c  **** 				else{
1595:../app/app.c  **** 					osal_lyh_delay_task(Ms_33000);
 5763              		.loc 1 1595 6
 5764 0520 48F2E800 		movw	r0, #33000
 5765 0524 FFF7FEFF 		bl	osal_lyh_delay_task
 5766              	.L519:
1596:../app/app.c  **** 				}
1597:../app/app.c  **** 				app_task_substep = AMERICANO_BREW2_FINISH_STATE;	
 5767              		.loc 1 1597 22
 5768 0528 284B     		ldr	r3, .L538+8
 5769 052a 1C22     		movs	r2, #28
 5770 052c 1A70     		strb	r2, [r3]
1598:../app/app.c  **** 			}
1599:../app/app.c  **** 			else if (1 == manual_setup.water){
1600:../app/app.c  **** 				ac_pumb_start(CONTINUE_MODE);
1601:../app/app.c  **** 				if(0 == manual_setup.cup){
1602:../app/app.c  **** 					osal_lyh_delay_task(Ms_36000);
1603:../app/app.c  **** 				}
1604:../app/app.c  **** 				else{
1605:../app/app.c  **** 					osal_lyh_delay_task(Ms_72000);
1606:../app/app.c  **** 				}
1607:../app/app.c  **** 				app_task_substep = AMERICANO_BREW2_FINISH_STATE;		
1608:../app/app.c  **** 			}
1609:../app/app.c  **** 			else if (2 == manual_setup.water){
1610:../app/app.c  **** 				ac_pumb_start(CONTINUE_MODE);
1611:../app/app.c  **** 				if(0 == manual_setup.cup){
1612:../app/app.c  **** 					osal_lyh_delay_task(Ms_51000);
1613:../app/app.c  **** 				}
1614:../app/app.c  **** 				else{
1615:../app/app.c  **** 					osal_lyh_delay_task(Ms_105000);
1616:../app/app.c  **** 				}
1617:../app/app.c  **** 				app_task_substep = AMERICANO_BREW2_FINISH_STATE;		
1618:../app/app.c  **** 			}
1619:../app/app.c  **** 			break;
 5771              		.loc 1 1619 4
 5772 052e B0E0     		b	.L534
 5773              	.L517:
1599:../app/app.c  **** 				ac_pumb_start(CONTINUE_MODE);
 5774              		.loc 1 1599 30
 5775 0530 294B     		ldr	r3, .L538+20
 5776 0532 9B78     		ldrb	r3, [r3, #2]	@ zero_extendqisi2
1599:../app/app.c  **** 				ac_pumb_start(CONTINUE_MODE);
 5777              		.loc 1 1599 12
 5778 0534 012B     		cmp	r3, #1
 5779 0536 12D1     		bne	.L521
1600:../app/app.c  **** 				if(0 == manual_setup.cup){
 5780              		.loc 1 1600 5
 5781 0538 0020     		movs	r0, #0
 5782 053a FFF7FEFF 		bl	ac_pumb_start
1601:../app/app.c  **** 					osal_lyh_delay_task(Ms_36000);
 5783              		.loc 1 1601 25
 5784 053e 264B     		ldr	r3, .L538+20
 5785 0540 1B78     		ldrb	r3, [r3]	@ zero_extendqisi2
1601:../app/app.c  **** 					osal_lyh_delay_task(Ms_36000);
 5786              		.loc 1 1601 7
 5787 0542 002B     		cmp	r3, #0
 5788 0544 04D1     		bne	.L522
1602:../app/app.c  **** 				}
 5789              		.loc 1 1602 6
 5790 0546 48F6A040 		movw	r0, #36000
 5791 054a FFF7FEFF 		bl	osal_lyh_delay_task
 5792 054e 02E0     		b	.L523
 5793              	.L522:
1605:../app/app.c  **** 				}
 5794              		.loc 1 1605 6
 5795 0550 2248     		ldr	r0, .L538+24
 5796 0552 FFF7FEFF 		bl	osal_lyh_delay_task
 5797              	.L523:
1607:../app/app.c  **** 			}
 5798              		.loc 1 1607 22
 5799 0556 1D4B     		ldr	r3, .L538+8
 5800 0558 1C22     		movs	r2, #28
 5801 055a 1A70     		strb	r2, [r3]
 5802              		.loc 1 1619 4
 5803 055c 99E0     		b	.L534
 5804              	.L521:
1609:../app/app.c  **** 				ac_pumb_start(CONTINUE_MODE);
 5805              		.loc 1 1609 30
 5806 055e 1E4B     		ldr	r3, .L538+20
 5807 0560 9B78     		ldrb	r3, [r3, #2]	@ zero_extendqisi2
1609:../app/app.c  **** 				ac_pumb_start(CONTINUE_MODE);
 5808              		.loc 1 1609 12
 5809 0562 022B     		cmp	r3, #2
 5810 0564 40F09580 		bne	.L534
1610:../app/app.c  **** 				if(0 == manual_setup.cup){
 5811              		.loc 1 1610 5
 5812 0568 0020     		movs	r0, #0
 5813 056a FFF7FEFF 		bl	ac_pumb_start
1611:../app/app.c  **** 					osal_lyh_delay_task(Ms_51000);
 5814              		.loc 1 1611 25
 5815 056e 1A4B     		ldr	r3, .L538+20
 5816 0570 1B78     		ldrb	r3, [r3]	@ zero_extendqisi2
1611:../app/app.c  **** 					osal_lyh_delay_task(Ms_51000);
 5817              		.loc 1 1611 7
 5818 0572 002B     		cmp	r3, #0
 5819 0574 04D1     		bne	.L524
1612:../app/app.c  **** 				}
 5820              		.loc 1 1612 6
 5821 0576 4CF23870 		movw	r0, #51000
 5822 057a FFF7FEFF 		bl	osal_lyh_delay_task
 5823 057e 02E0     		b	.L525
 5824              	.L524:
1615:../app/app.c  **** 				}
 5825              		.loc 1 1615 6
 5826 0580 1748     		ldr	r0, .L538+28
 5827 0582 FFF7FEFF 		bl	osal_lyh_delay_task
 5828              	.L525:
1617:../app/app.c  **** 			}
 5829              		.loc 1 1617 22
 5830 0586 114B     		ldr	r3, .L538+8
 5831 0588 1C22     		movs	r2, #28
 5832 058a 1A70     		strb	r2, [r3]
 5833              		.loc 1 1619 4
 5834 058c 81E0     		b	.L534
 5835              	.L454:
1620:../app/app.c  **** 		case AMERICANO_BREW2_FINISH_STATE:
1621:../app/app.c  **** 			ac_pumb_stop();		//هپœو­¢و°´و³µ
 5836              		.loc 1 1621 4
 5837 058e FFF7FEFF 		bl	ac_pumb_stop
1622:../app/app.c  **** 			osal_lyh_delay_task(Ms_6000);
 5838              		.loc 1 1622 4
 5839 0592 41F27070 		movw	r0, #6000
 5840 0596 FFF7FEFF 		bl	osal_lyh_delay_task
1623:../app/app.c  **** 			app_task_substep = AMERICANO_BACK2_STATE;
 5841              		.loc 1 1623 21
 5842 059a 0C4B     		ldr	r3, .L538+8
 5843 059c 1D22     		movs	r2, #29
 5844 059e 1A70     		strb	r2, [r3]
1624:../app/app.c  **** 			break;
 5845              		.loc 1 1624 4
 5846 05a0 78E0     		b	.L485
 5847              	.L453:
1625:../app/app.c  **** 		/* è؟”ه›‍هژںن½چ */	
1626:../app/app.c  **** 		case AMERICANO_BACK2_STATE:
1627:../app/app.c  **** 			CERRNT_STATE = RST_STATE;	//è®°ه½•è؟›ه؛¦
 5848              		.loc 1 1627 17
 5849 05a2 084B     		ldr	r3, .L538
 5850 05a4 0622     		movs	r2, #6
 5851 05a6 1A70     		strb	r2, [r3]
1628:../app/app.c  **** 			dc_motor_Start(MOTOR_RIGHT);
 5852              		.loc 1 1628 4
 5853 05a8 0120     		movs	r0, #1
 5854 05aa FFF7FEFF 		bl	dc_motor_Start
1629:../app/app.c  **** 			osal_lyh_delay_task(Ms_1000);			//و­¤ه¤„delayه؛”ن؟‌وŒپè¾ƒه¤§çڑ„و•°ï¼ˆ>500msï¼‰ï¼Œهگ¦هˆ™ç”µوœ؛è؟ک
 5855              		.loc 1 1629 4
 5856 05ae 4FF47A70 		mov	r0, #1000
 5857 05b2 FFF7FEFF 		bl	osal_lyh_delay_task
1630:../app/app.c  **** 													//ه®¹وک“è¯¯هˆ¤ن¸؛ه·²ç»ڈè§¦ç¢°هˆ°هژںç‚¹ه¼€ه…³ï¼Œه¯¼è‡´ç”µوœ؛و— و³•ه›‍è½¬هˆ°هژںن½چ
1631:../app/app.c  **** 			run_max_time = RIGHT_TIMER(Ms_6000, Ms_100);		
 5858              		.loc 1 1631 17
 5859 05b6 044B     		ldr	r3, .L538+4
 5860 05b8 3C22     		movs	r2, #60
 5861 05ba 1A80     		strh	r2, [r3]	@ movhi
1632:../app/app.c  **** 			app_task_substep = AMERICANO_INPLACE2_JUDGE_STATE;
 5862              		.loc 1 1632 21
 5863 05bc 034B     		ldr	r3, .L538+8
 5864 05be 1E22     		movs	r2, #30
 5865 05c0 1A70     		strb	r2, [r3]
1633:../app/app.c  **** 			break;	
 5866              		.loc 1 1633 4
 5867 05c2 67E0     		b	.L485
 5868              	.L539:
 5869              		.align	2
 5870              	.L538:
 5871 05c4 00000000 		.word	CERRNT_STATE
 5872 05c8 00000000 		.word	run_max_time
 5873 05cc 00000000 		.word	app_task_substep
 5874 05d0 00000000 		.word	flush_flag
 5875 05d4 00000000 		.word	cup_loop
 5876 05d8 00000000 		.word	manual_setup
 5877 05dc 40190100 		.word	72000
 5878 05e0 289A0100 		.word	105000
 5879              	.L452:
1634:../app/app.c  **** 		 /* هˆ¤و–­ç”µوœ؛وک¯هگ¦هˆ°هژںç‚¹è§¦ç‚¹ */	
1635:../app/app.c  **** 		case AMERICANO_INPLACE2_JUDGE_STATE:													
1636:../app/app.c  **** 			if ((MOTOR_STATE_STOPED ==dc_motor_GetState())
 5880              		.loc 1 1636 30
 5881 05e4 FFF7FEFF 		bl	dc_motor_GetState
 5882 05e8 0346     		mov	r3, r0
 5883              		.loc 1 1636 7
 5884 05ea 002B     		cmp	r3, #0
 5885 05ec 0ED0     		beq	.L526
1637:../app/app.c  **** 				|| (TRUE == app_motor_ready())
 5886              		.loc 1 1637 17
 5887 05ee FFF7FEFF 		bl	app_motor_ready
 5888 05f2 0346     		mov	r3, r0
 5889              		.loc 1 1637 5
 5890 05f4 012B     		cmp	r3, #1
 5891 05f6 09D0     		beq	.L526
1638:../app/app.c  **** 				|| (--run_max_time == 0)){
 5892              		.loc 1 1638 9
 5893 05f8 274B     		ldr	r3, .L540
 5894 05fa 1B88     		ldrh	r3, [r3]
 5895 05fc 013B     		subs	r3, r3, #1
 5896 05fe 9AB2     		uxth	r2, r3
 5897              		.loc 1 1638 5
 5898 0600 254B     		ldr	r3, .L540
 5899 0602 1A80     		strh	r2, [r3]	@ movhi
 5900              		.loc 1 1638 9
 5901 0604 244B     		ldr	r3, .L540
 5902 0606 1B88     		ldrh	r3, [r3]
 5903              		.loc 1 1638 5
 5904 0608 002B     		cmp	r3, #0
 5905 060a 05D1     		bne	.L527
 5906              	.L526:
1639:../app/app.c  **** 				dc_motor_Stop();
 5907              		.loc 1 1639 5
 5908 060c FFF7FEFF 		bl	dc_motor_Stop
1640:../app/app.c  **** 				app_task_substep = AMERICANO_INPLACE2_STATE;				
 5909              		.loc 1 1640 22
 5910 0610 224B     		ldr	r3, .L540+4
 5911 0612 1F22     		movs	r2, #31
 5912 0614 1A70     		strb	r2, [r3]
1641:../app/app.c  **** 			}
1642:../app/app.c  **** 			else {
1643:../app/app.c  **** 				osal_lyh_delay_task(Ms_100);
1644:../app/app.c  **** 			}
1645:../app/app.c  **** 			break;
 5913              		.loc 1 1645 4
 5914 0616 3DE0     		b	.L485
 5915              	.L527:
1643:../app/app.c  **** 			}
 5916              		.loc 1 1643 5
 5917 0618 6420     		movs	r0, #100
 5918 061a FFF7FEFF 		bl	osal_lyh_delay_task
 5919              		.loc 1 1645 4
 5920 061e 39E0     		b	.L485
 5921              	.L451:
1646:../app/app.c  **** 		/* èگƒهڈ–ç”µوœ؛ه›‍è½¬هˆ°هژںن½چ */
1647:../app/app.c  **** 		case AMERICANO_INPLACE2_STATE:													
1648:../app/app.c  **** 			dc_motor_Start(MOTOR_LEFT);
 5922              		.loc 1 1648 4
 5923 0620 0220     		movs	r0, #2
 5924 0622 FFF7FEFF 		bl	dc_motor_Start
1649:../app/app.c  **** 			osal_lyh_delay_task(Ms_100);
 5925              		.loc 1 1649 4
 5926 0626 6420     		movs	r0, #100
 5927 0628 FFF7FEFF 		bl	osal_lyh_delay_task
1650:../app/app.c  **** 			run_max_time = LEFT_TIMER(MOTOR_FIX_TIME, Ms_100);
 5928              		.loc 1 1650 17
 5929 062c 1A4B     		ldr	r3, .L540
 5930 062e 0322     		movs	r2, #3
 5931 0630 1A80     		strh	r2, [r3]	@ movhi
1651:../app/app.c  **** 			app_task_substep = AMERICANO_MOTO_RST2_STATE;
 5932              		.loc 1 1651 21
 5933 0632 1A4B     		ldr	r3, .L540+4
 5934 0634 2022     		movs	r2, #32
 5935 0636 1A70     		strb	r2, [r3]
1652:../app/app.c  **** 			break;
 5936              		.loc 1 1652 4
 5937 0638 2CE0     		b	.L485
 5938              	.L450:
1653:../app/app.c  **** 		/* هˆ¤و–­èگƒهڈ–ç”µوœ؛وک¯هگ¦ه›‍è½¬هˆ°هژںن½چ */
1654:../app/app.c  **** 		case AMERICANO_MOTO_RST2_STATE:													
1655:../app/app.c  **** 			if (1/*(FAIL == app_motor_ready())*/	// deleting point,(temp to cancel)
1656:../app/app.c  **** 				&& ((MOTOR_STATE_STOPED ==dc_motor_GetState())
 5939              		.loc 1 1656 31
 5940 063a FFF7FEFF 		bl	dc_motor_GetState
 5941 063e 0346     		mov	r3, r0
1655:../app/app.c  **** 				&& ((MOTOR_STATE_STOPED ==dc_motor_GetState())
 5942              		.loc 1 1655 7
 5943 0640 002B     		cmp	r3, #0
 5944 0642 09D0     		beq	.L529
1657:../app/app.c  **** 				|| (--run_max_time == 0))){
 5945              		.loc 1 1657 9
 5946 0644 144B     		ldr	r3, .L540
 5947 0646 1B88     		ldrh	r3, [r3]
 5948 0648 013B     		subs	r3, r3, #1
 5949 064a 9AB2     		uxth	r2, r3
1656:../app/app.c  **** 				|| (--run_max_time == 0))){
 5950              		.loc 1 1656 5
 5951 064c 124B     		ldr	r3, .L540
 5952 064e 1A80     		strh	r2, [r3]	@ movhi
 5953              		.loc 1 1657 9
 5954 0650 114B     		ldr	r3, .L540
 5955 0652 1B88     		ldrh	r3, [r3]
1656:../app/app.c  **** 				|| (--run_max_time == 0))){
 5956              		.loc 1 1656 5
 5957 0654 002B     		cmp	r3, #0
 5958 0656 05D1     		bne	.L530
 5959              	.L529:
1658:../app/app.c  **** 				dc_motor_Stop();
 5960              		.loc 1 1658 5
 5961 0658 FFF7FEFF 		bl	dc_motor_Stop
1659:../app/app.c  **** 				app_task_substep = AMERICANO_COMPLETE_STATE;
 5962              		.loc 1 1659 22
 5963 065c 0F4B     		ldr	r3, .L540+4
 5964 065e 2122     		movs	r2, #33
 5965 0660 1A70     		strb	r2, [r3]
1660:../app/app.c  **** 			}
1661:../app/app.c  **** 			else {
1662:../app/app.c  **** 				osal_lyh_delay_task(Ms_100);
1663:../app/app.c  **** 			}
1664:../app/app.c  **** 			break;
 5966              		.loc 1 1664 4
 5967 0662 17E0     		b	.L485
 5968              	.L530:
1662:../app/app.c  **** 			}
 5969              		.loc 1 1662 5
 5970 0664 6420     		movs	r0, #100
 5971 0666 FFF7FEFF 		bl	osal_lyh_delay_task
 5972              		.loc 1 1664 4
 5973 066a 13E0     		b	.L485
 5974              	.L448:
1665:../app/app.c  **** 		case AMERICANO_COMPLETE_STATE:
1666:../app/app.c  **** 			CERRNT_STATE = NULL_STATE;	//è®°ه½•è؟›ه؛¦
 5975              		.loc 1 1666 17
 5976 066c 0C4B     		ldr	r3, .L540+8
 5977 066e 0022     		movs	r2, #0
 5978 0670 1A70     		strb	r2, [r3]
1667:../app/app.c  **** 			app_turn_heat_off();		//ه…³é—­هٹ çƒ­
 5979              		.loc 1 1667 4
 5980 0672 FFF7FEFF 		bl	app_turn_heat_off
1668:../app/app.c  **** 			flush_flag = 1;				//è®¾ç½®ه†²و´—و ‡ه؟—	
 5981              		.loc 1 1668 15
 5982 0676 0B4B     		ldr	r3, .L540+12
 5983 0678 0122     		movs	r2, #1
 5984 067a 1A70     		strb	r2, [r3]
1669:../app/app.c  **** 			app_led_finish_step();		//و‰§è،Œه®Œوˆگهگژçڑ„وŒ‡ç¤؛çپ¯وک¾ç¤؛
 5985              		.loc 1 1669 4
 5986 067c FFF7FEFF 		bl	app_led_finish_step
1670:../app/app.c  **** 			app_task_nextstep(APP_NORMAL_STATE, NORMAL_INIT_STATE);		//ه›‍هˆ°normalçٹ¶و€پï¼Œç­‰ه¾…ن¸‹ن¸€و¬،و
 5987              		.loc 1 1670 4
 5988 0680 0021     		movs	r1, #0
 5989 0682 0320     		movs	r0, #3
 5990 0684 FFF7FEFF 		bl	app_task_nextstep
1671:../app/app.c  **** 			break;	
 5991              		.loc 1 1671 4
 5992 0688 04E0     		b	.L485
 5993              	.L532:
1672:../app/app.c  **** 
1673:../app/app.c  **** 		default:
1674:../app/app.c  **** 			break;
 5994              		.loc 1 1674 4
 5995 068a 00BF     		nop
 5996 068c 02E0     		b	.L535
 5997              	.L533:
1407:../app/app.c  **** 		case AMERICANO_GRIND_STATE:
 5998              		.loc 1 1407 4
 5999 068e 00BF     		nop
 6000 0690 00E0     		b	.L535
 6001              	.L534:
1619:../app/app.c  **** 		case AMERICANO_BREW2_FINISH_STATE:
 6002              		.loc 1 1619 4
 6003 0692 00BF     		nop
 6004              	.L485:
 6005              	.L535:
1675:../app/app.c  **** 	}
1676:../app/app.c  **** }
 6006              		.loc 1 1676 1
 6007 0694 00BF     		nop
 6008 0696 80BD     		pop	{r7, pc}
 6009              	.L541:
 6010              		.align	2
 6011              	.L540:
 6012 0698 00000000 		.word	run_max_time
 6013 069c 00000000 		.word	app_task_substep
 6014 06a0 00000000 		.word	CERRNT_STATE
 6015 06a4 00000000 		.word	flush_flag
 6016              		.cfi_endproc
 6017              	.LFE170:
 6019              		.section	.text.app_hotwater_handler,"ax",%progbits
 6020              		.align	1
 6021              		.global	app_hotwater_handler
 6022              		.syntax unified
 6023              		.thumb
 6024              		.thumb_func
 6025              		.fpu softvfp
 6027              	app_hotwater_handler:
 6028              	.LFB171:
1677:../app/app.c  **** 
1678:../app/app.c  **** /************************************************************************
1679:../app/app.c  **** * function name: app_hotwater_handler
1680:../app/app.c  **** * input: non
1681:../app/app.c  **** * output: non
1682:../app/app.c  **** * description: object thread
1683:../app/app.c  **** *************************************************************************/
1684:../app/app.c  **** void app_hotwater_handler(void)
1685:../app/app.c  **** {
 6029              		.loc 1 1685 1
 6030              		.cfi_startproc
 6031              		@ args = 0, pretend = 0, frame = 0
 6032              		@ frame_needed = 1, uses_anonymous_args = 0
 6033 0000 80B5     		push	{r7, lr}
 6034              		.cfi_def_cfa_offset 8
 6035              		.cfi_offset 7, -8
 6036              		.cfi_offset 14, -4
 6037 0002 00AF     		add	r7, sp, #0
 6038              		.cfi_def_cfa_register 7
1686:../app/app.c  **** 	switch(app_task_substep)
 6039              		.loc 1 1686 2
 6040 0004 444B     		ldr	r3, .L560
 6041 0006 1B78     		ldrb	r3, [r3]	@ zero_extendqisi2
 6042 0008 052B     		cmp	r3, #5
 6043 000a 00F28080 		bhi	.L557
 6044 000e 01A2     		adr	r2, .L545
 6045 0010 52F823F0 		ldr	pc, [r2, r3, lsl #2]
 6046              		.p2align 2
 6047              	.L545:
 6048 0014 2D000000 		.word	.L549+1
 6049 0018 5B000000 		.word	.L548+1
 6050 001c 8D000000 		.word	.L547+1
 6051 0020 9B000000 		.word	.L546+1
 6052 0024 0F010000 		.word	.L557+1
 6053 0028 F3000000 		.word	.L544+1
 6054              		.p2align 1
 6055              	.L549:
1687:../app/app.c  **** 	{
1688:../app/app.c  **** 		/* çƒ­و°´وµپç¨‹هˆ‌ه§‹هŒ– */
1689:../app/app.c  **** 		case HOTWATER_INIT_STATE:
1690:../app/app.c  **** 			app_leds_all_fun(LED_OFF);
 6056              		.loc 1 1690 4
 6057 002c 0020     		movs	r0, #0
 6058 002e FFF7FEFF 		bl	app_leds_all_fun
1691:../app/app.c  **** 			app_leds_all_ind(LED_OFF);		
 6059              		.loc 1 1691 4
 6060 0032 0020     		movs	r0, #0
 6061 0034 FFF7FEFF 		bl	app_leds_all_ind
1692:../app/app.c  **** 			display_led(START_LED, LED_ON);
 6062              		.loc 1 1692 4
 6063 0038 0121     		movs	r1, #1
 6064 003a 0520     		movs	r0, #5
 6065 003c FFF7FEFF 		bl	display_led
1693:../app/app.c  **** 			app_led_hotwater_init();
 6066              		.loc 1 1693 4
 6067 0040 FFF7FEFF 		bl	app_led_hotwater_init
1694:../app/app.c  **** 			app_turn_heat_on(TARGET_TEMP_HOTWATER);
 6068              		.loc 1 1694 4
 6069 0044 40F61520 		movw	r0, #2581
 6070 0048 FFF7FEFF 		bl	app_turn_heat_on
1695:../app/app.c  **** 			run_max_time = 100;		//ن»…è°ƒè¯•ç”¨ï¼Œè®¾ç½®هٹ çƒ­و—¶é—´ن¸؛10s
 6071              		.loc 1 1695 17
 6072 004c 334B     		ldr	r3, .L560+4
 6073 004e 6422     		movs	r2, #100
 6074 0050 1A80     		strh	r2, [r3]	@ movhi
1696:../app/app.c  **** 			app_task_substep = HOTWATER_WAIT_TEMP_STATE;
 6075              		.loc 1 1696 21
 6076 0052 314B     		ldr	r3, .L560
 6077 0054 0122     		movs	r2, #1
 6078 0056 1A70     		strb	r2, [r3]
1697:../app/app.c  **** 			break;
 6079              		.loc 1 1697 4
 6080 0058 5CE0     		b	.L550
 6081              	.L548:
1698:../app/app.c  **** 		/* ç­‰ه¾…هٹ çƒ­ه®Œوˆگ */	
1699:../app/app.c  **** 		case HOTWATER_WAIT_TEMP_STATE:
1700:../app/app.c  **** 			if((TRUE == app_temperature_state(TARGET_TEMP_HOTWATER))
 6082              		.loc 1 1700 16
 6083 005a 40F61520 		movw	r0, #2581
 6084 005e FFF7FEFF 		bl	app_temperature_state
 6085 0062 0346     		mov	r3, r0
 6086              		.loc 1 1700 6
 6087 0064 012B     		cmp	r3, #1
 6088 0066 09D0     		beq	.L551
1701:../app/app.c  **** 				|| --run_max_time == 0){
 6089              		.loc 1 1701 8
 6090 0068 2C4B     		ldr	r3, .L560+4
 6091 006a 1B88     		ldrh	r3, [r3]
 6092 006c 013B     		subs	r3, r3, #1
 6093 006e 9AB2     		uxth	r2, r3
 6094              		.loc 1 1701 5
 6095 0070 2A4B     		ldr	r3, .L560+4
 6096 0072 1A80     		strh	r2, [r3]	@ movhi
 6097              		.loc 1 1701 8
 6098 0074 294B     		ldr	r3, .L560+4
 6099 0076 1B88     		ldrh	r3, [r3]
 6100              		.loc 1 1701 5
 6101 0078 002B     		cmp	r3, #0
 6102 007a 03D1     		bne	.L552
 6103              	.L551:
1702:../app/app.c  **** 				app_task_substep = HOTWATER_CHANGE_PIPE_STATE;
 6104              		.loc 1 1702 22
 6105 007c 264B     		ldr	r3, .L560
 6106 007e 0222     		movs	r2, #2
 6107 0080 1A70     		strb	r2, [r3]
1703:../app/app.c  **** 			}
1704:../app/app.c  **** 			else{
1705:../app/app.c  **** 				osal_lyh_delay_task(Ms_100);
1706:../app/app.c  **** 			}
1707:../app/app.c  **** 			break;
 6108              		.loc 1 1707 4
 6109 0082 47E0     		b	.L550
 6110              	.L552:
1705:../app/app.c  **** 			}
 6111              		.loc 1 1705 5
 6112 0084 6420     		movs	r0, #100
 6113 0086 FFF7FEFF 		bl	osal_lyh_delay_task
 6114              		.loc 1 1707 4
 6115 008a 43E0     		b	.L550
 6116              	.L547:
1708:../app/app.c  **** 		/* هˆ‡وچ¢ه‡؛و°´هڈ£ */	
1709:../app/app.c  **** 		case HOTWATER_CHANGE_PIPE_STATE:
1710:../app/app.c  **** 			app_relay_set(WATER_MODE);
 6117              		.loc 1 1710 4
 6118 008c 0120     		movs	r0, #1
 6119 008e FFF7FEFF 		bl	app_relay_set
1711:../app/app.c  **** 			app_task_substep = HOTWATER_JUDGE_WATER_STATE;
 6120              		.loc 1 1711 21
 6121 0092 214B     		ldr	r3, .L560
 6122 0094 0322     		movs	r2, #3
 6123 0096 1A70     		strb	r2, [r3]
1712:../app/app.c  **** 			break;
 6124              		.loc 1 1712 4
 6125 0098 3CE0     		b	.L550
 6126              	.L546:
1713:../app/app.c  **** 		/* هˆ¤و–­و°´é‡ڈ */	
1714:../app/app.c  **** 		case HOTWATER_JUDGE_WATER_STATE:
1715:../app/app.c  **** 			if(0 == manual_setup.water){
 6127              		.loc 1 1715 24
 6128 009a 214B     		ldr	r3, .L560+8
 6129 009c 9B78     		ldrb	r3, [r3, #2]	@ zero_extendqisi2
 6130              		.loc 1 1715 6
 6131 009e 002B     		cmp	r3, #0
 6132 00a0 0AD1     		bne	.L554
1716:../app/app.c  **** 				ac_pumb_start(CONTINUE_MODE);
 6133              		.loc 1 1716 5
 6134 00a2 0020     		movs	r0, #0
 6135 00a4 FFF7FEFF 		bl	ac_pumb_start
1717:../app/app.c  **** 				osal_lyh_delay_task(Ms_14000);
 6136              		.loc 1 1717 5
 6137 00a8 43F2B060 		movw	r0, #14000
 6138 00ac FFF7FEFF 		bl	osal_lyh_delay_task
1718:../app/app.c  **** 				app_task_substep = HOTWATER_COMPLETE_STATE;
 6139              		.loc 1 1718 22
 6140 00b0 194B     		ldr	r3, .L560
 6141 00b2 0522     		movs	r2, #5
 6142 00b4 1A70     		strb	r2, [r3]
1719:../app/app.c  **** 			}
1720:../app/app.c  **** 			else if(1 == manual_setup.water){
1721:../app/app.c  **** 				ac_pumb_start(CONTINUE_MODE);
1722:../app/app.c  **** 				osal_lyh_delay_task(Ms_39000);
1723:../app/app.c  **** 				app_task_substep = HOTWATER_COMPLETE_STATE;
1724:../app/app.c  **** 			}
1725:../app/app.c  **** 			else if(2 == manual_setup.water){
1726:../app/app.c  **** 				ac_pumb_start(CONTINUE_MODE);
1727:../app/app.c  **** 				osal_lyh_delay_task(Ms_97000);
1728:../app/app.c  **** 				app_task_substep = HOTWATER_COMPLETE_STATE;				
1729:../app/app.c  **** 			}
1730:../app/app.c  **** 			break;
 6143              		.loc 1 1730 4
 6144 00b6 2CE0     		b	.L558
 6145              	.L554:
1720:../app/app.c  **** 				ac_pumb_start(CONTINUE_MODE);
 6146              		.loc 1 1720 29
 6147 00b8 194B     		ldr	r3, .L560+8
 6148 00ba 9B78     		ldrb	r3, [r3, #2]	@ zero_extendqisi2
1720:../app/app.c  **** 				ac_pumb_start(CONTINUE_MODE);
 6149              		.loc 1 1720 11
 6150 00bc 012B     		cmp	r3, #1
 6151 00be 0AD1     		bne	.L556
1721:../app/app.c  **** 				osal_lyh_delay_task(Ms_39000);
 6152              		.loc 1 1721 5
 6153 00c0 0020     		movs	r0, #0
 6154 00c2 FFF7FEFF 		bl	ac_pumb_start
1722:../app/app.c  **** 				app_task_substep = HOTWATER_COMPLETE_STATE;
 6155              		.loc 1 1722 5
 6156 00c6 49F65800 		movw	r0, #39000
 6157 00ca FFF7FEFF 		bl	osal_lyh_delay_task
1723:../app/app.c  **** 			}
 6158              		.loc 1 1723 22
 6159 00ce 124B     		ldr	r3, .L560
 6160 00d0 0522     		movs	r2, #5
 6161 00d2 1A70     		strb	r2, [r3]
 6162              		.loc 1 1730 4
 6163 00d4 1DE0     		b	.L558
 6164              	.L556:
1725:../app/app.c  **** 				ac_pumb_start(CONTINUE_MODE);
 6165              		.loc 1 1725 29
 6166 00d6 124B     		ldr	r3, .L560+8
 6167 00d8 9B78     		ldrb	r3, [r3, #2]	@ zero_extendqisi2
1725:../app/app.c  **** 				ac_pumb_start(CONTINUE_MODE);
 6168              		.loc 1 1725 11
 6169 00da 022B     		cmp	r3, #2
 6170 00dc 19D1     		bne	.L558
1726:../app/app.c  **** 				osal_lyh_delay_task(Ms_97000);
 6171              		.loc 1 1726 5
 6172 00de 0020     		movs	r0, #0
 6173 00e0 FFF7FEFF 		bl	ac_pumb_start
1727:../app/app.c  **** 				app_task_substep = HOTWATER_COMPLETE_STATE;				
 6174              		.loc 1 1727 5
 6175 00e4 0F48     		ldr	r0, .L560+12
 6176 00e6 FFF7FEFF 		bl	osal_lyh_delay_task
1728:../app/app.c  **** 			}
 6177              		.loc 1 1728 22
 6178 00ea 0B4B     		ldr	r3, .L560
 6179 00ec 0522     		movs	r2, #5
 6180 00ee 1A70     		strb	r2, [r3]
 6181              		.loc 1 1730 4
 6182 00f0 0FE0     		b	.L558
 6183              	.L544:
1731:../app/app.c  **** 		/* ç­‰ه¾…و—¶é—´ç»“و‌ں */	
1732:../app/app.c  **** 		case HOTWATER_COMPLETE_STATE:
1733:../app/app.c  **** 			ac_pumb_stop();
 6184              		.loc 1 1733 4
 6185 00f2 FFF7FEFF 		bl	ac_pumb_stop
1734:../app/app.c  **** 			app_relay_set(COFFEE_MODE);
 6186              		.loc 1 1734 4
 6187 00f6 0020     		movs	r0, #0
 6188 00f8 FFF7FEFF 		bl	app_relay_set
1735:../app/app.c  **** 			app_turn_heat_off();
 6189              		.loc 1 1735 4
 6190 00fc FFF7FEFF 		bl	app_turn_heat_off
1736:../app/app.c  **** 			app_led_finish_step();
 6191              		.loc 1 1736 4
 6192 0100 FFF7FEFF 		bl	app_led_finish_step
1737:../app/app.c  **** 			app_task_nextstep(APP_NORMAL_STATE, NORMAL_INIT_STATE);		//ه›‍هˆ°normalçٹ¶و€پï¼Œç­‰ه¾…ن¸‹ن¸€و¬،و
 6193              		.loc 1 1737 4
 6194 0104 0021     		movs	r1, #0
 6195 0106 0320     		movs	r0, #3
 6196 0108 FFF7FEFF 		bl	app_task_nextstep
1738:../app/app.c  **** 			break;
 6197              		.loc 1 1738 4
 6198 010c 02E0     		b	.L550
 6199              	.L557:
1739:../app/app.c  **** 		default:
1740:../app/app.c  **** 			break;
 6200              		.loc 1 1740 4
 6201 010e 00BF     		nop
 6202 0110 00E0     		b	.L559
 6203              	.L558:
1730:../app/app.c  **** 		/* ç­‰ه¾…و—¶é—´ç»“و‌ں */	
 6204              		.loc 1 1730 4
 6205 0112 00BF     		nop
 6206              	.L550:
 6207              	.L559:
1741:../app/app.c  **** 	}
1742:../app/app.c  **** }
 6208              		.loc 1 1742 1
 6209 0114 00BF     		nop
 6210 0116 80BD     		pop	{r7, pc}
 6211              	.L561:
 6212              		.align	2
 6213              	.L560:
 6214 0118 00000000 		.word	app_task_substep
 6215 011c 00000000 		.word	run_max_time
 6216 0120 00000000 		.word	manual_setup
 6217 0124 E87A0100 		.word	97000
 6218              		.cfi_endproc
 6219              	.LFE171:
 6221              		.section	.text.app_steam_handler,"ax",%progbits
 6222              		.align	1
 6223              		.global	app_steam_handler
 6224              		.syntax unified
 6225              		.thumb
 6226              		.thumb_func
 6227              		.fpu softvfp
 6229              	app_steam_handler:
 6230              	.LFB172:
1743:../app/app.c  **** 
1744:../app/app.c  **** /************************************************************************
1745:../app/app.c  **** * function name: app_steam_handler
1746:../app/app.c  **** * input: non
1747:../app/app.c  **** * output: non
1748:../app/app.c  **** * description: object thread
1749:../app/app.c  **** *************************************************************************/
1750:../app/app.c  **** void app_steam_handler(void)
1751:../app/app.c  **** {
 6231              		.loc 1 1751 1
 6232              		.cfi_startproc
 6233              		@ args = 0, pretend = 0, frame = 0
 6234              		@ frame_needed = 1, uses_anonymous_args = 0
 6235 0000 80B5     		push	{r7, lr}
 6236              		.cfi_def_cfa_offset 8
 6237              		.cfi_offset 7, -8
 6238              		.cfi_offset 14, -4
 6239 0002 00AF     		add	r7, sp, #0
 6240              		.cfi_def_cfa_register 7
1752:../app/app.c  **** 	switch(app_task_substep)
 6241              		.loc 1 1752 2
 6242 0004 0B4B     		ldr	r3, .L567
 6243 0006 1B78     		ldrb	r3, [r3]	@ zero_extendqisi2
 6244 0008 002B     		cmp	r3, #0
 6245 000a 02D0     		beq	.L563
 6246 000c 012B     		cmp	r3, #1
 6247 000e 0AD0     		beq	.L564
1753:../app/app.c  **** 	{
1754:../app/app.c  **** 		case STEAM_INIT_STATE:
1755:../app/app.c  **** 			display_led(START_LED, LED_ON);
1756:../app/app.c  **** 			app_led_steam_init();
1757:../app/app.c  **** 			app_task_substep = STEAM_RUN_STATE;
1758:../app/app.c  **** 			break;
1759:../app/app.c  **** 		case STEAM_RUN_STATE:
1760:../app/app.c  **** 			osal_lyh_delay_task(Ms_500);
1761:../app/app.c  **** 			break;
1762:../app/app.c  **** 		default:
1763:../app/app.c  **** 			break;
 6248              		.loc 1 1763 4
 6249 0010 0EE0     		b	.L566
 6250              	.L563:
1755:../app/app.c  **** 			app_led_steam_init();
 6251              		.loc 1 1755 4
 6252 0012 0121     		movs	r1, #1
 6253 0014 0520     		movs	r0, #5
 6254 0016 FFF7FEFF 		bl	display_led
1756:../app/app.c  **** 			app_task_substep = STEAM_RUN_STATE;
 6255              		.loc 1 1756 4
 6256 001a FFF7FEFF 		bl	app_led_steam_init
1757:../app/app.c  **** 			break;
 6257              		.loc 1 1757 21
 6258 001e 054B     		ldr	r3, .L567
 6259 0020 0122     		movs	r2, #1
 6260 0022 1A70     		strb	r2, [r3]
1758:../app/app.c  **** 		case STEAM_RUN_STATE:
 6261              		.loc 1 1758 4
 6262 0024 04E0     		b	.L566
 6263              	.L564:
1760:../app/app.c  **** 			break;
 6264              		.loc 1 1760 4
 6265 0026 4FF4FA70 		mov	r0, #500
 6266 002a FFF7FEFF 		bl	osal_lyh_delay_task
1761:../app/app.c  **** 		default:
 6267              		.loc 1 1761 4
 6268 002e 00BF     		nop
 6269              	.L566:
1764:../app/app.c  **** 	}
1765:../app/app.c  **** }
 6270              		.loc 1 1765 1
 6271 0030 00BF     		nop
 6272 0032 80BD     		pop	{r7, pc}
 6273              	.L568:
 6274              		.align	2
 6275              	.L567:
 6276 0034 00000000 		.word	app_task_substep
 6277              		.cfi_endproc
 6278              	.LFE172:
 6280              		.section	.text.app_aqua_handler,"ax",%progbits
 6281              		.align	1
 6282              		.global	app_aqua_handler
 6283              		.syntax unified
 6284              		.thumb
 6285              		.thumb_func
 6286              		.fpu softvfp
 6288              	app_aqua_handler:
 6289              	.LFB173:
1766:../app/app.c  **** 
1767:../app/app.c  **** /************************************************************************
1768:../app/app.c  **** * function name: app_aqua_handler
1769:../app/app.c  **** * input: non
1770:../app/app.c  **** * output: non
1771:../app/app.c  **** * description: object thread
1772:../app/app.c  **** *************************************************************************/
1773:../app/app.c  **** void app_aqua_handler(void)
1774:../app/app.c  **** {
 6290              		.loc 1 1774 1
 6291              		.cfi_startproc
 6292              		@ args = 0, pretend = 0, frame = 0
 6293              		@ frame_needed = 1, uses_anonymous_args = 0
 6294 0000 80B5     		push	{r7, lr}
 6295              		.cfi_def_cfa_offset 8
 6296              		.cfi_offset 7, -8
 6297              		.cfi_offset 14, -4
 6298 0002 00AF     		add	r7, sp, #0
 6299              		.cfi_def_cfa_register 7
1775:../app/app.c  **** 	switch(app_task_substep)
 6300              		.loc 1 1775 2
 6301 0004 0B4B     		ldr	r3, .L574
 6302 0006 1B78     		ldrb	r3, [r3]	@ zero_extendqisi2
 6303 0008 002B     		cmp	r3, #0
 6304 000a 02D0     		beq	.L570
 6305 000c 012B     		cmp	r3, #1
 6306 000e 0AD0     		beq	.L571
1776:../app/app.c  **** 	{
1777:../app/app.c  **** 		case AQUA_INIT_STATE:
1778:../app/app.c  **** 			display_led(START_LED, LED_ON);
1779:../app/app.c  **** 			app_led_aqua_init();
1780:../app/app.c  **** 			app_task_substep = AQUA_RUN_STATE;
1781:../app/app.c  **** 			break;
1782:../app/app.c  **** 		case AQUA_RUN_STATE:
1783:../app/app.c  **** 			osal_lyh_delay_task(Ms_500);
1784:../app/app.c  **** 			break;
1785:../app/app.c  **** 		default:
1786:../app/app.c  **** 			break;
 6307              		.loc 1 1786 4
 6308 0010 0EE0     		b	.L573
 6309              	.L570:
1778:../app/app.c  **** 			app_led_aqua_init();
 6310              		.loc 1 1778 4
 6311 0012 0121     		movs	r1, #1
 6312 0014 0520     		movs	r0, #5
 6313 0016 FFF7FEFF 		bl	display_led
1779:../app/app.c  **** 			app_task_substep = AQUA_RUN_STATE;
 6314              		.loc 1 1779 4
 6315 001a FFF7FEFF 		bl	app_led_aqua_init
1780:../app/app.c  **** 			break;
 6316              		.loc 1 1780 21
 6317 001e 054B     		ldr	r3, .L574
 6318 0020 0122     		movs	r2, #1
 6319 0022 1A70     		strb	r2, [r3]
1781:../app/app.c  **** 		case AQUA_RUN_STATE:
 6320              		.loc 1 1781 4
 6321 0024 04E0     		b	.L573
 6322              	.L571:
1783:../app/app.c  **** 			break;
 6323              		.loc 1 1783 4
 6324 0026 4FF4FA70 		mov	r0, #500
 6325 002a FFF7FEFF 		bl	osal_lyh_delay_task
1784:../app/app.c  **** 		default:
 6326              		.loc 1 1784 4
 6327 002e 00BF     		nop
 6328              	.L573:
1787:../app/app.c  **** 	}
1788:../app/app.c  **** }
 6329              		.loc 1 1788 1
 6330 0030 00BF     		nop
 6331 0032 80BD     		pop	{r7, pc}
 6332              	.L575:
 6333              		.align	2
 6334              	.L574:
 6335 0034 00000000 		.word	app_task_substep
 6336              		.cfi_endproc
 6337              	.LFE173:
 6339              		.section	.text.app_calc_handler,"ax",%progbits
 6340              		.align	1
 6341              		.global	app_calc_handler
 6342              		.syntax unified
 6343              		.thumb
 6344              		.thumb_func
 6345              		.fpu softvfp
 6347              	app_calc_handler:
 6348              	.LFB174:
1789:../app/app.c  **** 
1790:../app/app.c  **** /************************************************************************
1791:../app/app.c  **** * function name: app_calc_handler
1792:../app/app.c  **** * input: non
1793:../app/app.c  **** * output: non
1794:../app/app.c  **** * description: object thread
1795:../app/app.c  **** *************************************************************************/
1796:../app/app.c  **** void app_calc_handler(void)
1797:../app/app.c  **** {
 6349              		.loc 1 1797 1
 6350              		.cfi_startproc
 6351              		@ args = 0, pretend = 0, frame = 0
 6352              		@ frame_needed = 1, uses_anonymous_args = 0
 6353 0000 80B5     		push	{r7, lr}
 6354              		.cfi_def_cfa_offset 8
 6355              		.cfi_offset 7, -8
 6356              		.cfi_offset 14, -4
 6357 0002 00AF     		add	r7, sp, #0
 6358              		.cfi_def_cfa_register 7
1798:../app/app.c  **** 	switch(app_task_substep)
 6359              		.loc 1 1798 2
 6360 0004 0B4B     		ldr	r3, .L581
 6361 0006 1B78     		ldrb	r3, [r3]	@ zero_extendqisi2
 6362 0008 002B     		cmp	r3, #0
 6363 000a 02D0     		beq	.L577
 6364 000c 012B     		cmp	r3, #1
 6365 000e 0AD0     		beq	.L578
1799:../app/app.c  **** 	{
1800:../app/app.c  **** 		case CALC_INIT_STATE:
1801:../app/app.c  **** 			display_led(START_LED, LED_ON);
1802:../app/app.c  **** 			app_led_calc_init();
1803:../app/app.c  **** 			app_task_substep = CALC_RUN_STATE;
1804:../app/app.c  **** 			break;
1805:../app/app.c  **** 		case CALC_RUN_STATE:
1806:../app/app.c  **** 			osal_lyh_delay_task(Ms_500);
1807:../app/app.c  **** 			break;
1808:../app/app.c  **** 		default:
1809:../app/app.c  **** 			break;
 6366              		.loc 1 1809 4
 6367 0010 0EE0     		b	.L580
 6368              	.L577:
1801:../app/app.c  **** 			app_led_calc_init();
 6369              		.loc 1 1801 4
 6370 0012 0121     		movs	r1, #1
 6371 0014 0520     		movs	r0, #5
 6372 0016 FFF7FEFF 		bl	display_led
1802:../app/app.c  **** 			app_task_substep = CALC_RUN_STATE;
 6373              		.loc 1 1802 4
 6374 001a FFF7FEFF 		bl	app_led_calc_init
1803:../app/app.c  **** 			break;
 6375              		.loc 1 1803 21
 6376 001e 054B     		ldr	r3, .L581
 6377 0020 0122     		movs	r2, #1
 6378 0022 1A70     		strb	r2, [r3]
1804:../app/app.c  **** 		case CALC_RUN_STATE:
 6379              		.loc 1 1804 4
 6380 0024 04E0     		b	.L580
 6381              	.L578:
1806:../app/app.c  **** 			break;
 6382              		.loc 1 1806 4
 6383 0026 4FF4FA70 		mov	r0, #500
 6384 002a FFF7FEFF 		bl	osal_lyh_delay_task
1807:../app/app.c  **** 		default:
 6385              		.loc 1 1807 4
 6386 002e 00BF     		nop
 6387              	.L580:
1810:../app/app.c  **** 	}
1811:../app/app.c  **** }
 6388              		.loc 1 1811 1
 6389 0030 00BF     		nop
 6390 0032 80BD     		pop	{r7, pc}
 6391              	.L582:
 6392              		.align	2
 6393              	.L581:
 6394 0034 00000000 		.word	app_task_substep
 6395              		.cfi_endproc
 6396              	.LFE174:
 6398              		.section	.text.app_setup_handler,"ax",%progbits
 6399              		.align	1
 6400              		.global	app_setup_handler
 6401              		.syntax unified
 6402              		.thumb
 6403              		.thumb_func
 6404              		.fpu softvfp
 6406              	app_setup_handler:
 6407              	.LFB175:
1812:../app/app.c  **** 
1813:../app/app.c  **** /************************************************************************
1814:../app/app.c  **** * function name: app_setup_handler
1815:../app/app.c  **** * input: non
1816:../app/app.c  **** * output: non
1817:../app/app.c  **** * description: object thread
1818:../app/app.c  **** *************************************************************************/
1819:../app/app.c  **** void app_setup_handler(void)
1820:../app/app.c  **** {
 6408              		.loc 1 1820 1
 6409              		.cfi_startproc
 6410              		@ args = 0, pretend = 0, frame = 0
 6411              		@ frame_needed = 1, uses_anonymous_args = 0
 6412 0000 80B5     		push	{r7, lr}
 6413              		.cfi_def_cfa_offset 8
 6414              		.cfi_offset 7, -8
 6415              		.cfi_offset 14, -4
 6416 0002 00AF     		add	r7, sp, #0
 6417              		.cfi_def_cfa_register 7
1821:../app/app.c  **** 	switch(app_task_substep)
 6418              		.loc 1 1821 2
 6419 0004 5C4B     		ldr	r3, .L606
 6420 0006 1B78     		ldrb	r3, [r3]	@ zero_extendqisi2
 6421 0008 072B     		cmp	r3, #7
 6422 000a 00F2B280 		bhi	.L605
 6423 000e 01A2     		adr	r2, .L586
 6424 0010 52F823F0 		ldr	pc, [r2, r3, lsl #2]
 6425              		.p2align 2
 6426              	.L586:
 6427 0014 35000000 		.word	.L593+1
 6428 0018 65000000 		.word	.L592+1
 6429 001c 7F000000 		.word	.L591+1
 6430 0020 BB000000 		.word	.L590+1
 6431 0024 D5000000 		.word	.L589+1
 6432 0028 17010000 		.word	.L588+1
 6433 002c 31010000 		.word	.L587+1
 6434 0030 61010000 		.word	.L585+1
 6435              		.p2align 1
 6436              	.L593:
1822:../app/app.c  **** 	{
1823:../app/app.c  **** 		case SETUP_INIT_STATE:
1824:../app/app.c  **** 			if (MOTOR_STATE_STOPED == dc_motor_GetState()){
 6437              		.loc 1 1824 30
 6438 0034 FFF7FEFF 		bl	dc_motor_GetState
 6439 0038 0346     		mov	r3, r0
 6440              		.loc 1 1824 7
 6441 003a 002B     		cmp	r3, #0
 6442 003c 0ED1     		bne	.L594
1825:../app/app.c  **** 				key_prohibit_setup(KEY_ONOFF_MASK, TRUE);
 6443              		.loc 1 1825 5
 6444 003e 0121     		movs	r1, #1
 6445 0040 0120     		movs	r0, #1
 6446 0042 FFF7FEFF 		bl	key_prohibit_setup
1826:../app/app.c  **** 				app_task_substep = SETUP_ENTER_STATE;
 6447              		.loc 1 1826 22
 6448 0046 4C4B     		ldr	r3, .L606
 6449 0048 0122     		movs	r2, #1
 6450 004a 1A70     		strb	r2, [r3]
1827:../app/app.c  **** 				if (FAIL == app_motor_ready()){
 6451              		.loc 1 1827 17
 6452 004c FFF7FEFF 		bl	app_motor_ready
 6453 0050 0346     		mov	r3, r0
 6454              		.loc 1 1827 8
 6455 0052 002B     		cmp	r3, #0
 6456 0054 02D1     		bne	.L594
1828:../app/app.c  **** 					app_task_substep = SETUP_RIGHT_READY_STATE;
 6457              		.loc 1 1828 23
 6458 0056 484B     		ldr	r3, .L606
 6459 0058 0322     		movs	r2, #3
 6460 005a 1A70     		strb	r2, [r3]
 6461              	.L594:
1829:../app/app.c  **** 				}
1830:../app/app.c  **** 			}
1831:../app/app.c  **** 			osal_lyh_delay_task(Ms_100);
 6462              		.loc 1 1831 4
 6463 005c 6420     		movs	r0, #100
 6464 005e FFF7FEFF 		bl	osal_lyh_delay_task
1832:../app/app.c  **** 			break;
 6465              		.loc 1 1832 4
 6466 0062 87E0     		b	.L595
 6467              	.L592:
1833:../app/app.c  **** 		case SETUP_ENTER_STATE:
1834:../app/app.c  **** 			dc_motor_Start(MOTOR_RIGHT);
 6468              		.loc 1 1834 4
 6469 0064 0120     		movs	r0, #1
 6470 0066 FFF7FEFF 		bl	dc_motor_Start
1835:../app/app.c  **** 			osal_lyh_delay_task(Ms_100);
 6471              		.loc 1 1835 4
 6472 006a 6420     		movs	r0, #100
 6473 006c FFF7FEFF 		bl	osal_lyh_delay_task
1836:../app/app.c  **** 			run_max_time = RIGHT_TIMER(Ms_1000, Ms_100);
 6474              		.loc 1 1836 17
 6475 0070 424B     		ldr	r3, .L606+4
 6476 0072 0A22     		movs	r2, #10
 6477 0074 1A80     		strh	r2, [r3]	@ movhi
1837:../app/app.c  **** 			app_task_substep = SETUP_ENTER_ING_STATE;
 6478              		.loc 1 1837 21
 6479 0076 404B     		ldr	r3, .L606
 6480 0078 0222     		movs	r2, #2
 6481 007a 1A70     		strb	r2, [r3]
1838:../app/app.c  **** 			break;
 6482              		.loc 1 1838 4
 6483 007c 7AE0     		b	.L595
 6484              	.L591:
1839:../app/app.c  **** 		case SETUP_ENTER_ING_STATE:
1840:../app/app.c  **** 			if ((FAIL == app_motor_ready())
 6485              		.loc 1 1840 17
 6486 007e FFF7FEFF 		bl	app_motor_ready
 6487 0082 0346     		mov	r3, r0
 6488              		.loc 1 1840 7
 6489 0084 002B     		cmp	r3, #0
 6490 0086 09D0     		beq	.L596
1841:../app/app.c  **** 				|| (--run_max_time == 0)){
 6491              		.loc 1 1841 9
 6492 0088 3C4B     		ldr	r3, .L606+4
 6493 008a 1B88     		ldrh	r3, [r3]
 6494 008c 013B     		subs	r3, r3, #1
 6495 008e 9AB2     		uxth	r2, r3
 6496              		.loc 1 1841 5
 6497 0090 3A4B     		ldr	r3, .L606+4
 6498 0092 1A80     		strh	r2, [r3]	@ movhi
 6499              		.loc 1 1841 9
 6500 0094 394B     		ldr	r3, .L606+4
 6501 0096 1B88     		ldrh	r3, [r3]
 6502              		.loc 1 1841 5
 6503 0098 002B     		cmp	r3, #0
 6504 009a 0AD1     		bne	.L597
 6505              	.L596:
1842:../app/app.c  **** 				dc_motor_Stop();
 6506              		.loc 1 1842 5
 6507 009c FFF7FEFF 		bl	dc_motor_Stop
1843:../app/app.c  **** 				app_task_substep = run_max_time? SETUP_RIGHT_READY_STATE:SETUP_LEFT_READY_STATE;
 6508              		.loc 1 1843 36
 6509 00a0 364B     		ldr	r3, .L606+4
 6510 00a2 1B88     		ldrh	r3, [r3]
 6511              		.loc 1 1843 22
 6512 00a4 002B     		cmp	r3, #0
 6513 00a6 01D0     		beq	.L598
 6514              		.loc 1 1843 22 is_stmt 0 discriminator 1
 6515 00a8 0322     		movs	r2, #3
 6516 00aa 00E0     		b	.L599
 6517              	.L598:
 6518              		.loc 1 1843 22 discriminator 2
 6519 00ac 0522     		movs	r2, #5
 6520              	.L599:
 6521              		.loc 1 1843 22 discriminator 4
 6522 00ae 324B     		ldr	r3, .L606
 6523 00b0 1A70     		strb	r2, [r3]
 6524              	.L597:
1844:../app/app.c  **** 			}
1845:../app/app.c  **** 			osal_lyh_delay_task(Ms_100);
 6525              		.loc 1 1845 4 is_stmt 1
 6526 00b2 6420     		movs	r0, #100
 6527 00b4 FFF7FEFF 		bl	osal_lyh_delay_task
1846:../app/app.c  **** 			break;
 6528              		.loc 1 1846 4
 6529 00b8 5CE0     		b	.L595
 6530              	.L590:
1847:../app/app.c  **** 		case SETUP_RIGHT_READY_STATE:
1848:../app/app.c  **** 			dc_motor_Start(MOTOR_RIGHT);
 6531              		.loc 1 1848 4
 6532 00ba 0120     		movs	r0, #1
 6533 00bc FFF7FEFF 		bl	dc_motor_Start
1849:../app/app.c  **** 			osal_lyh_delay_task(Ms_100);
 6534              		.loc 1 1849 4
 6535 00c0 6420     		movs	r0, #100
 6536 00c2 FFF7FEFF 		bl	osal_lyh_delay_task
1850:../app/app.c  **** 			app_task_substep = SETUP_RIGHT_ING_STATE;
 6537              		.loc 1 1850 21
 6538 00c6 2C4B     		ldr	r3, .L606
 6539 00c8 0422     		movs	r2, #4
 6540 00ca 1A70     		strb	r2, [r3]
1851:../app/app.c  **** 			run_max_time = RIGHT_TIMER(Ms_6000, Ms_100);
 6541              		.loc 1 1851 17
 6542 00cc 2B4B     		ldr	r3, .L606+4
 6543 00ce 3C22     		movs	r2, #60
 6544 00d0 1A80     		strh	r2, [r3]	@ movhi
1852:../app/app.c  **** 			break;
 6545              		.loc 1 1852 4
 6546 00d2 4FE0     		b	.L595
 6547              	.L589:
1853:../app/app.c  **** 		case SETUP_RIGHT_ING_STATE:
1854:../app/app.c  **** 			if ((MOTOR_STATE_STOPED == dc_motor_GetState())
 6548              		.loc 1 1854 31
 6549 00d4 FFF7FEFF 		bl	dc_motor_GetState
 6550 00d8 0346     		mov	r3, r0
 6551              		.loc 1 1854 7
 6552 00da 002B     		cmp	r3, #0
 6553 00dc 0ED0     		beq	.L600
1855:../app/app.c  **** 				|| (TRUE == app_motor_ready())
 6554              		.loc 1 1855 17
 6555 00de FFF7FEFF 		bl	app_motor_ready
 6556 00e2 0346     		mov	r3, r0
 6557              		.loc 1 1855 5
 6558 00e4 012B     		cmp	r3, #1
 6559 00e6 09D0     		beq	.L600
1856:../app/app.c  **** 				|| (--run_max_time == 0)){
 6560              		.loc 1 1856 9
 6561 00e8 244B     		ldr	r3, .L606+4
 6562 00ea 1B88     		ldrh	r3, [r3]
 6563 00ec 013B     		subs	r3, r3, #1
 6564 00ee 9AB2     		uxth	r2, r3
 6565              		.loc 1 1856 5
 6566 00f0 224B     		ldr	r3, .L606+4
 6567 00f2 1A80     		strh	r2, [r3]	@ movhi
 6568              		.loc 1 1856 9
 6569 00f4 214B     		ldr	r3, .L606+4
 6570 00f6 1B88     		ldrh	r3, [r3]
 6571              		.loc 1 1856 5
 6572 00f8 002B     		cmp	r3, #0
 6573 00fa 08D1     		bne	.L601
 6574              	.L600:
1857:../app/app.c  **** 				dc_motor_Stop();
 6575              		.loc 1 1857 5
 6576 00fc FFF7FEFF 		bl	dc_motor_Stop
1858:../app/app.c  **** 				osal_lyh_delay_task(Ms_200);
 6577              		.loc 1 1858 5
 6578 0100 C820     		movs	r0, #200
 6579 0102 FFF7FEFF 		bl	osal_lyh_delay_task
1859:../app/app.c  **** 				app_task_substep = SETUP_LEFT_READY_STATE;
 6580              		.loc 1 1859 22
 6581 0106 1C4B     		ldr	r3, .L606
 6582 0108 0522     		movs	r2, #5
 6583 010a 1A70     		strb	r2, [r3]
1860:../app/app.c  **** 			}
1861:../app/app.c  **** 			else {
1862:../app/app.c  **** 				osal_lyh_delay_task(Ms_100);
1863:../app/app.c  **** 			}
1864:../app/app.c  **** 			break;
 6584              		.loc 1 1864 4
 6585 010c 32E0     		b	.L595
 6586              	.L601:
1862:../app/app.c  **** 			}
 6587              		.loc 1 1862 5
 6588 010e 6420     		movs	r0, #100
 6589 0110 FFF7FEFF 		bl	osal_lyh_delay_task
 6590              		.loc 1 1864 4
 6591 0114 2EE0     		b	.L595
 6592              	.L588:
1865:../app/app.c  **** 		case SETUP_LEFT_READY_STATE:
1866:../app/app.c  **** 			dc_motor_Start(MOTOR_LEFT);
 6593              		.loc 1 1866 4
 6594 0116 0220     		movs	r0, #2
 6595 0118 FFF7FEFF 		bl	dc_motor_Start
1867:../app/app.c  **** 			osal_lyh_delay_task(Ms_100);
 6596              		.loc 1 1867 4
 6597 011c 6420     		movs	r0, #100
 6598 011e FFF7FEFF 		bl	osal_lyh_delay_task
1868:../app/app.c  **** 			run_max_time = LEFT_TIMER(MOTOR_FIX_TIME, Ms_100);
 6599              		.loc 1 1868 17
 6600 0122 164B     		ldr	r3, .L606+4
 6601 0124 0322     		movs	r2, #3
 6602 0126 1A80     		strh	r2, [r3]	@ movhi
1869:../app/app.c  **** 			app_task_substep = SETUP_LEFT_ING_STATE;
 6603              		.loc 1 1869 21
 6604 0128 134B     		ldr	r3, .L606
 6605 012a 0622     		movs	r2, #6
 6606 012c 1A70     		strb	r2, [r3]
1870:../app/app.c  **** 			break;
 6607              		.loc 1 1870 4
 6608 012e 21E0     		b	.L595
 6609              	.L587:
1871:../app/app.c  **** 		case SETUP_LEFT_ING_STATE:
1872:../app/app.c  **** 			if (1/*(FAIL == app_motor_ready())*/	// deleting point,(temp to cancel) 
1873:../app/app.c  **** 				&& ((MOTOR_STATE_STOPED == dc_motor_GetState())
 6610              		.loc 1 1873 32
 6611 0130 FFF7FEFF 		bl	dc_motor_GetState
 6612 0134 0346     		mov	r3, r0
1872:../app/app.c  **** 				&& ((MOTOR_STATE_STOPED == dc_motor_GetState())
 6613              		.loc 1 1872 7
 6614 0136 002B     		cmp	r3, #0
 6615 0138 09D0     		beq	.L603
1874:../app/app.c  **** 				|| (--run_max_time == 0))){
 6616              		.loc 1 1874 9
 6617 013a 104B     		ldr	r3, .L606+4
 6618 013c 1B88     		ldrh	r3, [r3]
 6619 013e 013B     		subs	r3, r3, #1
 6620 0140 9AB2     		uxth	r2, r3
1873:../app/app.c  **** 				|| (--run_max_time == 0))){
 6621              		.loc 1 1873 5
 6622 0142 0E4B     		ldr	r3, .L606+4
 6623 0144 1A80     		strh	r2, [r3]	@ movhi
 6624              		.loc 1 1874 9
 6625 0146 0D4B     		ldr	r3, .L606+4
 6626 0148 1B88     		ldrh	r3, [r3]
1873:../app/app.c  **** 				|| (--run_max_time == 0))){
 6627              		.loc 1 1873 5
 6628 014a 002B     		cmp	r3, #0
 6629 014c 04D1     		bne	.L604
 6630              	.L603:
1875:../app/app.c  **** 				dc_motor_Stop();
 6631              		.loc 1 1875 5
 6632 014e FFF7FEFF 		bl	dc_motor_Stop
1876:../app/app.c  **** 				app_task_substep = SETUP_COMPLETE_STATE;
 6633              		.loc 1 1876 22
 6634 0152 094B     		ldr	r3, .L606
 6635 0154 0722     		movs	r2, #7
 6636 0156 1A70     		strb	r2, [r3]
 6637              	.L604:
1877:../app/app.c  **** 			}
1878:../app/app.c  **** 			osal_lyh_delay_task(Ms_100);
 6638              		.loc 1 1878 4
 6639 0158 6420     		movs	r0, #100
 6640 015a FFF7FEFF 		bl	osal_lyh_delay_task
1879:../app/app.c  **** 			break;
 6641              		.loc 1 1879 4
 6642 015e 09E0     		b	.L595
 6643              	.L585:
1880:../app/app.c  **** 		case SETUP_COMPLETE_STATE:
1881:../app/app.c  **** 			key_prohibit_setup(KEY_ONOFF_MASK, FAIL);
 6644              		.loc 1 1881 4
 6645 0160 0021     		movs	r1, #0
 6646 0162 0120     		movs	r0, #1
 6647 0164 FFF7FEFF 		bl	key_prohibit_setup
1882:../app/app.c  **** 			app_task_nextstep(APP_IDLE_STATE, IDLE_INIT_STATE);
 6648              		.loc 1 1882 4
 6649 0168 0021     		movs	r1, #0
 6650 016a 0120     		movs	r0, #1
 6651 016c FFF7FEFF 		bl	app_task_nextstep
1883:../app/app.c  **** 			break;
 6652              		.loc 1 1883 4
 6653 0170 00E0     		b	.L595
 6654              	.L605:
1884:../app/app.c  **** 		default:
1885:../app/app.c  **** 			break;
 6655              		.loc 1 1885 4
 6656 0172 00BF     		nop
 6657              	.L595:
1886:../app/app.c  **** 	}
1887:../app/app.c  **** }
 6658              		.loc 1 1887 1
 6659 0174 00BF     		nop
 6660 0176 80BD     		pop	{r7, pc}
 6661              	.L607:
 6662              		.align	2
 6663              	.L606:
 6664 0178 00000000 		.word	app_task_substep
 6665 017c 00000000 		.word	run_max_time
 6666              		.cfi_endproc
 6667              	.LFE175:
 6669              		.section	.text.app_running_onoff_grind_handler,"ax",%progbits
 6670              		.align	1
 6671              		.global	app_running_onoff_grind_handler
 6672              		.syntax unified
 6673              		.thumb
 6674              		.thumb_func
 6675              		.fpu softvfp
 6677              	app_running_onoff_grind_handler:
 6678              	.LFB176:
1888:../app/app.c  **** 
1889:../app/app.c  **** 
1890:../app/app.c  **** /**************************************************************************
1891:../app/app.c  ****  * @brief هœ¨ç ”ç£¨çٹ¶و€پن¸‹وŒ‰ن¸‹ON/OFFé”®çڑ„ه¤„çگ†ه‡½و•°
1892:../app/app.c  ****  * @return TRUEï¼ڑوµپç¨‹ç»“و‌ںï¼Œèگƒهڈ–ç”µوœ؛ه¤„ن؛ژهژںن½چï¼Œ FAILï¼ڑوµپç¨‹و‰§è،Œن¸­
1893:../app/app.c  ****  * @note è¯¥ه‡½و•°هœ¨espresso, americanoçڑ„ç ”ç£¨çٹ¶و€پن¸‹وŒ‰ن¸‹ON/OFFé”®و—¶è¢«è°ƒç”¨
1894:../app/app.c  ****  *************************************************************************/
1895:../app/app.c  **** uint8_t app_running_onoff_grind_handler(void)
1896:../app/app.c  **** {
 6679              		.loc 1 1896 1
 6680              		.cfi_startproc
 6681              		@ args = 0, pretend = 0, frame = 0
 6682              		@ frame_needed = 1, uses_anonymous_args = 0
 6683 0000 80B5     		push	{r7, lr}
 6684              		.cfi_def_cfa_offset 8
 6685              		.cfi_offset 7, -8
 6686              		.cfi_offset 14, -4
 6687 0002 00AF     		add	r7, sp, #0
 6688              		.cfi_def_cfa_register 7
1897:../app/app.c  **** 	static uint8_t sta = 0;
1898:../app/app.c  **** 	switch (sta)
 6689              		.loc 1 1898 2
 6690 0004 694B     		ldr	r3, .L633
 6691 0006 1B78     		ldrb	r3, [r3]	@ zero_extendqisi2
 6692 0008 0A2B     		cmp	r3, #10
 6693 000a 00F2CB80 		bhi	.L632
 6694 000e 01A2     		adr	r2, .L611
 6695 0010 52F823F0 		ldr	pc, [r2, r3, lsl #2]
 6696              		.p2align 2
 6697              	.L611:
 6698 0014 41000000 		.word	.L621+1
 6699 0018 57000000 		.word	.L620+1
 6700 001c 71000000 		.word	.L619+1
 6701 0020 AD000000 		.word	.L618+1
 6702 0024 C3000000 		.word	.L617+1
 6703 0028 D7000000 		.word	.L616+1
 6704 002c ED000000 		.word	.L615+1
 6705 0030 01010000 		.word	.L614+1
 6706 0034 1B010000 		.word	.L613+1
 6707 0038 57010000 		.word	.L612+1
 6708 003c 71010000 		.word	.L610+1
 6709              		.p2align 1
 6710              	.L621:
1899:../app/app.c  **** 	{
1900:../app/app.c  **** 		/* هپœو­¢ç ”ç£¨م€پèگƒهڈ–ç”µوœ؛ */
1901:../app/app.c  **** 		case 0:									
1902:../app/app.c  **** 			ac_grind_stop();
 6711              		.loc 1 1902 4
 6712 0040 FFF7FEFF 		bl	ac_grind_stop
1903:../app/app.c  **** 			dc_motor_Stop();
 6713              		.loc 1 1903 4
 6714 0044 FFF7FEFF 		bl	dc_motor_Stop
1904:../app/app.c  **** 			osal_lyh_delay_task(Ms_100);
 6715              		.loc 1 1904 4
 6716 0048 6420     		movs	r0, #100
 6717 004a FFF7FEFF 		bl	osal_lyh_delay_task
1905:../app/app.c  **** 			sta = 1;
 6718              		.loc 1 1905 8
 6719 004e 574B     		ldr	r3, .L633
 6720 0050 0122     		movs	r2, #1
 6721 0052 1A70     		strb	r2, [r3]
1906:../app/app.c  **** 			break;
 6722              		.loc 1 1906 4
 6723 0054 A7E0     		b	.L622
 6724              	.L620:
1907:../app/app.c  **** 		/* èگƒهڈ–ç”µوœ؛è½¬هˆ°وژ¥و°´ن½چç½® */
1908:../app/app.c  **** 		case 1:										
1909:../app/app.c  **** 			dc_motor_Start(MOTOR_LEFT);		
 6725              		.loc 1 1909 4
 6726 0056 0220     		movs	r0, #2
 6727 0058 FFF7FEFF 		bl	dc_motor_Start
1910:../app/app.c  **** 			osal_lyh_delay_task(Ms_100);
 6728              		.loc 1 1910 4
 6729 005c 6420     		movs	r0, #100
 6730 005e FFF7FEFF 		bl	osal_lyh_delay_task
1911:../app/app.c  **** 			run_max_time = LEFT_TIMER(Ms_7000, Ms_100);
 6731              		.loc 1 1911 17
 6732 0062 534B     		ldr	r3, .L633+4
 6733 0064 4622     		movs	r2, #70
 6734 0066 1A80     		strh	r2, [r3]	@ movhi
1912:../app/app.c  **** 			sta = 2;
 6735              		.loc 1 1912 8
 6736 0068 504B     		ldr	r3, .L633
 6737 006a 0222     		movs	r2, #2
 6738 006c 1A70     		strb	r2, [r3]
1913:../app/app.c  **** 			break;
 6739              		.loc 1 1913 4
 6740 006e 9AE0     		b	.L622
 6741              	.L619:
1914:../app/app.c  **** 		/* هˆ¤و–­èگƒهڈ–ç”µوœ؛وک¯هگ¦هˆ°وژ¥و°´ن½چç½® */
1915:../app/app.c  **** 		case 2:										
1916:../app/app.c  **** 			if ((MOTOR_STATE_STOPED ==dc_motor_GetState())
 6742              		.loc 1 1916 30
 6743 0070 FFF7FEFF 		bl	dc_motor_GetState
 6744 0074 0346     		mov	r3, r0
 6745              		.loc 1 1916 7
 6746 0076 002B     		cmp	r3, #0
 6747 0078 0ED0     		beq	.L623
1917:../app/app.c  **** 				|| (TRUE == app_motor_ready())
 6748              		.loc 1 1917 17
 6749 007a FFF7FEFF 		bl	app_motor_ready
 6750 007e 0346     		mov	r3, r0
 6751              		.loc 1 1917 5
 6752 0080 012B     		cmp	r3, #1
 6753 0082 09D0     		beq	.L623
1918:../app/app.c  **** 				|| (--run_max_time == 0)){
 6754              		.loc 1 1918 9
 6755 0084 4A4B     		ldr	r3, .L633+4
 6756 0086 1B88     		ldrh	r3, [r3]
 6757 0088 013B     		subs	r3, r3, #1
 6758 008a 9AB2     		uxth	r2, r3
 6759              		.loc 1 1918 5
 6760 008c 484B     		ldr	r3, .L633+4
 6761 008e 1A80     		strh	r2, [r3]	@ movhi
 6762              		.loc 1 1918 9
 6763 0090 474B     		ldr	r3, .L633+4
 6764 0092 1B88     		ldrh	r3, [r3]
 6765              		.loc 1 1918 5
 6766 0094 002B     		cmp	r3, #0
 6767 0096 05D1     		bne	.L624
 6768              	.L623:
1919:../app/app.c  **** 				dc_motor_Stop();
 6769              		.loc 1 1919 5
 6770 0098 FFF7FEFF 		bl	dc_motor_Stop
1920:../app/app.c  **** 				sta = 3;
 6771              		.loc 1 1920 9
 6772 009c 434B     		ldr	r3, .L633
 6773 009e 0322     		movs	r2, #3
 6774 00a0 1A70     		strb	r2, [r3]
1921:../app/app.c  **** 			}
1922:../app/app.c  **** 			else {
1923:../app/app.c  **** 				osal_lyh_delay_task(Ms_100);
1924:../app/app.c  **** 			}			
1925:../app/app.c  **** 			break;
 6775              		.loc 1 1925 4
 6776 00a2 80E0     		b	.L622
 6777              	.L624:
1923:../app/app.c  **** 			}			
 6778              		.loc 1 1923 5
 6779 00a4 6420     		movs	r0, #100
 6780 00a6 FFF7FEFF 		bl	osal_lyh_delay_task
 6781              		.loc 1 1925 4
 6782 00aa 7CE0     		b	.L622
 6783              	.L618:
1926:../app/app.c  **** 		/* ه¼€ه§‹وٹ½و°´ï¼ˆçں­و—¶é—´ï¼‰ */
1927:../app/app.c  **** 		case 3:										
1928:../app/app.c  **** 			ac_pumb_start(CONTINUE_MODE);
 6784              		.loc 1 1928 4
 6785 00ac 0020     		movs	r0, #0
 6786 00ae FFF7FEFF 		bl	ac_pumb_start
1929:../app/app.c  **** 			osal_lyh_delay_task(Ms_2000 - Ms_100);	//و­¤ه¤„و—¶é—´éœ€è¦پو ¹وچ®ه®‍é™…وƒ…ه†µو•´و”¹
 6787              		.loc 1 1929 4
 6788 00b2 40F26C70 		movw	r0, #1900
 6789 00b6 FFF7FEFF 		bl	osal_lyh_delay_task
1930:../app/app.c  **** 			sta = 4;
 6790              		.loc 1 1930 8
 6791 00ba 3C4B     		ldr	r3, .L633
 6792 00bc 0422     		movs	r2, #4
 6793 00be 1A70     		strb	r2, [r3]
1931:../app/app.c  **** 			break;
 6794              		.loc 1 1931 4
 6795 00c0 71E0     		b	.L622
 6796              	.L617:
1932:../app/app.c  **** 		/* هپœو­¢وٹ½و°´ */
1933:../app/app.c  **** 		case 4:										
1934:../app/app.c  **** 			ac_pumb_stop();
 6797              		.loc 1 1934 4
 6798 00c2 FFF7FEFF 		bl	ac_pumb_stop
1935:../app/app.c  **** 			osal_lyh_delay_task(Ms_4000);	//و­¤ه¤„و—¶é—´éœ€è¦پو ¹وچ®ه®‍é™…وƒ…ه†µو•´و”¹
 6799              		.loc 1 1935 4
 6800 00c6 4FF47A60 		mov	r0, #4000
 6801 00ca FFF7FEFF 		bl	osal_lyh_delay_task
1936:../app/app.c  **** 			sta = 5;
 6802              		.loc 1 1936 8
 6803 00ce 374B     		ldr	r3, .L633
 6804 00d0 0522     		movs	r2, #5
 6805 00d2 1A70     		strb	r2, [r3]
1937:../app/app.c  **** 			break;
 6806              		.loc 1 1937 4
 6807 00d4 67E0     		b	.L622
 6808              	.L616:
1938:../app/app.c  **** 		/* èگƒهڈ–ç”µوœ؛è½¬هˆ°ه€’ç²‰ن½چç½® */
1939:../app/app.c  **** 		case 5:										
1940:../app/app.c  **** 			dc_motor_Start(MOTOR_RIGHT);
 6809              		.loc 1 1940 4
 6810 00d6 0120     		movs	r0, #1
 6811 00d8 FFF7FEFF 		bl	dc_motor_Start
1941:../app/app.c  **** 			osal_lyh_delay_task(Ms_3000 - Ms_100);
 6812              		.loc 1 1941 4
 6813 00dc 40F65430 		movw	r0, #2900
 6814 00e0 FFF7FEFF 		bl	osal_lyh_delay_task
1942:../app/app.c  **** 			sta = 6;
 6815              		.loc 1 1942 8
 6816 00e4 314B     		ldr	r3, .L633
 6817 00e6 0622     		movs	r2, #6
 6818 00e8 1A70     		strb	r2, [r3]
1943:../app/app.c  **** 			break;
 6819              		.loc 1 1943 4
 6820 00ea 5CE0     		b	.L622
 6821              	.L615:
1944:../app/app.c  **** 		/* èگƒهڈ–ç”µوœ؛هپœو­¢ï¼Œه€’ه‡؛ه’–ه•،ç²‰ */
1945:../app/app.c  **** 		case 6:									
1946:../app/app.c  **** 			dc_motor_Stop();
 6822              		.loc 1 1946 4
 6823 00ec FFF7FEFF 		bl	dc_motor_Stop
1947:../app/app.c  **** 			osal_lyh_delay_task(Ms_3000);
 6824              		.loc 1 1947 4
 6825 00f0 40F6B830 		movw	r0, #3000
 6826 00f4 FFF7FEFF 		bl	osal_lyh_delay_task
1948:../app/app.c  **** 			sta = 7;
 6827              		.loc 1 1948 8
 6828 00f8 2C4B     		ldr	r3, .L633
 6829 00fa 0722     		movs	r2, #7
 6830 00fc 1A70     		strb	r2, [r3]
1949:../app/app.c  **** 			break;
 6831              		.loc 1 1949 4
 6832 00fe 52E0     		b	.L622
 6833              	.L614:
1950:../app/app.c  **** 		/* èگƒهڈ–ç”µوœ؛ه›‍هˆ°هژںن½چ */
1951:../app/app.c  **** 		case 7:										
1952:../app/app.c  **** 			dc_motor_Start(MOTOR_RIGHT);
 6834              		.loc 1 1952 4
 6835 0100 0120     		movs	r0, #1
 6836 0102 FFF7FEFF 		bl	dc_motor_Start
1953:../app/app.c  **** 			osal_lyh_delay_task(Ms_100);
 6837              		.loc 1 1953 4
 6838 0106 6420     		movs	r0, #100
 6839 0108 FFF7FEFF 		bl	osal_lyh_delay_task
1954:../app/app.c  **** 			run_max_time = RIGHT_TIMER(Ms_5000, Ms_100);
 6840              		.loc 1 1954 17
 6841 010c 284B     		ldr	r3, .L633+4
 6842 010e 3222     		movs	r2, #50
 6843 0110 1A80     		strh	r2, [r3]	@ movhi
1955:../app/app.c  **** 			sta = 8;
 6844              		.loc 1 1955 8
 6845 0112 264B     		ldr	r3, .L633
 6846 0114 0822     		movs	r2, #8
 6847 0116 1A70     		strb	r2, [r3]
1956:../app/app.c  **** 			break;
 6848              		.loc 1 1956 4
 6849 0118 45E0     		b	.L622
 6850              	.L613:
1957:../app/app.c  **** 		/* هˆ¤و–­èگƒهڈ–ç”µوœ؛وک¯هگ¦هˆ°هژںن½چه¼€ه…³ */
1958:../app/app.c  **** 		case 8:									
1959:../app/app.c  **** 			if ((MOTOR_STATE_STOPED ==dc_motor_GetState())	
 6851              		.loc 1 1959 30
 6852 011a FFF7FEFF 		bl	dc_motor_GetState
 6853 011e 0346     		mov	r3, r0
 6854              		.loc 1 1959 7
 6855 0120 002B     		cmp	r3, #0
 6856 0122 0ED0     		beq	.L626
1960:../app/app.c  **** 				|| (TRUE == app_motor_ready())
 6857              		.loc 1 1960 17
 6858 0124 FFF7FEFF 		bl	app_motor_ready
 6859 0128 0346     		mov	r3, r0
 6860              		.loc 1 1960 5
 6861 012a 012B     		cmp	r3, #1
 6862 012c 09D0     		beq	.L626
1961:../app/app.c  **** 				|| (--run_max_time == 0)){
 6863              		.loc 1 1961 9
 6864 012e 204B     		ldr	r3, .L633+4
 6865 0130 1B88     		ldrh	r3, [r3]
 6866 0132 013B     		subs	r3, r3, #1
 6867 0134 9AB2     		uxth	r2, r3
 6868              		.loc 1 1961 5
 6869 0136 1E4B     		ldr	r3, .L633+4
 6870 0138 1A80     		strh	r2, [r3]	@ movhi
 6871              		.loc 1 1961 9
 6872 013a 1D4B     		ldr	r3, .L633+4
 6873 013c 1B88     		ldrh	r3, [r3]
 6874              		.loc 1 1961 5
 6875 013e 002B     		cmp	r3, #0
 6876 0140 05D1     		bne	.L627
 6877              	.L626:
1962:../app/app.c  **** 				dc_motor_Stop();
 6878              		.loc 1 1962 5
 6879 0142 FFF7FEFF 		bl	dc_motor_Stop
1963:../app/app.c  **** 				sta = 9;
 6880              		.loc 1 1963 9
 6881 0146 194B     		ldr	r3, .L633
 6882 0148 0922     		movs	r2, #9
 6883 014a 1A70     		strb	r2, [r3]
1964:../app/app.c  **** 			}
1965:../app/app.c  **** 			else {
1966:../app/app.c  **** 				osal_lyh_delay_task(Ms_100);
1967:../app/app.c  **** 			}
1968:../app/app.c  **** 			break;
 6884              		.loc 1 1968 4
 6885 014c 2BE0     		b	.L622
 6886              	.L627:
1966:../app/app.c  **** 			}
 6887              		.loc 1 1966 5
 6888 014e 6420     		movs	r0, #100
 6889 0150 FFF7FEFF 		bl	osal_lyh_delay_task
 6890              		.loc 1 1968 4
 6891 0154 27E0     		b	.L622
 6892              	.L612:
1969:../app/app.c  **** 		/* èگƒهڈ–ç”µوœ؛ه›‍è½¬هˆ°هژںن½چ */
1970:../app/app.c  **** 		case 9:									
1971:../app/app.c  **** 			dc_motor_Start(MOTOR_LEFT);
 6893              		.loc 1 1971 4
 6894 0156 0220     		movs	r0, #2
 6895 0158 FFF7FEFF 		bl	dc_motor_Start
1972:../app/app.c  **** 			osal_lyh_delay_task(Ms_100);
 6896              		.loc 1 1972 4
 6897 015c 6420     		movs	r0, #100
 6898 015e FFF7FEFF 		bl	osal_lyh_delay_task
1973:../app/app.c  **** 			run_max_time = LEFT_TIMER(MOTOR_FIX_TIME, Ms_100);
 6899              		.loc 1 1973 17
 6900 0162 134B     		ldr	r3, .L633+4
 6901 0164 0322     		movs	r2, #3
 6902 0166 1A80     		strh	r2, [r3]	@ movhi
1974:../app/app.c  **** 			sta = 10;
 6903              		.loc 1 1974 8
 6904 0168 104B     		ldr	r3, .L633
 6905 016a 0A22     		movs	r2, #10
 6906 016c 1A70     		strb	r2, [r3]
1975:../app/app.c  **** 			break;
 6907              		.loc 1 1975 4
 6908 016e 1AE0     		b	.L622
 6909              	.L610:
1976:../app/app.c  **** 		/* هˆ¤و–­èگƒهڈ–ç”µوœ؛ه›‍è½¬وک¯هگ¦ه®Œوˆگ */
1977:../app/app.c  **** 		case 10:									
1978:../app/app.c  **** 			if (1/*(FAIL == app_motor_ready())*/	// deleting point,(temp to cancel) 
1979:../app/app.c  **** 				&& ((MOTOR_STATE_STOPED ==dc_motor_GetState())
 6910              		.loc 1 1979 31
 6911 0170 FFF7FEFF 		bl	dc_motor_GetState
 6912 0174 0346     		mov	r3, r0
1978:../app/app.c  **** 				&& ((MOTOR_STATE_STOPED ==dc_motor_GetState())
 6913              		.loc 1 1978 7
 6914 0176 002B     		cmp	r3, #0
 6915 0178 09D0     		beq	.L629
1980:../app/app.c  **** 				|| (--run_max_time == 0))){
 6916              		.loc 1 1980 9
 6917 017a 0D4B     		ldr	r3, .L633+4
 6918 017c 1B88     		ldrh	r3, [r3]
 6919 017e 013B     		subs	r3, r3, #1
 6920 0180 9AB2     		uxth	r2, r3
1979:../app/app.c  **** 				|| (--run_max_time == 0))){
 6921              		.loc 1 1979 5
 6922 0182 0B4B     		ldr	r3, .L633+4
 6923 0184 1A80     		strh	r2, [r3]	@ movhi
 6924              		.loc 1 1980 9
 6925 0186 0A4B     		ldr	r3, .L633+4
 6926 0188 1B88     		ldrh	r3, [r3]
1979:../app/app.c  **** 				|| (--run_max_time == 0))){
 6927              		.loc 1 1979 5
 6928 018a 002B     		cmp	r3, #0
 6929 018c 06D1     		bne	.L630
 6930              	.L629:
1981:../app/app.c  **** 				dc_motor_Stop();												
 6931              		.loc 1 1981 5
 6932 018e FFF7FEFF 		bl	dc_motor_Stop
1982:../app/app.c  **** 				sta = 0;
 6933              		.loc 1 1982 9
 6934 0192 064B     		ldr	r3, .L633
 6935 0194 0022     		movs	r2, #0
 6936 0196 1A70     		strb	r2, [r3]
1983:../app/app.c  **** 				return TRUE;
 6937              		.loc 1 1983 12
 6938 0198 0123     		movs	r3, #1
 6939 019a 05E0     		b	.L631
 6940              	.L630:
1984:../app/app.c  **** 			}
1985:../app/app.c  **** 			else {
1986:../app/app.c  **** 				osal_lyh_delay_task(Ms_100);
 6941              		.loc 1 1986 5
 6942 019c 6420     		movs	r0, #100
 6943 019e FFF7FEFF 		bl	osal_lyh_delay_task
1987:../app/app.c  **** 			}
1988:../app/app.c  **** 			break;
 6944              		.loc 1 1988 4
 6945 01a2 00E0     		b	.L622
 6946              	.L632:
1989:../app/app.c  **** 		default:
1990:../app/app.c  **** 			break;
 6947              		.loc 1 1990 4
 6948 01a4 00BF     		nop
 6949              	.L622:
1991:../app/app.c  **** 	}
1992:../app/app.c  **** 	return FAIL;
 6950              		.loc 1 1992 9
 6951 01a6 0023     		movs	r3, #0
 6952              	.L631:
1993:../app/app.c  **** }
 6953              		.loc 1 1993 1
 6954 01a8 1846     		mov	r0, r3
 6955 01aa 80BD     		pop	{r7, pc}
 6956              	.L634:
 6957              		.align	2
 6958              	.L633:
 6959 01ac 00000000 		.word	sta.8840
 6960 01b0 00000000 		.word	run_max_time
 6961              		.cfi_endproc
 6962              	.LFE176:
 6964              		.section	.text.app_running_onoff_go_water_handler,"ax",%progbits
 6965              		.align	1
 6966              		.global	app_running_onoff_go_water_handler
 6967              		.syntax unified
 6968              		.thumb
 6969              		.thumb_func
 6970              		.fpu softvfp
 6972              	app_running_onoff_go_water_handler:
 6973              	.LFB177:
1994:../app/app.c  **** 
1995:../app/app.c  **** /**************************************************************************
1996:../app/app.c  ****  * @brief هœ¨èگƒهڈ–ç”µوœ؛هژ»وژ¥و°´çٹ¶و€پن¸‹وŒ‰ن¸‹ON/OFFé”®çڑ„ه¤„çگ†ه‡½و•°
1997:../app/app.c  ****  * @return TRUEï¼ڑوµپç¨‹ç»“و‌ںï¼Œèگƒهڈ–ç”µوœ؛ه¤„ن؛ژهژںن½چï¼Œ FAILï¼ڑوµپç¨‹و‰§è،Œن¸­
1998:../app/app.c  ****  * @note è¯¥ه‡½و•°هœ¨espresso, americanoçڑ„هژ»وژ¥و°´çٹ¶و€پن¸‹وŒ‰ن¸‹ON/OFFé”®و—¶è¢«è°ƒç”¨
1999:../app/app.c  ****  *************************************************************************/
2000:../app/app.c  **** uint8_t app_running_onoff_go_water_handler(void)
2001:../app/app.c  **** {
 6974              		.loc 1 2001 1
 6975              		.cfi_startproc
 6976              		@ args = 0, pretend = 0, frame = 0
 6977              		@ frame_needed = 1, uses_anonymous_args = 0
 6978 0000 80B5     		push	{r7, lr}
 6979              		.cfi_def_cfa_offset 8
 6980              		.cfi_offset 7, -8
 6981              		.cfi_offset 14, -4
 6982 0002 00AF     		add	r7, sp, #0
 6983              		.cfi_def_cfa_register 7
2002:../app/app.c  **** 	static uint8_t sta = 0;
2003:../app/app.c  **** 	switch (sta)
 6984              		.loc 1 2003 2
 6985 0004 694B     		ldr	r3, .L660
 6986 0006 1B78     		ldrb	r3, [r3]	@ zero_extendqisi2
 6987 0008 0A2B     		cmp	r3, #10
 6988 000a 00F2CA80 		bhi	.L659
 6989 000e 01A2     		adr	r2, .L638
 6990 0010 52F823F0 		ldr	pc, [r2, r3, lsl #2]
 6991              		.p2align 2
 6992              	.L638:
 6993 0014 41000000 		.word	.L648+1
 6994 0018 55000000 		.word	.L647+1
 6995 001c 6F000000 		.word	.L646+1
 6996 0020 AB000000 		.word	.L645+1
 6997 0024 C1000000 		.word	.L644+1
 6998 0028 D5000000 		.word	.L643+1
 6999 002c EB000000 		.word	.L642+1
 7000 0030 FF000000 		.word	.L641+1
 7001 0034 19010000 		.word	.L640+1
 7002 0038 55010000 		.word	.L639+1
 7003 003c 6F010000 		.word	.L637+1
 7004              		.p2align 1
 7005              	.L648:
2004:../app/app.c  **** 	{
2005:../app/app.c  **** 		/* هپœو­¢èگƒهڈ–ç”µوœ؛ */
2006:../app/app.c  **** 		case 0:					
2007:../app/app.c  **** 			dc_motor_Stop();
 7006              		.loc 1 2007 4
 7007 0040 FFF7FEFF 		bl	dc_motor_Stop
2008:../app/app.c  **** 			osal_lyh_delay_task(Ms_300);
 7008              		.loc 1 2008 4
 7009 0044 4FF49670 		mov	r0, #300
 7010 0048 FFF7FEFF 		bl	osal_lyh_delay_task
2009:../app/app.c  **** 			sta = 1;
 7011              		.loc 1 2009 8
 7012 004c 574B     		ldr	r3, .L660
 7013 004e 0122     		movs	r2, #1
 7014 0050 1A70     		strb	r2, [r3]
2010:../app/app.c  **** 			break;
 7015              		.loc 1 2010 4
 7016 0052 A7E0     		b	.L649
 7017              	.L647:
2011:../app/app.c  **** 		/* èگƒهڈ–ç”µوœ؛è½¬هˆ°وژ¥و°´ن½چç½® */
2012:../app/app.c  **** 		case 1:										
2013:../app/app.c  **** 			dc_motor_Start(MOTOR_LEFT);		
 7018              		.loc 1 2013 4
 7019 0054 0220     		movs	r0, #2
 7020 0056 FFF7FEFF 		bl	dc_motor_Start
2014:../app/app.c  **** 			osal_lyh_delay_task(Ms_100);
 7021              		.loc 1 2014 4
 7022 005a 6420     		movs	r0, #100
 7023 005c FFF7FEFF 		bl	osal_lyh_delay_task
2015:../app/app.c  **** 			run_max_time = LEFT_TIMER(Ms_7000, Ms_100);
 7024              		.loc 1 2015 17
 7025 0060 534B     		ldr	r3, .L660+4
 7026 0062 4622     		movs	r2, #70
 7027 0064 1A80     		strh	r2, [r3]	@ movhi
2016:../app/app.c  **** 			sta = 2;
 7028              		.loc 1 2016 8
 7029 0066 514B     		ldr	r3, .L660
 7030 0068 0222     		movs	r2, #2
 7031 006a 1A70     		strb	r2, [r3]
2017:../app/app.c  **** 			break;
 7032              		.loc 1 2017 4
 7033 006c 9AE0     		b	.L649
 7034              	.L646:
2018:../app/app.c  **** 		/* هˆ¤و–­èگƒهڈ–ç”µوœ؛وک¯هگ¦هˆ°وژ¥و°´ن½چç½® */
2019:../app/app.c  **** 		case 2:										
2020:../app/app.c  **** 			if ((MOTOR_STATE_STOPED ==dc_motor_GetState())
 7035              		.loc 1 2020 30
 7036 006e FFF7FEFF 		bl	dc_motor_GetState
 7037 0072 0346     		mov	r3, r0
 7038              		.loc 1 2020 7
 7039 0074 002B     		cmp	r3, #0
 7040 0076 0ED0     		beq	.L650
2021:../app/app.c  **** 				|| (TRUE == app_motor_ready())
 7041              		.loc 1 2021 17
 7042 0078 FFF7FEFF 		bl	app_motor_ready
 7043 007c 0346     		mov	r3, r0
 7044              		.loc 1 2021 5
 7045 007e 012B     		cmp	r3, #1
 7046 0080 09D0     		beq	.L650
2022:../app/app.c  **** 				|| (--run_max_time == 0)){
 7047              		.loc 1 2022 9
 7048 0082 4B4B     		ldr	r3, .L660+4
 7049 0084 1B88     		ldrh	r3, [r3]
 7050 0086 013B     		subs	r3, r3, #1
 7051 0088 9AB2     		uxth	r2, r3
 7052              		.loc 1 2022 5
 7053 008a 494B     		ldr	r3, .L660+4
 7054 008c 1A80     		strh	r2, [r3]	@ movhi
 7055              		.loc 1 2022 9
 7056 008e 484B     		ldr	r3, .L660+4
 7057 0090 1B88     		ldrh	r3, [r3]
 7058              		.loc 1 2022 5
 7059 0092 002B     		cmp	r3, #0
 7060 0094 05D1     		bne	.L651
 7061              	.L650:
2023:../app/app.c  **** 				dc_motor_Stop();
 7062              		.loc 1 2023 5
 7063 0096 FFF7FEFF 		bl	dc_motor_Stop
2024:../app/app.c  **** 				sta = 3;
 7064              		.loc 1 2024 9
 7065 009a 444B     		ldr	r3, .L660
 7066 009c 0322     		movs	r2, #3
 7067 009e 1A70     		strb	r2, [r3]
2025:../app/app.c  **** 			}
2026:../app/app.c  **** 			else {
2027:../app/app.c  **** 				osal_lyh_delay_task(Ms_100);
2028:../app/app.c  **** 			}			
2029:../app/app.c  **** 			break;
 7068              		.loc 1 2029 4
 7069 00a0 80E0     		b	.L649
 7070              	.L651:
2027:../app/app.c  **** 			}			
 7071              		.loc 1 2027 5
 7072 00a2 6420     		movs	r0, #100
 7073 00a4 FFF7FEFF 		bl	osal_lyh_delay_task
 7074              		.loc 1 2029 4
 7075 00a8 7CE0     		b	.L649
 7076              	.L645:
2030:../app/app.c  **** 		/* ه¼€هگ¯و°´و³µï¼ˆçں­و—¶é—´ï¼‰ */
2031:../app/app.c  **** 		case 3:										
2032:../app/app.c  **** 			ac_pumb_start(CONTINUE_MODE);
 7077              		.loc 1 2032 4
 7078 00aa 0020     		movs	r0, #0
 7079 00ac FFF7FEFF 		bl	ac_pumb_start
2033:../app/app.c  **** 			osal_lyh_delay_task(Ms_2000 - Ms_100);		//و­¤ه¤„و—¶é—´éœ€è¦پو ¹وچ®ه®‍é™…وƒ…ه†µو•´و”¹
 7080              		.loc 1 2033 4
 7081 00b0 40F26C70 		movw	r0, #1900
 7082 00b4 FFF7FEFF 		bl	osal_lyh_delay_task
2034:../app/app.c  **** 			sta = 4;
 7083              		.loc 1 2034 8
 7084 00b8 3C4B     		ldr	r3, .L660
 7085 00ba 0422     		movs	r2, #4
 7086 00bc 1A70     		strb	r2, [r3]
2035:../app/app.c  **** 			break;
 7087              		.loc 1 2035 4
 7088 00be 71E0     		b	.L649
 7089              	.L644:
2036:../app/app.c  **** 		 /* هپœو­¢و°´و³µ */
2037:../app/app.c  **** 		case 4:									
2038:../app/app.c  **** 			ac_pumb_stop();
 7090              		.loc 1 2038 4
 7091 00c0 FFF7FEFF 		bl	ac_pumb_stop
2039:../app/app.c  **** 			osal_lyh_delay_task(Ms_4000);	//و­¤ه¤„و—¶é—´éœ€è¦پو ¹وچ®ه®‍é™…وƒ…ه†µو•´و”¹
 7092              		.loc 1 2039 4
 7093 00c4 4FF47A60 		mov	r0, #4000
 7094 00c8 FFF7FEFF 		bl	osal_lyh_delay_task
2040:../app/app.c  **** 			sta = 5;
 7095              		.loc 1 2040 8
 7096 00cc 374B     		ldr	r3, .L660
 7097 00ce 0522     		movs	r2, #5
 7098 00d0 1A70     		strb	r2, [r3]
2041:../app/app.c  **** 			break;
 7099              		.loc 1 2041 4
 7100 00d2 67E0     		b	.L649
 7101              	.L643:
2042:../app/app.c  **** 		/* èگƒهڈ–ç”µوœ؛è½¬هˆ°ه€’ç²‰ن½چç½® */
2043:../app/app.c  **** 		case 5:										
2044:../app/app.c  **** 			dc_motor_Start(MOTOR_RIGHT);
 7102              		.loc 1 2044 4
 7103 00d4 0120     		movs	r0, #1
 7104 00d6 FFF7FEFF 		bl	dc_motor_Start
2045:../app/app.c  **** 			osal_lyh_delay_task(Ms_3000 - Ms_100);
 7105              		.loc 1 2045 4
 7106 00da 40F65430 		movw	r0, #2900
 7107 00de FFF7FEFF 		bl	osal_lyh_delay_task
2046:../app/app.c  **** 			sta = 6;
 7108              		.loc 1 2046 8
 7109 00e2 324B     		ldr	r3, .L660
 7110 00e4 0622     		movs	r2, #6
 7111 00e6 1A70     		strb	r2, [r3]
2047:../app/app.c  **** 			break;
 7112              		.loc 1 2047 4
 7113 00e8 5CE0     		b	.L649
 7114              	.L642:
2048:../app/app.c  **** 		 /* èگƒهڈ–ç”µوœ؛هپœو­¢ï¼Œه€’ه‡؛ه’–ه•،ç²‰ */
2049:../app/app.c  **** 		case 6:									
2050:../app/app.c  **** 			dc_motor_Stop();
 7115              		.loc 1 2050 4
 7116 00ea FFF7FEFF 		bl	dc_motor_Stop
2051:../app/app.c  **** 			osal_lyh_delay_task(Ms_3000);
 7117              		.loc 1 2051 4
 7118 00ee 40F6B830 		movw	r0, #3000
 7119 00f2 FFF7FEFF 		bl	osal_lyh_delay_task
2052:../app/app.c  **** 			sta = 7;
 7120              		.loc 1 2052 8
 7121 00f6 2D4B     		ldr	r3, .L660
 7122 00f8 0722     		movs	r2, #7
 7123 00fa 1A70     		strb	r2, [r3]
2053:../app/app.c  **** 			break;
 7124              		.loc 1 2053 4
 7125 00fc 52E0     		b	.L649
 7126              	.L641:
2054:../app/app.c  **** 		 /* èگƒهڈ–ç”µوœ؛ه›‍è½¬هˆ°هژںن½چ */
2055:../app/app.c  **** 		case 7:										
2056:../app/app.c  **** 			dc_motor_Start(MOTOR_RIGHT);
 7127              		.loc 1 2056 4
 7128 00fe 0120     		movs	r0, #1
 7129 0100 FFF7FEFF 		bl	dc_motor_Start
2057:../app/app.c  **** 			osal_lyh_delay_task(Ms_100);
 7130              		.loc 1 2057 4
 7131 0104 6420     		movs	r0, #100
 7132 0106 FFF7FEFF 		bl	osal_lyh_delay_task
2058:../app/app.c  **** 			run_max_time = RIGHT_TIMER(Ms_5000, Ms_100);
 7133              		.loc 1 2058 17
 7134 010a 294B     		ldr	r3, .L660+4
 7135 010c 3222     		movs	r2, #50
 7136 010e 1A80     		strh	r2, [r3]	@ movhi
2059:../app/app.c  **** 			sta = 8;
 7137              		.loc 1 2059 8
 7138 0110 264B     		ldr	r3, .L660
 7139 0112 0822     		movs	r2, #8
 7140 0114 1A70     		strb	r2, [r3]
2060:../app/app.c  **** 			break;
 7141              		.loc 1 2060 4
 7142 0116 45E0     		b	.L649
 7143              	.L640:
2061:../app/app.c  **** 		 /* هˆ¤و–­èگƒهڈ–ç”µوœ؛ه›‍è½¬وک¯هگ¦è§¦ç¢°هژںن½چه¼€ه…³ */
2062:../app/app.c  **** 		case 8:										
2063:../app/app.c  **** 			if ((MOTOR_STATE_STOPED ==dc_motor_GetState())
 7144              		.loc 1 2063 30
 7145 0118 FFF7FEFF 		bl	dc_motor_GetState
 7146 011c 0346     		mov	r3, r0
 7147              		.loc 1 2063 7
 7148 011e 002B     		cmp	r3, #0
 7149 0120 0ED0     		beq	.L653
2064:../app/app.c  **** 				|| (TRUE == app_motor_ready())
 7150              		.loc 1 2064 17
 7151 0122 FFF7FEFF 		bl	app_motor_ready
 7152 0126 0346     		mov	r3, r0
 7153              		.loc 1 2064 5
 7154 0128 012B     		cmp	r3, #1
 7155 012a 09D0     		beq	.L653
2065:../app/app.c  **** 				|| (--run_max_time == 0)){
 7156              		.loc 1 2065 9
 7157 012c 204B     		ldr	r3, .L660+4
 7158 012e 1B88     		ldrh	r3, [r3]
 7159 0130 013B     		subs	r3, r3, #1
 7160 0132 9AB2     		uxth	r2, r3
 7161              		.loc 1 2065 5
 7162 0134 1E4B     		ldr	r3, .L660+4
 7163 0136 1A80     		strh	r2, [r3]	@ movhi
 7164              		.loc 1 2065 9
 7165 0138 1D4B     		ldr	r3, .L660+4
 7166 013a 1B88     		ldrh	r3, [r3]
 7167              		.loc 1 2065 5
 7168 013c 002B     		cmp	r3, #0
 7169 013e 05D1     		bne	.L654
 7170              	.L653:
2066:../app/app.c  **** 				dc_motor_Stop();
 7171              		.loc 1 2066 5
 7172 0140 FFF7FEFF 		bl	dc_motor_Stop
2067:../app/app.c  **** 				sta = 9;
 7173              		.loc 1 2067 9
 7174 0144 194B     		ldr	r3, .L660
 7175 0146 0922     		movs	r2, #9
 7176 0148 1A70     		strb	r2, [r3]
2068:../app/app.c  **** 			}
2069:../app/app.c  **** 			else {
2070:../app/app.c  **** 				osal_lyh_delay_task(Ms_100);
2071:../app/app.c  **** 			}
2072:../app/app.c  **** 			break;
 7177              		.loc 1 2072 4
 7178 014a 2BE0     		b	.L649
 7179              	.L654:
2070:../app/app.c  **** 			}
 7180              		.loc 1 2070 5
 7181 014c 6420     		movs	r0, #100
 7182 014e FFF7FEFF 		bl	osal_lyh_delay_task
 7183              		.loc 1 2072 4
 7184 0152 27E0     		b	.L649
 7185              	.L639:
2073:../app/app.c  **** 		/* èگƒهڈ–ç”µوœ؛ه›‍è½¬هˆ°هژںن½چ */	
2074:../app/app.c  **** 		case 9:										
2075:../app/app.c  **** 			dc_motor_Start(MOTOR_LEFT);
 7186              		.loc 1 2075 4
 7187 0154 0220     		movs	r0, #2
 7188 0156 FFF7FEFF 		bl	dc_motor_Start
2076:../app/app.c  **** 			osal_lyh_delay_task(Ms_100);
 7189              		.loc 1 2076 4
 7190 015a 6420     		movs	r0, #100
 7191 015c FFF7FEFF 		bl	osal_lyh_delay_task
2077:../app/app.c  **** 			run_max_time = LEFT_TIMER(MOTOR_FIX_TIME, Ms_100);
 7192              		.loc 1 2077 17
 7193 0160 134B     		ldr	r3, .L660+4
 7194 0162 0322     		movs	r2, #3
 7195 0164 1A80     		strh	r2, [r3]	@ movhi
2078:../app/app.c  **** 			sta = 10;
 7196              		.loc 1 2078 8
 7197 0166 114B     		ldr	r3, .L660
 7198 0168 0A22     		movs	r2, #10
 7199 016a 1A70     		strb	r2, [r3]
2079:../app/app.c  **** 			break;
 7200              		.loc 1 2079 4
 7201 016c 1AE0     		b	.L649
 7202              	.L637:
2080:../app/app.c  **** 		 /* هˆ¤و–­èگƒهڈ–ç”µوœ؛ه›‍è½¬وک¯هگ¦ه®Œوˆگ */
2081:../app/app.c  **** 		case 10:									
2082:../app/app.c  **** 			if (1/*(FAIL == app_motor_ready())*/	// deleting point,(temp to cancel) 
2083:../app/app.c  **** 				&& ((MOTOR_STATE_STOPED ==dc_motor_GetState())
 7203              		.loc 1 2083 31
 7204 016e FFF7FEFF 		bl	dc_motor_GetState
 7205 0172 0346     		mov	r3, r0
2082:../app/app.c  **** 				&& ((MOTOR_STATE_STOPED ==dc_motor_GetState())
 7206              		.loc 1 2082 7
 7207 0174 002B     		cmp	r3, #0
 7208 0176 09D0     		beq	.L656
2084:../app/app.c  **** 				|| (--run_max_time == 0))){
 7209              		.loc 1 2084 9
 7210 0178 0D4B     		ldr	r3, .L660+4
 7211 017a 1B88     		ldrh	r3, [r3]
 7212 017c 013B     		subs	r3, r3, #1
 7213 017e 9AB2     		uxth	r2, r3
2083:../app/app.c  **** 				|| (--run_max_time == 0))){
 7214              		.loc 1 2083 5
 7215 0180 0B4B     		ldr	r3, .L660+4
 7216 0182 1A80     		strh	r2, [r3]	@ movhi
 7217              		.loc 1 2084 9
 7218 0184 0A4B     		ldr	r3, .L660+4
 7219 0186 1B88     		ldrh	r3, [r3]
2083:../app/app.c  **** 				|| (--run_max_time == 0))){
 7220              		.loc 1 2083 5
 7221 0188 002B     		cmp	r3, #0
 7222 018a 06D1     		bne	.L657
 7223              	.L656:
2085:../app/app.c  **** 				dc_motor_Stop();
 7224              		.loc 1 2085 5
 7225 018c FFF7FEFF 		bl	dc_motor_Stop
2086:../app/app.c  **** 				sta = 0;
 7226              		.loc 1 2086 9
 7227 0190 064B     		ldr	r3, .L660
 7228 0192 0022     		movs	r2, #0
 7229 0194 1A70     		strb	r2, [r3]
2087:../app/app.c  **** 				return TRUE;
 7230              		.loc 1 2087 12
 7231 0196 0123     		movs	r3, #1
 7232 0198 05E0     		b	.L658
 7233              	.L657:
2088:../app/app.c  **** 			}
2089:../app/app.c  **** 			else {
2090:../app/app.c  **** 				osal_lyh_delay_task(Ms_100);
 7234              		.loc 1 2090 5
 7235 019a 6420     		movs	r0, #100
 7236 019c FFF7FEFF 		bl	osal_lyh_delay_task
2091:../app/app.c  **** 			}
2092:../app/app.c  **** 			break;
 7237              		.loc 1 2092 4
 7238 01a0 00E0     		b	.L649
 7239              	.L659:
2093:../app/app.c  **** 		default:
2094:../app/app.c  **** 			break;
 7240              		.loc 1 2094 4
 7241 01a2 00BF     		nop
 7242              	.L649:
2095:../app/app.c  **** 	}
2096:../app/app.c  **** 	return FAIL;
 7243              		.loc 1 2096 9
 7244 01a4 0023     		movs	r3, #0
 7245              	.L658:
2097:../app/app.c  **** }
 7246              		.loc 1 2097 1
 7247 01a6 1846     		mov	r0, r3
 7248 01a8 80BD     		pop	{r7, pc}
 7249              	.L661:
 7250 01aa 00BF     		.align	2
 7251              	.L660:
 7252 01ac 00000000 		.word	sta.8857
 7253 01b0 00000000 		.word	run_max_time
 7254              		.cfi_endproc
 7255              	.LFE177:
 7257              		.section	.text.app_running_onoff_pre_brew_handler,"ax",%progbits
 7258              		.align	1
 7259              		.global	app_running_onoff_pre_brew_handler
 7260              		.syntax unified
 7261              		.thumb
 7262              		.thumb_func
 7263              		.fpu softvfp
 7265              	app_running_onoff_pre_brew_handler:
 7266              	.LFB178:
2098:../app/app.c  **** 
2099:../app/app.c  **** /**************************************************************************
2100:../app/app.c  ****  * @brief هœ¨èگƒهڈ–ç”µوœ؛é¢„ه†²ç…®çٹ¶و€پن¸‹وŒ‰ن¸‹ON/OFFé”®çڑ„ه¤„çگ†ه‡½و•°
2101:../app/app.c  ****  * @return TRUEï¼ڑوµپç¨‹ç»“و‌ںï¼Œèگƒهڈ–ç”µوœ؛ه¤„ن؛ژهژںن½چï¼Œ FAILï¼ڑوµپç¨‹و‰§è،Œن¸­
2102:../app/app.c  ****  * @note è¯¥ه‡½و•°هœ¨espresso, americanoçڑ„é¢„ه†²ç…®çٹ¶و€پن¸‹وŒ‰ن¸‹ON/OFFé”®و—¶è¢«è°ƒç”¨
2103:../app/app.c  ****  *************************************************************************/
2104:../app/app.c  **** uint8_t app_running_onoff_pre_brew_handler(void)
2105:../app/app.c  **** {
 7267              		.loc 1 2105 1
 7268              		.cfi_startproc
 7269              		@ args = 0, pretend = 0, frame = 0
 7270              		@ frame_needed = 1, uses_anonymous_args = 0
 7271 0000 80B5     		push	{r7, lr}
 7272              		.cfi_def_cfa_offset 8
 7273              		.cfi_offset 7, -8
 7274              		.cfi_offset 14, -4
 7275 0002 00AF     		add	r7, sp, #0
 7276              		.cfi_def_cfa_register 7
2106:../app/app.c  **** 	static uint8_t sta = 0;
2107:../app/app.c  **** 	switch (sta)
 7277              		.loc 1 2107 2
 7278 0004 514B     		ldr	r3, .L682
 7279 0006 1B78     		ldrb	r3, [r3]	@ zero_extendqisi2
 7280 0008 082B     		cmp	r3, #8
 7281 000a 00F29B80 		bhi	.L681
 7282 000e 01A2     		adr	r2, .L665
 7283 0010 52F823F0 		ldr	pc, [r2, r3, lsl #2]
 7284              		.p2align 2
 7285              	.L665:
 7286 0014 39000000 		.word	.L673+1
 7287 0018 4D000000 		.word	.L672+1
 7288 001c 63000000 		.word	.L671+1
 7289 0020 77000000 		.word	.L670+1
 7290 0024 8D000000 		.word	.L669+1
 7291 0028 A1000000 		.word	.L668+1
 7292 002c BB000000 		.word	.L667+1
 7293 0030 F7000000 		.word	.L666+1
 7294 0034 11010000 		.word	.L664+1
 7295              		.p2align 1
 7296              	.L673:
2108:../app/app.c  **** 	{
2109:../app/app.c  **** 		/* هپœو­¢و°´و³µ */
2110:../app/app.c  **** 		case 0:		
2111:../app/app.c  **** 			ac_pumb_stop();
 7297              		.loc 1 2111 4
 7298 0038 FFF7FEFF 		bl	ac_pumb_stop
2112:../app/app.c  **** 			osal_lyh_delay_task(Ms_1000);
 7299              		.loc 1 2112 4
 7300 003c 4FF47A70 		mov	r0, #1000
 7301 0040 FFF7FEFF 		bl	osal_lyh_delay_task
2113:../app/app.c  **** 			sta = 1;
 7302              		.loc 1 2113 8
 7303 0044 414B     		ldr	r3, .L682
 7304 0046 0122     		movs	r2, #1
 7305 0048 1A70     		strb	r2, [r3]
2114:../app/app.c  **** 			break;
 7306              		.loc 1 2114 4
 7307 004a 7CE0     		b	.L674
 7308              	.L672:
2115:../app/app.c  **** 		/* هگ¯هٹ¨و°´و³µï¼ˆçں­و—¶é—´ï¼‰ */			
2116:../app/app.c  **** 		case 1:										
2117:../app/app.c  **** 			ac_pumb_start(CONTINUE_MODE);
 7309              		.loc 1 2117 4
 7310 004c 0020     		movs	r0, #0
 7311 004e FFF7FEFF 		bl	ac_pumb_start
2118:../app/app.c  **** 			osal_lyh_delay_task(Ms_2000 - Ms_100);		//و­¤ه¤„و—¶é—´éœ€è¦پو ¹وچ®ه®‍é™…وƒ…ه†µو•´و”¹
 7312              		.loc 1 2118 4
 7313 0052 40F26C70 		movw	r0, #1900
 7314 0056 FFF7FEFF 		bl	osal_lyh_delay_task
2119:../app/app.c  **** 			sta = 2;
 7315              		.loc 1 2119 8
 7316 005a 3C4B     		ldr	r3, .L682
 7317 005c 0222     		movs	r2, #2
 7318 005e 1A70     		strb	r2, [r3]
2120:../app/app.c  **** 			break;
 7319              		.loc 1 2120 4
 7320 0060 71E0     		b	.L674
 7321              	.L671:
2121:../app/app.c  **** 		/* هپœو­¢و°´و³µ */
2122:../app/app.c  **** 		case 2:										
2123:../app/app.c  **** 			ac_pumb_stop();
 7322              		.loc 1 2123 4
 7323 0062 FFF7FEFF 		bl	ac_pumb_stop
2124:../app/app.c  **** 			osal_lyh_delay_task(Ms_4000);	//و­¤ه¤„و—¶é—´éœ€è¦پو ¹وچ®ه®‍é™…وƒ…ه†µو•´و”¹
 7324              		.loc 1 2124 4
 7325 0066 4FF47A60 		mov	r0, #4000
 7326 006a FFF7FEFF 		bl	osal_lyh_delay_task
2125:../app/app.c  **** 			sta = 3;
 7327              		.loc 1 2125 8
 7328 006e 374B     		ldr	r3, .L682
 7329 0070 0322     		movs	r2, #3
 7330 0072 1A70     		strb	r2, [r3]
2126:../app/app.c  **** 			break;
 7331              		.loc 1 2126 4
 7332 0074 67E0     		b	.L674
 7333              	.L670:
2127:../app/app.c  **** 		 /* èگƒهڈ–ç”µوœ؛è½¬هˆ°ه€’ç²‰ن½چç½® */
2128:../app/app.c  **** 		case 3:										
2129:../app/app.c  **** 			dc_motor_Start(MOTOR_RIGHT);
 7334              		.loc 1 2129 4
 7335 0076 0120     		movs	r0, #1
 7336 0078 FFF7FEFF 		bl	dc_motor_Start
2130:../app/app.c  **** 			osal_lyh_delay_task(Ms_3000 - Ms_100);
 7337              		.loc 1 2130 4
 7338 007c 40F65430 		movw	r0, #2900
 7339 0080 FFF7FEFF 		bl	osal_lyh_delay_task
2131:../app/app.c  **** 			sta = 4;
 7340              		.loc 1 2131 8
 7341 0084 314B     		ldr	r3, .L682
 7342 0086 0422     		movs	r2, #4
 7343 0088 1A70     		strb	r2, [r3]
2132:../app/app.c  **** 			break;
 7344              		.loc 1 2132 4
 7345 008a 5CE0     		b	.L674
 7346              	.L669:
2133:../app/app.c  **** 		 /* èگƒهڈ–ç”µوœ؛هپœو­¢ï¼Œه€’ه‡؛ه’–ه•،ç²‰ */
2134:../app/app.c  **** 		case 4:										
2135:../app/app.c  **** 			dc_motor_Stop();
 7347              		.loc 1 2135 4
 7348 008c FFF7FEFF 		bl	dc_motor_Stop
2136:../app/app.c  **** 			osal_lyh_delay_task(Ms_3000);
 7349              		.loc 1 2136 4
 7350 0090 40F6B830 		movw	r0, #3000
 7351 0094 FFF7FEFF 		bl	osal_lyh_delay_task
2137:../app/app.c  **** 			sta = 5;
 7352              		.loc 1 2137 8
 7353 0098 2C4B     		ldr	r3, .L682
 7354 009a 0522     		movs	r2, #5
 7355 009c 1A70     		strb	r2, [r3]
2138:../app/app.c  **** 			break;
 7356              		.loc 1 2138 4
 7357 009e 52E0     		b	.L674
 7358              	.L668:
2139:../app/app.c  **** 		 /* èگƒهڈ–ç”µوœ؛هگ‘هژںن½چè½¬هٹ¨ */
2140:../app/app.c  **** 		case 5:										
2141:../app/app.c  **** 			dc_motor_Start(MOTOR_RIGHT);
 7359              		.loc 1 2141 4
 7360 00a0 0120     		movs	r0, #1
 7361 00a2 FFF7FEFF 		bl	dc_motor_Start
2142:../app/app.c  **** 			osal_lyh_delay_task(Ms_100);
 7362              		.loc 1 2142 4
 7363 00a6 6420     		movs	r0, #100
 7364 00a8 FFF7FEFF 		bl	osal_lyh_delay_task
2143:../app/app.c  **** 			run_max_time = RIGHT_TIMER(Ms_5000, Ms_100);
 7365              		.loc 1 2143 17
 7366 00ac 284B     		ldr	r3, .L682+4
 7367 00ae 3222     		movs	r2, #50
 7368 00b0 1A80     		strh	r2, [r3]	@ movhi
2144:../app/app.c  **** 			sta = 6;
 7369              		.loc 1 2144 8
 7370 00b2 264B     		ldr	r3, .L682
 7371 00b4 0622     		movs	r2, #6
 7372 00b6 1A70     		strb	r2, [r3]
2145:../app/app.c  **** 			break;
 7373              		.loc 1 2145 4
 7374 00b8 45E0     		b	.L674
 7375              	.L667:
2146:../app/app.c  **** 		 /* هˆ¤و–­èگƒهڈ–ç”µوœ؛وک¯هگ¦è§¦ç¢°هژںن½چè§¦ç‚¹ه¼€ه…³ */
2147:../app/app.c  **** 		case 6:										
2148:../app/app.c  **** 			if ((MOTOR_STATE_STOPED ==dc_motor_GetState())
 7376              		.loc 1 2148 30
 7377 00ba FFF7FEFF 		bl	dc_motor_GetState
 7378 00be 0346     		mov	r3, r0
 7379              		.loc 1 2148 7
 7380 00c0 002B     		cmp	r3, #0
 7381 00c2 0ED0     		beq	.L675
2149:../app/app.c  **** 				|| (TRUE == app_motor_ready())
 7382              		.loc 1 2149 17
 7383 00c4 FFF7FEFF 		bl	app_motor_ready
 7384 00c8 0346     		mov	r3, r0
 7385              		.loc 1 2149 5
 7386 00ca 012B     		cmp	r3, #1
 7387 00cc 09D0     		beq	.L675
2150:../app/app.c  **** 				|| (--run_max_time == 0)){
 7388              		.loc 1 2150 9
 7389 00ce 204B     		ldr	r3, .L682+4
 7390 00d0 1B88     		ldrh	r3, [r3]
 7391 00d2 013B     		subs	r3, r3, #1
 7392 00d4 9AB2     		uxth	r2, r3
 7393              		.loc 1 2150 5
 7394 00d6 1E4B     		ldr	r3, .L682+4
 7395 00d8 1A80     		strh	r2, [r3]	@ movhi
 7396              		.loc 1 2150 9
 7397 00da 1D4B     		ldr	r3, .L682+4
 7398 00dc 1B88     		ldrh	r3, [r3]
 7399              		.loc 1 2150 5
 7400 00de 002B     		cmp	r3, #0
 7401 00e0 05D1     		bne	.L676
 7402              	.L675:
2151:../app/app.c  **** 				dc_motor_Stop();
 7403              		.loc 1 2151 5
 7404 00e2 FFF7FEFF 		bl	dc_motor_Stop
2152:../app/app.c  **** 				sta = 7;
 7405              		.loc 1 2152 9
 7406 00e6 194B     		ldr	r3, .L682
 7407 00e8 0722     		movs	r2, #7
 7408 00ea 1A70     		strb	r2, [r3]
2153:../app/app.c  **** 			}
2154:../app/app.c  **** 			else {
2155:../app/app.c  **** 				osal_lyh_delay_task(Ms_100);
2156:../app/app.c  **** 			}
2157:../app/app.c  **** 			break;
 7409              		.loc 1 2157 4
 7410 00ec 2BE0     		b	.L674
 7411              	.L676:
2155:../app/app.c  **** 			}
 7412              		.loc 1 2155 5
 7413 00ee 6420     		movs	r0, #100
 7414 00f0 FFF7FEFF 		bl	osal_lyh_delay_task
 7415              		.loc 1 2157 4
 7416 00f4 27E0     		b	.L674
 7417              	.L666:
2158:../app/app.c  **** 		 /* èگƒهڈ–ç”µوœ؛ه›‍è½¬هˆ°هژںن½چ */
2159:../app/app.c  **** 		case 7:										
2160:../app/app.c  **** 			dc_motor_Start(MOTOR_LEFT);
 7418              		.loc 1 2160 4
 7419 00f6 0220     		movs	r0, #2
 7420 00f8 FFF7FEFF 		bl	dc_motor_Start
2161:../app/app.c  **** 			osal_lyh_delay_task(Ms_100);
 7421              		.loc 1 2161 4
 7422 00fc 6420     		movs	r0, #100
 7423 00fe FFF7FEFF 		bl	osal_lyh_delay_task
2162:../app/app.c  **** 			run_max_time = LEFT_TIMER(MOTOR_FIX_TIME, Ms_100);
 7424              		.loc 1 2162 17
 7425 0102 134B     		ldr	r3, .L682+4
 7426 0104 0322     		movs	r2, #3
 7427 0106 1A80     		strh	r2, [r3]	@ movhi
2163:../app/app.c  **** 			sta = 8;
 7428              		.loc 1 2163 8
 7429 0108 104B     		ldr	r3, .L682
 7430 010a 0822     		movs	r2, #8
 7431 010c 1A70     		strb	r2, [r3]
2164:../app/app.c  **** 			break;
 7432              		.loc 1 2164 4
 7433 010e 1AE0     		b	.L674
 7434              	.L664:
2165:../app/app.c  **** 		 /* هˆ¤و–­èگƒهڈ–ç”µوœ؛ه›‍è½¬وک¯هگ¦ه®Œوˆگ */
2166:../app/app.c  **** 		case 8:									
2167:../app/app.c  **** 			if (1/*(FAIL == app_motor_ready())*/	// deleting point,(temp to cancel) 
2168:../app/app.c  **** 				&& ((MOTOR_STATE_STOPED ==dc_motor_GetState())
 7435              		.loc 1 2168 31
 7436 0110 FFF7FEFF 		bl	dc_motor_GetState
 7437 0114 0346     		mov	r3, r0
2167:../app/app.c  **** 				&& ((MOTOR_STATE_STOPED ==dc_motor_GetState())
 7438              		.loc 1 2167 7
 7439 0116 002B     		cmp	r3, #0
 7440 0118 09D0     		beq	.L678
2169:../app/app.c  **** 				|| (--run_max_time == 0))){
 7441              		.loc 1 2169 9
 7442 011a 0D4B     		ldr	r3, .L682+4
 7443 011c 1B88     		ldrh	r3, [r3]
 7444 011e 013B     		subs	r3, r3, #1
 7445 0120 9AB2     		uxth	r2, r3
2168:../app/app.c  **** 				|| (--run_max_time == 0))){
 7446              		.loc 1 2168 5
 7447 0122 0B4B     		ldr	r3, .L682+4
 7448 0124 1A80     		strh	r2, [r3]	@ movhi
 7449              		.loc 1 2169 9
 7450 0126 0A4B     		ldr	r3, .L682+4
 7451 0128 1B88     		ldrh	r3, [r3]
2168:../app/app.c  **** 				|| (--run_max_time == 0))){
 7452              		.loc 1 2168 5
 7453 012a 002B     		cmp	r3, #0
 7454 012c 06D1     		bne	.L679
 7455              	.L678:
2170:../app/app.c  **** 				dc_motor_Stop();
 7456              		.loc 1 2170 5
 7457 012e FFF7FEFF 		bl	dc_motor_Stop
2171:../app/app.c  **** 				sta = 0;
 7458              		.loc 1 2171 9
 7459 0132 064B     		ldr	r3, .L682
 7460 0134 0022     		movs	r2, #0
 7461 0136 1A70     		strb	r2, [r3]
2172:../app/app.c  **** 				return TRUE;
 7462              		.loc 1 2172 12
 7463 0138 0123     		movs	r3, #1
 7464 013a 05E0     		b	.L680
 7465              	.L679:
2173:../app/app.c  **** 			}
2174:../app/app.c  **** 			else {
2175:../app/app.c  **** 				osal_lyh_delay_task(Ms_100);
 7466              		.loc 1 2175 5
 7467 013c 6420     		movs	r0, #100
 7468 013e FFF7FEFF 		bl	osal_lyh_delay_task
2176:../app/app.c  **** 			}
2177:../app/app.c  **** 			break;
 7469              		.loc 1 2177 4
 7470 0142 00E0     		b	.L674
 7471              	.L681:
2178:../app/app.c  **** 		default:
2179:../app/app.c  **** 			break;
 7472              		.loc 1 2179 4
 7473 0144 00BF     		nop
 7474              	.L674:
2180:../app/app.c  **** 	}
2181:../app/app.c  **** 	return FAIL;
 7475              		.loc 1 2181 9
 7476 0146 0023     		movs	r3, #0
 7477              	.L680:
2182:../app/app.c  **** }
 7478              		.loc 1 2182 1
 7479 0148 1846     		mov	r0, r3
 7480 014a 80BD     		pop	{r7, pc}
 7481              	.L683:
 7482              		.align	2
 7483              	.L682:
 7484 014c 00000000 		.word	sta.8874
 7485 0150 00000000 		.word	run_max_time
 7486              		.cfi_endproc
 7487              	.LFE178:
 7489              		.section	.text.app_running_onoff_brew_handler,"ax",%progbits
 7490              		.align	1
 7491              		.global	app_running_onoff_brew_handler
 7492              		.syntax unified
 7493              		.thumb
 7494              		.thumb_func
 7495              		.fpu softvfp
 7497              	app_running_onoff_brew_handler:
 7498              	.LFB179:
2183:../app/app.c  **** 
2184:../app/app.c  **** /**************************************************************************
2185:../app/app.c  ****  * @brief هœ¨ه†²ç…®çٹ¶و€پن¸‹وŒ‰ن¸‹ON/OFFé”®çڑ„ه¤„çگ†ه‡½و•°
2186:../app/app.c  ****  * @return TRUEï¼ڑوµپç¨‹ç»“و‌ںï¼Œèگƒهڈ–ç”µوœ؛ه¤„ن؛ژهژںن½چï¼Œ FAILï¼ڑوµپç¨‹و‰§è،Œن¸­
2187:../app/app.c  ****  * @note è¯¥ه‡½و•°هœ¨espresso, americanoçڑ„ه†²ç…®çٹ¶و€پن¸‹وŒ‰ن¸‹ON/OFFé”®و—¶è¢«è°ƒç”¨
2188:../app/app.c  ****  *************************************************************************/
2189:../app/app.c  **** uint8_t app_running_onoff_brew_handler(void)
2190:../app/app.c  **** {
 7499              		.loc 1 2190 1
 7500              		.cfi_startproc
 7501              		@ args = 0, pretend = 0, frame = 0
 7502              		@ frame_needed = 1, uses_anonymous_args = 0
 7503 0000 80B5     		push	{r7, lr}
 7504              		.cfi_def_cfa_offset 8
 7505              		.cfi_offset 7, -8
 7506              		.cfi_offset 14, -4
 7507 0002 00AF     		add	r7, sp, #0
 7508              		.cfi_def_cfa_register 7
2191:../app/app.c  **** 	static uint8_t sta = 0;
2192:../app/app.c  **** 	switch (sta)
 7509              		.loc 1 2192 2
 7510 0004 454B     		ldr	r3, .L702
 7511 0006 1B78     		ldrb	r3, [r3]	@ zero_extendqisi2
 7512 0008 062B     		cmp	r3, #6
 7513 000a 00F28280 		bhi	.L701
 7514 000e 01A2     		adr	r2, .L687
 7515 0010 52F823F0 		ldr	pc, [r2, r3, lsl #2]
 7516              		.p2align 2
 7517              	.L687:
 7518 0014 31000000 		.word	.L693+1
 7519 0018 45000000 		.word	.L692+1
 7520 001c 5B000000 		.word	.L691+1
 7521 0020 6F000000 		.word	.L690+1
 7522 0024 89000000 		.word	.L689+1
 7523 0028 C5000000 		.word	.L688+1
 7524 002c DF000000 		.word	.L686+1
 7525              		.p2align 1
 7526              	.L693:
2193:../app/app.c  **** 	{
2194:../app/app.c  **** 		 /* هپœو­¢و°´و³µ */
2195:../app/app.c  **** 		case 0:			
2196:../app/app.c  **** 			ac_pumb_stop();
 7527              		.loc 1 2196 4
 7528 0030 FFF7FEFF 		bl	ac_pumb_stop
2197:../app/app.c  **** 			osal_lyh_delay_task(Ms_4000);
 7529              		.loc 1 2197 4
 7530 0034 4FF47A60 		mov	r0, #4000
 7531 0038 FFF7FEFF 		bl	osal_lyh_delay_task
2198:../app/app.c  **** 			sta = 1;
 7532              		.loc 1 2198 8
 7533 003c 374B     		ldr	r3, .L702
 7534 003e 0122     		movs	r2, #1
 7535 0040 1A70     		strb	r2, [r3]
2199:../app/app.c  **** 			break;
 7536              		.loc 1 2199 4
 7537 0042 67E0     		b	.L694
 7538              	.L692:
2200:../app/app.c  **** 		 /* èگƒهڈ–ç”µوœ؛è½¬هˆ°ه€’ç²‰ن½چç½® */
2201:../app/app.c  **** 		case 1:										
2202:../app/app.c  **** 			dc_motor_Start(MOTOR_RIGHT);
 7539              		.loc 1 2202 4
 7540 0044 0120     		movs	r0, #1
 7541 0046 FFF7FEFF 		bl	dc_motor_Start
2203:../app/app.c  **** 			osal_lyh_delay_task(Ms_3000 - Ms_100);
 7542              		.loc 1 2203 4
 7543 004a 40F65430 		movw	r0, #2900
 7544 004e FFF7FEFF 		bl	osal_lyh_delay_task
2204:../app/app.c  **** 			sta = 2;
 7545              		.loc 1 2204 8
 7546 0052 324B     		ldr	r3, .L702
 7547 0054 0222     		movs	r2, #2
 7548 0056 1A70     		strb	r2, [r3]
2205:../app/app.c  **** 			break;
 7549              		.loc 1 2205 4
 7550 0058 5CE0     		b	.L694
 7551              	.L691:
2206:../app/app.c  **** 		 /* èگƒهڈ–ç”µوœ؛هپœو­¢ï¼Œه€’ه‡؛ه’–ه•،ç²‰ */
2207:../app/app.c  **** 		case 2:										
2208:../app/app.c  **** 			dc_motor_Stop();
 7552              		.loc 1 2208 4
 7553 005a FFF7FEFF 		bl	dc_motor_Stop
2209:../app/app.c  **** 			osal_lyh_delay_task(Ms_3000);
 7554              		.loc 1 2209 4
 7555 005e 40F6B830 		movw	r0, #3000
 7556 0062 FFF7FEFF 		bl	osal_lyh_delay_task
2210:../app/app.c  **** 			sta = 3;
 7557              		.loc 1 2210 8
 7558 0066 2D4B     		ldr	r3, .L702
 7559 0068 0322     		movs	r2, #3
 7560 006a 1A70     		strb	r2, [r3]
2211:../app/app.c  **** 			break;
 7561              		.loc 1 2211 4
 7562 006c 52E0     		b	.L694
 7563              	.L690:
2212:../app/app.c  **** 		/* èگƒهڈ–ç”µوœ؛هگ‘هژںç‚¹è½¬هٹ¨ */
2213:../app/app.c  **** 		case 3:										
2214:../app/app.c  **** 			dc_motor_Start(MOTOR_RIGHT);
 7564              		.loc 1 2214 4
 7565 006e 0120     		movs	r0, #1
 7566 0070 FFF7FEFF 		bl	dc_motor_Start
2215:../app/app.c  **** 			osal_lyh_delay_task(Ms_100);
 7567              		.loc 1 2215 4
 7568 0074 6420     		movs	r0, #100
 7569 0076 FFF7FEFF 		bl	osal_lyh_delay_task
2216:../app/app.c  **** 			run_max_time = RIGHT_TIMER(Ms_5000, Ms_100);
 7570              		.loc 1 2216 17
 7571 007a 294B     		ldr	r3, .L702+4
 7572 007c 3222     		movs	r2, #50
 7573 007e 1A80     		strh	r2, [r3]	@ movhi
2217:../app/app.c  **** 			sta = 4;
 7574              		.loc 1 2217 8
 7575 0080 264B     		ldr	r3, .L702
 7576 0082 0422     		movs	r2, #4
 7577 0084 1A70     		strb	r2, [r3]
2218:../app/app.c  **** 			break;
 7578              		.loc 1 2218 4
 7579 0086 45E0     		b	.L694
 7580              	.L689:
2219:../app/app.c  **** 		 /* هˆ¤و–­èگƒهڈ–ç”µوœ؛وک¯هگ¦هˆ°هژںç‚¹è§¦ç‚¹ه¼€ه…³ */
2220:../app/app.c  **** 		case 4:										
2221:../app/app.c  **** 			if ((MOTOR_STATE_STOPED ==dc_motor_GetState())
 7581              		.loc 1 2221 30
 7582 0088 FFF7FEFF 		bl	dc_motor_GetState
 7583 008c 0346     		mov	r3, r0
 7584              		.loc 1 2221 7
 7585 008e 002B     		cmp	r3, #0
 7586 0090 0ED0     		beq	.L695
2222:../app/app.c  **** 				|| (TRUE == app_motor_ready())
 7587              		.loc 1 2222 17
 7588 0092 FFF7FEFF 		bl	app_motor_ready
 7589 0096 0346     		mov	r3, r0
 7590              		.loc 1 2222 5
 7591 0098 012B     		cmp	r3, #1
 7592 009a 09D0     		beq	.L695
2223:../app/app.c  **** 				|| (--run_max_time == 0)){
 7593              		.loc 1 2223 9
 7594 009c 204B     		ldr	r3, .L702+4
 7595 009e 1B88     		ldrh	r3, [r3]
 7596 00a0 013B     		subs	r3, r3, #1
 7597 00a2 9AB2     		uxth	r2, r3
 7598              		.loc 1 2223 5
 7599 00a4 1E4B     		ldr	r3, .L702+4
 7600 00a6 1A80     		strh	r2, [r3]	@ movhi
 7601              		.loc 1 2223 9
 7602 00a8 1D4B     		ldr	r3, .L702+4
 7603 00aa 1B88     		ldrh	r3, [r3]
 7604              		.loc 1 2223 5
 7605 00ac 002B     		cmp	r3, #0
 7606 00ae 05D1     		bne	.L696
 7607              	.L695:
2224:../app/app.c  **** 				dc_motor_Stop();
 7608              		.loc 1 2224 5
 7609 00b0 FFF7FEFF 		bl	dc_motor_Stop
2225:../app/app.c  **** 				sta = 5;
 7610              		.loc 1 2225 9
 7611 00b4 194B     		ldr	r3, .L702
 7612 00b6 0522     		movs	r2, #5
 7613 00b8 1A70     		strb	r2, [r3]
2226:../app/app.c  **** 			}
2227:../app/app.c  **** 			else {
2228:../app/app.c  **** 				osal_lyh_delay_task(Ms_100);
2229:../app/app.c  **** 			}
2230:../app/app.c  **** 			break;
 7614              		.loc 1 2230 4
 7615 00ba 2BE0     		b	.L694
 7616              	.L696:
2228:../app/app.c  **** 			}
 7617              		.loc 1 2228 5
 7618 00bc 6420     		movs	r0, #100
 7619 00be FFF7FEFF 		bl	osal_lyh_delay_task
 7620              		.loc 1 2230 4
 7621 00c2 27E0     		b	.L694
 7622              	.L688:
2231:../app/app.c  **** 		 /* èگƒهڈ–ç”µوœ؛ه›‍è½¬هˆ°هژںن½چ */
2232:../app/app.c  **** 		case 5:										
2233:../app/app.c  **** 			dc_motor_Start(MOTOR_LEFT);
 7623              		.loc 1 2233 4
 7624 00c4 0220     		movs	r0, #2
 7625 00c6 FFF7FEFF 		bl	dc_motor_Start
2234:../app/app.c  **** 			osal_lyh_delay_task(Ms_100);
 7626              		.loc 1 2234 4
 7627 00ca 6420     		movs	r0, #100
 7628 00cc FFF7FEFF 		bl	osal_lyh_delay_task
2235:../app/app.c  **** 			run_max_time = LEFT_TIMER(MOTOR_FIX_TIME, Ms_100);
 7629              		.loc 1 2235 17
 7630 00d0 134B     		ldr	r3, .L702+4
 7631 00d2 0322     		movs	r2, #3
 7632 00d4 1A80     		strh	r2, [r3]	@ movhi
2236:../app/app.c  **** 			sta = 6;
 7633              		.loc 1 2236 8
 7634 00d6 114B     		ldr	r3, .L702
 7635 00d8 0622     		movs	r2, #6
 7636 00da 1A70     		strb	r2, [r3]
2237:../app/app.c  **** 			break;
 7637              		.loc 1 2237 4
 7638 00dc 1AE0     		b	.L694
 7639              	.L686:
2238:../app/app.c  **** 		 /* هˆ¤و–­èگƒهڈ–ç”µوœ؛وک¯هگ¦ه›‍è½¬هˆ°هژںن½چ */
2239:../app/app.c  **** 		case 6:									
2240:../app/app.c  **** 			if (1/*(FAIL == app_motor_ready())*/	// deleting point,(temp to cancel) 
2241:../app/app.c  **** 				&& ((MOTOR_STATE_STOPED ==dc_motor_GetState())
 7640              		.loc 1 2241 31
 7641 00de FFF7FEFF 		bl	dc_motor_GetState
 7642 00e2 0346     		mov	r3, r0
2240:../app/app.c  **** 				&& ((MOTOR_STATE_STOPED ==dc_motor_GetState())
 7643              		.loc 1 2240 7
 7644 00e4 002B     		cmp	r3, #0
 7645 00e6 09D0     		beq	.L698
2242:../app/app.c  **** 				|| (--run_max_time == 0))){
 7646              		.loc 1 2242 9
 7647 00e8 0D4B     		ldr	r3, .L702+4
 7648 00ea 1B88     		ldrh	r3, [r3]
 7649 00ec 013B     		subs	r3, r3, #1
 7650 00ee 9AB2     		uxth	r2, r3
2241:../app/app.c  **** 				|| (--run_max_time == 0))){
 7651              		.loc 1 2241 5
 7652 00f0 0B4B     		ldr	r3, .L702+4
 7653 00f2 1A80     		strh	r2, [r3]	@ movhi
 7654              		.loc 1 2242 9
 7655 00f4 0A4B     		ldr	r3, .L702+4
 7656 00f6 1B88     		ldrh	r3, [r3]
2241:../app/app.c  **** 				|| (--run_max_time == 0))){
 7657              		.loc 1 2241 5
 7658 00f8 002B     		cmp	r3, #0
 7659 00fa 06D1     		bne	.L699
 7660              	.L698:
2243:../app/app.c  **** 				dc_motor_Stop();
 7661              		.loc 1 2243 5
 7662 00fc FFF7FEFF 		bl	dc_motor_Stop
2244:../app/app.c  **** 				sta = 0;
 7663              		.loc 1 2244 9
 7664 0100 064B     		ldr	r3, .L702
 7665 0102 0022     		movs	r2, #0
 7666 0104 1A70     		strb	r2, [r3]
2245:../app/app.c  **** 				return TRUE;
 7667              		.loc 1 2245 12
 7668 0106 0123     		movs	r3, #1
 7669 0108 05E0     		b	.L700
 7670              	.L699:
2246:../app/app.c  **** 			}
2247:../app/app.c  **** 			else {
2248:../app/app.c  **** 				osal_lyh_delay_task(Ms_100);
 7671              		.loc 1 2248 5
 7672 010a 6420     		movs	r0, #100
 7673 010c FFF7FEFF 		bl	osal_lyh_delay_task
2249:../app/app.c  **** 			}
2250:../app/app.c  **** 			break;
 7674              		.loc 1 2250 4
 7675 0110 00E0     		b	.L694
 7676              	.L701:
2251:../app/app.c  **** 		default:
2252:../app/app.c  **** 			break;
 7677              		.loc 1 2252 4
 7678 0112 00BF     		nop
 7679              	.L694:
2253:../app/app.c  **** 	}
2254:../app/app.c  **** 	return FAIL;
 7680              		.loc 1 2254 9
 7681 0114 0023     		movs	r3, #0
 7682              	.L700:
2255:../app/app.c  **** }
 7683              		.loc 1 2255 1
 7684 0116 1846     		mov	r0, r3
 7685 0118 80BD     		pop	{r7, pc}
 7686              	.L703:
 7687 011a 00BF     		.align	2
 7688              	.L702:
 7689 011c 00000000 		.word	sta.8889
 7690 0120 00000000 		.word	run_max_time
 7691              		.cfi_endproc
 7692              	.LFE179:
 7694              		.section	.text.app_running_onoff_drop_beans_handler,"ax",%progbits
 7695              		.align	1
 7696              		.global	app_running_onoff_drop_beans_handler
 7697              		.syntax unified
 7698              		.thumb
 7699              		.thumb_func
 7700              		.fpu softvfp
 7702              	app_running_onoff_drop_beans_handler:
 7703              	.LFB180:
2256:../app/app.c  **** 
2257:../app/app.c  **** /**************************************************************************
2258:../app/app.c  ****  * @brief هœ¨ن¸¢ه’–ه•،و¸£çٹ¶و€پن¸‹وŒ‰ن¸‹ON/OFFé”®çڑ„ه¤„çگ†ه‡½و•°
2259:../app/app.c  ****  * @return TRUEï¼ڑوµپç¨‹ç»“و‌ںï¼Œèگƒهڈ–ç”µوœ؛ه¤„ن؛ژهژںن½چï¼Œ FAILï¼ڑوµپç¨‹و‰§è،Œن¸­
2260:../app/app.c  ****  * @note è¯¥ه‡½و•°هœ¨espresso, americanoçڑ„ن¸¢ه’–ه•،و¸£çٹ¶و€پن¸‹وŒ‰ن¸‹ON/OFFé”®و—¶è¢«è°ƒç”¨
2261:../app/app.c  ****  *************************************************************************/
2262:../app/app.c  **** uint8_t app_running_onoff_drop_beans_handler(void)
2263:../app/app.c  **** {
 7704              		.loc 1 2263 1
 7705              		.cfi_startproc
 7706              		@ args = 0, pretend = 0, frame = 0
 7707              		@ frame_needed = 1, uses_anonymous_args = 0
 7708 0000 80B5     		push	{r7, lr}
 7709              		.cfi_def_cfa_offset 8
 7710              		.cfi_offset 7, -8
 7711              		.cfi_offset 14, -4
 7712 0002 00AF     		add	r7, sp, #0
 7713              		.cfi_def_cfa_register 7
2264:../app/app.c  **** 	static uint8_t sta = 0;
2265:../app/app.c  **** 	switch (sta)
 7714              		.loc 1 2265 2
 7715 0004 4F4B     		ldr	r3, .L727
 7716 0006 1B78     		ldrb	r3, [r3]	@ zero_extendqisi2
 7717 0008 072B     		cmp	r3, #7
 7718 000a 00F29680 		bhi	.L726
 7719 000e 01A2     		adr	r2, .L707
 7720 0010 52F823F0 		ldr	pc, [r2, r3, lsl #2]
 7721              		.p2align 2
 7722              	.L707:
 7723 0014 35000000 		.word	.L714+1
 7724 0018 41000000 		.word	.L713+1
 7725 001c 5F000000 		.word	.L712+1
 7726 0020 87000000 		.word	.L711+1
 7727 0024 97000000 		.word	.L710+1
 7728 0028 B1000000 		.word	.L709+1
 7729 002c ED000000 		.word	.L708+1
 7730 0030 07010000 		.word	.L706+1
 7731              		.p2align 1
 7732              	.L714:
2266:../app/app.c  **** 	{
2267:../app/app.c  **** 		/* è؟›ه…¥ه€’ç²‰هˆ‌ه§‹هŒ– */
2268:../app/app.c  **** 		case 0:
2269:../app/app.c  **** 			dc_motor_Stop();
 7733              		.loc 1 2269 4
 7734 0034 FFF7FEFF 		bl	dc_motor_Stop
2270:../app/app.c  **** 			sta = 1;
 7735              		.loc 1 2270 8
 7736 0038 424B     		ldr	r3, .L727
 7737 003a 0122     		movs	r2, #1
 7738 003c 1A70     		strb	r2, [r3]
2271:../app/app.c  **** 			break;
 7739              		.loc 1 2271 4
 7740 003e 7DE0     		b	.L715
 7741              	.L713:
2272:../app/app.c  **** 		/* è½¬هٹ¨ç”µوœ؛ç»§ç»­ه‰چه¾€ه€’ç²‰ */	
2273:../app/app.c  **** 		case 1:
2274:../app/app.c  **** 			if(drop_beans_time){
 7742              		.loc 1 2274 7
 7743 0040 414B     		ldr	r3, .L727+4
 7744 0042 1B88     		ldrh	r3, [r3]
 7745              		.loc 1 2274 6
 7746 0044 002B     		cmp	r3, #0
 7747 0046 06D0     		beq	.L716
2275:../app/app.c  **** 				dc_motor_Start(MOTOR_RIGHT);
 7748              		.loc 1 2275 5
 7749 0048 0120     		movs	r0, #1
 7750 004a FFF7FEFF 		bl	dc_motor_Start
2276:../app/app.c  **** 				sta = 2;
 7751              		.loc 1 2276 9
 7752 004e 3D4B     		ldr	r3, .L727
 7753 0050 0222     		movs	r2, #2
 7754 0052 1A70     		strb	r2, [r3]
2277:../app/app.c  **** 			}
2278:../app/app.c  **** 			else{
2279:../app/app.c  **** 				sta = 3;
2280:../app/app.c  **** 			}
2281:../app/app.c  **** 			break;
 7755              		.loc 1 2281 4
 7756 0054 72E0     		b	.L715
 7757              	.L716:
2279:../app/app.c  **** 			}
 7758              		.loc 1 2279 9
 7759 0056 3B4B     		ldr	r3, .L727
 7760 0058 0322     		movs	r2, #3
 7761 005a 1A70     		strb	r2, [r3]
 7762              		.loc 1 2281 4
 7763 005c 6EE0     		b	.L715
 7764              	.L712:
2282:../app/app.c  **** 		/* هˆ¤و–­ه‰©ن½™è½¬هٹ¨و—¶é—´ */	
2283:../app/app.c  **** 		case 2:
2284:../app/app.c  **** 			if(--drop_beans_time == 0){
 7765              		.loc 1 2284 7
 7766 005e 3A4B     		ldr	r3, .L727+4
 7767 0060 1B88     		ldrh	r3, [r3]
 7768 0062 013B     		subs	r3, r3, #1
 7769 0064 9AB2     		uxth	r2, r3
 7770              		.loc 1 2284 6
 7771 0066 384B     		ldr	r3, .L727+4
 7772 0068 1A80     		strh	r2, [r3]	@ movhi
 7773              		.loc 1 2284 7
 7774 006a 374B     		ldr	r3, .L727+4
 7775 006c 1B88     		ldrh	r3, [r3]
 7776              		.loc 1 2284 6
 7777 006e 002B     		cmp	r3, #0
 7778 0070 05D1     		bne	.L718
2285:../app/app.c  **** 				dc_motor_Stop();
 7779              		.loc 1 2285 5
 7780 0072 FFF7FEFF 		bl	dc_motor_Stop
2286:../app/app.c  **** 				sta = 3;
 7781              		.loc 1 2286 9
 7782 0076 334B     		ldr	r3, .L727
 7783 0078 0322     		movs	r2, #3
 7784 007a 1A70     		strb	r2, [r3]
2287:../app/app.c  **** 			}
2288:../app/app.c  **** 			else{
2289:../app/app.c  **** 				osal_lyh_delay_task(Ms_100);
2290:../app/app.c  **** 			}
2291:../app/app.c  **** 			break;
 7785              		.loc 1 2291 4
 7786 007c 5EE0     		b	.L715
 7787              	.L718:
2289:../app/app.c  **** 			}
 7788              		.loc 1 2289 5
 7789 007e 6420     		movs	r0, #100
 7790 0080 FFF7FEFF 		bl	osal_lyh_delay_task
 7791              		.loc 1 2291 4
 7792 0084 5AE0     		b	.L715
 7793              	.L711:
2292:../app/app.c  **** 		/* ه€’ç²‰ING */	
2293:../app/app.c  **** 		case 3:
2294:../app/app.c  **** 			osal_lyh_delay_task(Ms_3000);
 7794              		.loc 1 2294 4
 7795 0086 40F6B830 		movw	r0, #3000
 7796 008a FFF7FEFF 		bl	osal_lyh_delay_task
2295:../app/app.c  **** 			sta = 4;
 7797              		.loc 1 2295 8
 7798 008e 2D4B     		ldr	r3, .L727
 7799 0090 0422     		movs	r2, #4
 7800 0092 1A70     		strb	r2, [r3]
2296:../app/app.c  **** 			break;
 7801              		.loc 1 2296 4
 7802 0094 52E0     		b	.L715
 7803              	.L710:
2297:../app/app.c  **** 		/* ç”µوœ؛هگ‘هژںç‚¹è½¬هٹ¨ */	
2298:../app/app.c  **** 		case 4:		
2299:../app/app.c  **** 			dc_motor_Start(MOTOR_RIGHT);
 7804              		.loc 1 2299 4
 7805 0096 0120     		movs	r0, #1
 7806 0098 FFF7FEFF 		bl	dc_motor_Start
2300:../app/app.c  **** 			osal_lyh_delay_task(Ms_100);
 7807              		.loc 1 2300 4
 7808 009c 6420     		movs	r0, #100
 7809 009e FFF7FEFF 		bl	osal_lyh_delay_task
2301:../app/app.c  **** 			run_max_time = RIGHT_TIMER(Ms_5000, Ms_100);
 7810              		.loc 1 2301 17
 7811 00a2 2A4B     		ldr	r3, .L727+8
 7812 00a4 3222     		movs	r2, #50
 7813 00a6 1A80     		strh	r2, [r3]	@ movhi
2302:../app/app.c  **** 			sta = 5;
 7814              		.loc 1 2302 8
 7815 00a8 264B     		ldr	r3, .L727
 7816 00aa 0522     		movs	r2, #5
 7817 00ac 1A70     		strb	r2, [r3]
2303:../app/app.c  **** 			break;
 7818              		.loc 1 2303 4
 7819 00ae 45E0     		b	.L715
 7820              	.L709:
2304:../app/app.c  **** 		/* هˆ¤و–­ç”µوœ؛وک¯هگ¦هˆ°هژںç‚¹è§¦ç‚¹ */		
2305:../app/app.c  **** 		case 5:			
2306:../app/app.c  **** 			if ((MOTOR_STATE_STOPED ==dc_motor_GetState())
 7821              		.loc 1 2306 30
 7822 00b0 FFF7FEFF 		bl	dc_motor_GetState
 7823 00b4 0346     		mov	r3, r0
 7824              		.loc 1 2306 7
 7825 00b6 002B     		cmp	r3, #0
 7826 00b8 0ED0     		beq	.L720
2307:../app/app.c  **** 				|| (TRUE == app_motor_ready())
 7827              		.loc 1 2307 17
 7828 00ba FFF7FEFF 		bl	app_motor_ready
 7829 00be 0346     		mov	r3, r0
 7830              		.loc 1 2307 5
 7831 00c0 012B     		cmp	r3, #1
 7832 00c2 09D0     		beq	.L720
2308:../app/app.c  **** 				|| (--run_max_time == 0)){
 7833              		.loc 1 2308 9
 7834 00c4 214B     		ldr	r3, .L727+8
 7835 00c6 1B88     		ldrh	r3, [r3]
 7836 00c8 013B     		subs	r3, r3, #1
 7837 00ca 9AB2     		uxth	r2, r3
 7838              		.loc 1 2308 5
 7839 00cc 1F4B     		ldr	r3, .L727+8
 7840 00ce 1A80     		strh	r2, [r3]	@ movhi
 7841              		.loc 1 2308 9
 7842 00d0 1E4B     		ldr	r3, .L727+8
 7843 00d2 1B88     		ldrh	r3, [r3]
 7844              		.loc 1 2308 5
 7845 00d4 002B     		cmp	r3, #0
 7846 00d6 05D1     		bne	.L721
 7847              	.L720:
2309:../app/app.c  **** 				dc_motor_Stop();
 7848              		.loc 1 2309 5
 7849 00d8 FFF7FEFF 		bl	dc_motor_Stop
2310:../app/app.c  **** 				sta = 6;					
 7850              		.loc 1 2310 9
 7851 00dc 194B     		ldr	r3, .L727
 7852 00de 0622     		movs	r2, #6
 7853 00e0 1A70     		strb	r2, [r3]
2311:../app/app.c  **** 			}
2312:../app/app.c  **** 			else {
2313:../app/app.c  **** 				osal_lyh_delay_task(Ms_100);
2314:../app/app.c  **** 			}
2315:../app/app.c  **** 			break;
 7854              		.loc 1 2315 4
 7855 00e2 2BE0     		b	.L715
 7856              	.L721:
2313:../app/app.c  **** 			}
 7857              		.loc 1 2313 5
 7858 00e4 6420     		movs	r0, #100
 7859 00e6 FFF7FEFF 		bl	osal_lyh_delay_task
 7860              		.loc 1 2315 4
 7861 00ea 27E0     		b	.L715
 7862              	.L708:
2316:../app/app.c  **** 		/* ç”µوœ؛ه›‍è½¬هˆ°هژںن½چ */	
2317:../app/app.c  **** 		case 6:			
2318:../app/app.c  **** 			dc_motor_Start(MOTOR_LEFT);
 7863              		.loc 1 2318 4
 7864 00ec 0220     		movs	r0, #2
 7865 00ee FFF7FEFF 		bl	dc_motor_Start
2319:../app/app.c  **** 			osal_lyh_delay_task(Ms_100);
 7866              		.loc 1 2319 4
 7867 00f2 6420     		movs	r0, #100
 7868 00f4 FFF7FEFF 		bl	osal_lyh_delay_task
2320:../app/app.c  **** 			run_max_time = LEFT_TIMER(MOTOR_FIX_TIME, Ms_100);
 7869              		.loc 1 2320 17
 7870 00f8 144B     		ldr	r3, .L727+8
 7871 00fa 0322     		movs	r2, #3
 7872 00fc 1A80     		strh	r2, [r3]	@ movhi
2321:../app/app.c  **** 			sta = 7;
 7873              		.loc 1 2321 8
 7874 00fe 114B     		ldr	r3, .L727
 7875 0100 0722     		movs	r2, #7
 7876 0102 1A70     		strb	r2, [r3]
2322:../app/app.c  **** 			break;	
 7877              		.loc 1 2322 4
 7878 0104 1AE0     		b	.L715
 7879              	.L706:
2323:../app/app.c  **** 		case 7:	//هˆ¤و–­ç”µوœ؛وک¯هگ¦ه›‍è½¬هˆ°هژںن½چ
2324:../app/app.c  **** 			if (1/*(FAIL == app_motor_ready())*/	// deleting point,(temp to cancel)
2325:../app/app.c  **** 				&& ((MOTOR_STATE_STOPED ==dc_motor_GetState())
 7880              		.loc 1 2325 31
 7881 0106 FFF7FEFF 		bl	dc_motor_GetState
 7882 010a 0346     		mov	r3, r0
2324:../app/app.c  **** 				&& ((MOTOR_STATE_STOPED ==dc_motor_GetState())
 7883              		.loc 1 2324 7
 7884 010c 002B     		cmp	r3, #0
 7885 010e 09D0     		beq	.L723
2326:../app/app.c  **** 				|| (--run_max_time == 0))){
 7886              		.loc 1 2326 9
 7887 0110 0E4B     		ldr	r3, .L727+8
 7888 0112 1B88     		ldrh	r3, [r3]
 7889 0114 013B     		subs	r3, r3, #1
 7890 0116 9AB2     		uxth	r2, r3
2325:../app/app.c  **** 				|| (--run_max_time == 0))){
 7891              		.loc 1 2325 5
 7892 0118 0C4B     		ldr	r3, .L727+8
 7893 011a 1A80     		strh	r2, [r3]	@ movhi
 7894              		.loc 1 2326 9
 7895 011c 0B4B     		ldr	r3, .L727+8
 7896 011e 1B88     		ldrh	r3, [r3]
2325:../app/app.c  **** 				|| (--run_max_time == 0))){
 7897              		.loc 1 2325 5
 7898 0120 002B     		cmp	r3, #0
 7899 0122 06D1     		bne	.L724
 7900              	.L723:
2327:../app/app.c  **** 				dc_motor_Stop();
 7901              		.loc 1 2327 5
 7902 0124 FFF7FEFF 		bl	dc_motor_Stop
2328:../app/app.c  **** 				sta = 0;
 7903              		.loc 1 2328 9
 7904 0128 064B     		ldr	r3, .L727
 7905 012a 0022     		movs	r2, #0
 7906 012c 1A70     		strb	r2, [r3]
2329:../app/app.c  **** 				return TRUE;
 7907              		.loc 1 2329 12
 7908 012e 0123     		movs	r3, #1
 7909 0130 05E0     		b	.L725
 7910              	.L724:
2330:../app/app.c  **** 			}
2331:../app/app.c  **** 			else {
2332:../app/app.c  **** 				osal_lyh_delay_task(Ms_100);
 7911              		.loc 1 2332 5
 7912 0132 6420     		movs	r0, #100
 7913 0134 FFF7FEFF 		bl	osal_lyh_delay_task
2333:../app/app.c  **** 			}
2334:../app/app.c  **** 			break;			
 7914              		.loc 1 2334 4
 7915 0138 00E0     		b	.L715
 7916              	.L726:
2335:../app/app.c  **** 		default:
2336:../app/app.c  **** 			break;
 7917              		.loc 1 2336 4
 7918 013a 00BF     		nop
 7919              	.L715:
2337:../app/app.c  **** 	}	
2338:../app/app.c  **** 	return FAIL;
 7920              		.loc 1 2338 9
 7921 013c 0023     		movs	r3, #0
 7922              	.L725:
2339:../app/app.c  **** }
 7923              		.loc 1 2339 1
 7924 013e 1846     		mov	r0, r3
 7925 0140 80BD     		pop	{r7, pc}
 7926              	.L728:
 7927 0142 00BF     		.align	2
 7928              	.L727:
 7929 0144 00000000 		.word	sta.8902
 7930 0148 00000000 		.word	drop_beans_time
 7931 014c 00000000 		.word	run_max_time
 7932              		.cfi_endproc
 7933              	.LFE180:
 7935              		.section	.text.app_running_onoff_rst_handler,"ax",%progbits
 7936              		.align	1
 7937              		.global	app_running_onoff_rst_handler
 7938              		.syntax unified
 7939              		.thumb
 7940              		.thumb_func
 7941              		.fpu softvfp
 7943              	app_running_onoff_rst_handler:
 7944              	.LFB181:
2340:../app/app.c  **** 
2341:../app/app.c  **** /**************************************************************************
2342:../app/app.c  ****  * @brief هœ¨èگƒهڈ–ç”µوœ؛ه›‍هژںن½چçٹ¶و€پن¸‹وŒ‰ن¸‹ON/OFFé”®çڑ„ه¤„çگ†ه‡½و•°
2343:../app/app.c  ****  * @return TRUEï¼ڑوµپç¨‹ç»“و‌ںï¼Œèگƒهڈ–ç”µوœ؛ه¤„ن؛ژهژںن½چï¼Œ FAILï¼ڑوµپç¨‹و‰§è،Œن¸­
2344:../app/app.c  ****  * @note è¯¥ه‡½و•°هœ¨espresso, americanoçڑ„èگƒهڈ–ç”µوœ؛ه›‍هژںن½چçٹ¶و€پن¸‹وŒ‰ن¸‹ON/OFFé”®و—¶è¢«è°ƒç”
2345:../app/app.c  ****  *************************************************************************/
2346:../app/app.c  **** uint8_t app_running_onoff_rst_handler(void)
2347:../app/app.c  **** {
 7945              		.loc 1 2347 1
 7946              		.cfi_startproc
 7947              		@ args = 0, pretend = 0, frame = 0
 7948              		@ frame_needed = 1, uses_anonymous_args = 0
 7949 0000 80B5     		push	{r7, lr}
 7950              		.cfi_def_cfa_offset 8
 7951              		.cfi_offset 7, -8
 7952              		.cfi_offset 14, -4
 7953 0002 00AF     		add	r7, sp, #0
 7954              		.cfi_def_cfa_register 7
2348:../app/app.c  **** 	static uint8_t sta = 0;
2349:../app/app.c  **** 	switch (sta)
 7955              		.loc 1 2349 2
 7956 0004 364B     		ldr	r3, .L745
 7957 0006 1B78     		ldrb	r3, [r3]	@ zero_extendqisi2
 7958 0008 042B     		cmp	r3, #4
 7959 000a 65D8     		bhi	.L744
 7960 000c 01A2     		adr	r2, .L732
 7961 000e 52F823F0 		ldr	pc, [r2, r3, lsl #2]
 7962 0012 00BF     		.p2align 2
 7963              	.L732:
 7964 0014 29000000 		.word	.L736+1
 7965 0018 35000000 		.word	.L735+1
 7966 001c 4F000000 		.word	.L734+1
 7967 0020 8B000000 		.word	.L733+1
 7968 0024 A5000000 		.word	.L731+1
 7969              		.p2align 1
 7970              	.L736:
2350:../app/app.c  **** 	{
2351:../app/app.c  **** 		/* ه¤چن½چهˆ‌ه§‹هŒ– */
2352:../app/app.c  **** 		case 0:
2353:../app/app.c  **** 			dc_motor_Stop();
 7971              		.loc 1 2353 4
 7972 0028 FFF7FEFF 		bl	dc_motor_Stop
2354:../app/app.c  **** 			sta = 1;
 7973              		.loc 1 2354 8
 7974 002c 2C4B     		ldr	r3, .L745
 7975 002e 0122     		movs	r2, #1
 7976 0030 1A70     		strb	r2, [r3]
2355:../app/app.c  **** 			break;
 7977              		.loc 1 2355 4
 7978 0032 52E0     		b	.L737
 7979              	.L735:
2356:../app/app.c  **** 		/* هپڑه›‍è½¬هˆ°هژںن½چهٹ¨ن½œ */	
2357:../app/app.c  **** 		case 1:
2358:../app/app.c  **** 			dc_motor_Start(MOTOR_RIGHT);
 7980              		.loc 1 2358 4
 7981 0034 0120     		movs	r0, #1
 7982 0036 FFF7FEFF 		bl	dc_motor_Start
2359:../app/app.c  **** 			osal_lyh_delay_task(Ms_100);
 7983              		.loc 1 2359 4
 7984 003a 6420     		movs	r0, #100
 7985 003c FFF7FEFF 		bl	osal_lyh_delay_task
2360:../app/app.c  **** 			run_max_time = RIGHT_TIMER(Ms_5000, Ms_100);
 7986              		.loc 1 2360 17
 7987 0040 284B     		ldr	r3, .L745+4
 7988 0042 3222     		movs	r2, #50
 7989 0044 1A80     		strh	r2, [r3]	@ movhi
2361:../app/app.c  **** 			sta = 2;
 7990              		.loc 1 2361 8
 7991 0046 264B     		ldr	r3, .L745
 7992 0048 0222     		movs	r2, #2
 7993 004a 1A70     		strb	r2, [r3]
2362:../app/app.c  **** 			break;
 7994              		.loc 1 2362 4
 7995 004c 45E0     		b	.L737
 7996              	.L734:
2363:../app/app.c  **** 		/* هˆ¤و–­ç”µوœ؛وک¯هگ¦هˆ°هژںç‚¹è§¦ç‚¹ */		
2364:../app/app.c  **** 		case 2:			
2365:../app/app.c  **** 			if ((MOTOR_STATE_STOPED ==dc_motor_GetState())
 7997              		.loc 1 2365 30
 7998 004e FFF7FEFF 		bl	dc_motor_GetState
 7999 0052 0346     		mov	r3, r0
 8000              		.loc 1 2365 7
 8001 0054 002B     		cmp	r3, #0
 8002 0056 0ED0     		beq	.L738
2366:../app/app.c  **** 				|| (TRUE == app_motor_ready())
 8003              		.loc 1 2366 17
 8004 0058 FFF7FEFF 		bl	app_motor_ready
 8005 005c 0346     		mov	r3, r0
 8006              		.loc 1 2366 5
 8007 005e 012B     		cmp	r3, #1
 8008 0060 09D0     		beq	.L738
2367:../app/app.c  **** 				|| (--run_max_time == 0)){
 8009              		.loc 1 2367 9
 8010 0062 204B     		ldr	r3, .L745+4
 8011 0064 1B88     		ldrh	r3, [r3]
 8012 0066 013B     		subs	r3, r3, #1
 8013 0068 9AB2     		uxth	r2, r3
 8014              		.loc 1 2367 5
 8015 006a 1E4B     		ldr	r3, .L745+4
 8016 006c 1A80     		strh	r2, [r3]	@ movhi
 8017              		.loc 1 2367 9
 8018 006e 1D4B     		ldr	r3, .L745+4
 8019 0070 1B88     		ldrh	r3, [r3]
 8020              		.loc 1 2367 5
 8021 0072 002B     		cmp	r3, #0
 8022 0074 05D1     		bne	.L739
 8023              	.L738:
2368:../app/app.c  **** 				dc_motor_Stop();
 8024              		.loc 1 2368 5
 8025 0076 FFF7FEFF 		bl	dc_motor_Stop
2369:../app/app.c  **** 				sta = 3;					
 8026              		.loc 1 2369 9
 8027 007a 194B     		ldr	r3, .L745
 8028 007c 0322     		movs	r2, #3
 8029 007e 1A70     		strb	r2, [r3]
2370:../app/app.c  **** 			}
2371:../app/app.c  **** 			else {
2372:../app/app.c  **** 				osal_lyh_delay_task(Ms_100);
2373:../app/app.c  **** 			}
2374:../app/app.c  **** 			break;
 8030              		.loc 1 2374 4
 8031 0080 2BE0     		b	.L737
 8032              	.L739:
2372:../app/app.c  **** 			}
 8033              		.loc 1 2372 5
 8034 0082 6420     		movs	r0, #100
 8035 0084 FFF7FEFF 		bl	osal_lyh_delay_task
 8036              		.loc 1 2374 4
 8037 0088 27E0     		b	.L737
 8038              	.L733:
2375:../app/app.c  **** 		/* ç”µوœ؛ه›‍è½¬هˆ°هژںن½چ */	
2376:../app/app.c  **** 		case 3:			
2377:../app/app.c  **** 			dc_motor_Start(MOTOR_LEFT);
 8039              		.loc 1 2377 4
 8040 008a 0220     		movs	r0, #2
 8041 008c FFF7FEFF 		bl	dc_motor_Start
2378:../app/app.c  **** 			osal_lyh_delay_task(Ms_100);
 8042              		.loc 1 2378 4
 8043 0090 6420     		movs	r0, #100
 8044 0092 FFF7FEFF 		bl	osal_lyh_delay_task
2379:../app/app.c  **** 			run_max_time = LEFT_TIMER(MOTOR_FIX_TIME, Ms_100);
 8045              		.loc 1 2379 17
 8046 0096 134B     		ldr	r3, .L745+4
 8047 0098 0322     		movs	r2, #3
 8048 009a 1A80     		strh	r2, [r3]	@ movhi
2380:../app/app.c  **** 			sta = 4;
 8049              		.loc 1 2380 8
 8050 009c 104B     		ldr	r3, .L745
 8051 009e 0422     		movs	r2, #4
 8052 00a0 1A70     		strb	r2, [r3]
2381:../app/app.c  **** 			break;	
 8053              		.loc 1 2381 4
 8054 00a2 1AE0     		b	.L737
 8055              	.L731:
2382:../app/app.c  **** 		case 4:	//هˆ¤و–­ç”µوœ؛وک¯هگ¦ه›‍è½¬هˆ°هژںن½چ
2383:../app/app.c  **** 			if (1/*(FAIL == app_motor_ready())*/	// deleting point,(temp to cancel)
2384:../app/app.c  **** 				&& ((MOTOR_STATE_STOPED ==dc_motor_GetState())
 8056              		.loc 1 2384 31
 8057 00a4 FFF7FEFF 		bl	dc_motor_GetState
 8058 00a8 0346     		mov	r3, r0
2383:../app/app.c  **** 				&& ((MOTOR_STATE_STOPED ==dc_motor_GetState())
 8059              		.loc 1 2383 7
 8060 00aa 002B     		cmp	r3, #0
 8061 00ac 09D0     		beq	.L741
2385:../app/app.c  **** 				|| (--run_max_time == 0))){
 8062              		.loc 1 2385 9
 8063 00ae 0D4B     		ldr	r3, .L745+4
 8064 00b0 1B88     		ldrh	r3, [r3]
 8065 00b2 013B     		subs	r3, r3, #1
 8066 00b4 9AB2     		uxth	r2, r3
2384:../app/app.c  **** 				|| (--run_max_time == 0))){
 8067              		.loc 1 2384 5
 8068 00b6 0B4B     		ldr	r3, .L745+4
 8069 00b8 1A80     		strh	r2, [r3]	@ movhi
 8070              		.loc 1 2385 9
 8071 00ba 0A4B     		ldr	r3, .L745+4
 8072 00bc 1B88     		ldrh	r3, [r3]
2384:../app/app.c  **** 				|| (--run_max_time == 0))){
 8073              		.loc 1 2384 5
 8074 00be 002B     		cmp	r3, #0
 8075 00c0 06D1     		bne	.L742
 8076              	.L741:
2386:../app/app.c  **** 				dc_motor_Stop();
 8077              		.loc 1 2386 5
 8078 00c2 FFF7FEFF 		bl	dc_motor_Stop
2387:../app/app.c  **** 				sta = 0;
 8079              		.loc 1 2387 9
 8080 00c6 064B     		ldr	r3, .L745
 8081 00c8 0022     		movs	r2, #0
 8082 00ca 1A70     		strb	r2, [r3]
2388:../app/app.c  **** 				return TRUE;
 8083              		.loc 1 2388 12
 8084 00cc 0123     		movs	r3, #1
 8085 00ce 05E0     		b	.L743
 8086              	.L742:
2389:../app/app.c  **** 			}
2390:../app/app.c  **** 			else {
2391:../app/app.c  **** 				osal_lyh_delay_task(Ms_100);
 8087              		.loc 1 2391 5
 8088 00d0 6420     		movs	r0, #100
 8089 00d2 FFF7FEFF 		bl	osal_lyh_delay_task
2392:../app/app.c  **** 			}
2393:../app/app.c  **** 			break;			
 8090              		.loc 1 2393 4
 8091 00d6 00E0     		b	.L737
 8092              	.L744:
2394:../app/app.c  **** 		default:
2395:../app/app.c  **** 			break;
 8093              		.loc 1 2395 4
 8094 00d8 00BF     		nop
 8095              	.L737:
2396:../app/app.c  **** 	}
2397:../app/app.c  **** 	return FAIL;
 8096              		.loc 1 2397 9
 8097 00da 0023     		movs	r3, #0
 8098              	.L743:
2398:../app/app.c  **** }
 8099              		.loc 1 2398 1
 8100 00dc 1846     		mov	r0, r3
 8101 00de 80BD     		pop	{r7, pc}
 8102              	.L746:
 8103              		.align	2
 8104              	.L745:
 8105 00e0 00000000 		.word	sta.8916
 8106 00e4 00000000 		.word	run_max_time
 8107              		.cfi_endproc
 8108              	.LFE181:
 8110              		.section	.text.app_running_onoff_flush_handler,"ax",%progbits
 8111              		.align	1
 8112              		.global	app_running_onoff_flush_handler
 8113              		.syntax unified
 8114              		.thumb
 8115              		.thumb_func
 8116              		.fpu softvfp
 8118              	app_running_onoff_flush_handler:
 8119              	.LFB182:
2399:../app/app.c  **** 
2400:../app/app.c  **** /**************************************************************************
2401:../app/app.c  ****  * @brief ه†²و´—ç®،è·¯ه‡½و•°ه¤„çگ†وµپç¨‹
2402:../app/app.c  ****  * @return TRUEï¼ڑوµپç¨‹ç»“و‌ںï¼Œèگƒهڈ–ç”µوœ؛ه¤„ن؛ژهژںن½چï¼Œ FAILï¼ڑوµپç¨‹و‰§è،Œن¸­
2403:../app/app.c  ****  * @note è؟›ه…¥و­¤ه‡½و•°هگژن¼ڑو£€وµ‹èگƒهڈ–ç”µوœ؛çڑ„ن½چç½®ï¼Œه†چهژ»وژ¥و°´ه†²و´—
2404:../app/app.c  ****  *************************************************************************/
2405:../app/app.c  **** uint8_t app_running_onoff_flush_handler(void)
2406:../app/app.c  **** {
 8120              		.loc 1 2406 1
 8121              		.cfi_startproc
 8122              		@ args = 0, pretend = 0, frame = 0
 8123              		@ frame_needed = 1, uses_anonymous_args = 0
 8124 0000 80B5     		push	{r7, lr}
 8125              		.cfi_def_cfa_offset 8
 8126              		.cfi_offset 7, -8
 8127              		.cfi_offset 14, -4
 8128 0002 00AF     		add	r7, sp, #0
 8129              		.cfi_def_cfa_register 7
2407:../app/app.c  **** 	static uint8_t sta = 0;
2408:../app/app.c  **** 	switch (sta)
 8130              		.loc 1 2408 2
 8131 0004 8E4B     		ldr	r3, .L780
 8132 0006 1B78     		ldrb	r3, [r3]	@ zero_extendqisi2
 8133 0008 0C2B     		cmp	r3, #12
 8134 000a 00F21481 		bhi	.L779
 8135 000e 01A2     		adr	r2, .L750
 8136 0010 52F823F0 		ldr	pc, [r2, r3, lsl #2]
 8137              		.p2align 2
 8138              	.L750:
 8139 0014 49000000 		.word	.L762+1
 8140 0018 63000000 		.word	.L761+1
 8141 001c 7D000000 		.word	.L760+1
 8142 0020 B9000000 		.word	.L759+1
 8143 0024 D3000000 		.word	.L758+1
 8144 0028 0D010000 		.word	.L757+1
 8145 002c 27010000 		.word	.L756+1
 8146 0030 63010000 		.word	.L755+1
 8147 0034 79010000 		.word	.L754+1
 8148 0038 8D010000 		.word	.L753+1
 8149 003c A9010000 		.word	.L752+1
 8150 0040 E5010000 		.word	.L751+1
 8151 0044 FF010000 		.word	.L749+1
 8152              		.p2align 1
 8153              	.L762:
2409:../app/app.c  **** 	{	
2410:../app/app.c  **** 		/* è؟›ه…¥و¸…و´—هˆ‌ه§‹هŒ– */
2411:../app/app.c  **** 		case 0:
2412:../app/app.c  **** 			dc_motor_Stop();
 8154              		.loc 1 2412 4
 8155 0048 FFF7FEFF 		bl	dc_motor_Stop
2413:../app/app.c  **** 			app_turn_heat_on(TARGET_TEMP_90D);
 8156              		.loc 1 2413 4
 8157 004c 4FF4D660 		mov	r0, #1712
 8158 0050 FFF7FEFF 		bl	app_turn_heat_on
2414:../app/app.c  **** 			osal_lyh_delay_task(Ms_100);
 8159              		.loc 1 2414 4
 8160 0054 6420     		movs	r0, #100
 8161 0056 FFF7FEFF 		bl	osal_lyh_delay_task
2415:../app/app.c  **** 			sta = 1;
 8162              		.loc 1 2415 8
 8163 005a 794B     		ldr	r3, .L780
 8164 005c 0122     		movs	r2, #1
 8165 005e 1A70     		strb	r2, [r3]
2416:../app/app.c  **** 			break;
 8166              		.loc 1 2416 4
 8167 0060 EAE0     		b	.L763
 8168              	.L761:
2417:../app/app.c  **** 		/* و£€وں¥èگƒهڈ–ç”µوœ؛ن½چç½® */
2418:../app/app.c  **** 		case 1:
2419:../app/app.c  **** 			dc_motor_Start(MOTOR_RIGHT);
 8169              		.loc 1 2419 4
 8170 0062 0120     		movs	r0, #1
 8171 0064 FFF7FEFF 		bl	dc_motor_Start
2420:../app/app.c  **** 			osal_lyh_delay_task(Ms_100);
 8172              		.loc 1 2420 4
 8173 0068 6420     		movs	r0, #100
 8174 006a FFF7FEFF 		bl	osal_lyh_delay_task
2421:../app/app.c  **** 			run_max_time = RIGHT_TIMER(Ms_3000, Ms_100);
 8175              		.loc 1 2421 17
 8176 006e 754B     		ldr	r3, .L780+4
 8177 0070 1E22     		movs	r2, #30
 8178 0072 1A80     		strh	r2, [r3]	@ movhi
2422:../app/app.c  **** 			sta = 2;
 8179              		.loc 1 2422 8
 8180 0074 724B     		ldr	r3, .L780
 8181 0076 0222     		movs	r2, #2
 8182 0078 1A70     		strb	r2, [r3]
2423:../app/app.c  **** 			break;
 8183              		.loc 1 2423 4
 8184 007a DDE0     		b	.L763
 8185              	.L760:
2424:../app/app.c  **** 		/* هˆ¤و–­èگƒهڈ–ç”µوœ؛وک¯هگ¦è§¦ç¢°هژںç‚¹è§¦ç‚¹ */
2425:../app/app.c  **** 		case 2:
2426:../app/app.c  **** 			if ((MOTOR_STATE_STOPED ==dc_motor_GetState())
 8186              		.loc 1 2426 30
 8187 007c FFF7FEFF 		bl	dc_motor_GetState
 8188 0080 0346     		mov	r3, r0
 8189              		.loc 1 2426 7
 8190 0082 002B     		cmp	r3, #0
 8191 0084 0ED0     		beq	.L764
2427:../app/app.c  **** 				|| (TRUE == app_motor_ready())
 8192              		.loc 1 2427 17
 8193 0086 FFF7FEFF 		bl	app_motor_ready
 8194 008a 0346     		mov	r3, r0
 8195              		.loc 1 2427 5
 8196 008c 012B     		cmp	r3, #1
 8197 008e 09D0     		beq	.L764
2428:../app/app.c  **** 				|| (--run_max_time == 0)){
 8198              		.loc 1 2428 9
 8199 0090 6C4B     		ldr	r3, .L780+4
 8200 0092 1B88     		ldrh	r3, [r3]
 8201 0094 013B     		subs	r3, r3, #1
 8202 0096 9AB2     		uxth	r2, r3
 8203              		.loc 1 2428 5
 8204 0098 6A4B     		ldr	r3, .L780+4
 8205 009a 1A80     		strh	r2, [r3]	@ movhi
 8206              		.loc 1 2428 9
 8207 009c 694B     		ldr	r3, .L780+4
 8208 009e 1B88     		ldrh	r3, [r3]
 8209              		.loc 1 2428 5
 8210 00a0 002B     		cmp	r3, #0
 8211 00a2 05D1     		bne	.L765
 8212              	.L764:
2429:../app/app.c  **** 				dc_motor_Stop();
 8213              		.loc 1 2429 5
 8214 00a4 FFF7FEFF 		bl	dc_motor_Stop
2430:../app/app.c  **** 				sta = 3;					
 8215              		.loc 1 2430 9
 8216 00a8 654B     		ldr	r3, .L780
 8217 00aa 0322     		movs	r2, #3
 8218 00ac 1A70     		strb	r2, [r3]
2431:../app/app.c  **** 			}
2432:../app/app.c  **** 			else {
2433:../app/app.c  **** 				osal_lyh_delay_task(Ms_100);
2434:../app/app.c  **** 			}
2435:../app/app.c  **** 			break;
 8219              		.loc 1 2435 4
 8220 00ae C3E0     		b	.L763
 8221              	.L765:
2433:../app/app.c  **** 			}
 8222              		.loc 1 2433 5
 8223 00b0 6420     		movs	r0, #100
 8224 00b2 FFF7FEFF 		bl	osal_lyh_delay_task
 8225              		.loc 1 2435 4
 8226 00b6 BFE0     		b	.L763
 8227              	.L759:
2436:../app/app.c  **** 		/* èگƒهڈ–ç”µوœ؛هگ‘ه›‍è½¬هˆ°هژںç‚¹ */
2437:../app/app.c  **** 		case 3:
2438:../app/app.c  **** 			dc_motor_Start(MOTOR_LEFT);
 8228              		.loc 1 2438 4
 8229 00b8 0220     		movs	r0, #2
 8230 00ba FFF7FEFF 		bl	dc_motor_Start
2439:../app/app.c  **** 			osal_lyh_delay_task(Ms_100);
 8231              		.loc 1 2439 4
 8232 00be 6420     		movs	r0, #100
 8233 00c0 FFF7FEFF 		bl	osal_lyh_delay_task
2440:../app/app.c  **** 			run_max_time = LEFT_TIMER(MOTOR_FIX_TIME, Ms_100);
 8234              		.loc 1 2440 17
 8235 00c4 5F4B     		ldr	r3, .L780+4
 8236 00c6 0322     		movs	r2, #3
 8237 00c8 1A80     		strh	r2, [r3]	@ movhi
2441:../app/app.c  **** 			sta = 4;
 8238              		.loc 1 2441 8
 8239 00ca 5D4B     		ldr	r3, .L780
 8240 00cc 0422     		movs	r2, #4
 8241 00ce 1A70     		strb	r2, [r3]
2442:../app/app.c  **** 			break;
 8242              		.loc 1 2442 4
 8243 00d0 B2E0     		b	.L763
 8244              	.L758:
2443:../app/app.c  **** 		/* هˆ¤و–­èگƒهڈ–ç”µوœ؛وک¯هگ¦ه®Œوˆگه›‍è½¬ */
2444:../app/app.c  **** 		case 4:
2445:../app/app.c  **** 			if (1/*(FAIL == app_motor_ready())*/	// deleting point,(temp to cancel)
2446:../app/app.c  **** 				&& ((MOTOR_STATE_STOPED ==dc_motor_GetState())
 8245              		.loc 1 2446 31
 8246 00d2 FFF7FEFF 		bl	dc_motor_GetState
 8247 00d6 0346     		mov	r3, r0
2445:../app/app.c  **** 				&& ((MOTOR_STATE_STOPED ==dc_motor_GetState())
 8248              		.loc 1 2445 7
 8249 00d8 002B     		cmp	r3, #0
 8250 00da 09D0     		beq	.L767
2447:../app/app.c  **** 				|| (--run_max_time == 0))){
 8251              		.loc 1 2447 9
 8252 00dc 594B     		ldr	r3, .L780+4
 8253 00de 1B88     		ldrh	r3, [r3]
 8254 00e0 013B     		subs	r3, r3, #1
 8255 00e2 9AB2     		uxth	r2, r3
2446:../app/app.c  **** 				|| (--run_max_time == 0))){
 8256              		.loc 1 2446 5
 8257 00e4 574B     		ldr	r3, .L780+4
 8258 00e6 1A80     		strh	r2, [r3]	@ movhi
 8259              		.loc 1 2447 9
 8260 00e8 564B     		ldr	r3, .L780+4
 8261 00ea 1B88     		ldrh	r3, [r3]
2446:../app/app.c  **** 				|| (--run_max_time == 0))){
 8262              		.loc 1 2446 5
 8263 00ec 002B     		cmp	r3, #0
 8264 00ee 09D1     		bne	.L768
 8265              	.L767:
2448:../app/app.c  **** 				dc_motor_Stop();
 8266              		.loc 1 2448 5
 8267 00f0 FFF7FEFF 		bl	dc_motor_Stop
2449:../app/app.c  **** 				osal_lyh_delay_task(Ms_1500);
 8268              		.loc 1 2449 5
 8269 00f4 40F2DC50 		movw	r0, #1500
 8270 00f8 FFF7FEFF 		bl	osal_lyh_delay_task
2450:../app/app.c  **** 				sta = 5;				
 8271              		.loc 1 2450 9
 8272 00fc 504B     		ldr	r3, .L780
 8273 00fe 0522     		movs	r2, #5
 8274 0100 1A70     		strb	r2, [r3]
2451:../app/app.c  **** 			}
2452:../app/app.c  **** 			else {
2453:../app/app.c  **** 				osal_lyh_delay_task(Ms_100);
2454:../app/app.c  **** 			}
2455:../app/app.c  **** 			break;				
 8275              		.loc 1 2455 4
 8276 0102 99E0     		b	.L763
 8277              	.L768:
2453:../app/app.c  **** 			}
 8278              		.loc 1 2453 5
 8279 0104 6420     		movs	r0, #100
 8280 0106 FFF7FEFF 		bl	osal_lyh_delay_task
 8281              		.loc 1 2455 4
 8282 010a 95E0     		b	.L763
 8283              	.L757:
2456:../app/app.c  **** 		/* èگƒهڈ–ç”µوœ؛ه‰چه¾€èگƒهڈ–ن½چç½® */
2457:../app/app.c  **** 		case 5:
2458:../app/app.c  **** 			dc_motor_Start(MOTOR_LEFT);		
 8284              		.loc 1 2458 4
 8285 010c 0220     		movs	r0, #2
 8286 010e FFF7FEFF 		bl	dc_motor_Start
2459:../app/app.c  **** 			osal_lyh_delay_task(Ms_100);
 8287              		.loc 1 2459 4
 8288 0112 6420     		movs	r0, #100
 8289 0114 FFF7FEFF 		bl	osal_lyh_delay_task
2460:../app/app.c  **** 			run_max_time = LEFT_TIMER(Ms_7000, Ms_100);		//و­¤ه¤„و—¶é—´éœ€è¦پو ¹وچ®ه®‍é™…وƒ…ه†µو•´و”¹
 8290              		.loc 1 2460 17
 8291 0118 4A4B     		ldr	r3, .L780+4
 8292 011a 4622     		movs	r2, #70
 8293 011c 1A80     		strh	r2, [r3]	@ movhi
2461:../app/app.c  **** 			sta = 6;
 8294              		.loc 1 2461 8
 8295 011e 484B     		ldr	r3, .L780
 8296 0120 0622     		movs	r2, #6
 8297 0122 1A70     		strb	r2, [r3]
2462:../app/app.c  **** 			break;
 8298              		.loc 1 2462 4
 8299 0124 88E0     		b	.L763
 8300              	.L756:
2463:../app/app.c  **** 		/* هˆ¤و–­èگƒهڈ–ç”µوœ؛وک¯هگ¦هˆ°è¾¾èگƒهڈ–ن½چç½® */
2464:../app/app.c  **** 		case 6:
2465:../app/app.c  **** 			if ((MOTOR_STATE_STOPED ==dc_motor_GetState())
 8301              		.loc 1 2465 30
 8302 0126 FFF7FEFF 		bl	dc_motor_GetState
 8303 012a 0346     		mov	r3, r0
 8304              		.loc 1 2465 7
 8305 012c 002B     		cmp	r3, #0
 8306 012e 0ED0     		beq	.L770
2466:../app/app.c  **** 				|| (TRUE == app_motor_ready())
 8307              		.loc 1 2466 17
 8308 0130 FFF7FEFF 		bl	app_motor_ready
 8309 0134 0346     		mov	r3, r0
 8310              		.loc 1 2466 5
 8311 0136 012B     		cmp	r3, #1
 8312 0138 09D0     		beq	.L770
2467:../app/app.c  **** 				|| (--run_max_time == 0)){
 8313              		.loc 1 2467 9
 8314 013a 424B     		ldr	r3, .L780+4
 8315 013c 1B88     		ldrh	r3, [r3]
 8316 013e 013B     		subs	r3, r3, #1
 8317 0140 9AB2     		uxth	r2, r3
 8318              		.loc 1 2467 5
 8319 0142 404B     		ldr	r3, .L780+4
 8320 0144 1A80     		strh	r2, [r3]	@ movhi
 8321              		.loc 1 2467 9
 8322 0146 3F4B     		ldr	r3, .L780+4
 8323 0148 1B88     		ldrh	r3, [r3]
 8324              		.loc 1 2467 5
 8325 014a 002B     		cmp	r3, #0
 8326 014c 05D1     		bne	.L771
 8327              	.L770:
2468:../app/app.c  **** 				dc_motor_Stop();
 8328              		.loc 1 2468 5
 8329 014e FFF7FEFF 		bl	dc_motor_Stop
2469:../app/app.c  **** 				sta = 7;	
 8330              		.loc 1 2469 9
 8331 0152 3B4B     		ldr	r3, .L780
 8332 0154 0722     		movs	r2, #7
 8333 0156 1A70     		strb	r2, [r3]
2470:../app/app.c  **** 			}
2471:../app/app.c  **** 			else {
2472:../app/app.c  **** 				osal_lyh_delay_task(Ms_100);
2473:../app/app.c  **** 			}			
2474:../app/app.c  **** 			break;
 8334              		.loc 1 2474 4
 8335 0158 6EE0     		b	.L763
 8336              	.L771:
2472:../app/app.c  **** 			}			
 8337              		.loc 1 2472 5
 8338 015a 6420     		movs	r0, #100
 8339 015c FFF7FEFF 		bl	osal_lyh_delay_task
 8340              		.loc 1 2474 4
 8341 0160 6AE0     		b	.L763
 8342              	.L755:
2475:../app/app.c  **** 		/* هگ¯هٹ¨و°´و³µه†²و´—ç®،è·¯ */
2476:../app/app.c  **** 		case 7:
2477:../app/app.c  **** 			ac_pumb_start(CONTINUE_MODE);		//هگ¯هٹ¨و°´و³µ
 8343              		.loc 1 2477 4
 8344 0162 0020     		movs	r0, #0
 8345 0164 FFF7FEFF 		bl	ac_pumb_start
2478:../app/app.c  **** 			osal_lyh_delay_task(Ms_10000);		
 8346              		.loc 1 2478 4
 8347 0168 42F21070 		movw	r0, #10000
 8348 016c FFF7FEFF 		bl	osal_lyh_delay_task
2479:../app/app.c  **** 			sta = 8;
 8349              		.loc 1 2479 8
 8350 0170 334B     		ldr	r3, .L780
 8351 0172 0822     		movs	r2, #8
 8352 0174 1A70     		strb	r2, [r3]
2480:../app/app.c  **** 			break;
 8353              		.loc 1 2480 4
 8354 0176 5FE0     		b	.L763
 8355              	.L754:
2481:../app/app.c  **** 		case 8:
2482:../app/app.c  **** 			ac_pumb_stop();						//ه…³é—­و°´و³µ
 8356              		.loc 1 2482 4
 8357 0178 FFF7FEFF 		bl	ac_pumb_stop
2483:../app/app.c  **** 			osal_lyh_delay_task(Ms_6000);		
 8358              		.loc 1 2483 4
 8359 017c 41F27070 		movw	r0, #6000
 8360 0180 FFF7FEFF 		bl	osal_lyh_delay_task
2484:../app/app.c  **** 			sta = 9;
 8361              		.loc 1 2484 8
 8362 0184 2E4B     		ldr	r3, .L780
 8363 0186 0922     		movs	r2, #9
 8364 0188 1A70     		strb	r2, [r3]
2485:../app/app.c  **** 			break;
 8365              		.loc 1 2485 4
 8366 018a 55E0     		b	.L763
 8367              	.L753:
2486:../app/app.c  **** 		/* èگƒهڈ–ç”µوœ؛هگ‘هژںç‚¹è½¬هٹ¨ */
2487:../app/app.c  **** 		case 9:
2488:../app/app.c  **** 			dc_motor_Start(MOTOR_RIGHT);
 8368              		.loc 1 2488 4
 8369 018c 0120     		movs	r0, #1
 8370 018e FFF7FEFF 		bl	dc_motor_Start
2489:../app/app.c  **** 			osal_lyh_delay_task(Ms_1000);			//و­¤ه¤„delayه؛”ن؟‌وŒپè¾ƒه¤§çڑ„و•°ï¼ˆ>500msï¼‰ï¼Œهگ¦هˆ™ç”µوœ؛è؟ک
 8371              		.loc 1 2489 4
 8372 0192 4FF47A70 		mov	r0, #1000
 8373 0196 FFF7FEFF 		bl	osal_lyh_delay_task
2490:../app/app.c  **** 													//ه®¹وک“è¯¯هˆ¤ن¸؛ه·²ç»ڈè§¦ç¢°هˆ°هژںç‚¹ه¼€ه…³ï¼Œه¯¼è‡´ç”µوœ؛و— و³•ه›‍è½¬هˆ°هژںن½چ
2491:../app/app.c  **** 			run_max_time = RIGHT_TIMER(Ms_6000, Ms_100);		
 8374              		.loc 1 2491 17
 8375 019a 2A4B     		ldr	r3, .L780+4
 8376 019c 3C22     		movs	r2, #60
 8377 019e 1A80     		strh	r2, [r3]	@ movhi
2492:../app/app.c  **** 			sta = 10;
 8378              		.loc 1 2492 8
 8379 01a0 274B     		ldr	r3, .L780
 8380 01a2 0A22     		movs	r2, #10
 8381 01a4 1A70     		strb	r2, [r3]
2493:../app/app.c  **** 			break;	
 8382              		.loc 1 2493 4
 8383 01a6 47E0     		b	.L763
 8384              	.L752:
2494:../app/app.c  **** 		/* هˆ¤و–­ç”µوœ؛وک¯هگ¦هˆ°هژںç‚¹è§¦ç‚¹ */	
2495:../app/app.c  **** 		case 10:													
2496:../app/app.c  **** 			if ((MOTOR_STATE_STOPED ==dc_motor_GetState())
 8385              		.loc 1 2496 30
 8386 01a8 FFF7FEFF 		bl	dc_motor_GetState
 8387 01ac 0346     		mov	r3, r0
 8388              		.loc 1 2496 7
 8389 01ae 002B     		cmp	r3, #0
 8390 01b0 0ED0     		beq	.L773
2497:../app/app.c  **** 				|| (TRUE == app_motor_ready())
 8391              		.loc 1 2497 17
 8392 01b2 FFF7FEFF 		bl	app_motor_ready
 8393 01b6 0346     		mov	r3, r0
 8394              		.loc 1 2497 5
 8395 01b8 012B     		cmp	r3, #1
 8396 01ba 09D0     		beq	.L773
2498:../app/app.c  **** 				|| (--run_max_time == 0)){
 8397              		.loc 1 2498 9
 8398 01bc 214B     		ldr	r3, .L780+4
 8399 01be 1B88     		ldrh	r3, [r3]
 8400 01c0 013B     		subs	r3, r3, #1
 8401 01c2 9AB2     		uxth	r2, r3
 8402              		.loc 1 2498 5
 8403 01c4 1F4B     		ldr	r3, .L780+4
 8404 01c6 1A80     		strh	r2, [r3]	@ movhi
 8405              		.loc 1 2498 9
 8406 01c8 1E4B     		ldr	r3, .L780+4
 8407 01ca 1B88     		ldrh	r3, [r3]
 8408              		.loc 1 2498 5
 8409 01cc 002B     		cmp	r3, #0
 8410 01ce 05D1     		bne	.L774
 8411              	.L773:
2499:../app/app.c  **** 				dc_motor_Stop();
 8412              		.loc 1 2499 5
 8413 01d0 FFF7FEFF 		bl	dc_motor_Stop
2500:../app/app.c  **** 				sta = 11;				
 8414              		.loc 1 2500 9
 8415 01d4 1A4B     		ldr	r3, .L780
 8416 01d6 0B22     		movs	r2, #11
 8417 01d8 1A70     		strb	r2, [r3]
2501:../app/app.c  **** 			}
2502:../app/app.c  **** 			else {
2503:../app/app.c  **** 				osal_lyh_delay_task(Ms_100);
2504:../app/app.c  **** 			}
2505:../app/app.c  **** 			break;
 8418              		.loc 1 2505 4
 8419 01da 2DE0     		b	.L763
 8420              	.L774:
2503:../app/app.c  **** 			}
 8421              		.loc 1 2503 5
 8422 01dc 6420     		movs	r0, #100
 8423 01de FFF7FEFF 		bl	osal_lyh_delay_task
 8424              		.loc 1 2505 4
 8425 01e2 29E0     		b	.L763
 8426              	.L751:
2506:../app/app.c  **** 		/* ç”µوœ؛ه›‍è½¬هˆ°هژںن½چ */
2507:../app/app.c  **** 		case 11:												
2508:../app/app.c  **** 			dc_motor_Start(MOTOR_LEFT);
 8427              		.loc 1 2508 4
 8428 01e4 0220     		movs	r0, #2
 8429 01e6 FFF7FEFF 		bl	dc_motor_Start
2509:../app/app.c  **** 			osal_lyh_delay_task(Ms_100);
 8430              		.loc 1 2509 4
 8431 01ea 6420     		movs	r0, #100
 8432 01ec FFF7FEFF 		bl	osal_lyh_delay_task
2510:../app/app.c  **** 			run_max_time = LEFT_TIMER(MOTOR_FIX_TIME, Ms_100);
 8433              		.loc 1 2510 17
 8434 01f0 144B     		ldr	r3, .L780+4
 8435 01f2 0322     		movs	r2, #3
 8436 01f4 1A80     		strh	r2, [r3]	@ movhi
2511:../app/app.c  **** 			sta = 12;
 8437              		.loc 1 2511 8
 8438 01f6 124B     		ldr	r3, .L780
 8439 01f8 0C22     		movs	r2, #12
 8440 01fa 1A70     		strb	r2, [r3]
2512:../app/app.c  **** 			break;	
 8441              		.loc 1 2512 4
 8442 01fc 1CE0     		b	.L763
 8443              	.L749:
2513:../app/app.c  **** 		/* هˆ¤و–­ç”µوœ؛وک¯هگ¦ه›‍è½¬هˆ°هژںن½چ */	
2514:../app/app.c  **** 		case 12:													
2515:../app/app.c  **** 			if (1/*(FAIL == app_motor_ready())*/	// deleting point,(temp to cancel)
2516:../app/app.c  **** 				&& ((MOTOR_STATE_STOPED ==dc_motor_GetState())
 8444              		.loc 1 2516 31
 8445 01fe FFF7FEFF 		bl	dc_motor_GetState
 8446 0202 0346     		mov	r3, r0
2515:../app/app.c  **** 				&& ((MOTOR_STATE_STOPED ==dc_motor_GetState())
 8447              		.loc 1 2515 7
 8448 0204 002B     		cmp	r3, #0
 8449 0206 09D0     		beq	.L776
2517:../app/app.c  **** 				|| (--run_max_time == 0))){
 8450              		.loc 1 2517 9
 8451 0208 0E4B     		ldr	r3, .L780+4
 8452 020a 1B88     		ldrh	r3, [r3]
 8453 020c 013B     		subs	r3, r3, #1
 8454 020e 9AB2     		uxth	r2, r3
2516:../app/app.c  **** 				|| (--run_max_time == 0))){
 8455              		.loc 1 2516 5
 8456 0210 0C4B     		ldr	r3, .L780+4
 8457 0212 1A80     		strh	r2, [r3]	@ movhi
 8458              		.loc 1 2517 9
 8459 0214 0B4B     		ldr	r3, .L780+4
 8460 0216 1B88     		ldrh	r3, [r3]
2516:../app/app.c  **** 				|| (--run_max_time == 0))){
 8461              		.loc 1 2516 5
 8462 0218 002B     		cmp	r3, #0
 8463 021a 08D1     		bne	.L777
 8464              	.L776:
2518:../app/app.c  **** 				dc_motor_Stop();
 8465              		.loc 1 2518 5
 8466 021c FFF7FEFF 		bl	dc_motor_Stop
2519:../app/app.c  **** 				app_turn_heat_off();
 8467              		.loc 1 2519 5
 8468 0220 FFF7FEFF 		bl	app_turn_heat_off
2520:../app/app.c  **** 				sta = 0;
 8469              		.loc 1 2520 9
 8470 0224 064B     		ldr	r3, .L780
 8471 0226 0022     		movs	r2, #0
 8472 0228 1A70     		strb	r2, [r3]
2521:../app/app.c  **** 				return TRUE;
 8473              		.loc 1 2521 12
 8474 022a 0123     		movs	r3, #1
 8475 022c 05E0     		b	.L778
 8476              	.L777:
2522:../app/app.c  **** 			}
2523:../app/app.c  **** 			else {
2524:../app/app.c  **** 				osal_lyh_delay_task(Ms_100);
 8477              		.loc 1 2524 5
 8478 022e 6420     		movs	r0, #100
 8479 0230 FFF7FEFF 		bl	osal_lyh_delay_task
2525:../app/app.c  **** 			}
2526:../app/app.c  **** 			break;
 8480              		.loc 1 2526 4
 8481 0234 00E0     		b	.L763
 8482              	.L779:
2527:../app/app.c  **** 		default:
2528:../app/app.c  **** 			break;
 8483              		.loc 1 2528 4
 8484 0236 00BF     		nop
 8485              	.L763:
2529:../app/app.c  **** 	}
2530:../app/app.c  **** 	return FAIL;
 8486              		.loc 1 2530 9
 8487 0238 0023     		movs	r3, #0
 8488              	.L778:
2531:../app/app.c  **** }
 8489              		.loc 1 2531 1
 8490 023a 1846     		mov	r0, r3
 8491 023c 80BD     		pop	{r7, pc}
 8492              	.L781:
 8493 023e 00BF     		.align	2
 8494              	.L780:
 8495 0240 00000000 		.word	sta.8927
 8496 0244 00000000 		.word	run_max_time
 8497              		.cfi_endproc
 8498              	.LFE182:
 8500              		.section	.text.app_running_onoff_handler,"ax",%progbits
 8501              		.align	1
 8502              		.global	app_running_onoff_handler
 8503              		.syntax unified
 8504              		.thumb
 8505              		.thumb_func
 8506              		.fpu softvfp
 8508              	app_running_onoff_handler:
 8509              	.LFB183:
2532:../app/app.c  **** 
2533:../app/app.c  **** /**************************************************************************
2534:../app/app.c  ****  * @brief هœ¨espresso, americanoçڑ„è؟گè،Œçٹ¶و€پن¸‹ï¼ŒوŒ‰ن¸‹ON/OFFé”®çڑ„ه¤„çگ†ه‡½و•°
2535:../app/app.c  ****  * @return none
2536:../app/app.c  ****  * @note 1.و ¹وچ®app_onoff_key_dealyه‡½و•°ن¸­çڑ„çٹ¶و€پï¼Œه†³ه®ڑè؟›ه…¥و­¤ه‡½و•°çڑ„app_task_substepï¼
2537:../app/app.c  ****  * 		 2.americanoçڑ„ç ”ç£¨çٹ¶و€په’Œespressoçڑ„ç ”ç£¨çٹ¶و€پè°ƒç”¨هگŒن¸€ن¸ھه‡½و•°ه¤„çگ†ï¼Œه…¶ن»–çٹ¶و€
2538:../app/app.c  ****  * 		  هœ¨Americanoç¬¬ن¸€و¬،èگƒهڈ–هگژï¼Œه‰©ن½™çڑ„çٹ¶و€پن¸ژespressoçڑ„ه¤„çگ†و–¹ه¼ڈن¸€è‡´ï¼Œéƒ½وک¯هڈ–
2539:../app/app.c  ****  *************************************************************************/
2540:../app/app.c  **** void app_running_onoff_handler(void)
2541:../app/app.c  **** {
 8510              		.loc 1 2541 1
 8511              		.cfi_startproc
 8512              		@ args = 0, pretend = 0, frame = 0
 8513              		@ frame_needed = 1, uses_anonymous_args = 0
 8514 0000 80B5     		push	{r7, lr}
 8515              		.cfi_def_cfa_offset 8
 8516              		.cfi_offset 7, -8
 8517              		.cfi_offset 14, -4
 8518 0002 00AF     		add	r7, sp, #0
 8519              		.cfi_def_cfa_register 7
2542:../app/app.c  **** 	switch(app_task_substep)
 8520              		.loc 1 2542 2
 8521 0004 5F4B     		ldr	r3, .L824
 8522 0006 1B78     		ldrb	r3, [r3]	@ zero_extendqisi2
 8523 0008 082B     		cmp	r3, #8
 8524 000a 00F2A980 		bhi	.L814
 8525 000e 01A2     		adr	r2, .L785
 8526 0010 52F823F0 		ldr	pc, [r2, r3, lsl #2]
 8527              		.p2align 2
 8528              	.L785:
 8529 0014 39000000 		.word	.L793+1
 8530 0018 CB000000 		.word	.L792+1
 8531 001c DD000000 		.word	.L791+1
 8532 0020 EF000000 		.word	.L790+1
 8533 0024 01010000 		.word	.L789+1
 8534 0028 13010000 		.word	.L788+1
 8535 002c 25010000 		.word	.L787+1
 8536 0030 37010000 		.word	.L786+1
 8537 0034 49010000 		.word	.L784+1
 8538              		.p2align 1
 8539              	.L793:
2543:../app/app.c  **** 	{
2544:../app/app.c  **** 		/* è؟›ه…¥ON/OFFه¤„çگ†ه‡½و•°هˆ‌ه§‹هŒ– */
2545:../app/app.c  **** 		case RUNNING_ONOFF_INIT_STATE:			
2546:../app/app.c  **** 			key_prohibit_setup(KEY_ONOFF_MASK, TRUE);	//ه±ڈè”½ON/OFFوŒ‰é”®			
 8540              		.loc 1 2546 4
 8541 0038 0121     		movs	r1, #1
 8542 003a 0120     		movs	r0, #1
 8543 003c FFF7FEFF 		bl	key_prohibit_setup
2547:../app/app.c  **** 			app_led_show_init();	//هˆ‌ه§‹هŒ–وµپو°´çپ¯		
 8544              		.loc 1 2547 4
 8545 0040 FFF7FEFF 		bl	app_led_show_init
2548:../app/app.c  **** 			switch(CERRNT_STATE)	//هˆ¤و–­ه½“ه‰چè؟گè،Œçڑ„çٹ¶و€پï¼Œه¹¶è؟›ه…¥ه¯¹ه؛”çڑ„ه¤„çگ†وµپç¨‹
 8546              		.loc 1 2548 4
 8547 0044 504B     		ldr	r3, .L824+4
 8548 0046 1B78     		ldrb	r3, [r3]	@ zero_extendqisi2
 8549 0048 062B     		cmp	r3, #6
 8550 004a 3CD8     		bhi	.L815
 8551 004c 01A2     		adr	r2, .L796
 8552 004e 52F823F0 		ldr	pc, [r2, r3, lsl #2]
 8553 0052 00BF     		.p2align 2
 8554              	.L796:
 8555 0054 71000000 		.word	.L802+1
 8556 0058 8F000000 		.word	.L801+1
 8557 005c 97000000 		.word	.L800+1
 8558 0060 9F000000 		.word	.L799+1
 8559 0064 A7000000 		.word	.L798+1
 8560 0068 AF000000 		.word	.L797+1
 8561 006c BF000000 		.word	.L795+1
 8562              		.p2align 1
 8563              	.L802:
2549:../app/app.c  **** 			{
2550:../app/app.c  **** 				/* ç©؛è؟گè،Œçٹ¶و€پ */	
2551:../app/app.c  **** 				case NULL_STATE:
2552:../app/app.c  **** 					if(1 == flush_flag){
 8564              		.loc 1 2552 11
 8565 0070 464B     		ldr	r3, .L824+8
 8566 0072 1B78     		ldrb	r3, [r3]	@ zero_extendqisi2
 8567              		.loc 1 2552 8
 8568 0074 012B     		cmp	r3, #1
 8569 0076 06D1     		bne	.L803
2553:../app/app.c  **** 						flush_flag = 0;
 8570              		.loc 1 2553 18
 8571 0078 444B     		ldr	r3, .L824+8
 8572 007a 0022     		movs	r2, #0
 8573 007c 1A70     		strb	r2, [r3]
2554:../app/app.c  **** 						app_task_substep = RUNNING_ONOFF_FLUSH;
 8574              		.loc 1 2554 24
 8575 007e 414B     		ldr	r3, .L824
 8576 0080 0722     		movs	r2, #7
 8577 0082 1A70     		strb	r2, [r3]
2555:../app/app.c  **** 					}
2556:../app/app.c  **** 					else{
2557:../app/app.c  **** 						app_task_substep = RUNNING_ONOFF_COMPLETE;
2558:../app/app.c  **** 					}
2559:../app/app.c  **** 					break;			
 8578              		.loc 1 2559 6
 8579 0084 20E0     		b	.L805
 8580              	.L803:
2557:../app/app.c  **** 					}
 8581              		.loc 1 2557 24
 8582 0086 3F4B     		ldr	r3, .L824
 8583 0088 0822     		movs	r2, #8
 8584 008a 1A70     		strb	r2, [r3]
 8585              		.loc 1 2559 6
 8586 008c 1CE0     		b	.L805
 8587              	.L801:
2560:../app/app.c  **** 				/* هˆ‌ه§‹هŒ–ه’Œç ”ç£¨ */
2561:../app/app.c  **** 				case INIT_AND_GRIND_STATE:
2562:../app/app.c  **** 					app_task_substep = RUNNING_ONOFF_GRIND_STATE;
 8588              		.loc 1 2562 23
 8589 008e 3D4B     		ldr	r3, .L824
 8590 0090 0122     		movs	r2, #1
 8591 0092 1A70     		strb	r2, [r3]
2563:../app/app.c  **** 					break;
 8592              		.loc 1 2563 6
 8593 0094 18E0     		b	.L805
 8594              	.L800:
2564:../app/app.c  **** 				/* ه‰چه¾€èگƒهڈ–ن¸­ */	
2565:../app/app.c  **** 				case GO_BREW_STATE:
2566:../app/app.c  **** 					app_task_substep = RUNNING_ONOFF_GO_BREW_STATE;				
 8595              		.loc 1 2566 23
 8596 0096 3B4B     		ldr	r3, .L824
 8597 0098 0222     		movs	r2, #2
 8598 009a 1A70     		strb	r2, [r3]
2567:../app/app.c  **** 					break;
 8599              		.loc 1 2567 6
 8600 009c 14E0     		b	.L805
 8601              	.L799:
2568:../app/app.c  **** 				/* é¢„ه†²ç…® */	
2569:../app/app.c  **** 				case PRE_BREW_STATE:
2570:../app/app.c  **** 					app_task_substep = RUNNING_ONOFF_PRE_BREW_STATE;				
 8602              		.loc 1 2570 23
 8603 009e 394B     		ldr	r3, .L824
 8604 00a0 0322     		movs	r2, #3
 8605 00a2 1A70     		strb	r2, [r3]
2571:../app/app.c  **** 					break;
 8606              		.loc 1 2571 6
 8607 00a4 10E0     		b	.L805
 8608              	.L798:
2572:../app/app.c  **** 				/* ه†²ç…® */	
2573:../app/app.c  **** 				case BREW_STATE:
2574:../app/app.c  **** 					app_task_substep = RUNNING_ONOFF_BREW_STATE;				
 8609              		.loc 1 2574 23
 8610 00a6 374B     		ldr	r3, .L824
 8611 00a8 0422     		movs	r2, #4
 8612 00aa 1A70     		strb	r2, [r3]
2575:../app/app.c  **** 					break;
 8613              		.loc 1 2575 6
 8614 00ac 0CE0     		b	.L805
 8615              	.L797:
2576:../app/app.c  **** 				/* ن¸¢ه’–ه•،و¸£ */		
2577:../app/app.c  **** 				case DROP_BEANS_STATE:
2578:../app/app.c  **** 					drop_beans_time = run_max_time;
 8616              		.loc 1 2578 22
 8617 00ae 384B     		ldr	r3, .L824+12
 8618 00b0 1A88     		ldrh	r2, [r3]
 8619 00b2 384B     		ldr	r3, .L824+16
 8620 00b4 1A80     		strh	r2, [r3]	@ movhi
2579:../app/app.c  **** 					app_task_substep = RUNNING_ONOFF_DROP_BEANS_STATE;				
 8621              		.loc 1 2579 23
 8622 00b6 334B     		ldr	r3, .L824
 8623 00b8 0522     		movs	r2, #5
 8624 00ba 1A70     		strb	r2, [r3]
2580:../app/app.c  **** 					break;
 8625              		.loc 1 2580 6
 8626 00bc 04E0     		b	.L805
 8627              	.L795:
2581:../app/app.c  **** 				case RST_STATE:
2582:../app/app.c  **** 					app_task_substep = RUNNING_ONOFF_RST_STATE;
 8628              		.loc 1 2582 23
 8629 00be 314B     		ldr	r3, .L824
 8630 00c0 0622     		movs	r2, #6
 8631 00c2 1A70     		strb	r2, [r3]
2583:../app/app.c  **** 					break;
 8632              		.loc 1 2583 6
 8633 00c4 00E0     		b	.L805
 8634              	.L815:
2584:../app/app.c  **** 				default:
2585:../app/app.c  **** 					break;
 8635              		.loc 1 2585 6
 8636 00c6 00BF     		nop
 8637              	.L805:
2586:../app/app.c  **** 			}			
2587:../app/app.c  **** 			break;
 8638              		.loc 1 2587 4
 8639 00c8 59E0     		b	.L806
 8640              	.L792:
2588:../app/app.c  **** 		/* ç ”ç£¨و—¶ه¤„çگ† */	
2589:../app/app.c  **** 		case RUNNING_ONOFF_GRIND_STATE:		
2590:../app/app.c  **** 			if(TRUE == app_running_onoff_grind_handler()){
 8641              		.loc 1 2590 15
 8642 00ca FFF7FEFF 		bl	app_running_onoff_grind_handler
 8643 00ce 0346     		mov	r3, r0
 8644              		.loc 1 2590 6
 8645 00d0 012B     		cmp	r3, #1
 8646 00d2 47D1     		bne	.L816
2591:../app/app.c  **** 				app_task_substep = RUNNING_ONOFF_FLUSH;
 8647              		.loc 1 2591 22
 8648 00d4 2B4B     		ldr	r3, .L824
 8649 00d6 0722     		movs	r2, #7
 8650 00d8 1A70     		strb	r2, [r3]
2592:../app/app.c  **** 			}
2593:../app/app.c  **** 			break;
 8651              		.loc 1 2593 4
 8652 00da 43E0     		b	.L816
 8653              	.L791:
2594:../app/app.c  **** 		/* هژ»èگƒهڈ–و—¶ه¤„çگ† */	
2595:../app/app.c  **** 		case RUNNING_ONOFF_GO_BREW_STATE:		
2596:../app/app.c  **** 			if(TRUE == app_running_onoff_go_water_handler()){
 8654              		.loc 1 2596 15
 8655 00dc FFF7FEFF 		bl	app_running_onoff_go_water_handler
 8656 00e0 0346     		mov	r3, r0
 8657              		.loc 1 2596 6
 8658 00e2 012B     		cmp	r3, #1
 8659 00e4 40D1     		bne	.L817
2597:../app/app.c  **** 				app_task_substep = RUNNING_ONOFF_FLUSH;
 8660              		.loc 1 2597 22
 8661 00e6 274B     		ldr	r3, .L824
 8662 00e8 0722     		movs	r2, #7
 8663 00ea 1A70     		strb	r2, [r3]
2598:../app/app.c  **** 			}
2599:../app/app.c  **** 			break;
 8664              		.loc 1 2599 4
 8665 00ec 3CE0     		b	.L817
 8666              	.L790:
2600:../app/app.c  **** 		/* é¢„ه†²ç…®و—¶ه¤„çگ† */
2601:../app/app.c  **** 		case RUNNING_ONOFF_PRE_BREW_STATE:		
2602:../app/app.c  **** 			if(TRUE == app_running_onoff_pre_brew_handler()){	
 8667              		.loc 1 2602 15
 8668 00ee FFF7FEFF 		bl	app_running_onoff_pre_brew_handler
 8669 00f2 0346     		mov	r3, r0
 8670              		.loc 1 2602 6
 8671 00f4 012B     		cmp	r3, #1
 8672 00f6 39D1     		bne	.L818
2603:../app/app.c  **** 				app_task_substep = RUNNING_ONOFF_FLUSH;
 8673              		.loc 1 2603 22
 8674 00f8 224B     		ldr	r3, .L824
 8675 00fa 0722     		movs	r2, #7
 8676 00fc 1A70     		strb	r2, [r3]
2604:../app/app.c  **** 			}		
2605:../app/app.c  **** 			break;
 8677              		.loc 1 2605 4
 8678 00fe 35E0     		b	.L818
 8679              	.L789:
2606:../app/app.c  **** 		/* ه†²ç…®و—¶ه¤„çگ† */
2607:../app/app.c  **** 		case RUNNING_ONOFF_BREW_STATE:		
2608:../app/app.c  **** 			if(TRUE == app_running_onoff_brew_handler()){
 8680              		.loc 1 2608 15
 8681 0100 FFF7FEFF 		bl	app_running_onoff_brew_handler
 8682 0104 0346     		mov	r3, r0
 8683              		.loc 1 2608 6
 8684 0106 012B     		cmp	r3, #1
 8685 0108 32D1     		bne	.L819
2609:../app/app.c  **** 				app_task_substep = RUNNING_ONOFF_FLUSH;
 8686              		.loc 1 2609 22
 8687 010a 1E4B     		ldr	r3, .L824
 8688 010c 0722     		movs	r2, #7
 8689 010e 1A70     		strb	r2, [r3]
2610:../app/app.c  **** 			}
2611:../app/app.c  **** 			break;
 8690              		.loc 1 2611 4
 8691 0110 2EE0     		b	.L819
 8692              	.L788:
2612:../app/app.c  **** 		/* ن¸¢ه’–ه•،و¸£و—¶ه¤„çگ† */	
2613:../app/app.c  **** 		case RUNNING_ONOFF_DROP_BEANS_STATE:
2614:../app/app.c  **** 			if(TRUE == app_running_onoff_drop_beans_handler()){
 8693              		.loc 1 2614 15
 8694 0112 FFF7FEFF 		bl	app_running_onoff_drop_beans_handler
 8695 0116 0346     		mov	r3, r0
 8696              		.loc 1 2614 6
 8697 0118 012B     		cmp	r3, #1
 8698 011a 2BD1     		bne	.L820
2615:../app/app.c  **** 				app_task_substep = RUNNING_ONOFF_FLUSH;
 8699              		.loc 1 2615 22
 8700 011c 194B     		ldr	r3, .L824
 8701 011e 0722     		movs	r2, #7
 8702 0120 1A70     		strb	r2, [r3]
2616:../app/app.c  **** 			}
2617:../app/app.c  **** 			break;
 8703              		.loc 1 2617 4
 8704 0122 27E0     		b	.L820
 8705              	.L787:
2618:../app/app.c  **** 		/* ه¤چن½چو—¶ه¤„çگ† */
2619:../app/app.c  **** 		case RUNNING_ONOFF_RST_STATE:
2620:../app/app.c  **** 			if(TRUE == app_running_onoff_rst_handler()){
 8706              		.loc 1 2620 15
 8707 0124 FFF7FEFF 		bl	app_running_onoff_rst_handler
 8708 0128 0346     		mov	r3, r0
 8709              		.loc 1 2620 6
 8710 012a 012B     		cmp	r3, #1
 8711 012c 24D1     		bne	.L821
2621:../app/app.c  **** 				app_task_substep = RUNNING_ONOFF_FLUSH;
 8712              		.loc 1 2621 22
 8713 012e 154B     		ldr	r3, .L824
 8714 0130 0722     		movs	r2, #7
 8715 0132 1A70     		strb	r2, [r3]
2622:../app/app.c  **** 			}
2623:../app/app.c  **** 			break;
 8716              		.loc 1 2623 4
 8717 0134 20E0     		b	.L821
 8718              	.L786:
2624:../app/app.c  **** 		/* ه†²و´—وµپç¨‹ */	
2625:../app/app.c  **** 		case RUNNING_ONOFF_FLUSH:
2626:../app/app.c  **** 			if(TRUE == app_running_onoff_flush_handler()){
 8719              		.loc 1 2626 15
 8720 0136 FFF7FEFF 		bl	app_running_onoff_flush_handler
 8721 013a 0346     		mov	r3, r0
 8722              		.loc 1 2626 6
 8723 013c 012B     		cmp	r3, #1
 8724 013e 1DD1     		bne	.L822
2627:../app/app.c  **** 				app_task_substep = RUNNING_ONOFF_COMPLETE;
 8725              		.loc 1 2627 22
 8726 0140 104B     		ldr	r3, .L824
 8727 0142 0822     		movs	r2, #8
 8728 0144 1A70     		strb	r2, [r3]
2628:../app/app.c  **** 			}												
2629:../app/app.c  **** 			break;
 8729              		.loc 1 2629 4
 8730 0146 19E0     		b	.L822
 8731              	.L784:
2630:../app/app.c  **** 		/* ه®ŒوˆگON/OFFوµپç¨‹ï¼Œè؟›ه…¥IDLEçٹ¶و€پ */	
2631:../app/app.c  **** 		case RUNNING_ONOFF_COMPLETE:
2632:../app/app.c  **** 			key_prohibit_setup(KEY_ONOFF_MASK, FAIL);
 8732              		.loc 1 2632 4
 8733 0148 0021     		movs	r1, #0
 8734 014a 0120     		movs	r0, #1
 8735 014c FFF7FEFF 		bl	key_prohibit_setup
2633:../app/app.c  **** 			osal_lyh_kill_over_timer(OS_LED_TIME);
 8736              		.loc 1 2633 4
 8737 0150 0220     		movs	r0, #2
 8738 0152 FFF7FEFF 		bl	osal_lyh_kill_over_timer
2634:../app/app.c  **** 			app_task_nextstep(APP_IDLE_STATE, IDLE_INIT_STATE);
 8739              		.loc 1 2634 4
 8740 0156 0021     		movs	r1, #0
 8741 0158 0120     		movs	r0, #1
 8742 015a FFF7FEFF 		bl	app_task_nextstep
2635:../app/app.c  **** 			break;
 8743              		.loc 1 2635 4
 8744 015e 0EE0     		b	.L806
 8745              	.L814:
2636:../app/app.c  **** 		default:
2637:../app/app.c  **** 			break;
 8746              		.loc 1 2637 4
 8747 0160 00BF     		nop
 8748 0162 0CE0     		b	.L823
 8749              	.L816:
2593:../app/app.c  **** 		/* هژ»èگƒهڈ–و—¶ه¤„çگ† */	
 8750              		.loc 1 2593 4
 8751 0164 00BF     		nop
 8752 0166 0AE0     		b	.L823
 8753              	.L817:
2599:../app/app.c  **** 		/* é¢„ه†²ç…®و—¶ه¤„çگ† */
 8754              		.loc 1 2599 4
 8755 0168 00BF     		nop
 8756 016a 08E0     		b	.L823
 8757              	.L818:
2605:../app/app.c  **** 		/* ه†²ç…®و—¶ه¤„çگ† */
 8758              		.loc 1 2605 4
 8759 016c 00BF     		nop
 8760 016e 06E0     		b	.L823
 8761              	.L819:
2611:../app/app.c  **** 		/* ن¸¢ه’–ه•،و¸£و—¶ه¤„çگ† */	
 8762              		.loc 1 2611 4
 8763 0170 00BF     		nop
 8764 0172 04E0     		b	.L823
 8765              	.L820:
2617:../app/app.c  **** 		/* ه¤چن½چو—¶ه¤„çگ† */
 8766              		.loc 1 2617 4
 8767 0174 00BF     		nop
 8768 0176 02E0     		b	.L823
 8769              	.L821:
2623:../app/app.c  **** 		/* ه†²و´—وµپç¨‹ */	
 8770              		.loc 1 2623 4
 8771 0178 00BF     		nop
 8772 017a 00E0     		b	.L823
 8773              	.L822:
2629:../app/app.c  **** 		/* ه®ŒوˆگON/OFFوµپç¨‹ï¼Œè؟›ه…¥IDLEçٹ¶و€پ */	
 8774              		.loc 1 2629 4
 8775 017c 00BF     		nop
 8776              	.L806:
 8777              	.L823:
2638:../app/app.c  **** 	}
2639:../app/app.c  **** }
 8778              		.loc 1 2639 1
 8779 017e 00BF     		nop
 8780 0180 80BD     		pop	{r7, pc}
 8781              	.L825:
 8782 0182 00BF     		.align	2
 8783              	.L824:
 8784 0184 00000000 		.word	app_task_substep
 8785 0188 00000000 		.word	CERRNT_STATE
 8786 018c 00000000 		.word	flush_flag
 8787 0190 00000000 		.word	run_max_time
 8788 0194 00000000 		.word	drop_beans_time
 8789              		.cfi_endproc
 8790              	.LFE183:
 8792              		.section	.text.init_app_task,"ax",%progbits
 8793              		.align	1
 8794              		.global	init_app_task
 8795              		.syntax unified
 8796              		.thumb
 8797              		.thumb_func
 8798              		.fpu softvfp
 8800              	init_app_task:
 8801              	.LFB184:
2640:../app/app.c  **** 
2641:../app/app.c  **** /************************************************************************
2642:../app/app.c  **** * function name: init_app
2643:../app/app.c  **** * input: non
2644:../app/app.c  **** * output: non
2645:../app/app.c  **** * description: object thread
2646:../app/app.c  **** *************************************************************************/
2647:../app/app.c  **** void init_app_task(uint8_t id)
2648:../app/app.c  **** {
 8802              		.loc 1 2648 1
 8803              		.cfi_startproc
 8804              		@ args = 0, pretend = 0, frame = 8
 8805              		@ frame_needed = 1, uses_anonymous_args = 0
 8806              		@ link register save eliminated.
 8807 0000 80B4     		push	{r7}
 8808              		.cfi_def_cfa_offset 4
 8809              		.cfi_offset 7, -4
 8810 0002 83B0     		sub	sp, sp, #12
 8811              		.cfi_def_cfa_offset 16
 8812 0004 00AF     		add	r7, sp, #0
 8813              		.cfi_def_cfa_register 7
 8814 0006 0346     		mov	r3, r0
 8815 0008 FB71     		strb	r3, [r7, #7]
2649:../app/app.c  **** 	app_id = id;
 8816              		.loc 1 2649 9
 8817 000a 074A     		ldr	r2, .L827
 8818 000c FB79     		ldrb	r3, [r7, #7]
 8819 000e 1370     		strb	r3, [r2]
2650:../app/app.c  **** 	app_task_step = APP_INIT_STATE;
 8820              		.loc 1 2650 16
 8821 0010 064B     		ldr	r3, .L827+4
 8822 0012 0022     		movs	r2, #0
 8823 0014 1A70     		strb	r2, [r3]
2651:../app/app.c  **** 	app_task_substep = INIT_STATE;
 8824              		.loc 1 2651 19
 8825 0016 064B     		ldr	r3, .L827+8
 8826 0018 0022     		movs	r2, #0
 8827 001a 1A70     		strb	r2, [r3]
2652:../app/app.c  **** }
 8828              		.loc 1 2652 1
 8829 001c 00BF     		nop
 8830 001e 0C37     		adds	r7, r7, #12
 8831              		.cfi_def_cfa_offset 4
 8832 0020 BD46     		mov	sp, r7
 8833              		.cfi_def_cfa_register 13
 8834              		@ sp needed
 8835 0022 80BC     		pop	{r7}
 8836              		.cfi_restore 7
 8837              		.cfi_def_cfa_offset 0
 8838 0024 7047     		bx	lr
 8839              	.L828:
 8840 0026 00BF     		.align	2
 8841              	.L827:
 8842 0028 00000000 		.word	app_id
 8843 002c 00000000 		.word	app_task_step
 8844 0030 00000000 		.word	app_task_substep
 8845              		.cfi_endproc
 8846              	.LFE184:
 8848              		.section	.text.app_task_handler,"ax",%progbits
 8849              		.align	1
 8850              		.global	app_task_handler
 8851              		.syntax unified
 8852              		.thumb
 8853              		.thumb_func
 8854              		.fpu softvfp
 8856              	app_task_handler:
 8857              	.LFB185:
2653:../app/app.c  **** 
2654:../app/app.c  **** /************************************************************************
2655:../app/app.c  **** * function name: app_task_handler
2656:../app/app.c  **** * input: non
2657:../app/app.c  **** * output: non
2658:../app/app.c  **** * description: object thread
2659:../app/app.c  **** *************************************************************************/
2660:../app/app.c  **** void app_task_handler(void)
2661:../app/app.c  **** {
 8858              		.loc 1 2661 1
 8859              		.cfi_startproc
 8860              		@ args = 0, pretend = 0, frame = 0
 8861              		@ frame_needed = 1, uses_anonymous_args = 0
 8862 0000 80B5     		push	{r7, lr}
 8863              		.cfi_def_cfa_offset 8
 8864              		.cfi_offset 7, -8
 8865              		.cfi_offset 14, -4
 8866 0002 00AF     		add	r7, sp, #0
 8867              		.cfi_def_cfa_register 7
2662:../app/app.c  **** 	switch(app_task_step){
 8868              		.loc 1 2662 2
 8869 0004 234B     		ldr	r3, .L846
 8870 0006 1B78     		ldrb	r3, [r3]	@ zero_extendqisi2
 8871 0008 0B2B     		cmp	r3, #11
 8872 000a 3FD8     		bhi	.L845
 8873 000c 01A2     		adr	r2, .L832
 8874 000e 52F823F0 		ldr	pc, [r2, r3, lsl #2]
 8875 0012 00BF     		.p2align 2
 8876              	.L832:
 8877 0014 45000000 		.word	.L843+1
 8878 0018 4B000000 		.word	.L842+1
 8879 001c 51000000 		.word	.L841+1
 8880 0020 57000000 		.word	.L840+1
 8881 0024 5D000000 		.word	.L839+1
 8882 0028 63000000 		.word	.L838+1
 8883 002c 69000000 		.word	.L837+1
 8884 0030 6F000000 		.word	.L836+1
 8885 0034 75000000 		.word	.L835+1
 8886 0038 7B000000 		.word	.L834+1
 8887 003c 81000000 		.word	.L833+1
 8888 0040 87000000 		.word	.L831+1
 8889              		.p2align 1
 8890              	.L843:
2663:../app/app.c  **** 	case APP_INIT_STATE:
2664:../app/app.c  **** 		app_init_handler();
 8891              		.loc 1 2664 3
 8892 0044 FFF7FEFF 		bl	app_init_handler
2665:../app/app.c  **** 		break;
 8893              		.loc 1 2665 3
 8894 0048 21E0     		b	.L844
 8895              	.L842:
2666:../app/app.c  **** 	case APP_IDLE_STATE:
2667:../app/app.c  **** 		app_idle_handler();
 8896              		.loc 1 2667 3
 8897 004a FFF7FEFF 		bl	app_idle_handler
2668:../app/app.c  **** 			break;
 8898              		.loc 1 2668 4
 8899 004e 1EE0     		b	.L844
 8900              	.L841:
2669:../app/app.c  **** 	case APP_STARTUP_STATE:
2670:../app/app.c  **** 		app_startup_handler();
 8901              		.loc 1 2670 3
 8902 0050 FFF7FEFF 		bl	app_startup_handler
2671:../app/app.c  **** 			break;
 8903              		.loc 1 2671 4
 8904 0054 1BE0     		b	.L844
 8905              	.L840:
2672:../app/app.c  **** 	case APP_NORMAL_STATE:
2673:../app/app.c  **** 		app_normal_handler();
 8906              		.loc 1 2673 3
 8907 0056 FFF7FEFF 		bl	app_normal_handler
2674:../app/app.c  **** 			break;
 8908              		.loc 1 2674 4
 8909 005a 18E0     		b	.L844
 8910              	.L839:
2675:../app/app.c  **** 	case APP_ESPRESSO_STATE:
2676:../app/app.c  **** 		app_espresso_handler();
 8911              		.loc 1 2676 3
 8912 005c FFF7FEFF 		bl	app_espresso_handler
2677:../app/app.c  **** 			break;
 8913              		.loc 1 2677 4
 8914 0060 15E0     		b	.L844
 8915              	.L838:
2678:../app/app.c  **** 	case APP_AMERICAN_STATE:
2679:../app/app.c  **** 		app_american_handler();
 8916              		.loc 1 2679 3
 8917 0062 FFF7FEFF 		bl	app_american_handler
2680:../app/app.c  **** 			break;
 8918              		.loc 1 2680 4
 8919 0066 12E0     		b	.L844
 8920              	.L837:
2681:../app/app.c  **** 	case APP_HOTWATER_STATE:
2682:../app/app.c  **** 		app_hotwater_handler();
 8921              		.loc 1 2682 3
 8922 0068 FFF7FEFF 		bl	app_hotwater_handler
2683:../app/app.c  **** 			break;
 8923              		.loc 1 2683 4
 8924 006c 0FE0     		b	.L844
 8925              	.L836:
2684:../app/app.c  **** 	case APP_STEAM_STATE:
2685:../app/app.c  **** 		app_steam_handler();
 8926              		.loc 1 2685 3
 8927 006e FFF7FEFF 		bl	app_steam_handler
2686:../app/app.c  **** 			break;
 8928              		.loc 1 2686 4
 8929 0072 0CE0     		b	.L844
 8930              	.L835:
2687:../app/app.c  **** 	case APP_AQUA_STATE:
2688:../app/app.c  **** 		app_aqua_handler();
 8931              		.loc 1 2688 3
 8932 0074 FFF7FEFF 		bl	app_aqua_handler
2689:../app/app.c  **** 			break;
 8933              		.loc 1 2689 4
 8934 0078 09E0     		b	.L844
 8935              	.L834:
2690:../app/app.c  **** 	case APP_CALC_STATE:
2691:../app/app.c  **** 		app_calc_handler();
 8936              		.loc 1 2691 3
 8937 007a FFF7FEFF 		bl	app_calc_handler
2692:../app/app.c  **** 			break;
 8938              		.loc 1 2692 4
 8939 007e 06E0     		b	.L844
 8940              	.L833:
2693:../app/app.c  **** 	case APP_SETUP_STATE:
2694:../app/app.c  **** 		app_setup_handler();
 8941              		.loc 1 2694 3
 8942 0080 FFF7FEFF 		bl	app_setup_handler
2695:../app/app.c  **** 			break;
 8943              		.loc 1 2695 4
 8944 0084 03E0     		b	.L844
 8945              	.L831:
2696:../app/app.c  **** 	case APP_RUNNING_ONOFF_STATE:
2697:../app/app.c  **** 		app_running_onoff_handler();
 8946              		.loc 1 2697 3
 8947 0086 FFF7FEFF 		bl	app_running_onoff_handler
2698:../app/app.c  **** 			break;
 8948              		.loc 1 2698 4
 8949 008a 00E0     		b	.L844
 8950              	.L845:
2699:../app/app.c  **** 	default:
2700:../app/app.c  **** 		break;
 8951              		.loc 1 2700 3
 8952 008c 00BF     		nop
 8953              	.L844:
2701:../app/app.c  **** 	}
2702:../app/app.c  **** }
 8954              		.loc 1 2702 1
 8955 008e 00BF     		nop
 8956 0090 80BD     		pop	{r7, pc}
 8957              	.L847:
 8958 0092 00BF     		.align	2
 8959              	.L846:
 8960 0094 00000000 		.word	app_task_step
 8961              		.cfi_endproc
 8962              	.LFE185:
 8964              		.section	.text.app_event_handler,"ax",%progbits
 8965              		.align	1
 8966              		.global	app_event_handler
 8967              		.syntax unified
 8968              		.thumb
 8969              		.thumb_func
 8970              		.fpu softvfp
 8972              	app_event_handler:
 8973              	.LFB186:
2703:../app/app.c  **** 
2704:../app/app.c  **** /************************************************************************
2705:../app/app.c  **** * function name: app_processEvent
2706:../app/app.c  **** * input: non
2707:../app/app.c  **** * output: non
2708:../app/app.c  **** * description: this object's message loop
2709:../app/app.c  **** *************************************************************************/
2710:../app/app.c  **** uint32_t app_event_handler( uint8_t task_id, uint32_t events)
2711:../app/app.c  **** {
 8974              		.loc 1 2711 1
 8975              		.cfi_startproc
 8976              		@ args = 0, pretend = 0, frame = 8
 8977              		@ frame_needed = 1, uses_anonymous_args = 0
 8978 0000 80B5     		push	{r7, lr}
 8979              		.cfi_def_cfa_offset 8
 8980              		.cfi_offset 7, -8
 8981              		.cfi_offset 14, -4
 8982 0002 82B0     		sub	sp, sp, #8
 8983              		.cfi_def_cfa_offset 16
 8984 0004 00AF     		add	r7, sp, #0
 8985              		.cfi_def_cfa_register 7
 8986 0006 0346     		mov	r3, r0
 8987 0008 3960     		str	r1, [r7]
 8988 000a FB71     		strb	r3, [r7, #7]
2712:../app/app.c  **** 	if (app_id != task_id){
 8989              		.loc 1 2712 13
 8990 000c 094B     		ldr	r3, .L852
 8991 000e 1B78     		ldrb	r3, [r3]	@ zero_extendqisi2
 8992              		.loc 1 2712 5
 8993 0010 FA79     		ldrb	r2, [r7, #7]	@ zero_extendqisi2
 8994 0012 9A42     		cmp	r2, r3
 8995 0014 01D0     		beq	.L849
2713:../app/app.c  **** 		return events;
 8996              		.loc 1 2713 10
 8997 0016 3B68     		ldr	r3, [r7]
 8998 0018 08E0     		b	.L850
 8999              	.L849:
2714:../app/app.c  **** 	}
2715:../app/app.c  **** 	if (APP_KEY_CHANGE_EVENT & events)
 9000              		.loc 1 2715 27
 9001 001a 3B68     		ldr	r3, [r7]
 9002 001c 03F00103 		and	r3, r3, #1
 9003              		.loc 1 2715 5
 9004 0020 002B     		cmp	r3, #0
 9005 0022 02D0     		beq	.L851
2716:../app/app.c  **** 	{
2717:../app/app.c  **** 		app_key_handler(&keyinfo);
 9006              		.loc 1 2717 3
 9007 0024 0448     		ldr	r0, .L852+4
 9008 0026 FFF7FEFF 		bl	app_key_handler
 9009              	.L851:
2718:../app/app.c  **** 	}
2719:../app/app.c  **** 
2720:../app/app.c  **** 	return events;
 9010              		.loc 1 2720 9
 9011 002a 3B68     		ldr	r3, [r7]
 9012              	.L850:
2721:../app/app.c  **** }
 9013              		.loc 1 2721 1
 9014 002c 1846     		mov	r0, r3
 9015 002e 0837     		adds	r7, r7, #8
 9016              		.cfi_def_cfa_offset 8
 9017 0030 BD46     		mov	sp, r7
 9018              		.cfi_def_cfa_register 13
 9019              		@ sp needed
 9020 0032 80BD     		pop	{r7, pc}
 9021              	.L853:
 9022              		.align	2
 9023              	.L852:
 9024 0034 00000000 		.word	app_id
 9025 0038 00000000 		.word	keyinfo
 9026              		.cfi_endproc
 9027              	.LFE186:
 9029              		.section	.bss.sta.8840,"aw",%nobits
 9032              	sta.8840:
 9033 0000 00       		.space	1
 9034              		.section	.bss.sta.8857,"aw",%nobits
 9037              	sta.8857:
 9038 0000 00       		.space	1
 9039              		.section	.bss.sta.8874,"aw",%nobits
 9042              	sta.8874:
 9043 0000 00       		.space	1
 9044              		.section	.bss.sta.8889,"aw",%nobits
 9047              	sta.8889:
 9048 0000 00       		.space	1
 9049              		.section	.bss.sta.8902,"aw",%nobits
 9052              	sta.8902:
 9053 0000 00       		.space	1
 9054              		.section	.bss.sta.8916,"aw",%nobits
 9057              	sta.8916:
 9058 0000 00       		.space	1
 9059              		.section	.bss.sta.8927,"aw",%nobits
 9062              	sta.8927:
 9063 0000 00       		.space	1
 9064              		.text
 9065              	.Letext0:
 9066              		.file 2 "d:\\project\\coffee\\ide\\tools\\gnu tools arm embedded\\xpack-arm-none-eabi-gcc\\9.2.1-1
 9067              		.file 3 "d:\\project\\coffee\\ide\\tools\\gnu tools arm embedded\\xpack-arm-none-eabi-gcc\\9.2.1-1
 9068              		.file 4 "d:\\project\\coffee\\ide\\tools\\gnu tools arm embedded\\xpack-arm-none-eabi-gcc\\9.2.1-1
 9069              		.file 5 "d:\\project\\coffee\\ide\\tools\\gnu tools arm embedded\\xpack-arm-none-eabi-gcc\\9.2.1-1
 9070              		.file 6 "d:\\project\\coffee\\ide\\tools\\gnu tools arm embedded\\xpack-arm-none-eabi-gcc\\9.2.1-1
 9071              		.file 7 "d:\\project\\coffee\\ide\\tools\\gnu tools arm embedded\\xpack-arm-none-eabi-gcc\\9.2.1-1
 9072              		.file 8 "../Firmware/CMSIS/core_cm4.h"
 9073              		.file 9 "../Firmware/CMSIS/GD/GD32F30x/Include/system_gd32f30x.h"
 9074              		.file 10 "../Firmware/CMSIS/GD/GD32F30x/Include/gd32f30x.h"
 9075              		.file 11 "../Firmware/GD32F30x_standard_peripheral/Include/gd32f30x_gpio.h"
 9076              		.file 12 "../osal/os_lyh_core.h"
 9077              		.file 13 "../app/keyboard.h"
 9078              		.file 14 "../app/acmotor.h"
 9079              		.file 15 "../app/dcmotor.h"
 9080              		.file 16 "../app/display.h"
 9081              		.file 17 "../app/usart.h"
 9082              		.file 18 "../app/heat.h"
 9083              		.file 19 "../app/adc.h"
 9084              		.file 20 "../Firmware/GD32F30x_standard_peripheral/Include/gd32f30x_dbg.h"
 9085              		.file 21 "../app/app.h"
 9086              		.file 22 "../app/bus.h"
 9087              		.file 23 "../app/relay.h"
DEFINED SYMBOLS
                            *ABS*:00000000 app.c
                            *COM*:00000001 app_id
                            *COM*:00000001 app_task_step
                            *COM*:00000001 app_task_substep
                            *COM*:00000003 manual_setup
                            *COM*:00000002 run_max_time
                            *COM*:00000001 Buzzer_times
                            *COM*:00000001 Leds_loop_run
                            *COM*:00000001 cup_loop
                            *COM*:00000001 turn_off_flag
                            *COM*:00000001 flush_flag
                            *COM*:00000001 CERRNT_STATE
                            *COM*:00000002 drop_beans_time
C:\Users\user001\AppData\Local\Temp\ccduU4Yl.s:28     .text.app_virtual_croszero_cbfunc:00000000 $t
C:\Users\user001\AppData\Local\Temp\ccduU4Yl.s:36     .text.app_virtual_croszero_cbfunc:00000000 app_virtual_croszero_cbfunc
C:\Users\user001\AppData\Local\Temp\ccduU4Yl.s:71     .text.app_virtual_croszero_cbfunc:00000034 $d
C:\Users\user001\AppData\Local\Temp\ccduU4Yl.s:77     .text.app_buzon_cbfunc:00000000 $t
C:\Users\user001\AppData\Local\Temp\ccduU4Yl.s:84     .text.app_buzon_cbfunc:00000000 app_buzon_cbfunc
C:\Users\user001\AppData\Local\Temp\ccduU4Yl.s:125    .text.app_buzon_cbfunc:0000002c $d
C:\Users\user001\AppData\Local\Temp\ccduU4Yl.s:138    .text.app_buzoff_cbfunc:00000000 app_buzoff_cbfunc
C:\Users\user001\AppData\Local\Temp\ccduU4Yl.s:131    .text.app_buzoff_cbfunc:00000000 $t
C:\Users\user001\AppData\Local\Temp\ccduU4Yl.s:164    .text.app_buzoff_cbfunc:00000018 $d
C:\Users\user001\AppData\Local\Temp\ccduU4Yl.s:169    .text.app_buzzer_on:00000000 $t
C:\Users\user001\AppData\Local\Temp\ccduU4Yl.s:176    .text.app_buzzer_on:00000000 app_buzzer_on
C:\Users\user001\AppData\Local\Temp\ccduU4Yl.s:229    .text.app_buzzer_on:0000003c $d
C:\Users\user001\AppData\Local\Temp\ccduU4Yl.s:235    .text.app_resource_init:00000000 $t
C:\Users\user001\AppData\Local\Temp\ccduU4Yl.s:242    .text.app_resource_init:00000000 app_resource_init
C:\Users\user001\AppData\Local\Temp\ccduU4Yl.s:267    .text.app_resource_init:00000018 $d
C:\Users\user001\AppData\Local\Temp\ccduU4Yl.s:278    .text.app_resource_init:00000044 $t
C:\Users\user001\AppData\Local\Temp\ccduU4Yl.s:297    .text.app_resource_free:00000000 $t
C:\Users\user001\AppData\Local\Temp\ccduU4Yl.s:304    .text.app_resource_free:00000000 app_resource_free
C:\Users\user001\AppData\Local\Temp\ccduU4Yl.s:329    .text.app_resource_free:00000018 $d
C:\Users\user001\AppData\Local\Temp\ccduU4Yl.s:340    .text.app_resource_free:00000044 $t
C:\Users\user001\AppData\Local\Temp\ccduU4Yl.s:363    .text.app_task_nextstep:00000000 $t
C:\Users\user001\AppData\Local\Temp\ccduU4Yl.s:370    .text.app_task_nextstep:00000000 app_task_nextstep
C:\Users\user001\AppData\Local\Temp\ccduU4Yl.s:422    .text.app_task_nextstep:00000040 $d
C:\Users\user001\AppData\Local\Temp\ccduU4Yl.s:429    .text.app_task_nextsubstep:00000000 $t
C:\Users\user001\AppData\Local\Temp\ccduU4Yl.s:436    .text.app_task_nextsubstep:00000000 app_task_nextsubstep
C:\Users\user001\AppData\Local\Temp\ccduU4Yl.s:472    .text.app_task_nextsubstep:00000024 $d
C:\Users\user001\AppData\Local\Temp\ccduU4Yl.s:478    .text.app_water_ready:00000000 $t
C:\Users\user001\AppData\Local\Temp\ccduU4Yl.s:485    .text.app_water_ready:00000000 app_water_ready
C:\Users\user001\AppData\Local\Temp\ccduU4Yl.s:517    .text.app_water_ready:0000001c $d
C:\Users\user001\AppData\Local\Temp\ccduU4Yl.s:522    .text.app_pallet_ready:00000000 $t
C:\Users\user001\AppData\Local\Temp\ccduU4Yl.s:529    .text.app_pallet_ready:00000000 app_pallet_ready
C:\Users\user001\AppData\Local\Temp\ccduU4Yl.s:561    .text.app_pallet_ready:0000001c $d
C:\Users\user001\AppData\Local\Temp\ccduU4Yl.s:566    .text.app_meter_ready:00000000 $t
C:\Users\user001\AppData\Local\Temp\ccduU4Yl.s:573    .text.app_meter_ready:00000000 app_meter_ready
C:\Users\user001\AppData\Local\Temp\ccduU4Yl.s:605    .text.app_meter_ready:0000001c $d
C:\Users\user001\AppData\Local\Temp\ccduU4Yl.s:610    .text.app_motor_ready:00000000 $t
C:\Users\user001\AppData\Local\Temp\ccduU4Yl.s:617    .text.app_motor_ready:00000000 app_motor_ready
C:\Users\user001\AppData\Local\Temp\ccduU4Yl.s:652    .text.app_motor_ready:00000020 $d
C:\Users\user001\AppData\Local\Temp\ccduU4Yl.s:657    .text.app_turn_heat_off:00000000 $t
C:\Users\user001\AppData\Local\Temp\ccduU4Yl.s:664    .text.app_turn_heat_off:00000000 app_turn_heat_off
C:\Users\user001\AppData\Local\Temp\ccduU4Yl.s:700    .text.app_turn_heat_off:00000028 $d
C:\Users\user001\AppData\Local\Temp\ccduU4Yl.s:706    .text.app_turn_heat_on:00000000 $t
C:\Users\user001\AppData\Local\Temp\ccduU4Yl.s:713    .text.app_turn_heat_on:00000000 app_turn_heat_on
C:\Users\user001\AppData\Local\Temp\ccduU4Yl.s:759    .text.app_turn_heat_on:00000038 $d
C:\Users\user001\AppData\Local\Temp\ccduU4Yl.s:766    .text.app_temperature_state:00000000 $t
C:\Users\user001\AppData\Local\Temp\ccduU4Yl.s:773    .text.app_temperature_state:00000000 app_temperature_state
C:\Users\user001\AppData\Local\Temp\ccduU4Yl.s:806    .text.app_relay_set:00000000 $t
C:\Users\user001\AppData\Local\Temp\ccduU4Yl.s:813    .text.app_relay_set:00000000 app_relay_set
C:\Users\user001\AppData\Local\Temp\ccduU4Yl.s:857    .text.app_step_state:00000000 $t
C:\Users\user001\AppData\Local\Temp\ccduU4Yl.s:864    .text.app_step_state:00000000 app_step_state
C:\Users\user001\AppData\Local\Temp\ccduU4Yl.s:903    .text.app_step_state:00000024 $d
C:\Users\user001\AppData\Local\Temp\ccduU4Yl.s:908    .text.app_led_heat_cbfunc:00000000 $t
C:\Users\user001\AppData\Local\Temp\ccduU4Yl.s:915    .text.app_led_heat_cbfunc:00000000 app_led_heat_cbfunc
C:\Users\user001\AppData\Local\Temp\ccduU4Yl.s:1007   .text.app_led_heat_cbfunc:00000084 $d
C:\Users\user001\AppData\Local\Temp\ccduU4Yl.s:1014   .text.app_led_show_init:00000000 $t
C:\Users\user001\AppData\Local\Temp\ccduU4Yl.s:1021   .text.app_led_show_init:00000000 app_led_show_init
C:\Users\user001\AppData\Local\Temp\ccduU4Yl.s:1694   .text.app_leds_all_fun:00000000 app_leds_all_fun
C:\Users\user001\AppData\Local\Temp\ccduU4Yl.s:1055   .text.app_led_show_init:00000028 $d
C:\Users\user001\AppData\Local\Temp\ccduU4Yl.s:1061   .text.app_led_start_cbfunc:00000000 $t
C:\Users\user001\AppData\Local\Temp\ccduU4Yl.s:1068   .text.app_led_start_cbfunc:00000000 app_led_start_cbfunc
C:\Users\user001\AppData\Local\Temp\ccduU4Yl.s:1095   .text.app_led_start_cbfunc:0000001c $d
C:\Users\user001\AppData\Local\Temp\ccduU4Yl.s:1100   .text.app_led_start_init:00000000 $t
C:\Users\user001\AppData\Local\Temp\ccduU4Yl.s:1107   .text.app_led_start_init:00000000 app_led_start_init
C:\Users\user001\AppData\Local\Temp\ccduU4Yl.s:1134   .text.app_led_start_init:0000001c $d
C:\Users\user001\AppData\Local\Temp\ccduU4Yl.s:1139   .text.app_led_espresso_cbfunc:00000000 $t
C:\Users\user001\AppData\Local\Temp\ccduU4Yl.s:1146   .text.app_led_espresso_cbfunc:00000000 app_led_espresso_cbfunc
C:\Users\user001\AppData\Local\Temp\ccduU4Yl.s:1192   .text.app_led_espresso_cbfunc:00000038 $d
C:\Users\user001\AppData\Local\Temp\ccduU4Yl.s:1198   .text.app_led_espresso_init:00000000 $t
C:\Users\user001\AppData\Local\Temp\ccduU4Yl.s:1205   .text.app_led_espresso_init:00000000 app_led_espresso_init
C:\Users\user001\AppData\Local\Temp\ccduU4Yl.s:1251   .text.app_led_espresso_init:00000038 $d
C:\Users\user001\AppData\Local\Temp\ccduU4Yl.s:1257   .text.app_led_americano_cbfunc:00000000 $t
C:\Users\user001\AppData\Local\Temp\ccduU4Yl.s:1264   .text.app_led_americano_cbfunc:00000000 app_led_americano_cbfunc
C:\Users\user001\AppData\Local\Temp\ccduU4Yl.s:1310   .text.app_led_americano_cbfunc:00000038 $d
C:\Users\user001\AppData\Local\Temp\ccduU4Yl.s:1316   .text.app_led_americano_init:00000000 $t
C:\Users\user001\AppData\Local\Temp\ccduU4Yl.s:1323   .text.app_led_americano_init:00000000 app_led_americano_init
C:\Users\user001\AppData\Local\Temp\ccduU4Yl.s:1369   .text.app_led_americano_init:00000038 $d
C:\Users\user001\AppData\Local\Temp\ccduU4Yl.s:1375   .text.app_led_hotwater_cbfunc:00000000 $t
C:\Users\user001\AppData\Local\Temp\ccduU4Yl.s:1382   .text.app_led_hotwater_cbfunc:00000000 app_led_hotwater_cbfunc
C:\Users\user001\AppData\Local\Temp\ccduU4Yl.s:1409   .text.app_led_hotwater_cbfunc:0000001c $d
C:\Users\user001\AppData\Local\Temp\ccduU4Yl.s:1414   .text.app_led_hotwater_init:00000000 $t
C:\Users\user001\AppData\Local\Temp\ccduU4Yl.s:1421   .text.app_led_hotwater_init:00000000 app_led_hotwater_init
C:\Users\user001\AppData\Local\Temp\ccduU4Yl.s:1448   .text.app_led_hotwater_init:0000001c $d
C:\Users\user001\AppData\Local\Temp\ccduU4Yl.s:1453   .text.app_led_steam_cbfunc:00000000 $t
C:\Users\user001\AppData\Local\Temp\ccduU4Yl.s:1460   .text.app_led_steam_cbfunc:00000000 app_led_steam_cbfunc
C:\Users\user001\AppData\Local\Temp\ccduU4Yl.s:1487   .text.app_led_steam_cbfunc:0000001c $d
C:\Users\user001\AppData\Local\Temp\ccduU4Yl.s:1492   .text.app_led_steam_init:00000000 $t
C:\Users\user001\AppData\Local\Temp\ccduU4Yl.s:1499   .text.app_led_steam_init:00000000 app_led_steam_init
C:\Users\user001\AppData\Local\Temp\ccduU4Yl.s:1526   .text.app_led_steam_init:0000001c $d
C:\Users\user001\AppData\Local\Temp\ccduU4Yl.s:1531   .text.app_led_aqua_cbfunc:00000000 $t
C:\Users\user001\AppData\Local\Temp\ccduU4Yl.s:1538   .text.app_led_aqua_cbfunc:00000000 app_led_aqua_cbfunc
C:\Users\user001\AppData\Local\Temp\ccduU4Yl.s:1565   .text.app_led_aqua_cbfunc:0000001c $d
C:\Users\user001\AppData\Local\Temp\ccduU4Yl.s:1570   .text.app_led_aqua_init:00000000 $t
C:\Users\user001\AppData\Local\Temp\ccduU4Yl.s:1577   .text.app_led_aqua_init:00000000 app_led_aqua_init
C:\Users\user001\AppData\Local\Temp\ccduU4Yl.s:1604   .text.app_led_aqua_init:0000001c $d
C:\Users\user001\AppData\Local\Temp\ccduU4Yl.s:1609   .text.app_led_calc_cbfunc:00000000 $t
C:\Users\user001\AppData\Local\Temp\ccduU4Yl.s:1616   .text.app_led_calc_cbfunc:00000000 app_led_calc_cbfunc
C:\Users\user001\AppData\Local\Temp\ccduU4Yl.s:1643   .text.app_led_calc_cbfunc:0000001c $d
C:\Users\user001\AppData\Local\Temp\ccduU4Yl.s:1648   .text.app_led_calc_init:00000000 $t
C:\Users\user001\AppData\Local\Temp\ccduU4Yl.s:1655   .text.app_led_calc_init:00000000 app_led_calc_init
C:\Users\user001\AppData\Local\Temp\ccduU4Yl.s:1682   .text.app_led_calc_init:0000001c $d
C:\Users\user001\AppData\Local\Temp\ccduU4Yl.s:1687   .text.app_leds_all_fun:00000000 $t
C:\Users\user001\AppData\Local\Temp\ccduU4Yl.s:1772   .text.app_leds_all_ind:00000000 $t
C:\Users\user001\AppData\Local\Temp\ccduU4Yl.s:1779   .text.app_leds_all_ind:00000000 app_leds_all_ind
C:\Users\user001\AppData\Local\Temp\ccduU4Yl.s:1842   .text.app_led_oneloop:00000000 $t
C:\Users\user001\AppData\Local\Temp\ccduU4Yl.s:1849   .text.app_led_oneloop:00000000 app_led_oneloop
C:\Users\user001\AppData\Local\Temp\ccduU4Yl.s:1889   .text.app_led_finish_step:00000000 $t
C:\Users\user001\AppData\Local\Temp\ccduU4Yl.s:1896   .text.app_led_finish_step:00000000 app_led_finish_step
C:\Users\user001\AppData\Local\Temp\ccduU4Yl.s:1928   .text.app_onoff_key_deal:00000000 $t
C:\Users\user001\AppData\Local\Temp\ccduU4Yl.s:1935   .text.app_onoff_key_deal:00000000 app_onoff_key_deal
C:\Users\user001\AppData\Local\Temp\ccduU4Yl.s:1995   .text.app_onoff_key_deal:00000040 $d
C:\Users\user001\AppData\Local\Temp\ccduU4Yl.s:2000   .text.app_start_key_deal:00000000 $t
C:\Users\user001\AppData\Local\Temp\ccduU4Yl.s:2007   .text.app_start_key_deal:00000000 app_start_key_deal
C:\Users\user001\AppData\Local\Temp\ccduU4Yl.s:2050   .text.app_start_key_deal:00000038 $d
C:\Users\user001\AppData\Local\Temp\ccduU4Yl.s:2061   .text.app_start_key_deal:00000064 $t
C:\Users\user001\AppData\Local\Temp\ccduU4Yl.s:2159   .text.app_start_key_deal:000000dc $d
C:\Users\user001\AppData\Local\Temp\ccduU4Yl.s:2166   .text.app_hotwater_key_deal:00000000 $t
C:\Users\user001\AppData\Local\Temp\ccduU4Yl.s:2173   .text.app_hotwater_key_deal:00000000 app_hotwater_key_deal
C:\Users\user001\AppData\Local\Temp\ccduU4Yl.s:2232   .text.app_hotwater_key_deal:00000038 $d
C:\Users\user001\AppData\Local\Temp\ccduU4Yl.s:2238   .text.app_espresso_key_deal:00000000 $t
C:\Users\user001\AppData\Local\Temp\ccduU4Yl.s:2245   .text.app_espresso_key_deal:00000000 app_espresso_key_deal
C:\Users\user001\AppData\Local\Temp\ccduU4Yl.s:2344   .text.app_espresso_key_deal:0000007c $d
C:\Users\user001\AppData\Local\Temp\ccduU4Yl.s:2351   .text.app_steam_key_deal:00000000 $t
C:\Users\user001\AppData\Local\Temp\ccduU4Yl.s:2358   .text.app_steam_key_deal:00000000 app_steam_key_deal
C:\Users\user001\AppData\Local\Temp\ccduU4Yl.s:2417   .text.app_steam_key_deal:00000038 $d
C:\Users\user001\AppData\Local\Temp\ccduU4Yl.s:2423   .text.app_ame_key_deal:00000000 $t
C:\Users\user001\AppData\Local\Temp\ccduU4Yl.s:2430   .text.app_ame_key_deal:00000000 app_ame_key_deal
C:\Users\user001\AppData\Local\Temp\ccduU4Yl.s:2529   .text.app_ame_key_deal:0000007c $d
C:\Users\user001\AppData\Local\Temp\ccduU4Yl.s:2536   .text.app_coffee_key_deal:00000000 $t
C:\Users\user001\AppData\Local\Temp\ccduU4Yl.s:2543   .text.app_coffee_key_deal:00000000 app_coffee_key_deal
C:\Users\user001\AppData\Local\Temp\ccduU4Yl.s:2653   .text.app_coffee_key_deal:00000084 $d
C:\Users\user001\AppData\Local\Temp\ccduU4Yl.s:2660   .text.app_water_key_deal:00000000 $t
C:\Users\user001\AppData\Local\Temp\ccduU4Yl.s:2667   .text.app_water_key_deal:00000000 app_water_key_deal
C:\Users\user001\AppData\Local\Temp\ccduU4Yl.s:2789   .text.app_water_key_deal:000000a0 $d
C:\Users\user001\AppData\Local\Temp\ccduU4Yl.s:2796   .text.app_calc_key_deal:00000000 $t
C:\Users\user001\AppData\Local\Temp\ccduU4Yl.s:2803   .text.app_calc_key_deal:00000000 app_calc_key_deal
C:\Users\user001\AppData\Local\Temp\ccduU4Yl.s:2862   .text.app_calc_key_deal:00000038 $d
C:\Users\user001\AppData\Local\Temp\ccduU4Yl.s:2868   .text.app_aqua_key_deal:00000000 $t
C:\Users\user001\AppData\Local\Temp\ccduU4Yl.s:2875   .text.app_aqua_key_deal:00000000 app_aqua_key_deal
C:\Users\user001\AppData\Local\Temp\ccduU4Yl.s:2934   .text.app_aqua_key_deal:00000038 $d
C:\Users\user001\AppData\Local\Temp\ccduU4Yl.s:2940   .text.app_pad_key_deal:00000000 $t
C:\Users\user001\AppData\Local\Temp\ccduU4Yl.s:2947   .text.app_pad_key_deal:00000000 app_pad_key_deal
C:\Users\user001\AppData\Local\Temp\ccduU4Yl.s:2977   .text.app_pad_key_deal:00000014 $d
C:\Users\user001\AppData\Local\Temp\ccduU4Yl.s:2982   .text.app_key_handler:00000000 $t
C:\Users\user001\AppData\Local\Temp\ccduU4Yl.s:2989   .text.app_key_handler:00000000 app_key_handler
C:\Users\user001\AppData\Local\Temp\ccduU4Yl.s:3241   .text.app_init_handler:00000000 $t
C:\Users\user001\AppData\Local\Temp\ccduU4Yl.s:3248   .text.app_init_handler:00000000 app_init_handler
C:\Users\user001\AppData\Local\Temp\ccduU4Yl.s:3312   .text.app_init_handler:0000004c $d
C:\Users\user001\AppData\Local\Temp\ccduU4Yl.s:3318   .text.app_idle_handler:00000000 $t
C:\Users\user001\AppData\Local\Temp\ccduU4Yl.s:3325   .text.app_idle_handler:00000000 app_idle_handler
C:\Users\user001\AppData\Local\Temp\ccduU4Yl.s:3370   .text.app_idle_handler:00000030 $d
C:\Users\user001\AppData\Local\Temp\ccduU4Yl.s:3375   .text.app_startup_handler:00000000 $t
C:\Users\user001\AppData\Local\Temp\ccduU4Yl.s:3382   .text.app_startup_handler:00000000 app_startup_handler
C:\Users\user001\AppData\Local\Temp\ccduU4Yl.s:3403   .text.app_startup_handler:00000014 $d
C:\Users\user001\AppData\Local\Temp\ccduU4Yl.s:3420   .text.app_startup_handler:00000058 $t
C:\Users\user001\AppData\Local\Temp\ccduU4Yl.s:3870   .text.app_startup_handler:000002fc $d
C:\Users\user001\AppData\Local\Temp\ccduU4Yl.s:3874   .text.app_startup_handler:00000304 $t
C:\Users\user001\AppData\Local\Temp\ccduU4Yl.s:3952   .text.app_startup_handler:00000378 $d
C:\Users\user001\AppData\Local\Temp\ccduU4Yl.s:3957   .text.app_normal_handler:00000000 $t
C:\Users\user001\AppData\Local\Temp\ccduU4Yl.s:3964   .text.app_normal_handler:00000000 app_normal_handler
C:\Users\user001\AppData\Local\Temp\ccduU4Yl.s:3985   .text.app_normal_handler:00000014 $d
C:\Users\user001\AppData\Local\Temp\ccduU4Yl.s:3998   .text.app_normal_handler:00000048 $t
C:\Users\user001\AppData\Local\Temp\ccduU4Yl.s:4217   .text.app_normal_handler:000001ac $d
C:\Users\user001\AppData\Local\Temp\ccduU4Yl.s:4223   .text.app_espresso_handler:00000000 $t
C:\Users\user001\AppData\Local\Temp\ccduU4Yl.s:4230   .text.app_espresso_handler:00000000 app_espresso_handler
C:\Users\user001\AppData\Local\Temp\ccduU4Yl.s:4251   .text.app_espresso_handler:00000014 $d
C:\Users\user001\AppData\Local\Temp\ccduU4Yl.s:4272   .text.app_espresso_handler:00000068 $t
C:\Users\user001\AppData\Local\Temp\ccduU4Yl.s:4708   .text.app_espresso_handler:000002fc $d
C:\Users\user001\AppData\Local\Temp\ccduU4Yl.s:4715   .text.app_espresso_handler:00000310 $t
C:\Users\user001\AppData\Local\Temp\ccduU4Yl.s:4926   .text.app_espresso_handler:0000043c $d
C:\Users\user001\AppData\Local\Temp\ccduU4Yl.s:4935   .text.app_american_handler:00000000 $t
C:\Users\user001\AppData\Local\Temp\ccduU4Yl.s:4942   .text.app_american_handler:00000000 app_american_handler
C:\Users\user001\AppData\Local\Temp\ccduU4Yl.s:4963   .text.app_american_handler:00000014 $d
C:\Users\user001\AppData\Local\Temp\ccduU4Yl.s:4997   .text.app_american_handler:0000009c $t
C:\Users\user001\AppData\Local\Temp\ccduU4Yl.s:5398   .text.app_american_handler:000002fc $d
C:\Users\user001\AppData\Local\Temp\ccduU4Yl.s:5405   .text.app_american_handler:00000310 $t
C:\Users\user001\AppData\Local\Temp\ccduU4Yl.s:5871   .text.app_american_handler:000005c4 $d
C:\Users\user001\AppData\Local\Temp\ccduU4Yl.s:5881   .text.app_american_handler:000005e4 $t
C:\Users\user001\AppData\Local\Temp\ccduU4Yl.s:6012   .text.app_american_handler:00000698 $d
C:\Users\user001\AppData\Local\Temp\ccduU4Yl.s:6020   .text.app_hotwater_handler:00000000 $t
C:\Users\user001\AppData\Local\Temp\ccduU4Yl.s:6027   .text.app_hotwater_handler:00000000 app_hotwater_handler
C:\Users\user001\AppData\Local\Temp\ccduU4Yl.s:6048   .text.app_hotwater_handler:00000014 $d
C:\Users\user001\AppData\Local\Temp\ccduU4Yl.s:6054   .text.app_hotwater_handler:0000002c $t
C:\Users\user001\AppData\Local\Temp\ccduU4Yl.s:6214   .text.app_hotwater_handler:00000118 $d
C:\Users\user001\AppData\Local\Temp\ccduU4Yl.s:6222   .text.app_steam_handler:00000000 $t
C:\Users\user001\AppData\Local\Temp\ccduU4Yl.s:6229   .text.app_steam_handler:00000000 app_steam_handler
C:\Users\user001\AppData\Local\Temp\ccduU4Yl.s:6276   .text.app_steam_handler:00000034 $d
C:\Users\user001\AppData\Local\Temp\ccduU4Yl.s:6281   .text.app_aqua_handler:00000000 $t
C:\Users\user001\AppData\Local\Temp\ccduU4Yl.s:6288   .text.app_aqua_handler:00000000 app_aqua_handler
C:\Users\user001\AppData\Local\Temp\ccduU4Yl.s:6335   .text.app_aqua_handler:00000034 $d
C:\Users\user001\AppData\Local\Temp\ccduU4Yl.s:6340   .text.app_calc_handler:00000000 $t
C:\Users\user001\AppData\Local\Temp\ccduU4Yl.s:6347   .text.app_calc_handler:00000000 app_calc_handler
C:\Users\user001\AppData\Local\Temp\ccduU4Yl.s:6394   .text.app_calc_handler:00000034 $d
C:\Users\user001\AppData\Local\Temp\ccduU4Yl.s:6399   .text.app_setup_handler:00000000 $t
C:\Users\user001\AppData\Local\Temp\ccduU4Yl.s:6406   .text.app_setup_handler:00000000 app_setup_handler
C:\Users\user001\AppData\Local\Temp\ccduU4Yl.s:6427   .text.app_setup_handler:00000014 $d
C:\Users\user001\AppData\Local\Temp\ccduU4Yl.s:6435   .text.app_setup_handler:00000034 $t
C:\Users\user001\AppData\Local\Temp\ccduU4Yl.s:6664   .text.app_setup_handler:00000178 $d
C:\Users\user001\AppData\Local\Temp\ccduU4Yl.s:6670   .text.app_running_onoff_grind_handler:00000000 $t
C:\Users\user001\AppData\Local\Temp\ccduU4Yl.s:6677   .text.app_running_onoff_grind_handler:00000000 app_running_onoff_grind_handler
C:\Users\user001\AppData\Local\Temp\ccduU4Yl.s:6698   .text.app_running_onoff_grind_handler:00000014 $d
C:\Users\user001\AppData\Local\Temp\ccduU4Yl.s:6709   .text.app_running_onoff_grind_handler:00000040 $t
C:\Users\user001\AppData\Local\Temp\ccduU4Yl.s:6959   .text.app_running_onoff_grind_handler:000001ac $d
C:\Users\user001\AppData\Local\Temp\ccduU4Yl.s:9032   .bss.sta.8840:00000000 sta.8840
C:\Users\user001\AppData\Local\Temp\ccduU4Yl.s:6965   .text.app_running_onoff_go_water_handler:00000000 $t
C:\Users\user001\AppData\Local\Temp\ccduU4Yl.s:6972   .text.app_running_onoff_go_water_handler:00000000 app_running_onoff_go_water_handler
C:\Users\user001\AppData\Local\Temp\ccduU4Yl.s:6993   .text.app_running_onoff_go_water_handler:00000014 $d
C:\Users\user001\AppData\Local\Temp\ccduU4Yl.s:7004   .text.app_running_onoff_go_water_handler:00000040 $t
C:\Users\user001\AppData\Local\Temp\ccduU4Yl.s:7252   .text.app_running_onoff_go_water_handler:000001ac $d
C:\Users\user001\AppData\Local\Temp\ccduU4Yl.s:9037   .bss.sta.8857:00000000 sta.8857
C:\Users\user001\AppData\Local\Temp\ccduU4Yl.s:7258   .text.app_running_onoff_pre_brew_handler:00000000 $t
C:\Users\user001\AppData\Local\Temp\ccduU4Yl.s:7265   .text.app_running_onoff_pre_brew_handler:00000000 app_running_onoff_pre_brew_handler
C:\Users\user001\AppData\Local\Temp\ccduU4Yl.s:7286   .text.app_running_onoff_pre_brew_handler:00000014 $d
C:\Users\user001\AppData\Local\Temp\ccduU4Yl.s:7295   .text.app_running_onoff_pre_brew_handler:00000038 $t
C:\Users\user001\AppData\Local\Temp\ccduU4Yl.s:7484   .text.app_running_onoff_pre_brew_handler:0000014c $d
C:\Users\user001\AppData\Local\Temp\ccduU4Yl.s:9042   .bss.sta.8874:00000000 sta.8874
C:\Users\user001\AppData\Local\Temp\ccduU4Yl.s:7490   .text.app_running_onoff_brew_handler:00000000 $t
C:\Users\user001\AppData\Local\Temp\ccduU4Yl.s:7497   .text.app_running_onoff_brew_handler:00000000 app_running_onoff_brew_handler
C:\Users\user001\AppData\Local\Temp\ccduU4Yl.s:7518   .text.app_running_onoff_brew_handler:00000014 $d
C:\Users\user001\AppData\Local\Temp\ccduU4Yl.s:7525   .text.app_running_onoff_brew_handler:00000030 $t
C:\Users\user001\AppData\Local\Temp\ccduU4Yl.s:7689   .text.app_running_onoff_brew_handler:0000011c $d
C:\Users\user001\AppData\Local\Temp\ccduU4Yl.s:9047   .bss.sta.8889:00000000 sta.8889
C:\Users\user001\AppData\Local\Temp\ccduU4Yl.s:7695   .text.app_running_onoff_drop_beans_handler:00000000 $t
C:\Users\user001\AppData\Local\Temp\ccduU4Yl.s:7702   .text.app_running_onoff_drop_beans_handler:00000000 app_running_onoff_drop_beans_handler
C:\Users\user001\AppData\Local\Temp\ccduU4Yl.s:7723   .text.app_running_onoff_drop_beans_handler:00000014 $d
C:\Users\user001\AppData\Local\Temp\ccduU4Yl.s:7731   .text.app_running_onoff_drop_beans_handler:00000034 $t
C:\Users\user001\AppData\Local\Temp\ccduU4Yl.s:7929   .text.app_running_onoff_drop_beans_handler:00000144 $d
C:\Users\user001\AppData\Local\Temp\ccduU4Yl.s:9052   .bss.sta.8902:00000000 sta.8902
C:\Users\user001\AppData\Local\Temp\ccduU4Yl.s:7936   .text.app_running_onoff_rst_handler:00000000 $t
C:\Users\user001\AppData\Local\Temp\ccduU4Yl.s:7943   .text.app_running_onoff_rst_handler:00000000 app_running_onoff_rst_handler
C:\Users\user001\AppData\Local\Temp\ccduU4Yl.s:7964   .text.app_running_onoff_rst_handler:00000014 $d
C:\Users\user001\AppData\Local\Temp\ccduU4Yl.s:7969   .text.app_running_onoff_rst_handler:00000028 $t
C:\Users\user001\AppData\Local\Temp\ccduU4Yl.s:8105   .text.app_running_onoff_rst_handler:000000e0 $d
C:\Users\user001\AppData\Local\Temp\ccduU4Yl.s:9057   .bss.sta.8916:00000000 sta.8916
C:\Users\user001\AppData\Local\Temp\ccduU4Yl.s:8111   .text.app_running_onoff_flush_handler:00000000 $t
C:\Users\user001\AppData\Local\Temp\ccduU4Yl.s:8118   .text.app_running_onoff_flush_handler:00000000 app_running_onoff_flush_handler
C:\Users\user001\AppData\Local\Temp\ccduU4Yl.s:8139   .text.app_running_onoff_flush_handler:00000014 $d
C:\Users\user001\AppData\Local\Temp\ccduU4Yl.s:8152   .text.app_running_onoff_flush_handler:00000048 $t
C:\Users\user001\AppData\Local\Temp\ccduU4Yl.s:8495   .text.app_running_onoff_flush_handler:00000240 $d
C:\Users\user001\AppData\Local\Temp\ccduU4Yl.s:9062   .bss.sta.8927:00000000 sta.8927
C:\Users\user001\AppData\Local\Temp\ccduU4Yl.s:8501   .text.app_running_onoff_handler:00000000 $t
C:\Users\user001\AppData\Local\Temp\ccduU4Yl.s:8508   .text.app_running_onoff_handler:00000000 app_running_onoff_handler
C:\Users\user001\AppData\Local\Temp\ccduU4Yl.s:8529   .text.app_running_onoff_handler:00000014 $d
C:\Users\user001\AppData\Local\Temp\ccduU4Yl.s:8538   .text.app_running_onoff_handler:00000038 $t
C:\Users\user001\AppData\Local\Temp\ccduU4Yl.s:8555   .text.app_running_onoff_handler:00000054 $d
C:\Users\user001\AppData\Local\Temp\ccduU4Yl.s:8562   .text.app_running_onoff_handler:00000070 $t
C:\Users\user001\AppData\Local\Temp\ccduU4Yl.s:8784   .text.app_running_onoff_handler:00000184 $d
C:\Users\user001\AppData\Local\Temp\ccduU4Yl.s:8793   .text.init_app_task:00000000 $t
C:\Users\user001\AppData\Local\Temp\ccduU4Yl.s:8800   .text.init_app_task:00000000 init_app_task
C:\Users\user001\AppData\Local\Temp\ccduU4Yl.s:8842   .text.init_app_task:00000028 $d
C:\Users\user001\AppData\Local\Temp\ccduU4Yl.s:8849   .text.app_task_handler:00000000 $t
C:\Users\user001\AppData\Local\Temp\ccduU4Yl.s:8856   .text.app_task_handler:00000000 app_task_handler
C:\Users\user001\AppData\Local\Temp\ccduU4Yl.s:8877   .text.app_task_handler:00000014 $d
C:\Users\user001\AppData\Local\Temp\ccduU4Yl.s:8889   .text.app_task_handler:00000044 $t
C:\Users\user001\AppData\Local\Temp\ccduU4Yl.s:8960   .text.app_task_handler:00000094 $d
C:\Users\user001\AppData\Local\Temp\ccduU4Yl.s:8965   .text.app_event_handler:00000000 $t
C:\Users\user001\AppData\Local\Temp\ccduU4Yl.s:8972   .text.app_event_handler:00000000 app_event_handler
C:\Users\user001\AppData\Local\Temp\ccduU4Yl.s:9024   .text.app_event_handler:00000034 $d
C:\Users\user001\AppData\Local\Temp\ccduU4Yl.s:9033   .bss.sta.8840:00000000 $d
C:\Users\user001\AppData\Local\Temp\ccduU4Yl.s:9038   .bss.sta.8857:00000000 $d
C:\Users\user001\AppData\Local\Temp\ccduU4Yl.s:9043   .bss.sta.8874:00000000 $d
C:\Users\user001\AppData\Local\Temp\ccduU4Yl.s:9048   .bss.sta.8889:00000000 $d
C:\Users\user001\AppData\Local\Temp\ccduU4Yl.s:9053   .bss.sta.8902:00000000 $d
C:\Users\user001\AppData\Local\Temp\ccduU4Yl.s:9058   .bss.sta.8916:00000000 $d
C:\Users\user001\AppData\Local\Temp\ccduU4Yl.s:9063   .bss.sta.8927:00000000 $d
                           .group:00000000 wm4.0.0b2cbd0a579afdcbc37120f4ceb86892
                           .group:00000000 wm4._newlib_version.h.4.9ba035841e762c3308916a0ce96032e7
                           .group:00000000 wm4.newlib.h.18.ac66930cc5dc086504ebba5cc05ab7f1
                           .group:00000000 wm4.ieeefp.h.77.d5685ba212d3ed6e914898d045f873e3
                           .group:00000000 wm4.features.h.22.fad1cec3bc7ff06488171438dbdcfd02
                           .group:00000000 wm4.config.h.220.6cac6a9685cfce5e83c17784171638d9
                           .group:00000000 wm4._ansi.h.31.de524f58584151836e90d8620a16f8e8
                           .group:00000000 wm4.stddef.h.39.144cf5ddcd53cbfdac30259dc1a6c87f
                           .group:00000000 wm4._default_types.h.6.959254cf5f09734ea7516c89e8bb21bd
                           .group:00000000 wm4.lock.h.2.1461d1fff82dffe8bfddc23307f6484f
                           .group:00000000 wm4._types.h.125.5cf8a495f1f7ef36777ad868a1e32068
                           .group:00000000 wm4.stddef.h.155.3588ebfdd1e8c7ede80509bb9c3b8009
                           .group:00000000 wm4._types.h.184.03611d4f6b5bec9997bcf4279eceba07
                           .group:00000000 wm4.reent.h.17.90c2574d4acdcfce933db5cb09ff35fe
                           .group:00000000 wm4.cdefs.h.49.6260d97adb8d27534cbdc0f868b8ea87
                           .group:00000000 wm4.string.h.15.dab3980bf35408a4c507182805e2de3a
                           .group:00000000 wm4.stddef.h.155.ba788add86a0e365f264484f110c3c29
                           .group:00000000 wm4.gd32f30x.h.39.a203e36f89dbb1753b66e1e665732b11
                           .group:00000000 wm4.core_cm4.h.47.434d5634a5df7142236685d6945e71d7
                           .group:00000000 wm4._intsup.h.10.cce27fed8484c08a33f522034c30d2b5
                           .group:00000000 wm4._stdint.h.10.c24fa3af3bc1706662bb5593a907e841
                           .group:00000000 wm4.stdint.h.23.d53047a68f4a85177f80b422d52785ed
                           .group:00000000 wm4.core_cmInstr.h.25.d8165482ef3061013a2fc83e2d85f3d9
                           .group:00000000 wm4.core_cm4_simd.h.43.bf657009d9c246d6ac6e7b120cdd899a
                           .group:00000000 wm4.core_cm4.h.196.6f0a9ac4bbc7fecc10f22e6a71f29e52
                           .group:00000000 wm4.system_gd32f30x.h.38.120525a84dcd3d76a4734e6bcde7b49c
                           .group:00000000 wm4.gd32f30x.h.294.5e6753de52124d3e3ab34f8aafd628cc
                           .group:00000000 wm4.gd32f30x_rcu.h.41.eb7011467c51e1274d4ea5dfbe3b7403
                           .group:00000000 wm4.gd32f30x_adc.h.36.124b47377c29d63ea85a6515ff99e7d0
                           .group:00000000 wm4.gd32f30x_can.h.36.85eb2b9bdffce148e9f2cf53e35a47f8
                           .group:00000000 wm4.gd32f30x_crc.h.36.3e50e7397bf79ecca0d280169ab2b7e1
                           .group:00000000 wm4.gd32f30x_ctc.h.36.42aeab0e42f8a7b6cc58608cdc08a712
                           .group:00000000 wm4.gd32f30x_dac.h.36.f867e713911fc6770d5f38223b88a122
                           .group:00000000 wm4.gd32f30x_dbg.h.36.4d3777753862ded915f1f9e71f4c290a
                           .group:00000000 wm4.gd32f30x_dma.h.36.00aa3536820feed4ebeab0c0060e7723
                           .group:00000000 wm4.gd32f30x_exti.h.36.64affc4e75ae7f53393e90b0bfc38f38
                           .group:00000000 wm4.gd32f30x_fmc.h.37.17b3f65aacec1755989aca30031b6a7c
                           .group:00000000 wm4.gd32f30x_fwdgt.h.36.1e7c1bfe259ede52150f5b1c58591a95
                           .group:00000000 wm4.gd32f30x_gpio.h.36.faffc48a681d1163918cf519d3cc7454
                           .group:00000000 wm4.gd32f30x_i2c.h.36.5765e4fd7e67145781f52c3602fdf526
                           .group:00000000 wm4.gd32f30x_pmu.h.37.9dd0def5d1159a6e20d49fadc0da3d91
                           .group:00000000 wm4.gd32f30x_bkp.h.36.74dcfa31c344ae6ddc6f3a850e1b1f1c
                           .group:00000000 wm4.gd32f30x_rtc.h.37.6e2dc4b1c1143d8443b19d8b8578e187
                           .group:00000000 wm4.gd32f30x_sdio.h.36.6dde0ac1ffebc8ac87750ca48ebf5355
                           .group:00000000 wm4.gd32f30x_spi.h.36.761dbcfdf151612384a2a7e1dfbd70a2
                           .group:00000000 wm4.gd32f30x_timer.h.36.aa3a076608594e31d0be360d6248cd0c
                           .group:00000000 wm4.gd32f30x_usart.h.36.c16033d6419d9317c5e1d5c9a4db894a
                           .group:00000000 wm4.gd32f30x_wwdgt.h.37.074fc90df4806e0bcba242ad61cb154f
                           .group:00000000 wm4.gd32f30x_misc.h.36.ca5ec56efc9d42fdcdbc33fa419c4320
                           .group:00000000 wm4.gd32f30x_enet.h.36.7f39b2eaaae239e349e809a8bdf838ed
                           .group:00000000 wm4.gd32f30x_exmc.h.36.6a5eb51a45aba96edb0f318836bccfc7
                           .group:00000000 wm4.os_lyh_config.h.10.bc2c4655df284899727d3a1ab69fe55d
                           .group:00000000 wm4.os_msg.h.10.a94e4ae0955bd46ca3a4d1a43d60b65d
                           .group:00000000 wm4.os_lyh_core.h.21.da159c9c8e09d857b8c2a987141693aa
                           .group:00000000 wm4.configboard.h.3.5d7999deb151db360ef411cbf30581d9
                           .group:00000000 wm4.keyboard.h.3.89e82c2c5604c80a5d29f84b207feee3
                           .group:00000000 wm4.acmotor.h.19.e32e17b82447380c9631c8ecb160ec50
                           .group:00000000 wm4.dcmotor.h.2.f0e751b97a118431bbabf05c3c943b2b
                           .group:00000000 wm4.display.h.19.4afe06d8dfd6c2f3df25f7cc51049b44
                           .group:00000000 wm4.timer.h.19.a82f4ede3cad5645e78e3c71f10c984d
                           .group:00000000 wm4.usart.h.19.b0b7cc356d4f06c8ed965d5c47dabfa0
                           .group:00000000 wm4.heat.h.3.e369736d2e46d50970c9988935448f3e
                           .group:00000000 wm4.adc.h.19.b7b71ccc5b83f495b1d7f2c83649d46d
                           .group:00000000 wm4.app.h.3.bd859777deff3e713c3d9000297b3b02
                           .group:00000000 wm4.bus.h.3.006a12bb937063aa955474032db251cd
                           .group:00000000 wm4.relay.h.2.68d8ff0db7f3799b00c17eb83273c2f3

UNDEFINED SYMBOLS
gpio_output_bit_get
gpio_bit_write
osal_lyh_over_timer
gd_timer_buz
osal_lyh_kill_over_timer
osal_lyh_restore_task
keyinfo
heat_id
eventMap
target_temp
heat_get_temp
Relay2_OFF
Relay2_ON
display_led
display_get_led
osal_lyh_delay_task
display_init
key_prohibit_setup
dc_motor_ClearFault
dc_motor_Start
dc_motor_GetState
dc_motor_Stop
ac_pumb_start
ac_pumb_stop
memset
ac_grind_start
ac_grind_stop
