   1              		.cpu cortex-m4
   2              		.eabi_attribute 20, 1
   3              		.eabi_attribute 21, 1
   4              		.eabi_attribute 23, 3
   5              		.eabi_attribute 24, 1
   6              		.eabi_attribute 25, 1
   7              		.eabi_attribute 26, 1
   8              		.eabi_attribute 30, 6
   9              		.eabi_attribute 34, 1
  10              		.eabi_attribute 18, 4
  11              		.file	"relay.c"
  12              		.text
  13              	.Ltext0:
  14              		.cfi_sections	.debug_frame
  15              		.section	.text.Relay2_ON,"ax",%progbits
  16              		.align	1
  17              		.global	Relay2_ON
  18              		.arch armv7e-m
  19              		.syntax unified
  20              		.thumb
  21              		.thumb_func
  22              		.fpu softvfp
  24              	Relay2_ON:
  25              	.LFB116:
  26              		.file 1 "../app/relay.c"
   1:../app/relay.c **** #include "gd32f30x.h"
   2:../app/relay.c **** #include "os_lyh_core.h"
   3:../app/relay.c **** #include "configboard.h"
   4:../app/relay.c **** 
   5:../app/relay.c **** 
   6:../app/relay.c **** void Relay2_ON(void)
   7:../app/relay.c **** {
  27              		.loc 1 7 1
  28              		.cfi_startproc
  29              		@ args = 0, pretend = 0, frame = 0
  30              		@ frame_needed = 1, uses_anonymous_args = 0
  31 0000 80B5     		push	{r7, lr}
  32              		.cfi_def_cfa_offset 8
  33              		.cfi_offset 7, -8
  34              		.cfi_offset 14, -4
  35 0002 00AF     		add	r7, sp, #0
  36              		.cfi_def_cfa_register 7
   8:../app/relay.c ****     SetRelay2_On();
  37              		.loc 1 8 5
  38 0004 4021     		movs	r1, #64
  39 0006 0248     		ldr	r0, .L2
  40 0008 FFF7FEFF 		bl	gpio_bit_set
   9:../app/relay.c **** }
  41              		.loc 1 9 1
  42 000c 00BF     		nop
  43 000e 80BD     		pop	{r7, pc}
  44              	.L3:
  45              		.align	2
  46              	.L2:
  47 0010 00080140 		.word	1073809408
  48              		.cfi_endproc
  49              	.LFE116:
  51              		.section	.text.Relay2_OFF,"ax",%progbits
  52              		.align	1
  53              		.global	Relay2_OFF
  54              		.syntax unified
  55              		.thumb
  56              		.thumb_func
  57              		.fpu softvfp
  59              	Relay2_OFF:
  60              	.LFB117:
  10:../app/relay.c **** 
  11:../app/relay.c **** void Relay2_OFF(void)
  12:../app/relay.c **** {
  61              		.loc 1 12 1
  62              		.cfi_startproc
  63              		@ args = 0, pretend = 0, frame = 0
  64              		@ frame_needed = 1, uses_anonymous_args = 0
  65 0000 80B5     		push	{r7, lr}
  66              		.cfi_def_cfa_offset 8
  67              		.cfi_offset 7, -8
  68              		.cfi_offset 14, -4
  69 0002 00AF     		add	r7, sp, #0
  70              		.cfi_def_cfa_register 7
  13:../app/relay.c ****     ClrRelay2_Off();
  71              		.loc 1 13 5
  72 0004 4021     		movs	r1, #64
  73 0006 0248     		ldr	r0, .L5
  74 0008 FFF7FEFF 		bl	gpio_bit_reset
  14:../app/relay.c **** }
  75              		.loc 1 14 1
  76 000c 00BF     		nop
  77 000e 80BD     		pop	{r7, pc}
  78              	.L6:
  79              		.align	2
  80              	.L5:
  81 0010 00080140 		.word	1073809408
  82              		.cfi_endproc
  83              	.LFE117:
  85              		.section	.text.Relay2_GPIO_INIT,"ax",%progbits
  86              		.align	1
  87              		.syntax unified
  88              		.thumb
  89              		.thumb_func
  90              		.fpu softvfp
  92              	Relay2_GPIO_INIT:
  93              	.LFB118:
  15:../app/relay.c **** 
  16:../app/relay.c **** static void Relay2_GPIO_INIT(void)
  17:../app/relay.c **** {
  94              		.loc 1 17 1
  95              		.cfi_startproc
  96              		@ args = 0, pretend = 0, frame = 0
  97              		@ frame_needed = 1, uses_anonymous_args = 0
  98 0000 80B5     		push	{r7, lr}
  99              		.cfi_def_cfa_offset 8
 100              		.cfi_offset 7, -8
 101              		.cfi_offset 14, -4
 102 0002 00AF     		add	r7, sp, #0
 103              		.cfi_def_cfa_register 7
  18:../app/relay.c ****     RELAY2_CONFIG();
 104              		.loc 1 18 5
 105 0004 4023     		movs	r3, #64
 106 0006 0122     		movs	r2, #1
 107 0008 1021     		movs	r1, #16
 108 000a 0348     		ldr	r0, .L8
 109 000c FFF7FEFF 		bl	gpio_init
  19:../app/relay.c ****     Relay2_OFF();
 110              		.loc 1 19 5
 111 0010 FFF7FEFF 		bl	Relay2_OFF
  20:../app/relay.c **** }
 112              		.loc 1 20 1
 113 0014 00BF     		nop
 114 0016 80BD     		pop	{r7, pc}
 115              	.L9:
 116              		.align	2
 117              	.L8:
 118 0018 00080140 		.word	1073809408
 119              		.cfi_endproc
 120              	.LFE118:
 122              		.section	.text.gd_realy_init,"ax",%progbits
 123              		.align	1
 124              		.global	gd_realy_init
 125              		.syntax unified
 126              		.thumb
 127              		.thumb_func
 128              		.fpu softvfp
 130              	gd_realy_init:
 131              	.LFB119:
  21:../app/relay.c **** 
  22:../app/relay.c **** void gd_realy_init(void)
  23:../app/relay.c **** {
 132              		.loc 1 23 1
 133              		.cfi_startproc
 134              		@ args = 0, pretend = 0, frame = 0
 135              		@ frame_needed = 1, uses_anonymous_args = 0
 136 0000 80B5     		push	{r7, lr}
 137              		.cfi_def_cfa_offset 8
 138              		.cfi_offset 7, -8
 139              		.cfi_offset 14, -4
 140 0002 00AF     		add	r7, sp, #0
 141              		.cfi_def_cfa_register 7
  24:../app/relay.c ****     Relay2_GPIO_INIT();
 142              		.loc 1 24 5
 143 0004 FFF7FEFF 		bl	Relay2_GPIO_INIT
  25:../app/relay.c **** }
 144              		.loc 1 25 1
 145 0008 00BF     		nop
 146 000a 80BD     		pop	{r7, pc}
 147              		.cfi_endproc
 148              	.LFE119:
 150              		.text
 151              	.Letext0:
 152              		.file 2 "d:\\project\\coffee\\ide\\tools\\gnu tools arm embedded\\xpack-arm-none-eabi-gcc\\9.2.1-1
 153              		.file 3 "d:\\project\\coffee\\ide\\tools\\gnu tools arm embedded\\xpack-arm-none-eabi-gcc\\9.2.1-1
 154              		.file 4 "../Firmware/CMSIS/core_cm4.h"
 155              		.file 5 "../Firmware/CMSIS/GD/GD32F30x/Include/system_gd32f30x.h"
 156              		.file 6 "../osal/os_lyh_core.h"