   1              		.cpu cortex-m4
   2              		.eabi_attribute 20, 1
   3              		.eabi_attribute 21, 1
   4              		.eabi_attribute 23, 3
   5              		.eabi_attribute 24, 1
   6              		.eabi_attribute 25, 1
   7              		.eabi_attribute 26, 1
   8              		.eabi_attribute 30, 6
   9              		.eabi_attribute 34, 1
  10              		.eabi_attribute 18, 4
  11              		.file	"main.c"
  12              		.text
  13              	.Ltext0:
  14              		.cfi_sections	.debug_frame
  15              		.section	.rodata
  16              		.align	2
  17              	.LC0:
  18 0000 0D0A434B 		.ascii	"\015\012CK_SYS is %d\000"
  18      5F535953 
  18      20697320 
  18      256400
  19 000f 00       		.align	2
  20              	.LC1:
  21 0010 0D0A434B 		.ascii	"\015\012CK_AHB is %d\000"
  21      5F414842 
  21      20697320 
  21      256400
  22 001f 00       		.align	2
  23              	.LC2:
  24 0020 0D0A434B 		.ascii	"\015\012CK_APB1 is %d\000"
  24      5F415042 
  24      31206973 
  24      20256400 
  25              		.align	2
  26              	.LC3:
  27 0030 0D0A434B 		.ascii	"\015\012CK_APB2 is %d\000"
  27      5F415042 
  27      32206973 
  27      20256400 
  28              		.align	2
  29              	.LC4:
  30 0040 0D0A4744 		.ascii	"\015\012GD32F30x series firmware version: V%d.%d.%d"
  30      33324633 
  30      30782073 
  30      65726965 
  30      73206669 
  31 006d 0D0A00   		.ascii	"\015\012\000"
  32              		.section	.text.main,"ax",%progbits
  33              		.align	1
  34              		.global	main
  35              		.arch armv7e-m
  36              		.syntax unified
  37              		.thumb
  38              		.thumb_func
  39              		.fpu softvfp
  41              	main:
  42              	.LFB119:
  43              		.file 1 "../src/main.c"
   1:../src/main.c **** /*!
   2:../src/main.c ****     \file    main.c
   3:../src/main.c ****     \brief   led spark with systick, USART print and key example
   4:../src/main.c **** 
   5:../src/main.c ****    \version 2024-12-20, V3.0.1, firmware for GD32F30x
   6:../src/main.c **** */
   7:../src/main.c **** 
   8:../src/main.c **** /*
   9:../src/main.c ****     Copyright (c) 2024, GigaDevice Semiconductor Inc.
  10:../src/main.c **** 
  11:../src/main.c ****     Redistribution and use in source and binary forms, with or without modification, 
  12:../src/main.c **** are permitted provided that the following conditions are met:
  13:../src/main.c **** 
  14:../src/main.c ****     1. Redistributions of source code must retain the above copyright notice, this 
  15:../src/main.c ****        list of conditions and the following disclaimer.
  16:../src/main.c ****     2. Redistributions in binary form must reproduce the above copyright notice, 
  17:../src/main.c ****        this list of conditions and the following disclaimer in the documentation 
  18:../src/main.c ****        and/or other materials provided with the distribution.
  19:../src/main.c ****     3. Neither the name of the copyright holder nor the names of its contributors 
  20:../src/main.c ****        may be used to endorse or promote products derived from this software without 
  21:../src/main.c ****        specific prior written permission.
  22:../src/main.c **** 
  23:../src/main.c ****     THIS SOFTWARE IS PROVIDED BY THE COPYRIGHT HOLDERS AND CONTRIBUTORS "AS IS" 
  24:../src/main.c **** AND ANY EXPRESS OR IMPLIED WARRANTIES, INCLUDING, BUT NOT LIMITED TO, THE IMPLIED 
  25:../src/main.c **** WARRANTIES OF MERCHANTABILITY AND FITNESS FOR A PARTICULAR PURPOSE ARE DISCLAIMED. 
  26:../src/main.c **** IN NO EVENT SHALL THE COPYRIGHT HOLDER OR CONTRIBUTORS BE LIABLE FOR ANY DIRECT, 
  27:../src/main.c **** INDIRECT, INCIDENTAL, SPECIAL, EXEMPLARY, OR CONSEQUENTIAL DAMAGES (INCLUDING, BUT 
  28:../src/main.c **** NOT LIMITED TO, PROCUREMENT OF SUBSTITUTE GOODS OR SERVICES; LOSS OF USE, DATA, OR 
  29:../src/main.c **** PROFITS; OR BUSINESS INTERRUPTION) HOWEVER CAUSED AND ON ANY THEORY OF LIABILITY, 
  30:../src/main.c **** WHETHER IN CONTRACT, STRICT LIABILITY, OR TORT (INCLUDING NEGLIGENCE OR OTHERWISE) 
  31:../src/main.c **** ARISING IN ANY WAY OUT OF THE USE OF THIS SOFTWARE, EVEN IF ADVISED OF THE POSSIBILITY 
  32:../src/main.c **** OF SUCH DAMAGE.
  33:../src/main.c **** */
  34:../src/main.c **** 
  35:../src/main.c **** #include "gd32f30x.h"
  36:../src/main.c **** #include "systick.h"
  37:../src/main.c **** #include <stdio.h>
  38:../src/main.c **** #include "main.h"
  39:../src/main.c **** #include "user_apiopt.h"
  40:../src/main.c **** 
  41:../src/main.c **** /*!
  42:../src/main.c ****     \brief      main function
  43:../src/main.c ****     \param[in]  none
  44:../src/main.c ****     \param[out] none
  45:../src/main.c ****     \retval     none
  46:../src/main.c **** */
  47:../src/main.c **** 
  48:../src/main.c **** int main(void)
  49:../src/main.c **** {
  44              		.loc 1 49 1
  45              		.cfi_startproc
  46              		@ args = 0, pretend = 0, frame = 8
  47              		@ frame_needed = 1, uses_anonymous_args = 0
  48 0000 80B5     		push	{r7, lr}
  49              		.cfi_def_cfa_offset 8
  50              		.cfi_offset 7, -8
  51              		.cfi_offset 14, -4
  52 0002 82B0     		sub	sp, sp, #8
  53              		.cfi_def_cfa_offset 16
  54 0004 00AF     		add	r7, sp, #0
  55              		.cfi_def_cfa_register 7
  50:../src/main.c **** #ifdef __FIRMWARE_VERSION_DEFINE
  51:../src/main.c ****     uint32_t fw_ver = 0;
  56              		.loc 1 51 14
  57 0006 0023     		movs	r3, #0
  58 0008 7B60     		str	r3, [r7, #4]
  52:../src/main.c **** #endif
  53:../src/main.c ****     /* configure systick */
  54:../src/main.c ****     systick_config();
  59              		.loc 1 54 5
  60 000a FFF7FEFF 		bl	systick_config
  55:../src/main.c ****     /* Initialize all peripherals */
  56:../src/main.c ****     gd_remap_Init();
  61              		.loc 1 56 5
  62 000e FFF7FEFF 		bl	gd_remap_Init
  57:../src/main.c ****     gd_gpio_Init();
  63              		.loc 1 57 5
  64 0012 FFF7FEFF 		bl	gd_gpio_Init
  58:../src/main.c ****     /* motor init */
  59:../src/main.c ****     gd_acmotor_Init();
  65              		.loc 1 59 5
  66 0016 FFF7FEFF 		bl	gd_acmotor_Init
  60:../src/main.c ****     gd_dcmotor_Init();
  67              		.loc 1 60 5
  68 001a FFF7FEFF 		bl	gd_dcmotor_Init
  61:../src/main.c ****     /* configure com */
  62:../src/main.c ****     gd_usart_Init();
  69              		.loc 1 62 5
  70 001e FFF7FEFF 		bl	gd_usart_Init
  63:../src/main.c ****     /* init ext. interrupt */
  64:../src/main.c ****     gd_exti_Init();
  71              		.loc 1 64 5
  72 0022 FFF7FEFF 		bl	gd_exti_Init
  65:../src/main.c ****     /* init timer  */
  66:../src/main.c ****     gd_timer_Init();
  73              		.loc 1 66 5
  74 0026 FFF7FEFF 		bl	gd_timer_Init
  67:../src/main.c ****     /* init adc  */
  68:../src/main.c ****     gd_adc_Init();
  75              		.loc 1 68 5
  76 002a FFF7FEFF 		bl	gd_adc_Init
  69:../src/main.c ****     /* init watchdog */
  70:../src/main.c ****     gd_watchdog_init();
  77              		.loc 1 70 5
  78 002e FFF7FEFF 		bl	gd_watchdog_init
  71:../src/main.c ****     /* print out the clock frequency of system, AHB, APB1 and APB2 */
  72:../src/main.c ****     printf("\r\nCK_SYS is %d", rcu_clock_freq_get(CK_SYS));
  79              		.loc 1 72 5
  80 0032 0020     		movs	r0, #0
  81 0034 FFF7FEFF 		bl	rcu_clock_freq_get
  82 0038 0346     		mov	r3, r0
  83 003a 1946     		mov	r1, r3
  84 003c 2148     		ldr	r0, .L3
  85 003e FFF7FEFF 		bl	printf
  73:../src/main.c ****     printf("\r\nCK_AHB is %d", rcu_clock_freq_get(CK_AHB));
  86              		.loc 1 73 5
  87 0042 0120     		movs	r0, #1
  88 0044 FFF7FEFF 		bl	rcu_clock_freq_get
  89 0048 0346     		mov	r3, r0
  90 004a 1946     		mov	r1, r3
  91 004c 1E48     		ldr	r0, .L3+4
  92 004e FFF7FEFF 		bl	printf
  74:../src/main.c ****     printf("\r\nCK_APB1 is %d", rcu_clock_freq_get(CK_APB1));
  93              		.loc 1 74 5
  94 0052 0220     		movs	r0, #2
  95 0054 FFF7FEFF 		bl	rcu_clock_freq_get
  96 0058 0346     		mov	r3, r0
  97 005a 1946     		mov	r1, r3
  98 005c 1B48     		ldr	r0, .L3+8
  99 005e FFF7FEFF 		bl	printf
  75:../src/main.c ****     printf("\r\nCK_APB2 is %d", rcu_clock_freq_get(CK_APB2));
 100              		.loc 1 75 5
 101 0062 0320     		movs	r0, #3
 102 0064 FFF7FEFF 		bl	rcu_clock_freq_get
 103 0068 0346     		mov	r3, r0
 104 006a 1946     		mov	r1, r3
 105 006c 1848     		ldr	r0, .L3+12
 106 006e FFF7FEFF 		bl	printf
  76:../src/main.c **** #ifdef __FIRMWARE_VERSION_DEFINE
  77:../src/main.c ****     fw_ver = gd32f30x_firmware_version_get();
 107              		.loc 1 77 14
 108 0072 FFF7FEFF 		bl	gd32f30x_firmware_version_get
 109 0076 7860     		str	r0, [r7, #4]
  78:../src/main.c ****     /* print firmware version */
  79:../src/main.c ****     printf("\r\nGD32F30x series firmware version: V%d.%d.%d\r\n", (uint8_t)(fw_ver >> 24), (uint8_t
 110              		.loc 1 79 84
 111 0078 7B68     		ldr	r3, [r7, #4]
 112 007a 1B0E     		lsrs	r3, r3, #24
 113              		.loc 1 79 67
 114 007c DBB2     		uxtb	r3, r3
 115              		.loc 1 79 5
 116 007e 1946     		mov	r1, r3
 117              		.loc 1 79 109
 118 0080 7B68     		ldr	r3, [r7, #4]
 119 0082 1B0C     		lsrs	r3, r3, #16
 120              		.loc 1 79 92
 121 0084 DBB2     		uxtb	r3, r3
 122              		.loc 1 79 5
 123 0086 1A46     		mov	r2, r3
 124              		.loc 1 79 134
 125 0088 7B68     		ldr	r3, [r7, #4]
 126 008a 1B0A     		lsrs	r3, r3, #8
 127              		.loc 1 79 117
 128 008c DBB2     		uxtb	r3, r3
 129              		.loc 1 79 5
 130 008e 1148     		ldr	r0, .L3+16
 131 0090 FFF7FEFF 		bl	printf
  80:../src/main.c **** #endif /* __FIRMWARE_VERSION_DEFINE */
  81:../src/main.c ****   //while (1)
  82:../src/main.c ****   {
  83:../src/main.c ****     /* USER CODE END WHILE */
  84:../src/main.c ****     osal_lyh_core_init();
 132              		.loc 1 84 5
 133 0094 FFF7FEFF 		bl	osal_lyh_core_init
  85:../src/main.c ****     osal_create_task(init_key_task, key_task_handler, key_event_handler);
 134              		.loc 1 85 5
 135 0098 0F4A     		ldr	r2, .L3+20
 136 009a 1049     		ldr	r1, .L3+24
 137 009c 1048     		ldr	r0, .L3+28
 138 009e FFF7FEFF 		bl	osal_create_task
  86:../src/main.c ****     osal_create_task(init_bus_task, bus_task_handler, bus_event_handler);
 139              		.loc 1 86 5
 140 00a2 104A     		ldr	r2, .L3+32
 141 00a4 1049     		ldr	r1, .L3+36
 142 00a6 1148     		ldr	r0, .L3+40
 143 00a8 FFF7FEFF 		bl	osal_create_task
  87:../src/main.c ****     osal_create_task(init_app_task, app_task_handler, app_event_handler);
 144              		.loc 1 87 5
 145 00ac 104A     		ldr	r2, .L3+44
 146 00ae 1149     		ldr	r1, .L3+48
 147 00b0 1148     		ldr	r0, .L3+52
 148 00b2 FFF7FEFF 		bl	osal_create_task
  88:../src/main.c ****     //osal_create_task(init_test_task, test_task_handler, test_event_handler);
  89:../src/main.c ****     osal_start_system();
 149              		.loc 1 89 5
 150 00b6 FFF7FEFF 		bl	osal_start_system
 151 00ba 0023     		movs	r3, #0
  90:../src/main.c ****     /* USER CODE BEGIN 3 */
  91:../src/main.c ****   }
  92:../src/main.c **** }
 152              		.loc 1 92 1
 153 00bc 1846     		mov	r0, r3
 154 00be 0837     		adds	r7, r7, #8
 155              		.cfi_def_cfa_offset 8
 156 00c0 BD46     		mov	sp, r7
 157              		.cfi_def_cfa_register 13
 158              		@ sp needed
 159 00c2 80BD     		pop	{r7, pc}
 160              	.L4:
 161              		.align	2
 162              	.L3:
 163 00c4 00000000 		.word	.LC0
 164 00c8 10000000 		.word	.LC1
 165 00cc 20000000 		.word	.LC2
 166 00d0 30000000 		.word	.LC3
 167 00d4 40000000 		.word	.LC4
 168 00d8 00000000 		.word	key_event_handler
 169 00dc 00000000 		.word	key_task_handler
 170 00e0 00000000 		.word	init_key_task
 171 00e4 00000000 		.word	bus_event_handler
 172 00e8 00000000 		.word	bus_task_handler
 173 00ec 00000000 		.word	init_bus_task
 174 00f0 00000000 		.word	app_event_handler
 175 00f4 00000000 		.word	app_task_handler
 176 00f8 00000000 		.word	init_app_task
 177              		.cfi_endproc
 178              	.LFE119:
 180              		.section	.text.__io_putchar,"ax",%progbits
 181              		.align	1
 182              		.global	__io_putchar
 183              		.syntax unified
 184              		.thumb
 185              		.thumb_func
 186              		.fpu softvfp
 188              	__io_putchar:
 189              	.LFB120:
  93:../src/main.c **** 
  94:../src/main.c **** #ifdef GD_ECLIPSE_GCC
  95:../src/main.c **** /* retarget the C library printf function to the USART, in Eclipse GCC environment */
  96:../src/main.c **** int __io_putchar(int ch)
  97:../src/main.c **** {
 190              		.loc 1 97 1
 191              		.cfi_startproc
 192              		@ args = 0, pretend = 0, frame = 16
 193              		@ frame_needed = 1, uses_anonymous_args = 0
 194 0000 80B5     		push	{r7, lr}
 195              		.cfi_def_cfa_offset 8
 196              		.cfi_offset 7, -8
 197              		.cfi_offset 14, -4
 198 0002 84B0     		sub	sp, sp, #16
 199              		.cfi_def_cfa_offset 24
 200 0004 00AF     		add	r7, sp, #0
 201              		.cfi_def_cfa_register 7
 202 0006 7860     		str	r0, [r7, #4]
  98:../src/main.c ****     uint8_t txdata = (uint8_t)ch;
 203              		.loc 1 98 22
 204 0008 7B68     		ldr	r3, [r7, #4]
 205 000a DBB2     		uxtb	r3, r3
 206              		.loc 1 98 13
 207 000c FB73     		strb	r3, [r7, #15]
  99:../src/main.c ****     gd_usart1_upload(&txdata, 1);
 208              		.loc 1 99 5
 209 000e 07F10F03 		add	r3, r7, #15
 210 0012 0121     		movs	r1, #1
 211 0014 1846     		mov	r0, r3
 212 0016 FFF7FEFF 		bl	gd_usart1_upload
 100:../src/main.c ****     return ch;
 213              		.loc 1 100 12
 214 001a 7B68     		ldr	r3, [r7, #4]
 101:../src/main.c **** }
 215              		.loc 1 101 1
 216 001c 1846     		mov	r0, r3
 217 001e 1037     		adds	r7, r7, #16
 218              		.cfi_def_cfa_offset 8
 219 0020 BD46     		mov	sp, r7
 220              		.cfi_def_cfa_register 13
 221              		@ sp needed
 222 0022 80BD     		pop	{r7, pc}
 223              		.cfi_endproc
 224              	.LFE120:
 226              		.section	.text.gd_watchdog_init,"ax",%progbits
 227              		.align	1
 228              		.global	gd_watchdog_init
 229              		.syntax unified
 230              		.thumb
 231              		.thumb_func
 232              		.fpu softvfp
 234              	gd_watchdog_init:
 235              	.LFB121:
 102:../src/main.c **** #else
 103:../src/main.c **** /* retarget the C library printf function to the USART */
 104:../src/main.c **** int fputc(int ch, FILE *f)
 105:../src/main.c **** {
 106:../src/main.c ****     uint8_t txdata = (uint8_t)ch;
 107:../src/main.c ****     gd_usart1_upload(&txdata, 1);
 108:../src/main.c ****     return ch;
 109:../src/main.c **** }
 110:../src/main.c **** #endif /* GD_ECLIPSE_GCC */
 111:../src/main.c **** 
 112:../src/main.c **** /**
 113:../src/main.c ****   * @brief  Initialize independent watchdog (FWDGT) for system monitoring
 114:../src/main.c ****   * @param  None
 115:../src/main.c ****   * @retval None
 116:../src/main.c ****   */
 117:../src/main.c **** void gd_watchdog_init(void)
 118:../src/main.c **** {
 236              		.loc 1 118 1
 237              		.cfi_startproc
 238              		@ args = 0, pretend = 0, frame = 0
 239              		@ frame_needed = 1, uses_anonymous_args = 0
 240 0000 80B5     		push	{r7, lr}
 241              		.cfi_def_cfa_offset 8
 242              		.cfi_offset 7, -8
 243              		.cfi_offset 14, -4
 244 0002 00AF     		add	r7, sp, #0
 245              		.cfi_def_cfa_register 7
 119:../src/main.c ****     /* Enable write access to FWDGT registers */
 120:../src/main.c ****     fwdgt_write_enable();
 246              		.loc 1 120 5
 247 0004 FFF7FEFF 		bl	fwdgt_write_enable
 121:../src/main.c ****     
 122:../src/main.c ****     /* Configure watchdog: 40kHz / 256 = 156.25Hz, reload = 0x0FFF -> ~26 seconds */
 123:../src/main.c ****     fwdgt_config(0xFFF, FWDGT_PSC_DIV256);
 248              		.loc 1 123 5
 249 0008 0621     		movs	r1, #6
 250 000a 40F6FF70 		movw	r0, #4095
 251 000e FFF7FEFF 		bl	fwdgt_config
 124:../src/main.c ****     
 125:../src/main.c ****     /* Start watchdog */
 126:../src/main.c ****     fwdgt_enable();
 252              		.loc 1 126 5
 253 0012 FFF7FEFF 		bl	fwdgt_enable
 127:../src/main.c ****     
 128:../src/main.c ****     /* Lock registers */
 129:../src/main.c ****     fwdgt_write_disable();
 254              		.loc 1 129 5
 255 0016 FFF7FEFF 		bl	fwdgt_write_disable
 130:../src/main.c **** }
 256              		.loc 1 130 1
 257 001a 00BF     		nop
 258 001c 80BD     		pop	{r7, pc}
 259              		.cfi_endproc
 260              	.LFE121:
 262              		.text
 263              	.Letext0:
 264              		.file 2 "d:\\project\\coffee\\ide\\tools\\gnu tools arm embedded\\xpack-arm-none-eabi-gcc\\9.2.1-1
 265              		.file 3 "d:\\project\\coffee\\ide\\tools\\gnu tools arm embedded\\xpack-arm-none-eabi-gcc\\9.2.1-1
 266              		.file 4 "../Firmware/CMSIS/core_cm4.h"
 267              		.file 5 "../Firmware/CMSIS/GD/GD32F30x/Include/system_gd32f30x.h"
 268              		.file 6 "../inc/systick.h"
 269              		.file 7 "d:\\project\\coffee\\ide\\tools\\gnu tools arm embedded\\xpack-arm-none-eabi-gcc\\9.2.1-1
 270              		.file 8 "d:\\project\\coffee\\ide\\tools\\gnu tools arm embedded\\xpack-arm-none-eabi-gcc\\9.2.1-1
 271              		.file 9 "d:\\project\\coffee\\ide\\tools\\gnu tools arm embedded\\xpack-arm-none-eabi-gcc\\9.2.1-1
 272              		.file 10 "d:\\project\\coffee\\ide\\tools\\gnu tools arm embedded\\xpack-arm-none-eabi-gcc\\9.2.1-
 273              		.file 11 "../osal/os_lyh_core.h"
 274              		.file 12 "../app/keyboard.h"
 275              		.file 13 "../app/acmotor.h"
 276              		.file 14 "../app/display.h"
 277              		.file 15 "../app/usart.h"
 278              		.file 16 "../app/adc.h"
 279              		.file 17 "../app/app.h"
 280              		.file 18 "../app/bus.h"
 281              		.file 19 "../Firmware/GD32F30x_standard_peripheral/Include/gd32f30x_rcu.h"